

Microchip MPLAB XC8 Assembler V2.36 build 20220127204148 
                                                                                               Sat Aug 27 12:09:41 2022

Microchip MPLAB XC8 C Compiler v2.36 (Free license) build 20220127204148 Og1 
     1                           	processor	18F25K50
     2                           	fnconf	rparam,??,?,0
     3                           	pagewidth 120
     4                           	opt	flic
     5                           	psect	smallconst,global,reloc=2,class=SMALLCONST,delta=1,noexec
     6                           	psect	cinit,global,reloc=2,class=CODE,delta=1
     7                           	psect	bssCOMRAM,global,class=COMRAM,space=1,delta=1,lowdata,noexec
     8                           	psect	bssBANK0,global,class=BANK0,space=1,delta=1,lowdata,noexec
     9                           	psect	bssBANK1,global,class=BANK1,space=1,delta=1,lowdata,noexec
    10                           	psect	cstackBANK0,global,class=BANK0,space=1,delta=1,lowdata,noexec
    11                           	psect	cstackCOMRAM,global,class=COMRAM,space=1,delta=1,lowdata,noexec
    12                           	psect	text0,global,reloc=2,class=CODE,delta=1
    13                           	psect	text1,global,reloc=2,class=CODE,delta=1
    14                           	psect	text2,global,reloc=2,class=CODE,delta=1
    15                           	psect	text3,global,reloc=2,class=CODE,delta=1,group=2
    16                           	psect	text4,global,reloc=2,class=CODE,delta=1
    17                           	psect	text5,global,reloc=2,class=CODE,delta=1
    18                           	psect	text6,global,reloc=2,class=CODE,delta=1
    19                           	psect	text7,global,reloc=2,class=CODE,delta=1
    20                           	psect	text8,global,reloc=2,class=CODE,delta=1
    21                           	psect	text9,global,reloc=2,class=CODE,delta=1
    22                           	psect	text10,global,reloc=2,class=CODE,delta=1
    23                           	psect	text11,global,reloc=2,class=CODE,delta=1
    24                           	psect	text12,global,reloc=2,class=CODE,delta=1
    25                           	psect	text13,global,reloc=2,class=CODE,delta=1
    26                           	psect	text14,global,reloc=2,class=CODE,delta=1
    27                           	psect	text15,global,reloc=2,class=CODE,delta=1
    28                           	psect	text16,global,reloc=2,class=CODE,delta=1
    29                           	psect	text17,global,reloc=2,class=CODE,delta=1
    30                           	psect	text18,global,reloc=2,class=CODE,delta=1
    31                           	psect	intcode,global,reloc=2,class=CODE,delta=1
    32                           	psect	text20,global,reloc=2,class=CODE,delta=1
    33                           	psect	text21,global,reloc=2,class=CODE,delta=1
    34                           	psect	text22,global,reloc=2,class=CODE,delta=1
    35                           	psect	text23,global,reloc=2,class=CODE,delta=1
    36                           	psect	text24,global,reloc=2,class=CODE,delta=1
    37                           	psect	text25,global,reloc=2,class=CODE,delta=1
    38                           	psect	text26,global,reloc=2,class=CODE,delta=1
    39                           	psect	text27,global,reloc=2,class=CODE,delta=1,group=2
    40                           	psect	text28,global,reloc=2,class=CODE,delta=1
    41                           	psect	text29,global,reloc=2,class=CODE,delta=1
    42                           	psect	text30,global,reloc=2,class=CODE,delta=1
    43                           	psect	text31,global,reloc=2,class=CODE,delta=1
    44                           	psect	text32,global,reloc=2,class=CODE,delta=1
    45                           	psect	text33,global,reloc=2,class=CODE,delta=1
    46                           	psect	text34,global,reloc=2,class=CODE,delta=1
    47                           	psect	text35,global,reloc=2,class=CODE,delta=1
    48                           	psect	text36,global,reloc=2,class=CODE,delta=1
    49                           	psect	text37,global,reloc=2,class=CODE,delta=1
    50                           	psect	text38,global,reloc=2,class=CODE,delta=1
    51                           	psect	text39,global,reloc=2,class=CODE,delta=1
    52                           	psect	text40,global,reloc=2,class=CODE,delta=1
    53                           	psect	text41,global,reloc=2,class=CODE,delta=1
    54                           	psect	text42,global,reloc=2,class=CODE,delta=1
    55                           	psect	text43,global,reloc=2,class=CODE,delta=1
    56                           	psect	text44,global,reloc=2,class=CODE,delta=1
    57                           	psect	text45,global,reloc=2,class=CODE,delta=1
    58                           	psect	text46,global,reloc=2,class=CODE,delta=1
    59                           	psect	text47,global,reloc=2,class=CODE,delta=1
    60                           	psect	intsave_regs,global,class=BIGRAM,space=1,delta=1,noexec
    61                           	psect	rparam,global,class=COMRAM,space=1,delta=1,noexec
    62                           	psect	temp,global,ovrld,common,class=COMRAM,space=1,delta=1
    63                           	psect	idloc,global,abs,ovrld,class=IDLOC,space=5,delta=1,noexec
    64                           	psect	config,global,abs,ovrld,class=CONFIG,space=4,delta=1,noexec
    65                           	dabs	1,0x400,48,_BDT
    66                           	dabs	1,0x500,64,_cdc_data_tx
    67                           	dabs	1,0x438,8,_CtrlTrfData
    68                           	dabs	1,0x430,8,_SetupPkt
    69                           	dabs	1,0x540,64,_cdc_data_rx
    70  0000                     
    71                           ; Version 2.35
    72                           ; Generated 05/05/2021 GMT
    73                           ; 
    74                           ; Copyright © 2021, Microchip Technology Inc. and its subsidiaries ("Microchip")
    75                           ; All rights reserved.
    76                           ; 
    77                           ; This software is developed by Microchip Technology Inc. and its subsidiaries ("Microch
      +                          ip").
    78                           ; 
    79                           ; Redistribution and use in source and binary forms, with or without modification, are
    80                           ; permitted provided that the following conditions are met:
    81                           ; 
    82                           ;     1. Redistributions of source code must retain the above copyright notice, this lis
      +                          t of
    83                           ;        conditions and the following disclaimer.
    84                           ; 
    85                           ;     2. Redistributions in binary form must reproduce the above copyright notice, this 
      +                          list
    86                           ;        of conditions and the following disclaimer in the documentation and/or other
    87                           ;        materials provided with the distribution. Publication is not required when
    88                           ;        this file is used in an embedded application.
    89                           ; 
    90                           ;     3. Microchip's name may not be used to endorse or promote products derived from th
      +                          is
    91                           ;        software without specific prior written permission.
    92                           ; 
    93                           ; THIS SOFTWARE IS PROVIDED BY MICROCHIP "AS IS" AND ANY EXPRESS OR IMPLIED WARRANTIES,
    94                           ; INCLUDING, BUT NOT LIMITED TO, THE IMPLIED WARRANTIES OF MERCHANTABILITY AND FITNESS F
      +                          OR
    95                           ; PURPOSE ARE DISCLAIMED.  IN NO EVENT SHALL MICROCHIP BE LIABLE FOR ANY DIRECT, INDIREC
      +                          T,
    96                           ; INCIDENTAL, SPECIAL, EXEMPLARY, OR CONSEQUENTIAL DAMAGES (INCLUDING BUT NOT LIMITED TO
    97                           ; PROCUREMENT OF SUBSTITUTE GOODS OR SERVICES; LOSS OF USE, DATA OR PROFITS; OR BUSINESS
    98                           ; INTERRUPTION) HOWSOEVER CAUSED AND ON ANY THEORY OF LIABILITY, WHETHER IN CONTRACT, ST
      +                          RICT
    99                           ; LIABILITY, OR TORT (INCLUDING NEGLIGENCE OR OTHERWISE) ARISING IN ANY WAY OUT OF THE U
      +                          SE OF
   100                           ; THIS SOFTWARE, EVEN IF ADVISED OF THE POSSIBILITY OF SUCH DAMAGE.
   101                           ; 
   102                           ; 
   103                           ; Code-generator required, PIC18F25K50 Definitions
   104                           ; 
   105                           ; SFR Addresses
   106  0000                     
   107                           	psect	smallconst
   108  000800                     __psmallconst:
   109                           	callstack 0
   110  000800  00                 	db	0
   111  000801                     _USB_SD_Ptr:
   112                           	callstack 0
   113  000801  A8                 	db	low _sd000
   114  000802  08                 	db	high _sd000
   115  000803  4C                 	db	low _sd001
   116  000804  08                 	db	high _sd001
   117  000805  80                 	db	low _sd002
   118  000806  08                 	db	high _sd002
   119  000807                     __end_of_USB_SD_Ptr:
   120                           	callstack 0
   121  000807                     _USB_CD_Ptr:
   122                           	callstack 0
   123  000807  09                 	db	low _configDescriptor1
   124  000808  08                 	db	high _configDescriptor1
   125  000809                     __end_of_USB_CD_Ptr:
   126                           	callstack 0
   127  000809                     _configDescriptor1:
   128                           	callstack 0
   129  000809  09                 	db	9
   130  00080A  02                 	db	2
   131  00080B  43                 	db	67
   132  00080C  00                 	db	0
   133  00080D  02                 	db	2
   134  00080E  01                 	db	1
   135  00080F  00                 	db	0
   136  000810  C0                 	db	192
   137  000811  32                 	db	50
   138  000812  09                 	db	9
   139  000813  04                 	db	4
   140  000814  00                 	db	0
   141  000815  00                 	db	0
   142  000816  01                 	db	1
   143  000817  02                 	db	2
   144  000818  02                 	db	2
   145  000819  01                 	db	1
   146  00081A  00                 	db	0
   147  00081B  05                 	db	5
   148  00081C  24                 	db	36
   149  00081D  00                 	db	0
   150  00081E  10                 	db	16
   151  00081F  01                 	db	1
   152  000820  04                 	db	4
   153  000821  24                 	db	36
   154  000822  02                 	db	2
   155  000823  02                 	db	2
   156  000824  05                 	db	5
   157  000825  24                 	db	36
   158  000826  06                 	db	6
   159  000827  00                 	db	0
   160  000828  01                 	db	1
   161  000829  05                 	db	5
   162  00082A  24                 	db	36
   163  00082B  01                 	db	1
   164  00082C  00                 	db	0
   165  00082D  01                 	db	1
   166  00082E  07                 	db	7
   167  00082F  05                 	db	5
   168  000830  81                 	db	129
   169  000831  03                 	db	3
   170  000832  0A                 	db	10
   171  000833  00                 	db	0
   172  000834  02                 	db	2
   173  000835  09                 	db	9
   174  000836  04                 	db	4
   175  000837  01                 	db	1
   176  000838  00                 	db	0
   177  000839  02                 	db	2
   178  00083A  0A                 	db	10
   179  00083B  00                 	db	0
   180  00083C  00                 	db	0
   181  00083D  00                 	db	0
   182  00083E  07                 	db	7
   183  00083F  05                 	db	5
   184  000840  02                 	db	2
   185  000841  02                 	db	2
   186  000842  40                 	db	64
   187  000843  00                 	db	0
   188  000844  00                 	db	0
   189  000845  07                 	db	7
   190  000846  05                 	db	5
   191  000847  82                 	db	130
   192  000848  02                 	db	2
   193  000849  40                 	db	64
   194  00084A  00                 	db	0
   195  00084B  00                 	db	0
   196  00084C                     __end_of_configDescriptor1:
   197                           	callstack 0
   198  00084C                     _sd001:
   199                           	callstack 0
   200  00084C  34                 	db	52
   201  00084D  03                 	db	3
   202  00084E  004D               	dw	77
   203  000850  0069               	dw	105
   204  000852  0063               	dw	99
   205  000854  0072               	dw	114
   206  000856  006F               	dw	111
   207  000858  0063               	dw	99
   208  00085A  0068               	dw	104
   209  00085C  0069               	dw	105
   210  00085E  0070               	dw	112
   211  000860  0020               	dw	32
   212  000862  0054               	dw	84
   213  000864  0065               	dw	101
   214  000866  0063               	dw	99
   215  000868  0068               	dw	104
   216  00086A  006E               	dw	110
   217  00086C  006F               	dw	111
   218  00086E  006C               	dw	108
   219  000870  006F               	dw	111
   220  000872  0067               	dw	103
   221  000874  0079               	dw	121
   222  000876  0020               	dw	32
   223  000878  0049               	dw	73
   224  00087A  006E               	dw	110
   225  00087C  0063               	dw	99
   226  00087E  002E               	dw	46
   227  000880                     __end_of_sd001:
   228                           	callstack 0
   229  000880                     _sd002:
   230                           	callstack 0
   231  000880  16                 	db	22
   232  000881  03                 	db	3
   233  000882  0042               	dw	66
   234  000884  006F               	dw	111
   235  000886  0062               	dw	98
   236  000888  0069               	dw	105
   237  00088A  006E               	dw	110
   238  00088C  0061               	dw	97
   239  00088E  0064               	dw	100
   240  000890  006F               	dw	111
   241  000892  0072               	dw	114
   242  000894  0061               	dw	97
   243  000896                     __end_of_sd002:
   244                           	callstack 0
   245  000896                     _device_dsc:
   246                           	callstack 0
   247  000896  12                 	db	18
   248  000897  01                 	db	1
   249  000898  0200               	dw	512
   250  00089A  02                 	db	2
   251  00089B  00                 	db	0
   252  00089C  00                 	db	0
   253  00089D  08                 	db	8
   254  00089E  04D8               	dw	1240
   255  0008A0  000A               	dw	10
   256  0008A2  0100               	dw	256
   257  0008A4  01                 	db	1
   258  0008A5  02                 	db	2
   259  0008A6  00                 	db	0
   260  0008A7  01                 	db	1
   261  0008A8                     __end_of_device_dsc:
   262                           	callstack 0
   263  0008A8                     _sd000:
   264                           	callstack 0
   265  0008A8  04                 	db	4
   266  0008A9  03                 	db	3
   267  0008AA  0409               	dw	1033
   268  0008AC                     __end_of_sd000:
   269                           	callstack 0
   270  0000                     _CCPR2H	set	3985
   271  0000                     _EEDATA	set	4008
   272  0000                     _EEADR	set	4009
   273  0000                     _EECON2	set	4007
   274  0000                     _EECON1bits	set	4006
   275  0000                     _ADCON0	set	4034
   276  0000                     _ADRESL	set	4035
   277  0000                     _T1CON	set	4045
   278  0000                     _TMR1L	set	4046
   279  0000                     _TMR1H	set	4047
   280  0000                     _T3CON	set	4017
   281  0000                     _TMR3L	set	4018
   282  0000                     _TMR3H	set	4019
   283  0000                     _T3GCON	set	4020
   284  0000                     _ACTCON	set	4021
   285  0000                     _RCONbits	set	4048
   286  0000                     _IPR3bits	set	4005
   287  0000                     _USTAT	set	3937
   288  0000                     _PIR3bits	set	4004
   289  0000                     _UADDR	set	3939
   290  0000                     _UIE	set	3940
   291  0000                     _UEIE	set	3942
   292  0000                     _TMR1	set	4046
   293  0000                     _TMR3	set	4018
   294  0000                     _ADCON0bits	set	4034
   295  0000                     _T0CONbits	set	4053
   296  0000                     _T1GCONbits	set	4044
   297  0000                     _T1CONbits	set	4045
   298  0000                     _T2CONbits	set	4026
   299  0000                     _T3GCONbits	set	4020
   300  0000                     _T3CONbits	set	4017
   301  0000                     _UEP0bits	set	3946
   302  0000                     _UCON	set	3936
   303  0000                     _UIEbits	set	3940
   304  0000                     _UIRbits	set	3941
   305  0000                     _PLLRDY	set	32407
   306  0000                     _CCPTMRSbits	set	3929
   307  0000                     _ANSELA	set	3931
   308  0000                     _ANSELB	set	3932
   309  0000                     _ANSELC	set	3933
   310  0000                     _UCONbits	set	3936
   311  0000                     _UCFG	set	3938
   312  0000                     _UIR	set	3941
   313  0000                     _UEIR	set	3943
   314  0000                     _PIE3bits	set	4003
   315  0000                     _UEP0	set	3946
   316  0000                     _WPUB	set	3973
   317  0000                     _LATA	set	3977
   318  0000                     _OSCTUNE	set	3995
   319  0000                     _UEP1	set	3947
   320  0000                     _OSCCON2	set	4050
   321  0000                     _OSCCON	set	4051
   322  0000                     _INTCONbits	set	4082
   323  0000                     _TABLAT	set	4085
   324  0000                     _TBLPTRL	set	4086
   325  0000                     _TBLPTRH	set	4087
   326  0000                     _TBLPTRU	set	4088
   327  0000                     _T0CON	set	4053
   328  0000                     _TMR0L	set	4054
   329  0000                     _TMR0H	set	4055
   330  0000                     _PIR1bits	set	3998
   331  0000                     _PIR2bits	set	4001
   332  0000                     _T2CON	set	4026
   333  0000                     _PR2	set	4027
   334  0000                     _ADCON2	set	4032
   335  0000                     _ADCON1	set	4033
   336  0000                     _T1GCON	set	4044
   337  0000                     _TMR2	set	4028
   338  0000                     _INTCON2bits	set	4081
   339  0000                     _ADRESH	set	4036
   340  0000                     _CCPR2L	set	3984
   341  0000                     _TRISA	set	3986
   342  0000                     _LATC	set	3979
   343  0000                     _LATB	set	3978
   344  0000                     _CCP2CON	set	3991
   345  0000                     _TRISC	set	3988
   346  0000                     _TRISB	set	3987
   347  0008AC  00                 	db	0	; dummy byte at the end
   348  0000                     
   349                           ; #config settings
   350                           
   351                           	psect	cinit
   352  002A7C                     __pcinit:
   353                           	callstack 0
   354  002A7C                     start_initialization:
   355                           	callstack 0
   356  002A7C                     __initialization:
   357                           	callstack 0
   358                           
   359                           ; Clear objects allocated to BANK1 (64 bytes)
   360  002A7C  EE01  F000         	lfsr	0,__pbssBANK1
   361  002A80  0E40               	movlw	64
   362  002A82                     clear_0:
   363  002A82  6AEE               	clrf	postinc0,c
   364  002A84  06E8               	decf	wreg,f,c
   365  002A86  E1FD               	bnz	clear_0
   366                           
   367                           ; Clear objects allocated to BANK0 (136 bytes)
   368  002A88  EE00  F060         	lfsr	0,__pbssBANK0
   369  002A8C  0E88               	movlw	136
   370  002A8E                     clear_1:
   371  002A8E  6AEE               	clrf	postinc0,c
   372  002A90  06E8               	decf	wreg,f,c
   373  002A92  E1FD               	bnz	clear_1
   374                           
   375                           ; Clear objects allocated to COMRAM (39 bytes)
   376  002A94  EE00  F02C         	lfsr	0,__pbssCOMRAM
   377  002A98  0E27               	movlw	39
   378  002A9A                     clear_2:
   379  002A9A  6AEE               	clrf	postinc0,c
   380  002A9C  06E8               	decf	wreg,f,c
   381  002A9E  E1FD               	bnz	clear_2
   382  002AA0                     end_of_initialization:
   383                           	callstack 0
   384  002AA0                     __end_of__initialization:
   385                           	callstack 0
   386  002AA0  9053               	bcf	int$flags,0,c	;clear compiler interrupt flag (level 1)
   387  002AA2  9253               	bcf	int$flags,1,c	;clear compiler interrupt flag (level 2)
   388  002AA4  0E00               	movlw	low (__Lmediumconst shr (0+16))
   389  002AA6  6EF8               	movwf	tblptru,c
   390  002AA8  0100               	movlb	0
   391  002AAA  EFE7  F015         	goto	_main	;jump to C main() function
   392                           
   393                           	psect	bssCOMRAM
   394  00002C                     __pbssCOMRAM:
   395                           	callstack 0
   396  00002C                     _BaudRateGen:
   397                           	callstack 0
   398  00002C                     	ds	4
   399  000030                     _USB1msTickCount:
   400                           	callstack 0
   401  000030                     	ds	4
   402  000034                     _ADC_InterruptHandler:
   403                           	callstack 0
   404  000034                     	ds	2
   405  000036                     _timer1ReloadVal:
   406                           	callstack 0
   407  000036                     	ds	2
   408  000038                     _timer3ReloadVal:
   409                           	callstack 0
   410  000038                     	ds	2
   411  00003A                     _pDst:
   412                           	callstack 0
   413  00003A                     	ds	2
   414  00003C                     _pBDTEntryEP0OutNext:
   415                           	callstack 0
   416  00003C                     	ds	2
   417  00003E                     _pBDTEntryEP0OutCurrent:
   418                           	callstack 0
   419  00003E                     	ds	2
   420  000040                     _timer0ReloadVal:
   421                           	callstack 0
   422  000040                     	ds	1
   423  000041                     _control_signal_bitmap:
   424                           	callstack 0
   425  000041                     	ds	1
   426  000042                     _cdc_trf_state:
   427                           	callstack 0
   428  000042                     	ds	1
   429  000043                     _USBDeferOUTDataStagePackets:
   430                           	callstack 0
   431  000043                     	ds	1
   432  000044                     _USBDeferINDataStagePackets:
   433                           	callstack 0
   434  000044                     	ds	1
   435  000045                     _USBStatusStageEnabledFlag2:
   436                           	callstack 0
   437  000045                     	ds	1
   438  000046                     _USBStatusStageEnabledFlag1:
   439                           	callstack 0
   440  000046                     	ds	1
   441  000047                     _USBDeferStatusStagePacket:
   442                           	callstack 0
   443  000047                     	ds	1
   444  000048                     _USBStatusStageTimeoutCounter:
   445                           	callstack 0
   446  000048                     	ds	1
   447  000049                     _BothEP0OutUOWNsSet:
   448                           	callstack 0
   449  000049                     	ds	1
   450  00004A                     _endpoint_number:
   451                           	callstack 0
   452  00004A                     	ds	1
   453  00004B                     _RemoteWakeup:
   454                           	callstack 0
   455  00004B                     	ds	1
   456  00004C                     _controlTransferState:
   457                           	callstack 0
   458  00004C                     	ds	1
   459  00004D                     _shortPacketStatus:
   460                           	callstack 0
   461  00004D                     	ds	1
   462  00004E                     _USBDeviceState:
   463                           	callstack 0
   464  00004E                     	ds	1
   465  00004F                     _USBAlternateInterface:
   466                           	callstack 0
   467  00004F                     	ds	2
   468  000051                     _USTATcopy:
   469                           	callstack 0
   470  000051                     	ds	1
   471  000052                     _USBActiveConfiguration:
   472                           	callstack 0
   473  000052                     	ds	1
   474                           
   475                           	psect	bssBANK0
   476  000060                     __pbssBANK0:
   477                           	callstack 0
   478  000060                     _cdc_notice:
   479                           	callstack 0
   480  000060                     	ds	10
   481  00006A                     _outPipes:
   482                           	callstack 0
   483  00006A                     	ds	8
   484  000072                     _inPipes:
   485                           	callstack 0
   486  000072                     	ds	6
   487  000078                     _pBDTEntryIn:
   488                           	callstack 0
   489  000078                     	ds	6
   490  00007E                     _pBDTEntryOut:
   491                           	callstack 0
   492  00007E                     	ds	6
   493  000084                     _pCDCDst:
   494                           	callstack 0
   495  000084                     	ds	3
   496  000087                     _pCDCSrc:
   497                           	callstack 0
   498  000087                     	ds	3
   499  00008A                     _ep_data_out:
   500                           	callstack 0
   501  00008A                     	ds	3
   502  00008D                     _ep_data_in:
   503                           	callstack 0
   504  00008D                     	ds	3
   505  000090                     _CDCDataInHandle:
   506                           	callstack 0
   507  000090                     	ds	2
   508  000092                     _CDCDataOutHandle:
   509                           	callstack 0
   510  000092                     	ds	2
   511  000094                     _cdc_mem_type:
   512                           	callstack 0
   513  000094                     	ds	1
   514  000095                     _cdc_tx_len:
   515                           	callstack 0
   516  000095                     	ds	1
   517  000096                     _cdc_rx_len:
   518                           	callstack 0
   519  000096                     	ds	1
   520  000097                     _USBTicksSinceSuspendEnd:
   521                           	callstack 0
   522  000097                     	ds	1
   523  000098                     _USBBusIsSuspended:
   524                           	callstack 0
   525  000098                     	ds	1
   526  000099                     _readBuffer:
   527                           	callstack 0
   528  000099                     	ds	64
   529  0000D9                     _dummy_encapsulated_cmd_response:
   530                           	callstack 0
   531  0000D9                     	ds	8
   532  0000E1                     _line_coding:
   533                           	callstack 0
   534  0000E1                     	ds	7
   535                           
   536                           	psect	bssBANK1
   537  000100                     __pbssBANK1:
   538                           	callstack 0
   539  000100                     _writeBuffer:
   540                           	callstack 0
   541  000100                     	ds	64
   542                           
   543                           	psect	cstackBANK0
   544  0000E8                     __pcstackBANK0:
   545                           	callstack 0
   546  0000E8                     ?_USBTransferOnePacket:
   547                           	callstack 0
   548  0000E8                     USBTransferOnePacket@dir:
   549                           	callstack 0
   550  0000E8                     putUSBUSART@data:
   551                           	callstack 0
   552  0000E8                     memset@dest:
   553                           	callstack 0
   554                           
   555                           ; 2 bytes @ 0x0
   556  0000E8                     	ds	1
   557  0000E9                     USBTransferOnePacket@data:
   558                           	callstack 0
   559                           
   560                           ; 2 bytes @ 0x1
   561  0000E9                     	ds	1
   562  0000EA                     putUSBUSART@length:
   563                           	callstack 0
   564  0000EA                     memset@c:
   565                           	callstack 0
   566                           
   567                           ; 2 bytes @ 0x2
   568  0000EA                     	ds	1
   569  0000EB                     USBTransferOnePacket@len:
   570                           	callstack 0
   571                           
   572                           ; 1 bytes @ 0x3
   573  0000EB                     	ds	1
   574  0000EC                     ??_USBTransferOnePacket:
   575  0000EC                     memset@n:
   576                           	callstack 0
   577                           
   578                           ; 2 bytes @ 0x4
   579  0000EC                     	ds	2
   580  0000EE                     ??_memset:
   581                           
   582                           ; 1 bytes @ 0x6
   583  0000EE                     	ds	2
   584  0000F0                     USBTransferOnePacket@ep:
   585                           	callstack 0
   586  0000F0                     memset@k:
   587                           	callstack 0
   588                           
   589                           ; 2 bytes @ 0x8
   590  0000F0                     	ds	1
   591  0000F1                     USBTransferOnePacket@handle:
   592                           	callstack 0
   593                           
   594                           ; 2 bytes @ 0x9
   595  0000F1                     	ds	1
   596  0000F2                     memset@s:
   597                           	callstack 0
   598                           
   599                           ; 2 bytes @ 0xA
   600  0000F2                     	ds	1
   601  0000F3                     CDCTxService@i:
   602                           	callstack 0
   603  0000F3                     getsUSBUSART@buffer:
   604                           	callstack 0
   605                           
   606                           ; 2 bytes @ 0xB
   607  0000F3                     	ds	1
   608  0000F4                     USBDeviceInit@i:
   609                           	callstack 0
   610  0000F4                     CDCTxService@byte_to_send:
   611                           	callstack 0
   612                           
   613                           ; 1 bytes @ 0xC
   614  0000F4                     	ds	1
   615  0000F5                     getsUSBUSART@len:
   616                           	callstack 0
   617                           
   618                           ; 1 bytes @ 0xD
   619  0000F5                     	ds	1
   620  0000F6                     
   621                           ; 1 bytes @ 0xE
   622  0000F6                     	ds	1
   623  0000F7                     ??_MCC_USB_CDC_DemoTasks:
   624                           
   625                           ; 1 bytes @ 0xF
   626  0000F7                     	ds	2
   627  0000F9                     MCC_USB_CDC_DemoTasks@numBytesRead:
   628                           	callstack 0
   629                           
   630                           ; 1 bytes @ 0x11
   631  0000F9                     	ds	1
   632  0000FA                     MCC_USB_CDC_DemoTasks@i:
   633                           	callstack 0
   634                           
   635                           ; 1 bytes @ 0x12
   636  0000FA                     	ds	1
   637  0000FB                     
   638                           ; 1 bytes @ 0x13
   639                           
   640                           	psect	cstackCOMRAM
   641  000001                     __pcstackCOMRAM:
   642                           	callstack 0
   643  000001                     ??_USBCheckCDCRequest:
   644  000001                     ??_USBStdGetDscHandler:
   645  000001                     ??_USBStdGetStatusHandler:
   646  000001                     ?i2_USBTransferOnePacket:
   647                           	callstack 0
   648  000001                     USBConfigureEndpoint@direction:
   649                           	callstack 0
   650  000001                     USBCtrlTrfTxService@byteToSend:
   651                           	callstack 0
   652  000001                     USBCtrlTrfRxService@i:
   653                           	callstack 0
   654  000001                     i2USBTransferOnePacket@dir:
   655                           	callstack 0
   656  000001                     memcpy@d1:
   657                           	callstack 0
   658  000001                     i2memset@dest:
   659                           	callstack 0
   660                           
   661                           ; 2 bytes @ 0x0
   662  000001                     	ds	1
   663  000002                     ??_USBConfigureEndpoint:
   664  000002                     USBCtrlTrfRxService@byteToRead:
   665                           	callstack 0
   666  000002                     USBCtrlTrfInHandler@lastDTS:
   667                           	callstack 0
   668  000002                     i2USBTransferOnePacket@data:
   669                           	callstack 0
   670                           
   671                           ; 2 bytes @ 0x1
   672  000002                     	ds	1
   673  000003                     USBStdGetStatusHandler@p:
   674                           	callstack 0
   675  000003                     memcpy@s1:
   676                           	callstack 0
   677  000003                     i2memset@c:
   678                           	callstack 0
   679                           
   680                           ; 2 bytes @ 0x2
   681  000003                     	ds	1
   682  000004                     i2USBTransferOnePacket@len:
   683                           	callstack 0
   684                           
   685                           ; 1 bytes @ 0x3
   686  000004                     	ds	1
   687  000005                     ??i2_USBTransferOnePacket:
   688  000005                     memcpy@n:
   689                           	callstack 0
   690  000005                     i2memset@n:
   691                           	callstack 0
   692                           
   693                           ; 2 bytes @ 0x4
   694  000005                     	ds	1
   695  000006                     USBConfigureEndpoint@EPNum:
   696                           	callstack 0
   697                           
   698                           ; 1 bytes @ 0x5
   699  000006                     	ds	1
   700  000007                     ??i2_memset:
   701  000007                     USBConfigureEndpoint@handle:
   702                           	callstack 0
   703  000007                     memcpy@d:
   704                           	callstack 0
   705                           
   706                           ; 2 bytes @ 0x6
   707  000007                     	ds	2
   708  000009                     USBEnableEndpoint@options:
   709                           	callstack 0
   710  000009                     i2USBTransferOnePacket@ep:
   711                           	callstack 0
   712  000009                     memcpy@s:
   713                           	callstack 0
   714  000009                     i2memset@k:
   715                           	callstack 0
   716                           
   717                           ; 2 bytes @ 0x8
   718  000009                     	ds	1
   719  00000A                     USBEnableEndpoint@p:
   720                           	callstack 0
   721  00000A                     i2USBTransferOnePacket@handle:
   722                           	callstack 0
   723                           
   724                           ; 2 bytes @ 0x9
   725  00000A                     	ds	1
   726  00000B                     memcpy@tmp:
   727                           	callstack 0
   728  00000B                     i2memset@s:
   729                           	callstack 0
   730                           
   731                           ; 2 bytes @ 0xA
   732  00000B                     	ds	1
   733  00000C                     USBEnableEndpoint@ep:
   734                           	callstack 0
   735                           
   736                           ; 1 bytes @ 0xB
   737  00000C                     	ds	1
   738  00000D                     i2USBDeviceInit@i:
   739                           	callstack 0
   740  00000D                     USER_USB_CALLBACK_EVENT_HANDLER@event:
   741                           	callstack 0
   742                           
   743                           ; 2 bytes @ 0xC
   744  00000D                     	ds	2
   745  00000F                     USER_USB_CALLBACK_EVENT_HANDLER@pdata:
   746                           	callstack 0
   747                           
   748                           ; 2 bytes @ 0xE
   749  00000F                     	ds	2
   750  000011                     USER_USB_CALLBACK_EVENT_HANDLER@size:
   751                           	callstack 0
   752                           
   753                           ; 2 bytes @ 0x10
   754  000011                     	ds	2
   755  000013                     ??_USER_USB_CALLBACK_EVENT_HANDLER:
   756                           
   757                           ; 1 bytes @ 0x12
   758  000013                     	ds	2
   759  000015                     ??_USBStdFeatureReqHandler:
   760  000015                     USBStdSetCfgHandler@i:
   761                           	callstack 0
   762                           
   763                           ; 1 bytes @ 0x14
   764  000015                     	ds	2
   765  000017                     USBStdFeatureReqHandler@pUEP:
   766                           	callstack 0
   767                           
   768                           ; 2 bytes @ 0x16
   769  000017                     	ds	2
   770  000019                     USBStdFeatureReqHandler@current_ep_data:
   771                           	callstack 0
   772                           
   773                           ; 1 bytes @ 0x18
   774  000019                     	ds	1
   775  00001A                     USBStdFeatureReqHandler@p:
   776                           	callstack 0
   777                           
   778                           ; 2 bytes @ 0x19
   779  00001A                     	ds	2
   780  00001C                     ??_USBCheckStdRequest:
   781                           
   782                           ; 1 bytes @ 0x1B
   783  00001C                     	ds	2
   784  00001E                     ??_USBCtrlEPService:
   785  00001E                     
   786                           ; 1 bytes @ 0x1D
   787  00001E                     	ds	1
   788  00001F                     USBDeviceTasks@i:
   789                           	callstack 0
   790                           
   791                           ; 1 bytes @ 0x1E
   792  00001F                     	ds	1
   793  000020                     ??_INTERRUPT_InterruptManager:
   794                           
   795                           ; 1 bytes @ 0x1F
   796  000020                     	ds	12
   797                           
   798 ;;
   799 ;;Main: autosize = 0, tempsize = 0, incstack = 0, save=0
   800 ;;
   801 ;; *************** function _main *****************
   802 ;; Defined at:
   803 ;;		line 26 in file "main.c"
   804 ;; Parameters:    Size  Location     Type
   805 ;;		None
   806 ;; Auto vars:     Size  Location     Type
   807 ;;		None
   808 ;; Return value:  Size  Location     Type
   809 ;;                  1    wreg      void 
   810 ;; Registers used:
   811 ;;		wreg, fsr1l, fsr1h, fsr2l, fsr2h, status,2, status,0, prodl, prodh, cstack
   812 ;; Tracked objects:
   813 ;;		On entry : 0/0
   814 ;;		On exit  : 0/0
   815 ;;		Unchanged: 0/0
   816 ;; Data sizes:     COMRAM   BANK0   BANK1   BANK2   BANK3   BANK4   BANK5   BANK6   BANK7
   817 ;;      Params:         0       0       0       0       0       0       0       0       0
   818 ;;      Locals:         0       0       0       0       0       0       0       0       0
   819 ;;      Temps:          0       0       0       0       0       0       0       0       0
   820 ;;      Totals:         0       0       0       0       0       0       0       0       0
   821 ;;Total ram usage:        0 bytes
   822 ;; Hardware stack levels required when called: 13
   823 ;; This function calls:
   824 ;;		_MCC_USB_CDC_DemoTasks
   825 ;;		_SYSTEM_Initialize
   826 ;; This function is called by:
   827 ;;		Startup code after reset
   828 ;; This function uses a non-reentrant model
   829 ;;
   830                           
   831                           	psect	text0
   832  002BCE                     __ptext0:
   833                           	callstack 0
   834  002BCE                     _main:
   835                           	callstack 18
   836  002BCE                     
   837                           ;main.c: 29:     SYSTEM_Initialize();
   838  002BCE  EC57  F015         	call	_SYSTEM_Initialize	;wreg free
   839  002BD2                     
   840                           ;main.c: 36:     (INTCONbits.GIE = 1);
   841  002BD2  8EF2               	bsf	242,7,c	;volatile
   842  002BD4                     
   843                           ;main.c: 42:     (INTCONbits.PEIE = 1);
   844  002BD4  8CF2               	bsf	242,6,c	;volatile
   845  002BD6                     l5401:
   846                           
   847                           ;main.c: 48:     {;main.c: 49:        MCC_USB_CDC_DemoTasks();
   848  002BD6  EC92  F010         	call	_MCC_USB_CDC_DemoTasks	;wreg free
   849  002BDA  EFEB  F015         	goto	l5401
   850  002BDE  EF4E  F000         	goto	start
   851  002BE2                     __end_of_main:
   852                           	callstack 0
   853                           
   854 ;; *************** function _SYSTEM_Initialize *****************
   855 ;; Defined at:
   856 ;;		line 50 in file "mcc_generated_files/mcc.c"
   857 ;; Parameters:    Size  Location     Type
   858 ;;		None
   859 ;; Auto vars:     Size  Location     Type
   860 ;;		None
   861 ;; Return value:  Size  Location     Type
   862 ;;                  1    wreg      void 
   863 ;; Registers used:
   864 ;;		wreg, fsr2l, fsr2h, status,2, status,0, prodl, prodh, cstack
   865 ;; Tracked objects:
   866 ;;		On entry : 0/0
   867 ;;		On exit  : 0/0
   868 ;;		Unchanged: 0/0
   869 ;; Data sizes:     COMRAM   BANK0   BANK1   BANK2   BANK3   BANK4   BANK5   BANK6   BANK7
   870 ;;      Params:         0       0       0       0       0       0       0       0       0
   871 ;;      Locals:         0       0       0       0       0       0       0       0       0
   872 ;;      Temps:          0       0       0       0       0       0       0       0       0
   873 ;;      Totals:         0       0       0       0       0       0       0       0       0
   874 ;;Total ram usage:        0 bytes
   875 ;; Hardware stack levels used: 1
   876 ;; Hardware stack levels required when called: 12
   877 ;; This function calls:
   878 ;;		_ADC_Initialize
   879 ;;		_CCP2_Initialize
   880 ;;		_INTERRUPT_Initialize
   881 ;;		_OSCILLATOR_Initialize
   882 ;;		_PIN_MANAGER_Initialize
   883 ;;		_TMR0_Initialize
   884 ;;		_TMR1_Initialize
   885 ;;		_TMR2_Initialize
   886 ;;		_TMR3_Initialize
   887 ;;		_USBDeviceAttach
   888 ;;		_USBDeviceInit
   889 ;; This function is called by:
   890 ;;		_main
   891 ;; This function uses a non-reentrant model
   892 ;;
   893                           
   894                           	psect	text1
   895  002AAE                     __ptext1:
   896                           	callstack 0
   897  002AAE                     _SYSTEM_Initialize:
   898                           	callstack 18
   899  002AAE                     
   900                           ;mcc_generated_files/mcc.c: 53:     INTERRUPT_Initialize();
   901  002AAE  EC0A  F016         	call	_INTERRUPT_Initialize	;wreg free
   902  002AB2                     
   903                           ;mcc_generated_files/mcc.c: 54:     PIN_MANAGER_Initialize();
   904  002AB2  EC9B  F015         	call	_PIN_MANAGER_Initialize	;wreg free
   905  002AB6                     
   906                           ;mcc_generated_files/mcc.c: 55:     OSCILLATOR_Initialize();
   907  002AB6  ECB0  F015         	call	_OSCILLATOR_Initialize	;wreg free
   908  002ABA                     
   909                           ;mcc_generated_files/mcc.c: 56:     CCP2_Initialize();
   910  002ABA  ECFA  F015         	call	_CCP2_Initialize	;wreg free
   911  002ABE                     
   912                           ;mcc_generated_files/mcc.c: 57:     USBDeviceInit();
   913  002ABE  EC16  F00A         	call	_USBDeviceInit	;wreg free
   914  002AC2                     
   915                           ;mcc_generated_files/mcc.c: 58:     ADC_Initialize();
   916  002AC2  ECDC  F015         	call	_ADC_Initialize	;wreg free
   917  002AC6                     
   918                           ;mcc_generated_files/mcc.c: 59:     TMR3_Initialize();
   919  002AC6  ECC0  F015         	call	_TMR3_Initialize	;wreg free
   920  002ACA                     
   921                           ;mcc_generated_files/mcc.c: 60:     TMR2_Initialize();
   922  002ACA  EC03  F016         	call	_TMR2_Initialize	;wreg free
   923  002ACE                     
   924                           ;mcc_generated_files/mcc.c: 61:     TMR1_Initialize();
   925  002ACE  ECCE  F015         	call	_TMR1_Initialize	;wreg free
   926  002AD2                     
   927                           ;mcc_generated_files/mcc.c: 62:     TMR0_Initialize();
   928  002AD2  ECF1  F015         	call	_TMR0_Initialize	;wreg free
   929  002AD6                     
   930                           ;mcc_generated_files/mcc.c: 63:     USBDeviceAttach();
   931  002AD6  ECE2  F014         	call	_USBDeviceAttach	;wreg free
   932  002ADA  0012               	return		;funcret
   933  002ADC                     __end_of_SYSTEM_Initialize:
   934                           	callstack 0
   935                           
   936 ;; *************** function _USBDeviceInit *****************
   937 ;; Defined at:
   938 ;;		line 281 in file "mcc_generated_files/usb/usb_device.c"
   939 ;; Parameters:    Size  Location     Type
   940 ;;		None
   941 ;; Auto vars:     Size  Location     Type
   942 ;;  i               1   12[BANK0 ] unsigned char 
   943 ;; Return value:  Size  Location     Type
   944 ;;                  1    wreg      void 
   945 ;; Registers used:
   946 ;;		wreg, fsr2l, fsr2h, status,2, status,0, prodl, prodh, cstack
   947 ;; Tracked objects:
   948 ;;		On entry : 0/0
   949 ;;		On exit  : 0/0
   950 ;;		Unchanged: 0/0
   951 ;; Data sizes:     COMRAM   BANK0   BANK1   BANK2   BANK3   BANK4   BANK5   BANK6   BANK7
   952 ;;      Params:         0       0       0       0       0       0       0       0       0
   953 ;;      Locals:         0       1       0       0       0       0       0       0       0
   954 ;;      Temps:          0       0       0       0       0       0       0       0       0
   955 ;;      Totals:         0       1       0       0       0       0       0       0       0
   956 ;;Total ram usage:        1 bytes
   957 ;; Hardware stack levels used: 1
   958 ;; Hardware stack levels required when called: 11
   959 ;; This function calls:
   960 ;;		_memset
   961 ;; This function is called by:
   962 ;;		_SYSTEM_Initialize
   963 ;; This function uses a non-reentrant model
   964 ;;
   965                           
   966                           	psect	text2
   967  00142C                     __ptext2:
   968                           	callstack 0
   969  00142C                     _USBDeviceInit:
   970                           	callstack 18
   971  00142C                     
   972                           ;mcc_generated_files/usb/usb_device.c: 283:     uint8_t i;;mcc_generated_files/usb/usb_d
      +                          evice.c: 285:     {PIE3bits.USBIE = 0;};
   973  00142C  94A3               	bcf	163,2,c	;volatile
   974  00142E                     
   975                           ;mcc_generated_files/usb/usb_device.c: 292:     {UEIR = 0;};
   976  00142E  0E00               	movlw	0
   977  001430  6E67               	movwf	103,c	;volatile
   978                           
   979                           ;mcc_generated_files/usb/usb_device.c: 295:     {UIR = 0;};
   980  001432  0E00               	movlw	0
   981  001434  6E65               	movwf	101,c	;volatile
   982                           
   983                           ;mcc_generated_files/usb/usb_device.c: 298:     UEP0 = 0;
   984  001436  0E00               	movlw	0
   985  001438  6E6A               	movwf	106,c	;volatile
   986  00143A                     
   987                           ;mcc_generated_files/usb/usb_device.c: 300:     memset((void*)&UEP1,0x00,(2));;
   988  00143A  0E6B               	movlw	107
   989  00143C  0100               	movlb	0	; () banked
   990  00143E  6FE8               	movwf	memset@dest& (0+255),b
   991  001440  0E0F               	movlw	15
   992  001442  6FE9               	movwf	(memset@dest+1)& (0+255),b
   993  001444  0E00               	movlw	0
   994  001446  6FEB               	movwf	(memset@c+1)& (0+255),b
   995  001448  0E00               	movlw	0
   996  00144A  6FEA               	movwf	memset@c& (0+255),b
   997  00144C  0E00               	movlw	0
   998  00144E  6FED               	movwf	(memset@n+1)& (0+255),b
   999  001450  0E02               	movlw	2
  1000  001452  6FEC               	movwf	memset@n& (0+255),b
  1001  001454  ECE5  F007         	call	_memset	;wreg free
  1002  001458                     
  1003                           ;mcc_generated_files/usb/usb_device.c: 302:     { UCFG = 0x10 | 0x00 | 0x04 | 0x02; UEIE
      +                           = 0x9F; UIE = 0x39 | 0x40 | 0x02; };
  1004  001458  0E16               	movlw	22
  1005  00145A  6E62               	movwf	98,c	;volatile
  1006  00145C  0E9F               	movlw	159
  1007  00145E  6E66               	movwf	102,c	;volatile
  1008  001460  0E7B               	movlw	123
  1009  001462  6E64               	movwf	100,c	;volatile
  1010  001464                     
  1011                           ;mcc_generated_files/usb/usb_device.c: 311:     for(i = 0; i < (sizeof(BDT)/sizeof(BDT_E
      +                          NTRY)); i++)
  1012  001464  0E00               	movlw	0
  1013  001466  0100               	movlb	0	; () banked
  1014  001468  6FF4               	movwf	USBDeviceInit@i& (0+255),b
  1015  00146A                     l5107:
  1016                           
  1017                           ; BSR set to: 0
  1018                           ;mcc_generated_files/usb/usb_device.c: 312:     {;mcc_generated_files/usb/usb_device.c: 
      +                          313:         BDT[i].Val = 0x00;
  1019  00146A  51F4               	movf	USBDeviceInit@i& (0+255),w,b
  1020  00146C  0D04               	mullw	4
  1021  00146E  0E00               	movlw	0
  1022  001470  24F3               	addwf	243,w,c
  1023  001472  6ED9               	movwf	fsr2l,c
  1024  001474  0E04               	movlw	4
  1025  001476  20F4               	addwfc	prodh,w,c
  1026  001478  6EDA               	movwf	fsr2h,c
  1027  00147A  6ADE               	clrf	postinc2,c
  1028  00147C  6ADE               	clrf	postinc2,c
  1029  00147E  6ADE               	clrf	postinc2,c
  1030  001480  6ADD               	clrf	postdec2,c
  1031  001482                     
  1032                           ; BSR set to: 0
  1033                           ;mcc_generated_files/usb/usb_device.c: 314:     }
  1034  001482  2BF4               	incf	USBDeviceInit@i& (0+255),f,b
  1035  001484                     
  1036                           ; BSR set to: 0
  1037  001484  0E0B               	movlw	11
  1038  001486  65F4               	cpfsgt	USBDeviceInit@i& (0+255),b
  1039  001488  EF48  F00A         	goto	u3571
  1040  00148C  EF4A  F00A         	goto	u3570
  1041  001490                     u3571:
  1042  001490  EF35  F00A         	goto	l5107
  1043  001494                     u3570:
  1044  001494                     
  1045                           ; BSR set to: 0
  1046                           ;mcc_generated_files/usb/usb_device.c: 317:     UCONbits.PPBRST = 1;
  1047  001494  8C60               	bsf	96,6,c	;volatile
  1048  001496                     
  1049                           ; BSR set to: 0
  1050                           ;mcc_generated_files/usb/usb_device.c: 320:     UADDR = 0x00;
  1051  001496  0E00               	movlw	0
  1052  001498  6E63               	movwf	99,c	;volatile
  1053  00149A                     
  1054                           ; BSR set to: 0
  1055                           ;mcc_generated_files/usb/usb_device.c: 323:     UCONbits.PKTDIS = 0;
  1056  00149A  9860               	bcf	96,4,c	;volatile
  1057  00149C                     
  1058                           ; BSR set to: 0
  1059                           ;mcc_generated_files/usb/usb_device.c: 326:     UCONbits.PPBRST = 0;
  1060  00149C  9C60               	bcf	96,6,c	;volatile
  1061  00149E                     l5119:
  1062                           
  1063                           ; BSR set to: 0
  1064                           ;mcc_generated_files/usb/usb_device.c: 330:     {;mcc_generated_files/usb/usb_device.c: 
      +                          331:         (UIR &= 0xF7);
  1065  00149E  9665               	bcf	101,3,c	;volatile
  1066  0014A0                     
  1067                           ; BSR set to: 0
  1068                           ;mcc_generated_files/usb/usb_device.c: 333:         inPipes[0].info.Val = 0;
  1069  0014A0  0E00               	movlw	0
  1070  0014A2  6F75               	movwf	(_inPipes+3)& (0+255),b	;volatile
  1071  0014A4                     
  1072                           ; BSR set to: 0
  1073                           ;mcc_generated_files/usb/usb_device.c: 334:         outPipes[0].info.Val = 0;
  1074  0014A4  0E00               	movlw	0
  1075  0014A6  6F6D               	movwf	(_outPipes+3)& (0+255),b	;volatile
  1076  0014A8                     
  1077                           ; BSR set to: 0
  1078                           ;mcc_generated_files/usb/usb_device.c: 335:         outPipes[0].wCount.Val = 0;
  1079  0014A8  0E00               	movlw	0
  1080  0014AA  6F6F               	movwf	(_outPipes+5)& (0+255),b	;volatile
  1081  0014AC  0E00               	movlw	0
  1082  0014AE  6F6E               	movwf	(_outPipes+4)& (0+255),b	;volatile
  1083  0014B0                     
  1084                           ; BSR set to: 0
  1085                           ;mcc_generated_files/usb/usb_device.c: 336:     }while(UIRbits.TRNIF == 1);
  1086  0014B0  B665               	btfsc	101,3,c	;volatile
  1087  0014B2  EF5D  F00A         	goto	u3581
  1088  0014B6  EF5F  F00A         	goto	u3580
  1089  0014BA                     u3581:
  1090  0014BA  EF4F  F00A         	goto	l5119
  1091  0014BE                     u3580:
  1092  0014BE                     
  1093                           ; BSR set to: 0
  1094                           ;mcc_generated_files/usb/usb_device.c: 340:     USBStatusStageEnabledFlag1 = 1;
  1095  0014BE  0E01               	movlw	1
  1096  0014C0  6E46               	movwf	_USBStatusStageEnabledFlag1^0,c	;volatile
  1097                           
  1098                           ;mcc_generated_files/usb/usb_device.c: 341:     USBStatusStageEnabledFlag2 = 1;
  1099  0014C2  0E01               	movlw	1
  1100  0014C4  6E45               	movwf	_USBStatusStageEnabledFlag2^0,c	;volatile
  1101                           
  1102                           ;mcc_generated_files/usb/usb_device.c: 343:     USBDeferINDataStagePackets = 0;
  1103  0014C6  0E00               	movlw	0
  1104  0014C8  6E44               	movwf	_USBDeferINDataStagePackets^0,c	;volatile
  1105                           
  1106                           ;mcc_generated_files/usb/usb_device.c: 344:     USBDeferOUTDataStagePackets = 0;
  1107  0014CA  0E00               	movlw	0
  1108  0014CC  6E43               	movwf	_USBDeferOUTDataStagePackets^0,c	;volatile
  1109                           
  1110                           ;mcc_generated_files/usb/usb_device.c: 345:     USBBusIsSuspended = 0;
  1111  0014CE  0E00               	movlw	0
  1112  0014D0  6F98               	movwf	_USBBusIsSuspended& (0+255),b	;volatile
  1113                           
  1114                           ;mcc_generated_files/usb/usb_device.c: 349:     for(i = 0; i < (uint8_t)(2 +1u); i++)
  1115  0014D2  0E00               	movlw	0
  1116  0014D4  6FF4               	movwf	USBDeviceInit@i& (0+255),b
  1117  0014D6                     l5135:
  1118                           
  1119                           ; BSR set to: 0
  1120                           ;mcc_generated_files/usb/usb_device.c: 350:     {;mcc_generated_files/usb/usb_device.c: 
      +                          351:         pBDTEntryIn[i] = 0u;
  1121  0014D6  51F4               	movf	USBDeviceInit@i& (0+255),w,b
  1122  0014D8  0D02               	mullw	2
  1123  0014DA  0E78               	movlw	low _pBDTEntryIn
  1124  0014DC  24F3               	addwf	243,w,c
  1125  0014DE  6ED9               	movwf	fsr2l,c
  1126  0014E0  0E00               	movlw	high _pBDTEntryIn
  1127  0014E2  20F4               	addwfc	prodh,w,c
  1128  0014E4  6EDA               	movwf	fsr2h,c
  1129  0014E6  0E00               	movlw	0
  1130  0014E8  6EDE               	movwf	postinc2,c
  1131  0014EA  0E00               	movlw	0
  1132  0014EC  6EDD               	movwf	postdec2,c
  1133                           
  1134                           ;mcc_generated_files/usb/usb_device.c: 352:         pBDTEntryOut[i] = 0u;
  1135  0014EE  51F4               	movf	USBDeviceInit@i& (0+255),w,b
  1136  0014F0  0D02               	mullw	2
  1137  0014F2  0E7E               	movlw	low _pBDTEntryOut
  1138  0014F4  24F3               	addwf	243,w,c
  1139  0014F6  6ED9               	movwf	fsr2l,c
  1140  0014F8  0E00               	movlw	high _pBDTEntryOut
  1141  0014FA  20F4               	addwfc	prodh,w,c
  1142  0014FC  6EDA               	movwf	fsr2h,c
  1143  0014FE  0E00               	movlw	0
  1144  001500  6EDE               	movwf	postinc2,c
  1145  001502  0E00               	movlw	0
  1146  001504  6EDD               	movwf	postdec2,c
  1147  001506                     
  1148                           ; BSR set to: 0
  1149                           ;mcc_generated_files/usb/usb_device.c: 353:         ep_data_in[i].Val = 0u;
  1150  001506  0E8D               	movlw	low _ep_data_in
  1151  001508  25F4               	addwf	USBDeviceInit@i& (0+255),w,b
  1152  00150A  6ED9               	movwf	fsr2l,c
  1153  00150C  6ADA               	clrf	fsr2h,c
  1154  00150E  0E00               	movlw	high _ep_data_in
  1155  001510  22DA               	addwfc	fsr2h,f,c
  1156  001512  0E00               	movlw	0
  1157  001514  6EDF               	movwf	indf2,c
  1158  001516                     
  1159                           ; BSR set to: 0
  1160                           ;mcc_generated_files/usb/usb_device.c: 354:         ep_data_out[i].Val = 0u;
  1161  001516  0E8A               	movlw	low _ep_data_out
  1162  001518  25F4               	addwf	USBDeviceInit@i& (0+255),w,b
  1163  00151A  6ED9               	movwf	fsr2l,c
  1164  00151C  6ADA               	clrf	fsr2h,c
  1165  00151E  0E00               	movlw	high _ep_data_out
  1166  001520  22DA               	addwfc	fsr2h,f,c
  1167  001522  0E00               	movlw	0
  1168  001524  6EDF               	movwf	indf2,c
  1169  001526                     
  1170                           ; BSR set to: 0
  1171                           ;mcc_generated_files/usb/usb_device.c: 355:     }
  1172  001526  2BF4               	incf	USBDeviceInit@i& (0+255),f,b
  1173  001528                     
  1174                           ; BSR set to: 0
  1175  001528  0E02               	movlw	2
  1176  00152A  65F4               	cpfsgt	USBDeviceInit@i& (0+255),b
  1177  00152C  EF9A  F00A         	goto	u3591
  1178  001530  EF9C  F00A         	goto	u3590
  1179  001534                     u3591:
  1180  001534  EF6B  F00A         	goto	l5135
  1181  001538                     u3590:
  1182  001538                     
  1183                           ; BSR set to: 0
  1184                           ;mcc_generated_files/usb/usb_device.c: 358:     pBDTEntryIn[0] = (volatile BDT_ENTRY*)&B
      +                          DT[2];
  1185  001538  0E08               	movlw	8
  1186  00153A  6F78               	movwf	_pBDTEntryIn& (0+255),b
  1187  00153C  0E04               	movlw	4
  1188  00153E  6F79               	movwf	(_pBDTEntryIn+1)& (0+255),b
  1189  001540                     
  1190                           ; BSR set to: 0
  1191                           ;mcc_generated_files/usb/usb_device.c: 360:     UEP0 = 0x06|0x10;
  1192  001540  0E16               	movlw	22
  1193  001542  6E6A               	movwf	106,c	;volatile
  1194  001544                     
  1195                           ; BSR set to: 0
  1196                           ;mcc_generated_files/usb/usb_device.c: 362:     BDT[0].ADR = ((uint16_t)(&SetupPkt));
  1197  001544  0E04               	movlw	4
  1198  001546  0104               	movlb	4	; () banked
  1199  001548  6F03               	movwf	3,b	;volatile
  1200  00154A  0E30               	movlw	48
  1201  00154C  6F02               	movwf	2,b	;volatile
  1202  00154E                     
  1203                           ; BSR set to: 4
  1204                           ;mcc_generated_files/usb/usb_device.c: 363:     BDT[0].CNT = 8;
  1205  00154E  0E08               	movlw	8
  1206  001550  6F01               	movwf	1,b	;volatile
  1207  001552                     
  1208                           ; BSR set to: 4
  1209                           ;mcc_generated_files/usb/usb_device.c: 364:     BDT[0].STAT.Val = 0x00|0x04;
  1210  001552  0E04               	movlw	4
  1211  001554  6F00               	movwf	0,b	;volatile
  1212  001556                     
  1213                           ; BSR set to: 4
  1214                           ;mcc_generated_files/usb/usb_device.c: 365:     BDT[0].STAT.Val |= 0x80;
  1215  001556  8F00               	bsf	0,7,b	;volatile
  1216  001558                     
  1217                           ; BSR set to: 4
  1218                           ;mcc_generated_files/usb/usb_device.c: 368:     USBActiveConfiguration = 0;
  1219  001558  0E00               	movlw	0
  1220  00155A  6E52               	movwf	_USBActiveConfiguration^0,c	;volatile
  1221  00155C                     
  1222                           ; BSR set to: 4
  1223                           ;mcc_generated_files/usb/usb_device.c: 370:     USB1msTickCount = 0;
  1224  00155C  0E00               	movlw	0
  1225  00155E  6E30               	movwf	_USB1msTickCount^0,c	;volatile
  1226  001560  0E00               	movlw	0
  1227  001562  6E31               	movwf	(_USB1msTickCount+1)^0,c	;volatile
  1228  001564  0E00               	movlw	0
  1229  001566  6E32               	movwf	(_USB1msTickCount+2)^0,c	;volatile
  1230  001568  0E00               	movlw	0
  1231  00156A  6E33               	movwf	(_USB1msTickCount+3)^0,c	;volatile
  1232  00156C                     
  1233                           ; BSR set to: 4
  1234                           ;mcc_generated_files/usb/usb_device.c: 371:     USBTicksSinceSuspendEnd = 0;
  1235  00156C  0E00               	movlw	0
  1236  00156E  0100               	movlb	0	; () banked
  1237  001570  6F97               	movwf	_USBTicksSinceSuspendEnd& (0+255),b	;volatile
  1238  001572                     
  1239                           ; BSR set to: 0
  1240                           ;mcc_generated_files/usb/usb_device.c: 374:     USBDeviceState = DETACHED_STATE;
  1241  001572  0E00               	movlw	0
  1242  001574  6E4E               	movwf	_USBDeviceState^0,c	;volatile
  1243  001576                     
  1244                           ; BSR set to: 0
  1245  001576  0012               	return		;funcret
  1246  001578                     __end_of_USBDeviceInit:
  1247                           	callstack 0
  1248                           
  1249 ;; *************** function _memset *****************
  1250 ;; Defined at:
  1251 ;;		line 4 in file "/Applications/microchip/xc8/v2.36/pic/sources/c99/common/memset.c"
  1252 ;; Parameters:    Size  Location     Type
  1253 ;;  dest            2    0[BANK0 ] PTR void 
  1254 ;;		 -> USBAlternateInterface(2), BDT(48), UEP1(1), 
  1255 ;;  c               2    2[BANK0 ] int 
  1256 ;;  n               2    4[BANK0 ] unsigned int 
  1257 ;; Auto vars:     Size  Location     Type
  1258 ;;  s               2   10[BANK0 ] PTR unsigned char 
  1259 ;;		 -> USBAlternateInterface(2), BDT(48), UEP1(1), 
  1260 ;;  k               2    8[BANK0 ] unsigned int 
  1261 ;; Return value:  Size  Location     Type
  1262 ;;                  2    0[BANK0 ] PTR void 
  1263 ;; Registers used:
  1264 ;;		wreg, fsr2l, fsr2h, status,2, status,0
  1265 ;; Tracked objects:
  1266 ;;		On entry : 0/0
  1267 ;;		On exit  : 0/0
  1268 ;;		Unchanged: 0/0
  1269 ;; Data sizes:     COMRAM   BANK0   BANK1   BANK2   BANK3   BANK4   BANK5   BANK6   BANK7
  1270 ;;      Params:         0       6       0       0       0       0       0       0       0
  1271 ;;      Locals:         0       4       0       0       0       0       0       0       0
  1272 ;;      Temps:          0       2       0       0       0       0       0       0       0
  1273 ;;      Totals:         0      12       0       0       0       0       0       0       0
  1274 ;;Total ram usage:       12 bytes
  1275 ;; Hardware stack levels used: 1
  1276 ;; Hardware stack levels required when called: 10
  1277 ;; This function calls:
  1278 ;;		Nothing
  1279 ;; This function is called by:
  1280 ;;		_USBDeviceInit
  1281 ;; This function uses a non-reentrant model
  1282 ;;
  1283                           
  1284                           	psect	text3
  1285  000FCA                     __ptext3:
  1286                           	callstack 0
  1287  000FCA                     _memset:
  1288                           	callstack 18
  1289  000FCA  C0E8  F0F2         	movff	memset@dest,memset@s
  1290  000FCE  C0E9  F0F3         	movff	memset@dest+1,memset@s+1
  1291  000FD2  0100               	movlb	0	; () banked
  1292  000FD4  51EC               	movf	memset@n& (0+255),w,b
  1293  000FD6  11ED               	iorwf	(memset@n+1)& (0+255),w,b
  1294  000FD8  A4D8               	btfss	status,2,c
  1295  000FDA  EFF1  F007         	goto	u3491
  1296  000FDE  EFF3  F007         	goto	u3490
  1297  000FE2                     u3491:
  1298  000FE2  EFF5  F007         	goto	l5031
  1299  000FE6                     u3490:
  1300  000FE6  EFA0  F008         	goto	l1649
  1301  000FEA                     l5031:
  1302                           
  1303                           ; BSR set to: 0
  1304  000FEA  C0F2  FFD9         	movff	memset@s,fsr2l
  1305  000FEE  C0F3  FFDA         	movff	memset@s+1,fsr2h
  1306  000FF2  C0EA  FFDF         	movff	memset@c,indf2
  1307  000FF6                     
  1308                           ; BSR set to: 0
  1309  000FF6  51EC               	movf	memset@n& (0+255),w,b
  1310  000FF8  25F2               	addwf	memset@s& (0+255),w,b
  1311  000FFA  6FEE               	movwf	??_memset& (0+255),b
  1312  000FFC  51ED               	movf	(memset@n+1)& (0+255),w,b
  1313  000FFE  21F3               	addwfc	(memset@s+1)& (0+255),w,b
  1314  001000  6FEF               	movwf	(??_memset+1)& (0+255),b
  1315  001002  0EFF               	movlw	255
  1316  001004  25EE               	addwf	??_memset& (0+255),w,b
  1317  001006  6ED9               	movwf	fsr2l,c
  1318  001008  0EFF               	movlw	255
  1319  00100A  21EF               	addwfc	(??_memset+1)& (0+255),w,b
  1320  00100C  6EDA               	movwf	fsr2h,c
  1321  00100E  C0EA  FFDF         	movff	memset@c,indf2
  1322  001012  51ED               	movf	(memset@n+1)& (0+255),w,b
  1323  001014  E107               	bnz	u3501
  1324  001016  0E03               	movlw	3
  1325  001018  5DEC               	subwf	memset@n& (0+255),w,b
  1326  00101A  B0D8               	btfsc	status,0,c
  1327  00101C  EF12  F008         	goto	u3501
  1328  001020  EF14  F008         	goto	u3500
  1329  001024                     u3501:
  1330  001024  EF16  F008         	goto	l5037
  1331  001028                     u3500:
  1332  001028  EFA0  F008         	goto	l1649
  1333  00102C                     l5037:
  1334                           
  1335                           ; BSR set to: 0
  1336  00102C  EE20 F001          	lfsr	2,1
  1337  001030  51F2               	movf	memset@s& (0+255),w,b
  1338  001032  26D9               	addwf	fsr2l,f,c
  1339  001034  51F3               	movf	(memset@s+1)& (0+255),w,b
  1340  001036  22DA               	addwfc	fsr2h,f,c
  1341  001038  C0EA  FFDF         	movff	memset@c,indf2
  1342  00103C  EE20 F002          	lfsr	2,2
  1343  001040  51F2               	movf	memset@s& (0+255),w,b
  1344  001042  26D9               	addwf	fsr2l,f,c
  1345  001044  51F3               	movf	(memset@s+1)& (0+255),w,b
  1346  001046  22DA               	addwfc	fsr2h,f,c
  1347  001048  C0EA  FFDF         	movff	memset@c,indf2
  1348  00104C  51EC               	movf	memset@n& (0+255),w,b
  1349  00104E  25F2               	addwf	memset@s& (0+255),w,b
  1350  001050  6FEE               	movwf	??_memset& (0+255),b
  1351  001052  51ED               	movf	(memset@n+1)& (0+255),w,b
  1352  001054  21F3               	addwfc	(memset@s+1)& (0+255),w,b
  1353  001056  6FEF               	movwf	(??_memset+1)& (0+255),b
  1354  001058  0EFE               	movlw	254
  1355  00105A  25EE               	addwf	??_memset& (0+255),w,b
  1356  00105C  6ED9               	movwf	fsr2l,c
  1357  00105E  0EFF               	movlw	255
  1358  001060  21EF               	addwfc	(??_memset+1)& (0+255),w,b
  1359  001062  6EDA               	movwf	fsr2h,c
  1360  001064  C0EA  FFDF         	movff	memset@c,indf2
  1361  001068  51EC               	movf	memset@n& (0+255),w,b
  1362  00106A  25F2               	addwf	memset@s& (0+255),w,b
  1363  00106C  6FEE               	movwf	??_memset& (0+255),b
  1364  00106E  51ED               	movf	(memset@n+1)& (0+255),w,b
  1365  001070  21F3               	addwfc	(memset@s+1)& (0+255),w,b
  1366  001072  6FEF               	movwf	(??_memset+1)& (0+255),b
  1367  001074  0EFD               	movlw	253
  1368  001076  25EE               	addwf	??_memset& (0+255),w,b
  1369  001078  6ED9               	movwf	fsr2l,c
  1370  00107A  0EFF               	movlw	255
  1371  00107C  21EF               	addwfc	(??_memset+1)& (0+255),w,b
  1372  00107E  6EDA               	movwf	fsr2h,c
  1373  001080  C0EA  FFDF         	movff	memset@c,indf2
  1374  001084                     
  1375                           ; BSR set to: 0
  1376  001084  51ED               	movf	(memset@n+1)& (0+255),w,b
  1377  001086  E107               	bnz	u3511
  1378  001088  0E07               	movlw	7
  1379  00108A  5DEC               	subwf	memset@n& (0+255),w,b
  1380  00108C  B0D8               	btfsc	status,0,c
  1381  00108E  EF4B  F008         	goto	u3511
  1382  001092  EF4D  F008         	goto	u3510
  1383  001096                     u3511:
  1384  001096  EF4F  F008         	goto	l5043
  1385  00109A                     u3510:
  1386  00109A  EFA0  F008         	goto	l1649
  1387  00109E                     l5043:
  1388                           
  1389                           ; BSR set to: 0
  1390  00109E  EE20 F003          	lfsr	2,3
  1391  0010A2  51F2               	movf	memset@s& (0+255),w,b
  1392  0010A4  26D9               	addwf	fsr2l,f,c
  1393  0010A6  51F3               	movf	(memset@s+1)& (0+255),w,b
  1394  0010A8  22DA               	addwfc	fsr2h,f,c
  1395  0010AA  C0EA  FFDF         	movff	memset@c,indf2
  1396  0010AE  51EC               	movf	memset@n& (0+255),w,b
  1397  0010B0  25F2               	addwf	memset@s& (0+255),w,b
  1398  0010B2  6FEE               	movwf	??_memset& (0+255),b
  1399  0010B4  51ED               	movf	(memset@n+1)& (0+255),w,b
  1400  0010B6  21F3               	addwfc	(memset@s+1)& (0+255),w,b
  1401  0010B8  6FEF               	movwf	(??_memset+1)& (0+255),b
  1402  0010BA  0EFC               	movlw	252
  1403  0010BC  25EE               	addwf	??_memset& (0+255),w,b
  1404  0010BE  6ED9               	movwf	fsr2l,c
  1405  0010C0  0EFF               	movlw	255
  1406  0010C2  21EF               	addwfc	(??_memset+1)& (0+255),w,b
  1407  0010C4  6EDA               	movwf	fsr2h,c
  1408  0010C6  C0EA  FFDF         	movff	memset@c,indf2
  1409  0010CA                     
  1410                           ; BSR set to: 0
  1411  0010CA  51ED               	movf	(memset@n+1)& (0+255),w,b
  1412  0010CC  E107               	bnz	u3521
  1413  0010CE  0E09               	movlw	9
  1414  0010D0  5DEC               	subwf	memset@n& (0+255),w,b
  1415  0010D2  B0D8               	btfsc	status,0,c
  1416  0010D4  EF6E  F008         	goto	u3521
  1417  0010D8  EF70  F008         	goto	u3520
  1418  0010DC                     u3521:
  1419  0010DC  EF72  F008         	goto	l5049
  1420  0010E0                     u3520:
  1421  0010E0  EFA0  F008         	goto	l1649
  1422  0010E4                     l5049:
  1423                           
  1424                           ; BSR set to: 0
  1425  0010E4  C0F2  F0EE         	movff	memset@s,??_memset
  1426  0010E8  C0F3  F0EF         	movff	memset@s+1,??_memset+1
  1427  0010EC  1FEE               	comf	??_memset& (0+255),f,b
  1428  0010EE  1FEF               	comf	(??_memset+1)& (0+255),f,b
  1429  0010F0  4BEE               	infsnz	??_memset& (0+255),f,b
  1430  0010F2  2BEF               	incf	(??_memset+1)& (0+255),f,b
  1431  0010F4  0E03               	movlw	3
  1432  0010F6  15EE               	andwf	??_memset& (0+255),w,b
  1433  0010F8  6FF0               	movwf	memset@k& (0+255),b
  1434  0010FA  6BF1               	clrf	(memset@k+1)& (0+255),b
  1435  0010FC  51F0               	movf	memset@k& (0+255),w,b
  1436  0010FE  27F2               	addwf	memset@s& (0+255),f,b
  1437  001100  51F1               	movf	(memset@k+1)& (0+255),w,b
  1438  001102  23F3               	addwfc	(memset@s+1)& (0+255),f,b
  1439  001104  51F0               	movf	memset@k& (0+255),w,b
  1440  001106  5FEC               	subwf	memset@n& (0+255),f,b
  1441  001108  51F1               	movf	(memset@k+1)& (0+255),w,b
  1442  00110A  5BED               	subwfb	(memset@n+1)& (0+255),f,b
  1443  00110C  0EFC               	movlw	252
  1444  00110E  17EC               	andwf	memset@n& (0+255),f,b
  1445  001110  0EFF               	movlw	255
  1446  001112  17ED               	andwf	(memset@n+1)& (0+255),f,b
  1447  001114  EF97  F008         	goto	l5057
  1448  001118                     l5051:
  1449                           
  1450                           ; BSR set to: 0
  1451  001118  C0F2  FFD9         	movff	memset@s,fsr2l
  1452  00111C  C0F3  FFDA         	movff	memset@s+1,fsr2h
  1453  001120  C0EA  FFDF         	movff	memset@c,indf2
  1454  001124                     
  1455                           ; BSR set to: 0
  1456  001124  07EC               	decf	memset@n& (0+255),f,b
  1457  001126  A0D8               	btfss	status,0,c
  1458  001128  07ED               	decf	(memset@n+1)& (0+255),f,b
  1459  00112A                     
  1460                           ; BSR set to: 0
  1461  00112A  4BF2               	infsnz	memset@s& (0+255),f,b
  1462  00112C  2BF3               	incf	(memset@s+1)& (0+255),f,b
  1463  00112E                     l5057:
  1464                           
  1465                           ; BSR set to: 0
  1466  00112E  51EC               	movf	memset@n& (0+255),w,b
  1467  001130  11ED               	iorwf	(memset@n+1)& (0+255),w,b
  1468  001132  A4D8               	btfss	status,2,c
  1469  001134  EF9E  F008         	goto	u3531
  1470  001138  EFA0  F008         	goto	u3530
  1471  00113C                     u3531:
  1472  00113C  EF8C  F008         	goto	l5051
  1473  001140                     u3530:
  1474  001140                     l1649:
  1475                           
  1476                           ; BSR set to: 0
  1477  001140  0012               	return		;funcret
  1478  001142                     __end_of_memset:
  1479                           	callstack 0
  1480                           
  1481 ;; *************** function _USBDeviceAttach *****************
  1482 ;; Defined at:
  1483 ;;		line 1356 in file "mcc_generated_files/usb/usb_device.c"
  1484 ;; Parameters:    Size  Location     Type
  1485 ;;		None
  1486 ;; Auto vars:     Size  Location     Type
  1487 ;;		None
  1488 ;; Return value:  Size  Location     Type
  1489 ;;                  1    wreg      void 
  1490 ;; Registers used:
  1491 ;;		wreg, status,2
  1492 ;; Tracked objects:
  1493 ;;		On entry : 0/0
  1494 ;;		On exit  : 0/0
  1495 ;;		Unchanged: 0/0
  1496 ;; Data sizes:     COMRAM   BANK0   BANK1   BANK2   BANK3   BANK4   BANK5   BANK6   BANK7
  1497 ;;      Params:         0       0       0       0       0       0       0       0       0
  1498 ;;      Locals:         0       0       0       0       0       0       0       0       0
  1499 ;;      Temps:          0       0       0       0       0       0       0       0       0
  1500 ;;      Totals:         0       0       0       0       0       0       0       0       0
  1501 ;;Total ram usage:        0 bytes
  1502 ;; Hardware stack levels used: 1
  1503 ;; Hardware stack levels required when called: 10
  1504 ;; This function calls:
  1505 ;;		Nothing
  1506 ;; This function is called by:
  1507 ;;		_SYSTEM_Initialize
  1508 ;; This function uses a non-reentrant model
  1509 ;;
  1510                           
  1511                           	psect	text4
  1512  0029C4                     __ptext4:
  1513                           	callstack 0
  1514  0029C4                     _USBDeviceAttach:
  1515                           	callstack 19
  1516  0029C4                     
  1517                           ;mcc_generated_files/usb/usb_device.c: 1360:     {;mcc_generated_files/usb/usb_device.c:
      +                           1361:         if(1 == 1)
  1518  0029C4  504E               	movf	_USBDeviceState^0,w,c	;volatile
  1519  0029C6  A4D8               	btfss	status,2,c
  1520  0029C8  EFE8  F014         	goto	u3601
  1521  0029CC  EFEA  F014         	goto	u3600
  1522  0029D0                     u3601:
  1523  0029D0  EF02  F015         	goto	l199
  1524  0029D4                     u3600:
  1525  0029D4                     
  1526                           ;mcc_generated_files/usb/usb_device.c: 1362:         {;mcc_generated_files/usb/usb_devic
      +                          e.c: 1364:             UCON = 0;
  1527  0029D4  0E00               	movlw	0
  1528  0029D6  6E60               	movwf	96,c	;volatile
  1529                           
  1530                           ;mcc_generated_files/usb/usb_device.c: 1367:             UIE = 0;
  1531  0029D8  0E00               	movlw	0
  1532  0029DA  6E64               	movwf	100,c	;volatile
  1533                           
  1534                           ;mcc_generated_files/usb/usb_device.c: 1371:             { UCFG = 0x10 | 0x00 | 0x04 | 0
      +                          x02; UEIE = 0x9F; UIE = 0x39 | 0x40 | 0x02; };
  1535  0029DC  0E16               	movlw	22
  1536  0029DE  6E62               	movwf	98,c	;volatile
  1537  0029E0  0E9F               	movlw	159
  1538  0029E2  6E66               	movwf	102,c	;volatile
  1539  0029E4  0E7B               	movlw	123
  1540  0029E6  6E64               	movwf	100,c	;volatile
  1541  0029E8                     
  1542                           ;mcc_generated_files/usb/usb_device.c: 1373:             {IPR3bits.USBIP = 1;PIE3bits.US
      +                          BIE = 1;};
  1543  0029E8  84A5               	bsf	165,2,c	;volatile
  1544  0029EA  84A3               	bsf	163,2,c	;volatile
  1545                           
  1546                           ;mcc_generated_files/usb/usb_device.c: 1376:             while(!UCONbits.USBEN){UCONbits
      +                          .USBEN = 1;}
  1547  0029EC  EFF9  F014         	goto	l196
  1548  0029F0                     l197:
  1549  0029F0  8660               	bsf	96,3,c	;volatile
  1550  0029F2                     l196:
  1551  0029F2  A660               	btfss	96,3,c	;volatile
  1552  0029F4  EFFE  F014         	goto	u3611
  1553  0029F8  EF00  F015         	goto	u3610
  1554  0029FC                     u3611:
  1555  0029FC  EFF8  F014         	goto	l197
  1556  002A00                     u3610:
  1557  002A00                     
  1558                           ;mcc_generated_files/usb/usb_device.c: 1379:             USBDeviceState = ATTACHED_STATE
      +                          ;
  1559  002A00  0E01               	movlw	1
  1560  002A02  6E4E               	movwf	_USBDeviceState^0,c	;volatile
  1561  002A04                     l199:
  1562  002A04  0012               	return		;funcret
  1563  002A06                     __end_of_USBDeviceAttach:
  1564                           	callstack 0
  1565                           
  1566 ;; *************** function _TMR3_Initialize *****************
  1567 ;; Defined at:
  1568 ;;		line 63 in file "mcc_generated_files/tmr3.c"
  1569 ;; Parameters:    Size  Location     Type
  1570 ;;		None
  1571 ;; Auto vars:     Size  Location     Type
  1572 ;;		None
  1573 ;; Return value:  Size  Location     Type
  1574 ;;                  1    wreg      void 
  1575 ;; Registers used:
  1576 ;;		wreg, status,2
  1577 ;; Tracked objects:
  1578 ;;		On entry : 0/0
  1579 ;;		On exit  : 0/0
  1580 ;;		Unchanged: 0/0
  1581 ;; Data sizes:     COMRAM   BANK0   BANK1   BANK2   BANK3   BANK4   BANK5   BANK6   BANK7
  1582 ;;      Params:         0       0       0       0       0       0       0       0       0
  1583 ;;      Locals:         0       0       0       0       0       0       0       0       0
  1584 ;;      Temps:          0       0       0       0       0       0       0       0       0
  1585 ;;      Totals:         0       0       0       0       0       0       0       0       0
  1586 ;;Total ram usage:        0 bytes
  1587 ;; Hardware stack levels used: 1
  1588 ;; Hardware stack levels required when called: 10
  1589 ;; This function calls:
  1590 ;;		Nothing
  1591 ;; This function is called by:
  1592 ;;		_SYSTEM_Initialize
  1593 ;; This function uses a non-reentrant model
  1594 ;;
  1595                           
  1596                           	psect	text5
  1597  002B80                     __ptext5:
  1598                           	callstack 0
  1599  002B80                     _TMR3_Initialize:
  1600                           	callstack 19
  1601  002B80                     
  1602                           ;mcc_generated_files/tmr3.c: 68:     T3GCON = 0x00;
  1603  002B80  0E00               	movlw	0
  1604  002B82  6EB4               	movwf	180,c	;volatile
  1605                           
  1606                           ;mcc_generated_files/tmr3.c: 71:     TMR3H = 0x00;
  1607  002B84  0E00               	movlw	0
  1608  002B86  6EB3               	movwf	179,c	;volatile
  1609                           
  1610                           ;mcc_generated_files/tmr3.c: 74:     TMR3L = 0x00;
  1611  002B88  0E00               	movlw	0
  1612  002B8A  6EB2               	movwf	178,c	;volatile
  1613  002B8C                     
  1614                           ;mcc_generated_files/tmr3.c: 77:     timer3ReloadVal=TMR3;
  1615  002B8C  CFB2 F038          	movff	4018,_timer3ReloadVal	;volatile
  1616  002B90  CFB3 F039          	movff	4019,_timer3ReloadVal+1	;volatile
  1617  002B94                     
  1618                           ;mcc_generated_files/tmr3.c: 80:     PIR2bits.TMR3IF = 0;
  1619  002B94  92A1               	bcf	161,1,c	;volatile
  1620                           
  1621                           ;mcc_generated_files/tmr3.c: 83:     T3CON = 0x01;
  1622  002B96  0E01               	movlw	1
  1623  002B98  6EB1               	movwf	177,c	;volatile
  1624  002B9A  0012               	return		;funcret
  1625  002B9C                     __end_of_TMR3_Initialize:
  1626                           	callstack 0
  1627                           
  1628 ;; *************** function _TMR2_Initialize *****************
  1629 ;; Defined at:
  1630 ;;		line 62 in file "mcc_generated_files/tmr2.c"
  1631 ;; Parameters:    Size  Location     Type
  1632 ;;		None
  1633 ;; Auto vars:     Size  Location     Type
  1634 ;;		None
  1635 ;; Return value:  Size  Location     Type
  1636 ;;                  1    wreg      void 
  1637 ;; Registers used:
  1638 ;;		wreg, status,2
  1639 ;; Tracked objects:
  1640 ;;		On entry : 0/0
  1641 ;;		On exit  : 0/0
  1642 ;;		Unchanged: 0/0
  1643 ;; Data sizes:     COMRAM   BANK0   BANK1   BANK2   BANK3   BANK4   BANK5   BANK6   BANK7
  1644 ;;      Params:         0       0       0       0       0       0       0       0       0
  1645 ;;      Locals:         0       0       0       0       0       0       0       0       0
  1646 ;;      Temps:          0       0       0       0       0       0       0       0       0
  1647 ;;      Totals:         0       0       0       0       0       0       0       0       0
  1648 ;;Total ram usage:        0 bytes
  1649 ;; Hardware stack levels used: 1
  1650 ;; Hardware stack levels required when called: 10
  1651 ;; This function calls:
  1652 ;;		Nothing
  1653 ;; This function is called by:
  1654 ;;		_SYSTEM_Initialize
  1655 ;; This function uses a non-reentrant model
  1656 ;;
  1657                           
  1658                           	psect	text6
  1659  002C06                     __ptext6:
  1660                           	callstack 0
  1661  002C06                     _TMR2_Initialize:
  1662                           	callstack 19
  1663  002C06                     
  1664                           ;mcc_generated_files/tmr2.c: 67:     PR2 = 0xFF;
  1665  002C06  68BB               	setf	187,c	;volatile
  1666  002C08                     
  1667                           ;mcc_generated_files/tmr2.c: 70:     TMR2 = 0x00;
  1668  002C08  0E00               	movlw	0
  1669  002C0A  6EBC               	movwf	188,c	;volatile
  1670  002C0C                     
  1671                           ;mcc_generated_files/tmr2.c: 73:     PIR1bits.TMR2IF = 0;
  1672  002C0C  929E               	bcf	158,1,c	;volatile
  1673                           
  1674                           ;mcc_generated_files/tmr2.c: 76:     T2CON = 0x04;
  1675  002C0E  0E04               	movlw	4
  1676  002C10  6EBA               	movwf	186,c	;volatile
  1677  002C12  0012               	return		;funcret
  1678  002C14                     __end_of_TMR2_Initialize:
  1679                           	callstack 0
  1680                           
  1681 ;; *************** function _TMR1_Initialize *****************
  1682 ;; Defined at:
  1683 ;;		line 63 in file "mcc_generated_files/tmr1.c"
  1684 ;; Parameters:    Size  Location     Type
  1685 ;;		None
  1686 ;; Auto vars:     Size  Location     Type
  1687 ;;		None
  1688 ;; Return value:  Size  Location     Type
  1689 ;;                  1    wreg      void 
  1690 ;; Registers used:
  1691 ;;		wreg, status,2
  1692 ;; Tracked objects:
  1693 ;;		On entry : 0/0
  1694 ;;		On exit  : 0/0
  1695 ;;		Unchanged: 0/0
  1696 ;; Data sizes:     COMRAM   BANK0   BANK1   BANK2   BANK3   BANK4   BANK5   BANK6   BANK7
  1697 ;;      Params:         0       0       0       0       0       0       0       0       0
  1698 ;;      Locals:         0       0       0       0       0       0       0       0       0
  1699 ;;      Temps:          0       0       0       0       0       0       0       0       0
  1700 ;;      Totals:         0       0       0       0       0       0       0       0       0
  1701 ;;Total ram usage:        0 bytes
  1702 ;; Hardware stack levels used: 1
  1703 ;; Hardware stack levels required when called: 10
  1704 ;; This function calls:
  1705 ;;		Nothing
  1706 ;; This function is called by:
  1707 ;;		_SYSTEM_Initialize
  1708 ;; This function uses a non-reentrant model
  1709 ;;
  1710                           
  1711                           	psect	text7
  1712  002B9C                     __ptext7:
  1713                           	callstack 0
  1714  002B9C                     _TMR1_Initialize:
  1715                           	callstack 19
  1716  002B9C                     
  1717                           ;mcc_generated_files/tmr1.c: 68:     T1GCON = 0x00;
  1718  002B9C  0E00               	movlw	0
  1719  002B9E  6ECC               	movwf	204,c	;volatile
  1720                           
  1721                           ;mcc_generated_files/tmr1.c: 71:     TMR1H = 0x00;
  1722  002BA0  0E00               	movlw	0
  1723  002BA2  6ECF               	movwf	207,c	;volatile
  1724                           
  1725                           ;mcc_generated_files/tmr1.c: 74:     TMR1L = 0x00;
  1726  002BA4  0E00               	movlw	0
  1727  002BA6  6ECE               	movwf	206,c	;volatile
  1728  002BA8                     
  1729                           ;mcc_generated_files/tmr1.c: 77:     timer1ReloadVal=TMR1;
  1730  002BA8  CFCE F036          	movff	4046,_timer1ReloadVal	;volatile
  1731  002BAC  CFCF F037          	movff	4047,_timer1ReloadVal+1	;volatile
  1732  002BB0                     
  1733                           ;mcc_generated_files/tmr1.c: 80:     PIR1bits.TMR1IF = 0;
  1734  002BB0  909E               	bcf	158,0,c	;volatile
  1735                           
  1736                           ;mcc_generated_files/tmr1.c: 83:     T1CON = 0x01;
  1737  002BB2  0E01               	movlw	1
  1738  002BB4  6ECD               	movwf	205,c	;volatile
  1739  002BB6  0012               	return		;funcret
  1740  002BB8                     __end_of_TMR1_Initialize:
  1741                           	callstack 0
  1742                           
  1743 ;; *************** function _TMR0_Initialize *****************
  1744 ;; Defined at:
  1745 ;;		line 66 in file "mcc_generated_files/tmr0.c"
  1746 ;; Parameters:    Size  Location     Type
  1747 ;;		None
  1748 ;; Auto vars:     Size  Location     Type
  1749 ;;		None
  1750 ;; Return value:  Size  Location     Type
  1751 ;;                  1    wreg      void 
  1752 ;; Registers used:
  1753 ;;		wreg, status,2
  1754 ;; Tracked objects:
  1755 ;;		On entry : 0/0
  1756 ;;		On exit  : 0/0
  1757 ;;		Unchanged: 0/0
  1758 ;; Data sizes:     COMRAM   BANK0   BANK1   BANK2   BANK3   BANK4   BANK5   BANK6   BANK7
  1759 ;;      Params:         0       0       0       0       0       0       0       0       0
  1760 ;;      Locals:         0       0       0       0       0       0       0       0       0
  1761 ;;      Temps:          0       0       0       0       0       0       0       0       0
  1762 ;;      Totals:         0       0       0       0       0       0       0       0       0
  1763 ;;Total ram usage:        0 bytes
  1764 ;; Hardware stack levels used: 1
  1765 ;; Hardware stack levels required when called: 10
  1766 ;; This function calls:
  1767 ;;		Nothing
  1768 ;; This function is called by:
  1769 ;;		_SYSTEM_Initialize
  1770 ;; This function uses a non-reentrant model
  1771 ;;
  1772                           
  1773                           	psect	text8
  1774  002BE2                     __ptext8:
  1775                           	callstack 0
  1776  002BE2                     _TMR0_Initialize:
  1777                           	callstack 19
  1778  002BE2                     
  1779                           ;mcc_generated_files/tmr0.c: 71:     TMR0H = 0x00;
  1780  002BE2  0E00               	movlw	0
  1781  002BE4  6ED7               	movwf	215,c	;volatile
  1782                           
  1783                           ;mcc_generated_files/tmr0.c: 74:     TMR0L = 0x00;
  1784  002BE6  0E00               	movlw	0
  1785  002BE8  6ED6               	movwf	214,c	;volatile
  1786                           
  1787                           ;mcc_generated_files/tmr0.c: 78:     timer0ReloadVal = 0;
  1788  002BEA  0E00               	movlw	0
  1789  002BEC  6E40               	movwf	_timer0ReloadVal^0,c	;volatile
  1790  002BEE                     
  1791                           ;mcc_generated_files/tmr0.c: 81:     INTCONbits.TMR0IF = 0;
  1792  002BEE  94F2               	bcf	242,2,c	;volatile
  1793  002BF0                     
  1794                           ;mcc_generated_files/tmr0.c: 84:     T0CON = 0xFF;
  1795  002BF0  68D5               	setf	213,c	;volatile
  1796  002BF2  0012               	return		;funcret
  1797  002BF4                     __end_of_TMR0_Initialize:
  1798                           	callstack 0
  1799                           
  1800 ;; *************** function _PIN_MANAGER_Initialize *****************
  1801 ;; Defined at:
  1802 ;;		line 55 in file "mcc_generated_files/pin_manager.c"
  1803 ;; Parameters:    Size  Location     Type
  1804 ;;		None
  1805 ;; Auto vars:     Size  Location     Type
  1806 ;;		None
  1807 ;; Return value:  Size  Location     Type
  1808 ;;                  1    wreg      void 
  1809 ;; Registers used:
  1810 ;;		wreg, status,2
  1811 ;; Tracked objects:
  1812 ;;		On entry : 0/0
  1813 ;;		On exit  : 0/0
  1814 ;;		Unchanged: 0/0
  1815 ;; Data sizes:     COMRAM   BANK0   BANK1   BANK2   BANK3   BANK4   BANK5   BANK6   BANK7
  1816 ;;      Params:         0       0       0       0       0       0       0       0       0
  1817 ;;      Locals:         0       0       0       0       0       0       0       0       0
  1818 ;;      Temps:          0       0       0       0       0       0       0       0       0
  1819 ;;      Totals:         0       0       0       0       0       0       0       0       0
  1820 ;;Total ram usage:        0 bytes
  1821 ;; Hardware stack levels used: 1
  1822 ;; Hardware stack levels required when called: 10
  1823 ;; This function calls:
  1824 ;;		Nothing
  1825 ;; This function is called by:
  1826 ;;		_SYSTEM_Initialize
  1827 ;; This function uses a non-reentrant model
  1828 ;;
  1829                           
  1830                           	psect	text9
  1831  002B36                     __ptext9:
  1832                           	callstack 0
  1833  002B36                     _PIN_MANAGER_Initialize:
  1834                           	callstack 19
  1835  002B36                     
  1836                           ;mcc_generated_files/pin_manager.c: 60:     LATA = 0x00;
  1837  002B36  0E00               	movlw	0
  1838  002B38  6E89               	movwf	137,c	;volatile
  1839                           
  1840                           ;mcc_generated_files/pin_manager.c: 61:     LATB = 0x00;
  1841  002B3A  0E00               	movlw	0
  1842  002B3C  6E8A               	movwf	138,c	;volatile
  1843                           
  1844                           ;mcc_generated_files/pin_manager.c: 62:     LATC = 0x00;
  1845  002B3E  0E00               	movlw	0
  1846  002B40  6E8B               	movwf	139,c	;volatile
  1847  002B42                     
  1848                           ;mcc_generated_files/pin_manager.c: 67:     TRISA = 0xFF;
  1849  002B42  6892               	setf	146,c	;volatile
  1850  002B44                     
  1851                           ;mcc_generated_files/pin_manager.c: 68:     TRISB = 0xFF;
  1852  002B44  6893               	setf	147,c	;volatile
  1853                           
  1854                           ;mcc_generated_files/pin_manager.c: 69:     TRISC = 0xC7;
  1855  002B46  0EC7               	movlw	199
  1856  002B48  6E94               	movwf	148,c	;volatile
  1857                           
  1858                           ;mcc_generated_files/pin_manager.c: 74:     ANSELC = 0xC4;
  1859  002B4A  0EC4               	movlw	196
  1860  002B4C  010F               	movlb	15	; () banked
  1861  002B4E  6F5D               	movwf	93,b	;volatile
  1862                           
  1863                           ;mcc_generated_files/pin_manager.c: 75:     ANSELB = 0x3F;
  1864  002B50  0E3F               	movlw	63
  1865  002B52  6F5C               	movwf	92,b	;volatile
  1866                           
  1867                           ;mcc_generated_files/pin_manager.c: 76:     ANSELA = 0x2F;
  1868  002B54  0E2F               	movlw	47
  1869  002B56  6F5B               	movwf	91,b	;volatile
  1870                           
  1871                           ;mcc_generated_files/pin_manager.c: 81:     WPUB = 0x00;
  1872  002B58  0E00               	movlw	0
  1873  002B5A  6E85               	movwf	133,c	;volatile
  1874  002B5C                     
  1875                           ; BSR set to: 15
  1876                           ;mcc_generated_files/pin_manager.c: 82:     INTCON2bits.nRBPU = 1;
  1877  002B5C  8EF1               	bsf	241,7,c	;volatile
  1878  002B5E                     
  1879                           ; BSR set to: 15
  1880  002B5E  0012               	return		;funcret
  1881  002B60                     __end_of_PIN_MANAGER_Initialize:
  1882                           	callstack 0
  1883                           
  1884 ;; *************** function _OSCILLATOR_Initialize *****************
  1885 ;; Defined at:
  1886 ;;		line 66 in file "mcc_generated_files/mcc.c"
  1887 ;; Parameters:    Size  Location     Type
  1888 ;;		None
  1889 ;; Auto vars:     Size  Location     Type
  1890 ;;		None
  1891 ;; Return value:  Size  Location     Type
  1892 ;;                  1    wreg      void 
  1893 ;; Registers used:
  1894 ;;		wreg, status,2
  1895 ;; Tracked objects:
  1896 ;;		On entry : 0/0
  1897 ;;		On exit  : 0/0
  1898 ;;		Unchanged: 0/0
  1899 ;; Data sizes:     COMRAM   BANK0   BANK1   BANK2   BANK3   BANK4   BANK5   BANK6   BANK7
  1900 ;;      Params:         0       0       0       0       0       0       0       0       0
  1901 ;;      Locals:         0       0       0       0       0       0       0       0       0
  1902 ;;      Temps:          0       0       0       0       0       0       0       0       0
  1903 ;;      Totals:         0       0       0       0       0       0       0       0       0
  1904 ;;Total ram usage:        0 bytes
  1905 ;; Hardware stack levels used: 1
  1906 ;; Hardware stack levels required when called: 10
  1907 ;; This function calls:
  1908 ;;		Nothing
  1909 ;; This function is called by:
  1910 ;;		_SYSTEM_Initialize
  1911 ;; This function uses a non-reentrant model
  1912 ;;
  1913                           
  1914                           	psect	text10
  1915  002B60                     __ptext10:
  1916                           	callstack 0
  1917  002B60                     _OSCILLATOR_Initialize:
  1918                           	callstack 19
  1919  002B60                     
  1920                           ;mcc_generated_files/mcc.c: 69:     OSCCON = 0x70;
  1921  002B60  0E70               	movlw	112
  1922  002B62  6ED3               	movwf	211,c	;volatile
  1923                           
  1924                           ;mcc_generated_files/mcc.c: 71:     OSCCON2 = 0x00;
  1925  002B64  0E00               	movlw	0
  1926  002B66  6ED2               	movwf	210,c	;volatile
  1927                           
  1928                           ;mcc_generated_files/mcc.c: 73:     OSCTUNE = 0x80;
  1929  002B68  0E80               	movlw	128
  1930  002B6A  6E9B               	movwf	155,c	;volatile
  1931                           
  1932                           ;mcc_generated_files/mcc.c: 75:     ACTCON = 0x00;
  1933  002B6C  0E00               	movlw	0
  1934  002B6E  6EB5               	movwf	181,c	;volatile
  1935  002B70                     l636:
  1936                           
  1937                           ;mcc_generated_files/mcc.c: 77:     while(PLLRDY == 0)
  1938  002B70  AED2               	btfss	4050,7,c	;volatile
  1939  002B72  EFBD  F015         	goto	u3791
  1940  002B76  EFBF  F015         	goto	u3790
  1941  002B7A                     u3791:
  1942  002B7A  EFB8  F015         	goto	l636
  1943  002B7E                     u3790:
  1944  002B7E  0012               	return		;funcret
  1945  002B80                     __end_of_OSCILLATOR_Initialize:
  1946                           	callstack 0
  1947                           
  1948 ;; *************** function _INTERRUPT_Initialize *****************
  1949 ;; Defined at:
  1950 ;;		line 52 in file "mcc_generated_files/interrupt_manager.c"
  1951 ;; Parameters:    Size  Location     Type
  1952 ;;		None
  1953 ;; Auto vars:     Size  Location     Type
  1954 ;;		None
  1955 ;; Return value:  Size  Location     Type
  1956 ;;                  1    wreg      void 
  1957 ;; Registers used:
  1958 ;;		None
  1959 ;; Tracked objects:
  1960 ;;		On entry : 0/0
  1961 ;;		On exit  : 0/0
  1962 ;;		Unchanged: 0/0
  1963 ;; Data sizes:     COMRAM   BANK0   BANK1   BANK2   BANK3   BANK4   BANK5   BANK6   BANK7
  1964 ;;      Params:         0       0       0       0       0       0       0       0       0
  1965 ;;      Locals:         0       0       0       0       0       0       0       0       0
  1966 ;;      Temps:          0       0       0       0       0       0       0       0       0
  1967 ;;      Totals:         0       0       0       0       0       0       0       0       0
  1968 ;;Total ram usage:        0 bytes
  1969 ;; Hardware stack levels used: 1
  1970 ;; Hardware stack levels required when called: 10
  1971 ;; This function calls:
  1972 ;;		Nothing
  1973 ;; This function is called by:
  1974 ;;		_SYSTEM_Initialize
  1975 ;; This function uses a non-reentrant model
  1976 ;;
  1977                           
  1978                           	psect	text11
  1979  002C14                     __ptext11:
  1980                           	callstack 0
  1981  002C14                     _INTERRUPT_Initialize:
  1982                           	callstack 19
  1983  002C14                     
  1984                           ;mcc_generated_files/interrupt_manager.c: 55:     RCONbits.IPEN = 0;
  1985  002C14  9ED0               	bcf	208,7,c	;volatile
  1986  002C16  0012               	return		;funcret
  1987  002C18                     __end_of_INTERRUPT_Initialize:
  1988                           	callstack 0
  1989                           
  1990 ;; *************** function _CCP2_Initialize *****************
  1991 ;; Defined at:
  1992 ;;		line 60 in file "mcc_generated_files/ccp2.c"
  1993 ;; Parameters:    Size  Location     Type
  1994 ;;		None
  1995 ;; Auto vars:     Size  Location     Type
  1996 ;;		None
  1997 ;; Return value:  Size  Location     Type
  1998 ;;                  1    wreg      void 
  1999 ;; Registers used:
  2000 ;;		wreg, status,2
  2001 ;; Tracked objects:
  2002 ;;		On entry : 0/0
  2003 ;;		On exit  : 0/0
  2004 ;;		Unchanged: 0/0
  2005 ;; Data sizes:     COMRAM   BANK0   BANK1   BANK2   BANK3   BANK4   BANK5   BANK6   BANK7
  2006 ;;      Params:         0       0       0       0       0       0       0       0       0
  2007 ;;      Locals:         0       0       0       0       0       0       0       0       0
  2008 ;;      Temps:          0       0       0       0       0       0       0       0       0
  2009 ;;      Totals:         0       0       0       0       0       0       0       0       0
  2010 ;;Total ram usage:        0 bytes
  2011 ;; Hardware stack levels used: 1
  2012 ;; Hardware stack levels required when called: 10
  2013 ;; This function calls:
  2014 ;;		Nothing
  2015 ;; This function is called by:
  2016 ;;		_SYSTEM_Initialize
  2017 ;; This function uses a non-reentrant model
  2018 ;;
  2019                           
  2020                           	psect	text12
  2021  002BF4                     __ptext12:
  2022                           	callstack 0
  2023  002BF4                     _CCP2_Initialize:
  2024                           	callstack 19
  2025  002BF4                     
  2026                           ;mcc_generated_files/ccp2.c: 65:  CCP2CON = 0x04;
  2027  002BF4  0E04               	movlw	4
  2028  002BF6  6E97               	movwf	151,c	;volatile
  2029                           
  2030                           ;mcc_generated_files/ccp2.c: 68:  CCPR2L = 0x00;
  2031  002BF8  0E00               	movlw	0
  2032  002BFA  6E90               	movwf	144,c	;volatile
  2033                           
  2034                           ;mcc_generated_files/ccp2.c: 71:  CCPR2H = 0x00;
  2035  002BFC  0E00               	movlw	0
  2036  002BFE  6E91               	movwf	145,c	;volatile
  2037  002C00                     
  2038                           ;mcc_generated_files/ccp2.c: 75:  CCPTMRSbits.C2TSEL = 0x0;
  2039  002C00  010F               	movlb	15	; () banked
  2040  002C02  9759               	bcf	89,3,b	;volatile
  2041  002C04                     
  2042                           ; BSR set to: 15
  2043  002C04  0012               	return		;funcret
  2044  002C06                     __end_of_CCP2_Initialize:
  2045                           	callstack 0
  2046                           
  2047 ;; *************** function _ADC_Initialize *****************
  2048 ;; Defined at:
  2049 ;;		line 62 in file "mcc_generated_files/adc.c"
  2050 ;; Parameters:    Size  Location     Type
  2051 ;;		None
  2052 ;; Auto vars:     Size  Location     Type
  2053 ;;		None
  2054 ;; Return value:  Size  Location     Type
  2055 ;;                  1    wreg      void 
  2056 ;; Registers used:
  2057 ;;		wreg, status,2
  2058 ;; Tracked objects:
  2059 ;;		On entry : 0/0
  2060 ;;		On exit  : 0/0
  2061 ;;		Unchanged: 0/0
  2062 ;; Data sizes:     COMRAM   BANK0   BANK1   BANK2   BANK3   BANK4   BANK5   BANK6   BANK7
  2063 ;;      Params:         0       0       0       0       0       0       0       0       0
  2064 ;;      Locals:         0       0       0       0       0       0       0       0       0
  2065 ;;      Temps:          0       0       0       0       0       0       0       0       0
  2066 ;;      Totals:         0       0       0       0       0       0       0       0       0
  2067 ;;Total ram usage:        0 bytes
  2068 ;; Hardware stack levels used: 1
  2069 ;; Hardware stack levels required when called: 10
  2070 ;; This function calls:
  2071 ;;		Nothing
  2072 ;; This function is called by:
  2073 ;;		_SYSTEM_Initialize
  2074 ;; This function uses a non-reentrant model
  2075 ;;
  2076                           
  2077                           	psect	text13
  2078  002BB8                     __ptext13:
  2079                           	callstack 0
  2080  002BB8                     _ADC_Initialize:
  2081                           	callstack 19
  2082  002BB8                     
  2083                           ;mcc_generated_files/adc.c: 67:     ADCON1 = 0x00;
  2084  002BB8  0E00               	movlw	0
  2085  002BBA  6EC1               	movwf	193,c	;volatile
  2086                           
  2087                           ;mcc_generated_files/adc.c: 70:     ADCON2 = 0x06;
  2088  002BBC  0E06               	movlw	6
  2089  002BBE  6EC0               	movwf	192,c	;volatile
  2090                           
  2091                           ;mcc_generated_files/adc.c: 73:     ADRESL = 0x00;
  2092  002BC0  0E00               	movlw	0
  2093  002BC2  6EC3               	movwf	195,c	;volatile
  2094                           
  2095                           ;mcc_generated_files/adc.c: 76:     ADRESH = 0x00;
  2096  002BC4  0E00               	movlw	0
  2097  002BC6  6EC4               	movwf	196,c	;volatile
  2098                           
  2099                           ;mcc_generated_files/adc.c: 79:     ADCON0 = 0x01;
  2100  002BC8  0E01               	movlw	1
  2101  002BCA  6EC2               	movwf	194,c	;volatile
  2102  002BCC  0012               	return		;funcret
  2103  002BCE                     __end_of_ADC_Initialize:
  2104                           	callstack 0
  2105                           
  2106 ;; *************** function _MCC_USB_CDC_DemoTasks *****************
  2107 ;; Defined at:
  2108 ;;		line 37 in file "mcc_generated_files/usb/example_mcc_usb_cdc.c"
  2109 ;; Parameters:    Size  Location     Type
  2110 ;;		None
  2111 ;; Auto vars:     Size  Location     Type
  2112 ;;  i               1   18[BANK0 ] unsigned char 
  2113 ;;  numBytesRead    1   17[BANK0 ] unsigned char 
  2114 ;; Return value:  Size  Location     Type
  2115 ;;                  1    wreg      void 
  2116 ;; Registers used:
  2117 ;;		wreg, fsr1l, fsr1h, fsr2l, fsr2h, status,2, status,0, prodl, prodh, cstack
  2118 ;; Tracked objects:
  2119 ;;		On entry : 0/0
  2120 ;;		On exit  : 0/0
  2121 ;;		Unchanged: 0/0
  2122 ;; Data sizes:     COMRAM   BANK0   BANK1   BANK2   BANK3   BANK4   BANK5   BANK6   BANK7
  2123 ;;      Params:         0       0       0       0       0       0       0       0       0
  2124 ;;      Locals:         0       2       0       0       0       0       0       0       0
  2125 ;;      Temps:          0       2       0       0       0       0       0       0       0
  2126 ;;      Totals:         0       4       0       0       0       0       0       0       0
  2127 ;;Total ram usage:        4 bytes
  2128 ;; Hardware stack levels used: 1
  2129 ;; Hardware stack levels required when called: 12
  2130 ;; This function calls:
  2131 ;;		_CDCTxService
  2132 ;;		_getsUSBUSART
  2133 ;;		_putUSBUSART
  2134 ;; This function is called by:
  2135 ;;		_main
  2136 ;; This function uses a non-reentrant model
  2137 ;;
  2138                           
  2139                           	psect	text14
  2140  002124                     __ptext14:
  2141                           	callstack 0
  2142  002124                     _MCC_USB_CDC_DemoTasks:
  2143                           	callstack 18
  2144  002124                     
  2145                           ;mcc_generated_files/usb/example_mcc_usb_cdc.c: 39:     if( USBDeviceState < CONFIGURED_
      +                          STATE )
  2146  002124  0E20               	movlw	32
  2147  002126  604E               	cpfslt	_USBDeviceState^0,c	;volatile
  2148  002128  EF98  F010         	goto	u3801
  2149  00212C  EF9A  F010         	goto	u3800
  2150  002130                     u3801:
  2151  002130  EF9C  F010         	goto	l564
  2152  002134                     u3800:
  2153  002134  EF15  F011         	goto	l565
  2154  002138                     l564:
  2155                           
  2156                           ;mcc_generated_files/usb/example_mcc_usb_cdc.c: 44:     if( UCONbits.SUSPND== 1 )
  2157  002138  A260               	btfss	96,1,c	;volatile
  2158  00213A  EFA1  F010         	goto	u3811
  2159  00213E  EFA3  F010         	goto	u3810
  2160  002142                     u3811:
  2161  002142  EFA5  F010         	goto	l5327
  2162  002146                     u3810:
  2163  002146  EF15  F011         	goto	l565
  2164  00214A                     l5327:
  2165                           
  2166                           ;mcc_generated_files/usb/example_mcc_usb_cdc.c: 49:     if( (cdc_trf_state == 0) == 1)
  2167  00214A  5042               	movf	_cdc_trf_state^0,w,c
  2168  00214C  A4D8               	btfss	status,2,c
  2169  00214E  EFAB  F010         	goto	u3821
  2170  002152  EFAD  F010         	goto	u3820
  2171  002156                     u3821:
  2172  002156  EF13  F011         	goto	l5349
  2173  00215A                     u3820:
  2174  00215A                     
  2175                           ;mcc_generated_files/usb/example_mcc_usb_cdc.c: 50:     {;mcc_generated_files/usb/exampl
      +                          e_mcc_usb_cdc.c: 51:         uint8_t i;;mcc_generated_files/usb/example_mcc_usb_cdc.c: 5
      +                          2:         uint8_t numBytesRead;;mcc_generated_files/usb/example_mcc_usb_cdc.c: 54:     
      +                              numBytesRead = getsUSBUSART(readBuffer, sizeof(readBuffer));
  2176  00215A  0E99               	movlw	low _readBuffer
  2177  00215C  0100               	movlb	0	; () banked
  2178  00215E  6FF3               	movwf	getsUSBUSART@buffer& (0+255),b
  2179  002160  0E00               	movlw	high _readBuffer
  2180  002162  6FF4               	movwf	(getsUSBUSART@buffer+1)& (0+255),b
  2181  002164  0E40               	movlw	64
  2182  002166  6FF5               	movwf	getsUSBUSART@len& (0+255),b
  2183  002168  EC04  F012         	call	_getsUSBUSART	;wreg free
  2184  00216C  0100               	movlb	0	; () banked
  2185  00216E  6FF9               	movwf	MCC_USB_CDC_DemoTasks@numBytesRead& (0+255),b
  2186  002170                     
  2187                           ; BSR set to: 0
  2188                           ;mcc_generated_files/usb/example_mcc_usb_cdc.c: 56:         for(i=0; i<numBytesRead; i++
      +                          )
  2189  002170  0E00               	movlw	0
  2190  002172  6FFA               	movwf	MCC_USB_CDC_DemoTasks@i& (0+255),b
  2191  002174  EFFA  F010         	goto	l5343
  2192  002178                     l5333:
  2193                           
  2194                           ; BSR set to: 0
  2195                           ;mcc_generated_files/usb/example_mcc_usb_cdc.c: 63:                     writeBuffer[i] =
      +                           readBuffer[i];
  2196  002178  0E99               	movlw	low _readBuffer
  2197  00217A  25FA               	addwf	MCC_USB_CDC_DemoTasks@i& (0+255),w,b
  2198  00217C  6ED9               	movwf	fsr2l,c
  2199  00217E  6ADA               	clrf	fsr2h,c
  2200  002180  0E00               	movlw	high _readBuffer
  2201  002182  22DA               	addwfc	fsr2h,f,c
  2202  002184  0E00               	movlw	low _writeBuffer
  2203  002186  25FA               	addwf	MCC_USB_CDC_DemoTasks@i& (0+255),w,b
  2204  002188  6EE1               	movwf	fsr1l,c
  2205  00218A  6AE2               	clrf	fsr1h,c
  2206  00218C  0E01               	movlw	high _writeBuffer
  2207  00218E  22E2               	addwfc	fsr1h,f,c
  2208  002190  CFDF FFE7          	movff	indf2,indf1
  2209                           
  2210                           ;mcc_generated_files/usb/example_mcc_usb_cdc.c: 64:                     break;
  2211  002194  EFF9  F010         	goto	l5341
  2212  002198                     l5335:
  2213                           
  2214                           ; BSR set to: 0
  2215                           ;mcc_generated_files/usb/example_mcc_usb_cdc.c: 68:                     writeBuffer[i] =
      +                           readBuffer[i] + 1;
  2216  002198  0E00               	movlw	low _writeBuffer
  2217  00219A  25FA               	addwf	MCC_USB_CDC_DemoTasks@i& (0+255),w,b
  2218  00219C  6ED9               	movwf	fsr2l,c
  2219  00219E  6ADA               	clrf	fsr2h,c
  2220  0021A0  0E01               	movlw	high _writeBuffer
  2221  0021A2  22DA               	addwfc	fsr2h,f,c
  2222  0021A4  0E99               	movlw	low _readBuffer
  2223  0021A6  25FA               	addwf	MCC_USB_CDC_DemoTasks@i& (0+255),w,b
  2224  0021A8  6EE1               	movwf	fsr1l,c
  2225  0021AA  6AE2               	clrf	fsr1h,c
  2226  0021AC  0E00               	movlw	high _readBuffer
  2227  0021AE  22E2               	addwfc	fsr1h,f,c
  2228  0021B0  50E7               	movf	indf1,w,c
  2229  0021B2  6FF7               	movwf	??_MCC_USB_CDC_DemoTasks& (0+255),b
  2230  0021B4  29F7               	incf	??_MCC_USB_CDC_DemoTasks& (0+255),w,b
  2231  0021B6  6EDF               	movwf	indf2,c
  2232                           
  2233                           ;mcc_generated_files/usb/example_mcc_usb_cdc.c: 69:                     break;
  2234  0021B8  EFF9  F010         	goto	l5341
  2235  0021BC                     l5339:
  2236                           
  2237                           ; BSR set to: 0
  2238  0021BC  0E99               	movlw	low _readBuffer
  2239  0021BE  25FA               	addwf	MCC_USB_CDC_DemoTasks@i& (0+255),w,b
  2240  0021C0  6ED9               	movwf	fsr2l,c
  2241  0021C2  6ADA               	clrf	fsr2h,c
  2242  0021C4  0E00               	movlw	high _readBuffer
  2243  0021C6  22DA               	addwfc	fsr2h,f,c
  2244  0021C8  50DF               	movf	indf2,w,c
  2245  0021CA  6FF7               	movwf	??_MCC_USB_CDC_DemoTasks& (0+255),b
  2246  0021CC  6BF8               	clrf	(??_MCC_USB_CDC_DemoTasks+1)& (0+255),b
  2247                           
  2248                           ; Switch on 2 bytes has been partitioned into a top level switch of size 1, and 1 sub-sw
      +                          itches
  2249                           ; Switch size 1, requested type "simple"
  2250                           ; Number of cases is 1, Range of values is 0 to 0
  2251                           ; switch strategies available:
  2252                           ; Name         Instructions Cycles
  2253                           ; simple_byte            4     3 (average)
  2254                           ;	Chosen strategy is simple_byte
  2255  0021CE  51F8               	movf	(??_MCC_USB_CDC_DemoTasks+1)& (0+255),w,b
  2256  0021D0  0A00               	xorlw	0	; case 0
  2257  0021D2  B4D8               	btfsc	status,2,c
  2258  0021D4  EFEE  F010         	goto	l5563
  2259  0021D8  EFCC  F010         	goto	l5335
  2260  0021DC                     l5563:
  2261                           
  2262                           ; BSR set to: 0
  2263                           ; Switch size 1, requested type "simple"
  2264                           ; Number of cases is 2, Range of values is 10 to 13
  2265                           ; switch strategies available:
  2266                           ; Name         Instructions Cycles
  2267                           ; simple_byte            7     4 (average)
  2268                           ;	Chosen strategy is simple_byte
  2269  0021DC  51F7               	movf	??_MCC_USB_CDC_DemoTasks& (0+255),w,b
  2270  0021DE  0A0A               	xorlw	10	; case 10
  2271  0021E0  B4D8               	btfsc	status,2,c
  2272  0021E2  EFBC  F010         	goto	l5333
  2273  0021E6  0A07               	xorlw	7	; case 13
  2274  0021E8  B4D8               	btfsc	status,2,c
  2275  0021EA  EFBC  F010         	goto	l5333
  2276  0021EE  EFCC  F010         	goto	l5335
  2277  0021F2                     l5341:
  2278                           
  2279                           ; BSR set to: 0
  2280                           ;mcc_generated_files/usb/example_mcc_usb_cdc.c: 71:         }
  2281  0021F2  2BFA               	incf	MCC_USB_CDC_DemoTasks@i& (0+255),f,b
  2282  0021F4                     l5343:
  2283                           
  2284                           ; BSR set to: 0
  2285  0021F4  51F9               	movf	MCC_USB_CDC_DemoTasks@numBytesRead& (0+255),w,b
  2286  0021F6  5DFA               	subwf	MCC_USB_CDC_DemoTasks@i& (0+255),w,b
  2287  0021F8  A0D8               	btfss	status,0,c
  2288  0021FA  EF01  F011         	goto	u3831
  2289  0021FE  EF03  F011         	goto	u3830
  2290  002202                     u3831:
  2291  002202  EFDE  F010         	goto	l5339
  2292  002206                     u3830:
  2293  002206                     
  2294                           ; BSR set to: 0
  2295                           ;mcc_generated_files/usb/example_mcc_usb_cdc.c: 73:         if(numBytesRead > 0)
  2296  002206  51F9               	movf	MCC_USB_CDC_DemoTasks@numBytesRead& (0+255),w,b
  2297  002208  B4D8               	btfsc	status,2,c
  2298  00220A  EF09  F011         	goto	u3841
  2299  00220E  EF0B  F011         	goto	u3840
  2300  002212                     u3841:
  2301  002212  EF13  F011         	goto	l5349
  2302  002216                     u3840:
  2303  002216                     
  2304                           ; BSR set to: 0
  2305                           ;mcc_generated_files/usb/example_mcc_usb_cdc.c: 74:         {;mcc_generated_files/usb/ex
      +                          ample_mcc_usb_cdc.c: 75:             putUSBUSART(writeBuffer,numBytesRead);
  2306  002216  0E00               	movlw	low _writeBuffer
  2307  002218  6FE8               	movwf	putUSBUSART@data& (0+255),b
  2308  00221A  0E01               	movlw	high _writeBuffer
  2309  00221C  6FE9               	movwf	(putUSBUSART@data+1)& (0+255),b
  2310  00221E  C0F9  F0EA         	movff	MCC_USB_CDC_DemoTasks@numBytesRead,putUSBUSART@length
  2311  002222  EC85  F015         	call	_putUSBUSART	;wreg free
  2312  002226                     l5349:
  2313                           
  2314                           ;mcc_generated_files/usb/example_mcc_usb_cdc.c: 79:     CDCTxService();
  2315  002226  EC19  F007         	call	_CDCTxService	;wreg free
  2316  00222A                     l565:
  2317  00222A  0012               	return		;funcret
  2318  00222C                     __end_of_MCC_USB_CDC_DemoTasks:
  2319                           	callstack 0
  2320                           
  2321 ;; *************** function _putUSBUSART *****************
  2322 ;; Defined at:
  2323 ;;		line 574 in file "mcc_generated_files/usb/usb_device_cdc.c"
  2324 ;; Parameters:    Size  Location     Type
  2325 ;;  data            2    0[BANK0 ] PTR unsigned char 
  2326 ;;		 -> writeBuffer(64), 
  2327 ;;  length          1    2[BANK0 ] unsigned char 
  2328 ;; Auto vars:     Size  Location     Type
  2329 ;;		None
  2330 ;; Return value:  Size  Location     Type
  2331 ;;                  1    wreg      void 
  2332 ;; Registers used:
  2333 ;;		wreg, status,2, status,0
  2334 ;; Tracked objects:
  2335 ;;		On entry : 0/0
  2336 ;;		On exit  : 0/0
  2337 ;;		Unchanged: 0/0
  2338 ;; Data sizes:     COMRAM   BANK0   BANK1   BANK2   BANK3   BANK4   BANK5   BANK6   BANK7
  2339 ;;      Params:         0       3       0       0       0       0       0       0       0
  2340 ;;      Locals:         0       0       0       0       0       0       0       0       0
  2341 ;;      Temps:          0       0       0       0       0       0       0       0       0
  2342 ;;      Totals:         0       3       0       0       0       0       0       0       0
  2343 ;;Total ram usage:        3 bytes
  2344 ;; Hardware stack levels used: 1
  2345 ;; Hardware stack levels required when called: 10
  2346 ;; This function calls:
  2347 ;;		Nothing
  2348 ;; This function is called by:
  2349 ;;		_MCC_USB_CDC_DemoTasks
  2350 ;; This function uses a non-reentrant model
  2351 ;;
  2352                           
  2353                           	psect	text15
  2354  002B0A                     __ptext15:
  2355                           	callstack 0
  2356  002B0A                     _putUSBUSART:
  2357                           	callstack 19
  2358  002B0A                     
  2359                           ;mcc_generated_files/usb/usb_device_cdc.c: 574: void putUSBUSART(uint8_t *data, uint8_t 
      +                          length);mcc_generated_files/usb/usb_device_cdc.c: 575: {;mcc_generated_files/usb/usb_dev
      +                          ice_cdc.c: 599:     {PIE3bits.USBIE = 0;};
  2360  002B0A  94A3               	bcf	163,2,c	;volatile
  2361  002B0C                     
  2362                           ;mcc_generated_files/usb/usb_device_cdc.c: 600:     if(cdc_trf_state == 0)
  2363  002B0C  5042               	movf	_cdc_trf_state^0,w,c
  2364  002B0E  A4D8               	btfss	status,2,c
  2365  002B10  EF8C  F015         	goto	u3661
  2366  002B14  EF8E  F015         	goto	u3660
  2367  002B18                     u3661:
  2368  002B18  EF99  F015         	goto	l5211
  2369  002B1C                     u3660:
  2370  002B1C                     
  2371                           ;mcc_generated_files/usb/usb_device_cdc.c: 601:     {;mcc_generated_files/usb/usb_device
      +                          _cdc.c: 602:         { pCDCSrc.bRam = (uint8_t*)data; cdc_tx_len = length; cdc_mem_type 
      +                          = 0x01; cdc_trf_state = 1; };
  2372  002B1C  C0E8  F087         	movff	putUSBUSART@data,_pCDCSrc
  2373  002B20  C0E9  F088         	movff	putUSBUSART@data+1,_pCDCSrc+1
  2374  002B24  C0EA  F095         	movff	putUSBUSART@length,_cdc_tx_len
  2375  002B28  0E01               	movlw	1
  2376  002B2A  0100               	movlb	0	; () banked
  2377  002B2C  6F94               	movwf	_cdc_mem_type& (0+255),b
  2378  002B2E                     
  2379                           ; BSR set to: 0
  2380  002B2E  0E01               	movlw	1
  2381  002B30  6E42               	movwf	_cdc_trf_state^0,c
  2382  002B32                     l5211:
  2383                           
  2384                           ;mcc_generated_files/usb/usb_device_cdc.c: 604:     {PIE3bits.USBIE = 1;};
  2385  002B32  84A3               	bsf	163,2,c	;volatile
  2386  002B34  0012               	return		;funcret
  2387  002B36                     __end_of_putUSBUSART:
  2388                           	callstack 0
  2389                           
  2390 ;; *************** function _getsUSBUSART *****************
  2391 ;; Defined at:
  2392 ;;		line 503 in file "mcc_generated_files/usb/usb_device_cdc.c"
  2393 ;; Parameters:    Size  Location     Type
  2394 ;;  buffer          2   11[BANK0 ] PTR unsigned char 
  2395 ;;		 -> readBuffer(64), 
  2396 ;;  len             1   13[BANK0 ] unsigned char 
  2397 ;; Auto vars:     Size  Location     Type
  2398 ;;		None
  2399 ;; Return value:  Size  Location     Type
  2400 ;;                  1    wreg      unsigned char 
  2401 ;; Registers used:
  2402 ;;		wreg, fsr1l, fsr1h, fsr2l, fsr2h, status,2, status,0, prodl, prodh, cstack
  2403 ;; Tracked objects:
  2404 ;;		On entry : 0/0
  2405 ;;		On exit  : 0/0
  2406 ;;		Unchanged: 0/0
  2407 ;; Data sizes:     COMRAM   BANK0   BANK1   BANK2   BANK3   BANK4   BANK5   BANK6   BANK7
  2408 ;;      Params:         0       3       0       0       0       0       0       0       0
  2409 ;;      Locals:         0       0       0       0       0       0       0       0       0
  2410 ;;      Temps:          0       1       0       0       0       0       0       0       0
  2411 ;;      Totals:         0       4       0       0       0       0       0       0       0
  2412 ;;Total ram usage:        4 bytes
  2413 ;; Hardware stack levels used: 1
  2414 ;; Hardware stack levels required when called: 11
  2415 ;; This function calls:
  2416 ;;		_USBTransferOnePacket
  2417 ;; This function is called by:
  2418 ;;		_MCC_USB_CDC_DemoTasks
  2419 ;; This function uses a non-reentrant model
  2420 ;;
  2421                           
  2422                           	psect	text16
  2423  002408                     __ptext16:
  2424                           	callstack 0
  2425  002408                     _getsUSBUSART:
  2426                           	callstack 18
  2427  002408                     
  2428                           ;mcc_generated_files/usb/usb_device_cdc.c: 503: uint8_t getsUSBUSART(uint8_t *buffer, ui
      +                          nt8_t len);mcc_generated_files/usb/usb_device_cdc.c: 504: {;mcc_generated_files/usb/usb_
      +                          device_cdc.c: 505:     cdc_rx_len = 0;
  2429  002408  0E00               	movlw	0
  2430  00240A  0100               	movlb	0	; () banked
  2431  00240C  6F96               	movwf	_cdc_rx_len& (0+255),b
  2432  00240E                     
  2433                           ; BSR set to: 0
  2434                           ;mcc_generated_files/usb/usb_device_cdc.c: 507:     if(!((CDCDataOutHandle != 0x0000) &&
      +                           ((*(volatile uint8_t*)CDCDataOutHandle & 0x80) != 0x00)))
  2435  00240E  5192               	movf	_CDCDataOutHandle& (0+255),w,b
  2436  002410  1193               	iorwf	(_CDCDataOutHandle+1)& (0+255),w,b
  2437  002412  B4D8               	btfsc	status,2,c
  2438  002414  EF0E  F012         	goto	u3621
  2439  002418  EF10  F012         	goto	u3620
  2440  00241C                     u3621:
  2441  00241C  EF1B  F012         	goto	l5181
  2442  002420                     u3620:
  2443  002420                     
  2444                           ; BSR set to: 0
  2445  002420  C092  FFD9         	movff	_CDCDataOutHandle,fsr2l
  2446  002424  C093  FFDA         	movff	_CDCDataOutHandle+1,fsr2h
  2447  002428  BEDF               	btfsc	indf2,7,c
  2448  00242A  EF19  F012         	goto	u3631
  2449  00242E  EF1B  F012         	goto	u3630
  2450  002432                     u3631:
  2451  002432  EF5D  F012         	goto	l5195
  2452  002436                     u3630:
  2453  002436                     l5181:
  2454                           
  2455                           ; BSR set to: 0
  2456                           ;mcc_generated_files/usb/usb_device_cdc.c: 508:     {;mcc_generated_files/usb/usb_device
      +                          _cdc.c: 513:         if(len > (((volatile BDT_ENTRY*)CDCDataOutHandle)->CNT))
  2457  002436  EE20 F001          	lfsr	2,1
  2458  00243A  5192               	movf	_CDCDataOutHandle& (0+255),w,b
  2459  00243C  26D9               	addwf	fsr2l,f,c
  2460  00243E  5193               	movf	(_CDCDataOutHandle+1)& (0+255),w,b
  2461  002440  22DA               	addwfc	fsr2h,f,c
  2462  002442  51F5               	movf	getsUSBUSART@len& (0+255),w,b
  2463  002444  5CDE               	subwf	postinc2,w,c
  2464  002446  B0D8               	btfsc	status,0,c
  2465  002448  EF28  F012         	goto	u3641
  2466  00244C  EF2A  F012         	goto	u3640
  2467  002450                     u3641:
  2468  002450  EF32  F012         	goto	l5185
  2469  002454                     u3640:
  2470  002454                     
  2471                           ; BSR set to: 0
  2472                           ;mcc_generated_files/usb/usb_device_cdc.c: 514:             len = (((volatile BDT_ENTRY*
      +                          )CDCDataOutHandle)->CNT);
  2473  002454  EE20 F001          	lfsr	2,1
  2474  002458  5192               	movf	_CDCDataOutHandle& (0+255),w,b
  2475  00245A  26D9               	addwf	fsr2l,f,c
  2476  00245C  5193               	movf	(_CDCDataOutHandle+1)& (0+255),w,b
  2477  00245E  22DA               	addwfc	fsr2h,f,c
  2478  002460  50DF               	movf	indf2,w,c
  2479  002462  6FF5               	movwf	getsUSBUSART@len& (0+255),b
  2480  002464                     l5185:
  2481                           
  2482                           ; BSR set to: 0
  2483                           ;mcc_generated_files/usb/usb_device_cdc.c: 519:         for(cdc_rx_len = 0; cdc_rx_len <
      +                           len; cdc_rx_len++)
  2484  002464  0E00               	movlw	0
  2485  002466  6F96               	movwf	_cdc_rx_len& (0+255),b
  2486  002468  EF45  F012         	goto	l5191
  2487  00246C                     l5187:
  2488                           
  2489                           ; BSR set to: 0
  2490                           ;mcc_generated_files/usb/usb_device_cdc.c: 520:             buffer[cdc_rx_len] = cdc_dat
      +                          a_rx[cdc_rx_len];
  2491  00246C  0E40               	movlw	64
  2492  00246E  2596               	addwf	_cdc_rx_len& (0+255),w,b
  2493  002470  6ED9               	movwf	fsr2l,c
  2494  002472  6ADA               	clrf	fsr2h,c
  2495  002474  0E05               	movlw	5
  2496  002476  22DA               	addwfc	fsr2h,f,c
  2497  002478  5196               	movf	_cdc_rx_len& (0+255),w,b
  2498  00247A  25F3               	addwf	getsUSBUSART@buffer& (0+255),w,b
  2499  00247C  6EE1               	movwf	fsr1l,c
  2500  00247E  0E00               	movlw	0
  2501  002480  21F4               	addwfc	(getsUSBUSART@buffer+1)& (0+255),w,b
  2502  002482  6EE2               	movwf	fsr1h,c
  2503  002484  CFDF FFE7          	movff	indf2,indf1
  2504  002488                     
  2505                           ; BSR set to: 0
  2506  002488  2B96               	incf	_cdc_rx_len& (0+255),f,b
  2507  00248A                     l5191:
  2508                           
  2509                           ; BSR set to: 0
  2510  00248A  51F5               	movf	getsUSBUSART@len& (0+255),w,b
  2511  00248C  5D96               	subwf	_cdc_rx_len& (0+255),w,b
  2512  00248E  A0D8               	btfss	status,0,c
  2513  002490  EF4C  F012         	goto	u3651
  2514  002494  EF4E  F012         	goto	u3650
  2515  002498                     u3651:
  2516  002498  EF36  F012         	goto	l5187
  2517  00249C                     u3650:
  2518  00249C                     
  2519                           ; BSR set to: 0
  2520                           ;mcc_generated_files/usb/usb_device_cdc.c: 526:         CDCDataOutHandle = USBTransferOn
      +                          ePacket(2,0,(uint8_t*)&cdc_data_rx,sizeof(cdc_data_rx));
  2521  00249C  0E00               	movlw	0
  2522  00249E  6FE8               	movwf	USBTransferOnePacket@dir& (0+255),b
  2523  0024A0  0E40               	movlw	64
  2524  0024A2  6FE9               	movwf	USBTransferOnePacket@data& (0+255),b
  2525  0024A4  0E05               	movlw	5
  2526  0024A6  6FEA               	movwf	(USBTransferOnePacket@data+1)& (0+255),b
  2527  0024A8  0E40               	movlw	64
  2528  0024AA  6FEB               	movwf	USBTransferOnePacket@len& (0+255),b
  2529  0024AC  0E02               	movlw	2
  2530  0024AE  EC04  F00C         	call	_USBTransferOnePacket
  2531  0024B2  C0E8  F092         	movff	?_USBTransferOnePacket,_CDCDataOutHandle
  2532  0024B6  C0E9  F093         	movff	?_USBTransferOnePacket+1,_CDCDataOutHandle+1
  2533  0024BA                     l5195:
  2534                           
  2535                           ;mcc_generated_files/usb/usb_device_cdc.c: 530:     return cdc_rx_len;
  2536  0024BA  0100               	movlb	0	; () banked
  2537  0024BC  5196               	movf	_cdc_rx_len& (0+255),w,b
  2538  0024BE                     
  2539                           ; BSR set to: 0
  2540  0024BE  0012               	return		;funcret
  2541  0024C0                     __end_of_getsUSBUSART:
  2542                           	callstack 0
  2543                           
  2544 ;; *************** function _CDCTxService *****************
  2545 ;; Defined at:
  2546 ;;		line 854 in file "mcc_generated_files/usb/usb_device_cdc.c"
  2547 ;; Parameters:    Size  Location     Type
  2548 ;;		None
  2549 ;; Auto vars:     Size  Location     Type
  2550 ;;  byte_to_send    1   12[BANK0 ] unsigned char 
  2551 ;;  i               1   11[BANK0 ] unsigned char 
  2552 ;; Return value:  Size  Location     Type
  2553 ;;                  1    wreg      void 
  2554 ;; Registers used:
  2555 ;;		wreg, fsr1l, fsr1h, fsr2l, fsr2h, status,2, status,0, prodl, prodh, cstack
  2556 ;; Tracked objects:
  2557 ;;		On entry : 0/0
  2558 ;;		On exit  : 0/0
  2559 ;;		Unchanged: 0/0
  2560 ;; Data sizes:     COMRAM   BANK0   BANK1   BANK2   BANK3   BANK4   BANK5   BANK6   BANK7
  2561 ;;      Params:         0       0       0       0       0       0       0       0       0
  2562 ;;      Locals:         0       2       0       0       0       0       0       0       0
  2563 ;;      Temps:          0       0       0       0       0       0       0       0       0
  2564 ;;      Totals:         0       2       0       0       0       0       0       0       0
  2565 ;;Total ram usage:        2 bytes
  2566 ;; Hardware stack levels used: 1
  2567 ;; Hardware stack levels required when called: 11
  2568 ;; This function calls:
  2569 ;;		_USBTransferOnePacket
  2570 ;; This function is called by:
  2571 ;;		_MCC_USB_CDC_DemoTasks
  2572 ;; This function uses a non-reentrant model
  2573 ;;
  2574                           
  2575                           	psect	text17
  2576  000E32                     __ptext17:
  2577                           	callstack 0
  2578  000E32                     _CDCTxService:
  2579                           	callstack 18
  2580  000E32                     
  2581                           ;mcc_generated_files/usb/usb_device_cdc.c: 856:     uint8_t byte_to_send;;mcc_generated_
      +                          files/usb/usb_device_cdc.c: 857:     uint8_t i;;mcc_generated_files/usb/usb_device_cdc.c
      +                          : 859:     {PIE3bits.USBIE = 0;};
  2582  000E32  94A3               	bcf	163,2,c	;volatile
  2583  000E34                     
  2584                           ;mcc_generated_files/usb/usb_device_cdc.c: 861:     {};;mcc_generated_files/usb/usb_devi
      +                          ce_cdc.c: 863:     if(((CDCDataInHandle != 0x0000) && ((*(volatile uint8_t*)CDCDataInHan
      +                          dle & 0x80) != 0x00)))
  2585  000E34  0100               	movlb	0	; () banked
  2586  000E36  5190               	movf	_CDCDataInHandle& (0+255),w,b
  2587  000E38  1191               	iorwf	(_CDCDataInHandle+1)& (0+255),w,b
  2588  000E3A  B4D8               	btfsc	status,2,c
  2589  000E3C  EF22  F007         	goto	u3671
  2590  000E40  EF24  F007         	goto	u3670
  2591  000E44                     u3671:
  2592  000E44  EF32  F007         	goto	l5221
  2593  000E48                     u3670:
  2594  000E48                     
  2595                           ; BSR set to: 0
  2596  000E48  C090  FFD9         	movff	_CDCDataInHandle,fsr2l
  2597  000E4C  C091  FFDA         	movff	_CDCDataInHandle+1,fsr2h
  2598  000E50  AEDF               	btfss	indf2,7,c
  2599  000E52  EF2D  F007         	goto	u3681
  2600  000E56  EF2F  F007         	goto	u3680
  2601  000E5A                     u3681:
  2602  000E5A  EF32  F007         	goto	l5221
  2603  000E5E                     u3680:
  2604  000E5E                     
  2605                           ; BSR set to: 0
  2606                           ;mcc_generated_files/usb/usb_device_cdc.c: 864:     {;mcc_generated_files/usb/usb_device
      +                          _cdc.c: 865:         {PIE3bits.USBIE = 1;};
  2607  000E5E  84A3               	bsf	163,2,c	;volatile
  2608                           
  2609                           ;mcc_generated_files/usb/usb_device_cdc.c: 866:         return;
  2610  000E60  EFE4  F007         	goto	l527
  2611  000E64                     l5221:
  2612                           
  2613                           ; BSR set to: 0
  2614                           ;mcc_generated_files/usb/usb_device_cdc.c: 874:     if(cdc_trf_state == 3)
  2615  000E64  0E03               	movlw	3
  2616  000E66  1842               	xorwf	_cdc_trf_state^0,w,c
  2617  000E68  A4D8               	btfss	status,2,c
  2618  000E6A  EF39  F007         	goto	u3691
  2619  000E6E  EF3B  F007         	goto	u3690
  2620  000E72                     u3691:
  2621  000E72  EF3D  F007         	goto	l528
  2622  000E76                     u3690:
  2623  000E76                     
  2624                           ; BSR set to: 0
  2625                           ;mcc_generated_files/usb/usb_device_cdc.c: 875:         cdc_trf_state = 0;
  2626  000E76  0E00               	movlw	0
  2627  000E78  6E42               	movwf	_cdc_trf_state^0,c
  2628  000E7A                     l528:
  2629                           
  2630                           ; BSR set to: 0
  2631                           ;mcc_generated_files/usb/usb_device_cdc.c: 880:     if(cdc_trf_state == 0)
  2632  000E7A  5042               	movf	_cdc_trf_state^0,w,c
  2633  000E7C  A4D8               	btfss	status,2,c
  2634  000E7E  EF43  F007         	goto	u3701
  2635  000E82  EF45  F007         	goto	u3700
  2636  000E86                     u3701:
  2637  000E86  EF48  F007         	goto	l5227
  2638  000E8A                     u3700:
  2639  000E8A                     
  2640                           ; BSR set to: 0
  2641                           ;mcc_generated_files/usb/usb_device_cdc.c: 881:     {;mcc_generated_files/usb/usb_device
      +                          _cdc.c: 882:         {PIE3bits.USBIE = 1;};
  2642  000E8A  84A3               	bsf	163,2,c	;volatile
  2643                           
  2644                           ;mcc_generated_files/usb/usb_device_cdc.c: 883:         return;
  2645  000E8C  EFE4  F007         	goto	l527
  2646  000E90                     l5227:
  2647                           
  2648                           ; BSR set to: 0
  2649                           ;mcc_generated_files/usb/usb_device_cdc.c: 889:     if(cdc_trf_state == 2)
  2650  000E90  0E02               	movlw	2
  2651  000E92  1842               	xorwf	_cdc_trf_state^0,w,c
  2652  000E94  A4D8               	btfss	status,2,c
  2653  000E96  EF4F  F007         	goto	u3711
  2654  000E9A  EF51  F007         	goto	u3710
  2655  000E9E                     u3711:
  2656  000E9E  EF64  F007         	goto	l5233
  2657  000EA2                     u3710:
  2658  000EA2                     
  2659                           ; BSR set to: 0
  2660                           ;mcc_generated_files/usb/usb_device_cdc.c: 890:     {;mcc_generated_files/usb/usb_device
      +                          _cdc.c: 891:         CDCDataInHandle = USBTransferOnePacket(2,1,((void*)0),0);
  2661  000EA2  0E01               	movlw	1
  2662  000EA4  6FE8               	movwf	USBTransferOnePacket@dir& (0+255),b
  2663  000EA6  0E00               	movlw	0
  2664  000EA8  6FE9               	movwf	USBTransferOnePacket@data& (0+255),b
  2665  000EAA  0E00               	movlw	0
  2666  000EAC  6FEA               	movwf	(USBTransferOnePacket@data+1)& (0+255),b
  2667  000EAE  0E00               	movlw	0
  2668  000EB0  6FEB               	movwf	USBTransferOnePacket@len& (0+255),b
  2669  000EB2  0E02               	movlw	2
  2670  000EB4  EC04  F00C         	call	_USBTransferOnePacket
  2671  000EB8  C0E8  F090         	movff	?_USBTransferOnePacket,_CDCDataInHandle
  2672  000EBC  C0E9  F091         	movff	?_USBTransferOnePacket+1,_CDCDataInHandle+1
  2673  000EC0                     
  2674                           ;mcc_generated_files/usb/usb_device_cdc.c: 893:         cdc_trf_state = 3;
  2675  000EC0  0E03               	movlw	3
  2676  000EC2  6E42               	movwf	_cdc_trf_state^0,c
  2677                           
  2678                           ;mcc_generated_files/usb/usb_device_cdc.c: 894:     }
  2679  000EC4  EFE3  F007         	goto	l5277
  2680  000EC8                     l5233:
  2681                           
  2682                           ; BSR set to: 0
  2683  000EC8  0442               	decf	_cdc_trf_state^0,w,c
  2684  000ECA  A4D8               	btfss	status,2,c
  2685  000ECC  EF6A  F007         	goto	u3721
  2686  000ED0  EF6C  F007         	goto	u3720
  2687  000ED4                     u3721:
  2688  000ED4  EFE3  F007         	goto	l5277
  2689  000ED8                     u3720:
  2690  000ED8                     
  2691                           ; BSR set to: 0
  2692                           ;mcc_generated_files/usb/usb_device_cdc.c: 896:     {;mcc_generated_files/usb/usb_device
      +                          _cdc.c: 900:      if(cdc_tx_len > sizeof(cdc_data_tx))
  2693  000ED8  0E40               	movlw	64
  2694  000EDA  6595               	cpfsgt	_cdc_tx_len& (0+255),b
  2695  000EDC  EF72  F007         	goto	u3731
  2696  000EE0  EF74  F007         	goto	u3730
  2697  000EE4                     u3731:
  2698  000EE4  EF78  F007         	goto	l533
  2699  000EE8                     u3730:
  2700  000EE8                     
  2701                           ; BSR set to: 0
  2702                           ;mcc_generated_files/usb/usb_device_cdc.c: 901:          byte_to_send = sizeof(cdc_data_
      +                          tx);
  2703  000EE8  0E40               	movlw	64
  2704  000EEA  6FF4               	movwf	CDCTxService@byte_to_send& (0+255),b
  2705  000EEC  EF7A  F007         	goto	l5239
  2706  000EF0                     l533:
  2707                           
  2708                           ; BSR set to: 0
  2709                           ;mcc_generated_files/usb/usb_device_cdc.c: 903:          byte_to_send = cdc_tx_len;
  2710  000EF0  C095  F0F4         	movff	_cdc_tx_len,CDCTxService@byte_to_send
  2711  000EF4                     l5239:
  2712                           
  2713                           ; BSR set to: 0
  2714                           ;mcc_generated_files/usb/usb_device_cdc.c: 908:      cdc_tx_len = cdc_tx_len - byte_to_s
      +                          end;
  2715  000EF4  51F4               	movf	CDCTxService@byte_to_send& (0+255),w,b
  2716  000EF6  5D95               	subwf	_cdc_tx_len& (0+255),w,b
  2717  000EF8  6F95               	movwf	_cdc_tx_len& (0+255),b
  2718                           
  2719                           ;mcc_generated_files/usb/usb_device_cdc.c: 910:         pCDCDst.bRam = (uint8_t*)&cdc_da
      +                          ta_tx;
  2720  000EFA  0E00               	movlw	0
  2721  000EFC  6F84               	movwf	_pCDCDst& (0+255),b
  2722  000EFE  0E05               	movlw	5
  2723  000F00  6F85               	movwf	(_pCDCDst+1)& (0+255),b
  2724  000F02                     
  2725                           ; BSR set to: 0
  2726                           ;mcc_generated_files/usb/usb_device_cdc.c: 912:         i = byte_to_send;
  2727  000F02  C0F4  F0F3         	movff	CDCTxService@byte_to_send,CDCTxService@i
  2728  000F06                     
  2729                           ; BSR set to: 0
  2730                           ;mcc_generated_files/usb/usb_device_cdc.c: 913:         if(cdc_mem_type == 0x00)
  2731  000F06  5194               	movf	_cdc_mem_type& (0+255),w,b
  2732  000F08  A4D8               	btfss	status,2,c
  2733  000F0A  EF89  F007         	goto	u3741
  2734  000F0E  EF8B  F007         	goto	u3740
  2735  000F12                     u3741:
  2736  000F12  EFB5  F007         	goto	l5265
  2737  000F16                     u3740:
  2738  000F16  EF9C  F007         	goto	l5255
  2739  000F1A                     l5247:
  2740                           
  2741                           ; BSR set to: 0
  2742                           ;mcc_generated_files/usb/usb_device_cdc.c: 916:             {;mcc_generated_files/usb/us
      +                          b_device_cdc.c: 917:                 *pCDCDst.bRam = *pCDCSrc.bRom;
  2743  000F1A  C087  FFD9         	movff	_pCDCSrc,fsr2l
  2744  000F1E  C088  FFDA         	movff	_pCDCSrc+1,fsr2h
  2745  000F22  C084  FFE1         	movff	_pCDCDst,fsr1l
  2746  000F26  C085  FFE2         	movff	_pCDCDst+1,fsr1h
  2747  000F2A  CFDF FFE7          	movff	indf2,indf1
  2748  000F2E                     
  2749                           ; BSR set to: 0
  2750                           ;mcc_generated_files/usb/usb_device_cdc.c: 918:                 pCDCDst.bRam++;
  2751  000F2E  4B84               	infsnz	_pCDCDst& (0+255),f,b
  2752  000F30  2B85               	incf	(_pCDCDst+1)& (0+255),f,b
  2753  000F32                     
  2754                           ; BSR set to: 0
  2755                           ;mcc_generated_files/usb/usb_device_cdc.c: 919:                 pCDCSrc.bRom++;
  2756  000F32  4B87               	infsnz	_pCDCSrc& (0+255),f,b
  2757  000F34  2B88               	incf	(_pCDCSrc+1)& (0+255),f,b
  2758  000F36                     
  2759                           ; BSR set to: 0
  2760                           ;mcc_generated_files/usb/usb_device_cdc.c: 920:                 i--;
  2761  000F36  07F3               	decf	CDCTxService@i& (0+255),f,b
  2762  000F38                     l5255:
  2763                           
  2764                           ; BSR set to: 0
  2765                           ;mcc_generated_files/usb/usb_device_cdc.c: 915:             while(i)
  2766  000F38  51F3               	movf	CDCTxService@i& (0+255),w,b
  2767  000F3A  A4D8               	btfss	status,2,c
  2768  000F3C  EFA2  F007         	goto	u3751
  2769  000F40  EFA4  F007         	goto	u3750
  2770  000F44                     u3751:
  2771  000F44  EF8D  F007         	goto	l5247
  2772  000F48                     u3750:
  2773  000F48  EFBD  F007         	goto	l5267
  2774  000F4C                     l5257:
  2775                           
  2776                           ; BSR set to: 0
  2777                           ;mcc_generated_files/usb/usb_device_cdc.c: 926:             {;mcc_generated_files/usb/us
      +                          b_device_cdc.c: 927:                 *pCDCDst.bRam = *pCDCSrc.bRam;
  2778  000F4C  C087  FFD9         	movff	_pCDCSrc,fsr2l
  2779  000F50  C088  FFDA         	movff	_pCDCSrc+1,fsr2h
  2780  000F54  C084  FFE1         	movff	_pCDCDst,fsr1l
  2781  000F58  C085  FFE2         	movff	_pCDCDst+1,fsr1h
  2782  000F5C  CFDF FFE7          	movff	indf2,indf1
  2783  000F60                     
  2784                           ; BSR set to: 0
  2785                           ;mcc_generated_files/usb/usb_device_cdc.c: 928:                 pCDCDst.bRam++;
  2786  000F60  4B84               	infsnz	_pCDCDst& (0+255),f,b
  2787  000F62  2B85               	incf	(_pCDCDst+1)& (0+255),f,b
  2788  000F64                     
  2789                           ; BSR set to: 0
  2790                           ;mcc_generated_files/usb/usb_device_cdc.c: 929:                 pCDCSrc.bRam++;
  2791  000F64  4B87               	infsnz	_pCDCSrc& (0+255),f,b
  2792  000F66  2B88               	incf	(_pCDCSrc+1)& (0+255),f,b
  2793  000F68                     
  2794                           ; BSR set to: 0
  2795                           ;mcc_generated_files/usb/usb_device_cdc.c: 930:                 i--;
  2796  000F68  07F3               	decf	CDCTxService@i& (0+255),f,b
  2797  000F6A                     l5265:
  2798                           
  2799                           ; BSR set to: 0
  2800                           ;mcc_generated_files/usb/usb_device_cdc.c: 925:             while(i)
  2801  000F6A  51F3               	movf	CDCTxService@i& (0+255),w,b
  2802  000F6C  A4D8               	btfss	status,2,c
  2803  000F6E  EFBB  F007         	goto	u3761
  2804  000F72  EFBD  F007         	goto	u3760
  2805  000F76                     u3761:
  2806  000F76  EFA6  F007         	goto	l5257
  2807  000F7A                     u3760:
  2808  000F7A                     l5267:
  2809                           
  2810                           ; BSR set to: 0
  2811                           ;mcc_generated_files/usb/usb_device_cdc.c: 938:         if(cdc_tx_len == 0)
  2812  000F7A  5195               	movf	_cdc_tx_len& (0+255),w,b
  2813  000F7C  A4D8               	btfss	status,2,c
  2814  000F7E  EFC3  F007         	goto	u3771
  2815  000F82  EFC5  F007         	goto	u3770
  2816  000F86                     u3771:
  2817  000F86  EFD4  F007         	goto	l5275
  2818  000F8A                     u3770:
  2819  000F8A                     
  2820                           ; BSR set to: 0
  2821                           ;mcc_generated_files/usb/usb_device_cdc.c: 939:         {;mcc_generated_files/usb/usb_de
      +                          vice_cdc.c: 940:             if(byte_to_send == 64)
  2822  000F8A  0E40               	movlw	64
  2823  000F8C  19F4               	xorwf	CDCTxService@byte_to_send& (0+255),w,b
  2824  000F8E  A4D8               	btfss	status,2,c
  2825  000F90  EFCC  F007         	goto	u3781
  2826  000F94  EFCE  F007         	goto	u3780
  2827  000F98                     u3781:
  2828  000F98  EFD2  F007         	goto	l5273
  2829  000F9C                     u3780:
  2830  000F9C                     
  2831                           ; BSR set to: 0
  2832                           ;mcc_generated_files/usb/usb_device_cdc.c: 941:                 cdc_trf_state = 2;
  2833  000F9C  0E02               	movlw	2
  2834  000F9E  6E42               	movwf	_cdc_trf_state^0,c
  2835  000FA0  EFD4  F007         	goto	l5275
  2836  000FA4                     l5273:
  2837                           
  2838                           ; BSR set to: 0
  2839                           ;mcc_generated_files/usb/usb_device_cdc.c: 943:                 cdc_trf_state = 3;
  2840  000FA4  0E03               	movlw	3
  2841  000FA6  6E42               	movwf	_cdc_trf_state^0,c
  2842  000FA8                     l5275:
  2843                           
  2844                           ; BSR set to: 0
  2845                           ;mcc_generated_files/usb/usb_device_cdc.c: 945:         CDCDataInHandle = USBTransferOne
      +                          Packet(2,1,(uint8_t*)&cdc_data_tx,byte_to_send);
  2846  000FA8  0E01               	movlw	1
  2847  000FAA  6FE8               	movwf	USBTransferOnePacket@dir& (0+255),b
  2848  000FAC  0E00               	movlw	0
  2849  000FAE  6FE9               	movwf	USBTransferOnePacket@data& (0+255),b
  2850  000FB0  0E05               	movlw	5
  2851  000FB2  6FEA               	movwf	(USBTransferOnePacket@data+1)& (0+255),b
  2852  000FB4  C0F4  F0EB         	movff	CDCTxService@byte_to_send,USBTransferOnePacket@len
  2853  000FB8  0E02               	movlw	2
  2854  000FBA  EC04  F00C         	call	_USBTransferOnePacket
  2855  000FBE  C0E8  F090         	movff	?_USBTransferOnePacket,_CDCDataInHandle
  2856  000FC2  C0E9  F091         	movff	?_USBTransferOnePacket+1,_CDCDataInHandle+1
  2857  000FC6                     l5277:
  2858                           
  2859                           ;mcc_generated_files/usb/usb_device_cdc.c: 949:     {PIE3bits.USBIE = 1;};
  2860  000FC6  84A3               	bsf	163,2,c	;volatile
  2861  000FC8                     l527:
  2862  000FC8  0012               	return		;funcret
  2863  000FCA                     __end_of_CDCTxService:
  2864                           	callstack 0
  2865                           
  2866 ;; *************** function _USBTransferOnePacket *****************
  2867 ;; Defined at:
  2868 ;;		line 999 in file "mcc_generated_files/usb/usb_device.c"
  2869 ;; Parameters:    Size  Location     Type
  2870 ;;  ep              1    wreg     unsigned char 
  2871 ;;  dir             1    0[BANK0 ] unsigned char 
  2872 ;;  data            2    1[BANK0 ] PTR unsigned char 
  2873 ;;		 -> cdc_data_tx(64), cdc_data_rx(64), NULL(0), 
  2874 ;;  len             1    3[BANK0 ] unsigned char 
  2875 ;; Auto vars:     Size  Location     Type
  2876 ;;  ep              1    8[BANK0 ] unsigned char 
  2877 ;;  handle          2    9[BANK0 ] PTR volatile struct __BD
  2878 ;;		 -> RAM(2047), NULL(0), BDT(48), 
  2879 ;; Return value:  Size  Location     Type
  2880 ;;                  2    0[BANK0 ] PTR void 
  2881 ;; Registers used:
  2882 ;;		wreg, fsr2l, fsr2h, status,2, status,0, prodl, prodh
  2883 ;; Tracked objects:
  2884 ;;		On entry : 0/0
  2885 ;;		On exit  : 0/0
  2886 ;;		Unchanged: 0/0
  2887 ;; Data sizes:     COMRAM   BANK0   BANK1   BANK2   BANK3   BANK4   BANK5   BANK6   BANK7
  2888 ;;      Params:         0       4       0       0       0       0       0       0       0
  2889 ;;      Locals:         0       3       0       0       0       0       0       0       0
  2890 ;;      Temps:          0       4       0       0       0       0       0       0       0
  2891 ;;      Totals:         0      11       0       0       0       0       0       0       0
  2892 ;;Total ram usage:       11 bytes
  2893 ;; Hardware stack levels used: 1
  2894 ;; Hardware stack levels required when called: 10
  2895 ;; This function calls:
  2896 ;;		Nothing
  2897 ;; This function is called by:
  2898 ;;		_getsUSBUSART
  2899 ;;		_CDCTxService
  2900 ;;		_USBCDCEventHandler
  2901 ;; This function uses a non-reentrant model
  2902 ;;
  2903                           
  2904                           	psect	text18
  2905  001808                     __ptext18:
  2906                           	callstack 0
  2907  001808                     _USBTransferOnePacket:
  2908                           	callstack 18
  2909                           
  2910                           ;incstack = 0
  2911                           ;USBTransferOnePacket@ep stored from wreg
  2912  001808  0100               	movlb	0	; () banked
  2913  00180A  6FF0               	movwf	USBTransferOnePacket@ep& (0+255),b
  2914  00180C                     
  2915                           ;mcc_generated_files/usb/usb_device.c: 999: void* USBTransferOnePacket(uint8_t ep,uint8_
      +                          t dir,uint8_t* data,uint8_t len);mcc_generated_files/usb/usb_device.c: 1000: {;mcc_gener
      +                          ated_files/usb/usb_device.c: 1001:     volatile BDT_ENTRY* handle;;mcc_generated_files/u
      +                          sb/usb_device.c: 1004:     if(dir != 0)
  2916  00180C  0100               	movlb	0	; () banked
  2917  00180E  51E8               	movf	USBTransferOnePacket@dir& (0+255),w,b
  2918  001810  B4D8               	btfsc	status,2,c
  2919  001812  EF0D  F00C         	goto	u3541
  2920  001816  EF0F  F00C         	goto	u3540
  2921  00181A                     u3541:
  2922  00181A  EF1D  F00C         	goto	l5063
  2923  00181E                     u3540:
  2924  00181E                     
  2925                           ; BSR set to: 0
  2926                           ;mcc_generated_files/usb/usb_device.c: 1005:     {;mcc_generated_files/usb/usb_device.c:
      +                           1007:         handle = pBDTEntryIn[ep];
  2927  00181E  51F0               	movf	USBTransferOnePacket@ep& (0+255),w,b
  2928  001820  0D02               	mullw	2
  2929  001822  0E78               	movlw	low _pBDTEntryIn
  2930  001824  24F3               	addwf	243,w,c
  2931  001826  6ED9               	movwf	fsr2l,c
  2932  001828  0E00               	movlw	high _pBDTEntryIn
  2933  00182A  20F4               	addwfc	prodh,w,c
  2934  00182C  6EDA               	movwf	fsr2h,c
  2935  00182E  CFDE F0F1          	movff	postinc2,USBTransferOnePacket@handle
  2936  001832  CFDD F0F2          	movff	postdec2,USBTransferOnePacket@handle+1
  2937                           
  2938                           ;mcc_generated_files/usb/usb_device.c: 1008:     }
  2939  001836  EF29  F00C         	goto	l5065
  2940  00183A                     l5063:
  2941                           
  2942                           ; BSR set to: 0
  2943                           ;mcc_generated_files/usb/usb_device.c: 1010:     {;mcc_generated_files/usb/usb_device.c:
      +                           1012:         handle = pBDTEntryOut[ep];
  2944  00183A  51F0               	movf	USBTransferOnePacket@ep& (0+255),w,b
  2945  00183C  0D02               	mullw	2
  2946  00183E  0E7E               	movlw	low _pBDTEntryOut
  2947  001840  24F3               	addwf	243,w,c
  2948  001842  6ED9               	movwf	fsr2l,c
  2949  001844  0E00               	movlw	high _pBDTEntryOut
  2950  001846  20F4               	addwfc	prodh,w,c
  2951  001848  6EDA               	movwf	fsr2h,c
  2952  00184A  CFDE F0F1          	movff	postinc2,USBTransferOnePacket@handle
  2953  00184E  CFDD F0F2          	movff	postdec2,USBTransferOnePacket@handle+1
  2954  001852                     l5065:
  2955                           
  2956                           ; BSR set to: 0
  2957                           ;mcc_generated_files/usb/usb_device.c: 1017:     if(handle == 0)
  2958  001852  51F1               	movf	USBTransferOnePacket@handle& (0+255),w,b
  2959  001854  11F2               	iorwf	(USBTransferOnePacket@handle+1)& (0+255),w,b
  2960  001856  A4D8               	btfss	status,2,c
  2961  001858  EF30  F00C         	goto	u3551
  2962  00185C  EF32  F00C         	goto	u3550
  2963  001860                     u3551:
  2964  001860  EF38  F00C         	goto	l5071
  2965  001864                     u3550:
  2966  001864                     
  2967                           ; BSR set to: 0
  2968                           ;mcc_generated_files/usb/usb_device.c: 1018:     {;mcc_generated_files/usb/usb_device.c:
      +                           1019:         return 0;
  2969  001864  0E00               	movlw	0
  2970  001866  6FE8               	movwf	?_USBTransferOnePacket& (0+255),b
  2971  001868  0E00               	movlw	0
  2972  00186A  6FE9               	movwf	(?_USBTransferOnePacket+1)& (0+255),b
  2973  00186C  EFA4  F00C         	goto	l177
  2974  001870                     l5071:
  2975                           
  2976                           ; BSR set to: 0
  2977                           ;mcc_generated_files/usb/usb_device.c: 1033:     handle->ADR = ((uint16_t)(data));
  2978  001870  EE20 F002          	lfsr	2,2
  2979  001874  51F1               	movf	USBTransferOnePacket@handle& (0+255),w,b
  2980  001876  26D9               	addwf	fsr2l,f,c
  2981  001878  51F2               	movf	(USBTransferOnePacket@handle+1)& (0+255),w,b
  2982  00187A  22DA               	addwfc	fsr2h,f,c
  2983  00187C  C0E9  FFDE         	movff	USBTransferOnePacket@data,postinc2
  2984  001880  C0EA  FFDD         	movff	USBTransferOnePacket@data+1,postdec2
  2985                           
  2986                           ;mcc_generated_files/usb/usb_device.c: 1034:     handle->CNT = len;
  2987  001884  EE20 F001          	lfsr	2,1
  2988  001888  51F1               	movf	USBTransferOnePacket@handle& (0+255),w,b
  2989  00188A  26D9               	addwf	fsr2l,f,c
  2990  00188C  51F2               	movf	(USBTransferOnePacket@handle+1)& (0+255),w,b
  2991  00188E  22DA               	addwfc	fsr2h,f,c
  2992  001890  C0EB  FFDF         	movff	USBTransferOnePacket@len,indf2
  2993  001894                     
  2994                           ; BSR set to: 0
  2995                           ;mcc_generated_files/usb/usb_device.c: 1035:     handle->STAT.Val &= 0x40;
  2996  001894  C0F1  FFD9         	movff	USBTransferOnePacket@handle,fsr2l
  2997  001898  C0F2  FFDA         	movff	USBTransferOnePacket@handle+1,fsr2h
  2998  00189C  0E40               	movlw	64
  2999  00189E  16DF               	andwf	indf2,f,c
  3000  0018A0                     
  3001                           ; BSR set to: 0
  3002                           ;mcc_generated_files/usb/usb_device.c: 1036:     handle->STAT.Val |= (0x08 & 0x08);
  3003  0018A0  C0F1  FFD9         	movff	USBTransferOnePacket@handle,fsr2l
  3004  0018A4  C0F2  FFDA         	movff	USBTransferOnePacket@handle+1,fsr2h
  3005  0018A8  0E00               	movlw	0
  3006  0018AA  86DB               	bsf	plusw2,3,c
  3007  0018AC                     
  3008                           ; BSR set to: 0
  3009                           ;mcc_generated_files/usb/usb_device.c: 1037:     handle->STAT.Val |= 0x80;
  3010  0018AC  C0F1  FFD9         	movff	USBTransferOnePacket@handle,fsr2l
  3011  0018B0  C0F2  FFDA         	movff	USBTransferOnePacket@handle+1,fsr2h
  3012  0018B4  0E00               	movlw	0
  3013  0018B6  8EDB               	bsf	plusw2,7,c
  3014  0018B8                     
  3015                           ; BSR set to: 0
  3016                           ;mcc_generated_files/usb/usb_device.c: 1040:     if(dir != 0)
  3017  0018B8  51E8               	movf	USBTransferOnePacket@dir& (0+255),w,b
  3018  0018BA  B4D8               	btfsc	status,2,c
  3019  0018BC  EF62  F00C         	goto	u3561
  3020  0018C0  EF64  F00C         	goto	u3560
  3021  0018C4                     u3561:
  3022  0018C4  EF83  F00C         	goto	l5083
  3023  0018C8                     u3560:
  3024  0018C8                     
  3025                           ; BSR set to: 0
  3026                           ;mcc_generated_files/usb/usb_device.c: 1041:     {;mcc_generated_files/usb/usb_device.c:
      +                           1043:         pBDTEntryIn[ep] = (BDT_ENTRY*)(((uint16_t)pBDTEntryIn[ep]) ^ 0x0004);
  3027  0018C8  51F0               	movf	USBTransferOnePacket@ep& (0+255),w,b
  3028  0018CA  0D02               	mullw	2
  3029  0018CC  0E78               	movlw	low _pBDTEntryIn
  3030  0018CE  24F3               	addwf	243,w,c
  3031  0018D0  6ED9               	movwf	fsr2l,c
  3032  0018D2  0E00               	movlw	high _pBDTEntryIn
  3033  0018D4  20F4               	addwfc	prodh,w,c
  3034  0018D6  6EDA               	movwf	fsr2h,c
  3035  0018D8  CFDE F0EC          	movff	postinc2,??_USBTransferOnePacket
  3036  0018DC  CFDD F0ED          	movff	postdec2,??_USBTransferOnePacket+1
  3037  0018E0  0E04               	movlw	4
  3038  0018E2  19EC               	xorwf	??_USBTransferOnePacket& (0+255),w,b
  3039  0018E4  6FEE               	movwf	(??_USBTransferOnePacket+2)& (0+255),b
  3040  0018E6  51ED               	movf	(??_USBTransferOnePacket+1)& (0+255),w,b
  3041  0018E8  6FEF               	movwf	(??_USBTransferOnePacket+3)& (0+255),b
  3042  0018EA  51F0               	movf	USBTransferOnePacket@ep& (0+255),w,b
  3043  0018EC  0D02               	mullw	2
  3044  0018EE  0E78               	movlw	low _pBDTEntryIn
  3045  0018F0  24F3               	addwf	243,w,c
  3046  0018F2  6ED9               	movwf	fsr2l,c
  3047  0018F4  0E00               	movlw	high _pBDTEntryIn
  3048  0018F6  20F4               	addwfc	prodh,w,c
  3049  0018F8  6EDA               	movwf	fsr2h,c
  3050  0018FA  C0EE  FFDE         	movff	??_USBTransferOnePacket+2,postinc2
  3051  0018FE  C0EF  FFDD         	movff	??_USBTransferOnePacket+3,postdec2
  3052                           
  3053                           ;mcc_generated_files/usb/usb_device.c: 1044:     }
  3054  001902  EFA0  F00C         	goto	l5085
  3055  001906                     l5083:
  3056                           
  3057                           ; BSR set to: 0
  3058                           ;mcc_generated_files/usb/usb_device.c: 1046:     {;mcc_generated_files/usb/usb_device.c:
      +                           1048:         pBDTEntryOut[ep] = (BDT_ENTRY*)(((uint16_t)pBDTEntryOut[ep]) ^ 0x0004);
  3059  001906  51F0               	movf	USBTransferOnePacket@ep& (0+255),w,b
  3060  001908  0D02               	mullw	2
  3061  00190A  0E7E               	movlw	low _pBDTEntryOut
  3062  00190C  24F3               	addwf	243,w,c
  3063  00190E  6ED9               	movwf	fsr2l,c
  3064  001910  0E00               	movlw	high _pBDTEntryOut
  3065  001912  20F4               	addwfc	prodh,w,c
  3066  001914  6EDA               	movwf	fsr2h,c
  3067  001916  CFDE F0EC          	movff	postinc2,??_USBTransferOnePacket
  3068  00191A  CFDD F0ED          	movff	postdec2,??_USBTransferOnePacket+1
  3069  00191E  0E04               	movlw	4
  3070  001920  19EC               	xorwf	??_USBTransferOnePacket& (0+255),w,b
  3071  001922  6FEE               	movwf	(??_USBTransferOnePacket+2)& (0+255),b
  3072  001924  51ED               	movf	(??_USBTransferOnePacket+1)& (0+255),w,b
  3073  001926  6FEF               	movwf	(??_USBTransferOnePacket+3)& (0+255),b
  3074  001928  51F0               	movf	USBTransferOnePacket@ep& (0+255),w,b
  3075  00192A  0D02               	mullw	2
  3076  00192C  0E7E               	movlw	low _pBDTEntryOut
  3077  00192E  24F3               	addwf	243,w,c
  3078  001930  6ED9               	movwf	fsr2l,c
  3079  001932  0E00               	movlw	high _pBDTEntryOut
  3080  001934  20F4               	addwfc	prodh,w,c
  3081  001936  6EDA               	movwf	fsr2h,c
  3082  001938  C0EE  FFDE         	movff	??_USBTransferOnePacket+2,postinc2
  3083  00193C  C0EF  FFDD         	movff	??_USBTransferOnePacket+3,postdec2
  3084  001940                     l5085:
  3085                           
  3086                           ; BSR set to: 0
  3087                           ;mcc_generated_files/usb/usb_device.c: 1050:     return (void*)handle;
  3088  001940  C0F1  F0E8         	movff	USBTransferOnePacket@handle,?_USBTransferOnePacket
  3089  001944  C0F2  F0E9         	movff	USBTransferOnePacket@handle+1,?_USBTransferOnePacket+1
  3090  001948                     l177:
  3091                           
  3092                           ; BSR set to: 0
  3093  001948  0012               	return		;funcret
  3094  00194A                     __end_of_USBTransferOnePacket:
  3095                           	callstack 0
  3096                           
  3097 ;; *************** function _INTERRUPT_InterruptManager *****************
  3098 ;; Defined at:
  3099 ;;		line 58 in file "mcc_generated_files/interrupt_manager.c"
  3100 ;; Parameters:    Size  Location     Type
  3101 ;;		None
  3102 ;; Auto vars:     Size  Location     Type
  3103 ;;		None
  3104 ;; Return value:  Size  Location     Type
  3105 ;;                  1    wreg      void 
  3106 ;; Registers used:
  3107 ;;		wreg, fsr0l, fsr0h, fsr1l, fsr1h, fsr2l, fsr2h, status,2, status,0, tblptrl, tblptrh, tblptru, prodl, prodh, cstack
  3108 ;; Tracked objects:
  3109 ;;		On entry : 0/0
  3110 ;;		On exit  : 0/0
  3111 ;;		Unchanged: 0/0
  3112 ;; Data sizes:     COMRAM   BANK0   BANK1   BANK2   BANK3   BANK4   BANK5   BANK6   BANK7
  3113 ;;      Params:         0       0       0       0       0       0       0       0       0
  3114 ;;      Locals:         0       0       0       0       0       0       0       0       0
  3115 ;;      Temps:         12       0       0       0       0       0       0       0       0
  3116 ;;      Totals:        12       0       0       0       0       0       0       0       0
  3117 ;;Total ram usage:       12 bytes
  3118 ;; Hardware stack levels used: 1
  3119 ;; Hardware stack levels required when called: 9
  3120 ;; This function calls:
  3121 ;;		_USBDeviceTasks
  3122 ;; This function is called by:
  3123 ;;		Interrupt level 2
  3124 ;; This function uses a non-reentrant model
  3125 ;;
  3126                           
  3127                           	psect	intcode
  3128  000008                     __pintcode:
  3129                           	callstack 0
  3130  000008                     _INTERRUPT_InterruptManager:
  3131                           	callstack 18
  3132                           
  3133                           ; BSR set to: 0
  3134                           ;incstack = 0
  3135  000008  8253               	bsf	int$flags,1,c	;set compiler interrupt flag (level 2)
  3136  00000A  CFE9 F020          	movff	fsr0l,??_INTERRUPT_InterruptManager
  3137  00000E  CFEA F021          	movff	fsr0h,??_INTERRUPT_InterruptManager+1
  3138  000012  CFE1 F022          	movff	fsr1l,??_INTERRUPT_InterruptManager+2
  3139  000016  CFE2 F023          	movff	fsr1h,??_INTERRUPT_InterruptManager+3
  3140  00001A  CFD9 F024          	movff	fsr2l,??_INTERRUPT_InterruptManager+4
  3141  00001E  CFDA F025          	movff	fsr2h,??_INTERRUPT_InterruptManager+5
  3142  000022  CFF3 F026          	movff	prodl,??_INTERRUPT_InterruptManager+6
  3143  000026  CFF4 F027          	movff	prodh,??_INTERRUPT_InterruptManager+7
  3144  00002A  CFF6 F028          	movff	tblptrl,??_INTERRUPT_InterruptManager+8
  3145  00002E  CFF7 F029          	movff	tblptrh,??_INTERRUPT_InterruptManager+9
  3146  000032  CFF8 F02A          	movff	tblptru,??_INTERRUPT_InterruptManager+10
  3147  000036  CFF5 F02B          	movff	tablat,??_INTERRUPT_InterruptManager+11
  3148  00003A                     
  3149                           ;mcc_generated_files/interrupt_manager.c: 61:     if(INTCONbits.PEIE == 1)
  3150  00003A  ACF2               	btfss	242,6,c	;volatile
  3151  00003C  EF22  F000         	goto	i2u346_41
  3152  000040  EF24  F000         	goto	i2u346_40
  3153  000044                     i2u346_41:
  3154  000044  EF34  F000         	goto	i2l598
  3155  000048                     i2u346_40:
  3156  000048                     
  3157                           ;mcc_generated_files/interrupt_manager.c: 62:     {;mcc_generated_files/interrupt_manage
      +                          r.c: 63:         if(PIE3bits.USBIE == 1 && PIR3bits.USBIF == 1)
  3158  000048  A4A3               	btfss	163,2,c	;volatile
  3159  00004A  EF29  F000         	goto	i2u347_41
  3160  00004E  EF2B  F000         	goto	i2u347_40
  3161  000052                     i2u347_41:
  3162  000052  EF34  F000         	goto	i2l598
  3163  000056                     i2u347_40:
  3164  000056  A4A4               	btfss	164,2,c	;volatile
  3165  000058  EF30  F000         	goto	i2u348_41
  3166  00005C  EF32  F000         	goto	i2u348_40
  3167  000060                     i2u348_41:
  3168  000060  EF34  F000         	goto	i2l598
  3169  000064                     i2u348_40:
  3170  000064                     
  3171                           ;mcc_generated_files/interrupt_manager.c: 64:         {;mcc_generated_files/interrupt_ma
      +                          nager.c: 65:             USBDeviceTasks();
  3172  000064  EC05  F006         	call	_USBDeviceTasks	;wreg free
  3173  000068                     i2l598:
  3174  000068  C02B  FFF5         	movff	??_INTERRUPT_InterruptManager+11,tablat
  3175  00006C  C02A  FFF8         	movff	??_INTERRUPT_InterruptManager+10,tblptru
  3176  000070  C029  FFF7         	movff	??_INTERRUPT_InterruptManager+9,tblptrh
  3177  000074  C028  FFF6         	movff	??_INTERRUPT_InterruptManager+8,tblptrl
  3178  000078  C027  FFF4         	movff	??_INTERRUPT_InterruptManager+7,prodh
  3179  00007C  C026  FFF3         	movff	??_INTERRUPT_InterruptManager+6,prodl
  3180  000080  C025  FFDA         	movff	??_INTERRUPT_InterruptManager+5,fsr2h
  3181  000084  C024  FFD9         	movff	??_INTERRUPT_InterruptManager+4,fsr2l
  3182  000088  C023  FFE2         	movff	??_INTERRUPT_InterruptManager+3,fsr1h
  3183  00008C  C022  FFE1         	movff	??_INTERRUPT_InterruptManager+2,fsr1l
  3184  000090  C021  FFEA         	movff	??_INTERRUPT_InterruptManager+1,fsr0h
  3185  000094  C020  FFE9         	movff	??_INTERRUPT_InterruptManager,fsr0l
  3186  000098  9253               	bcf	int$flags,1,c	;clear compiler interrupt flag (level 2)
  3187  00009A  0011               	retfie		f
  3188  00009C                     __end_of_INTERRUPT_InterruptManager:
  3189                           	callstack 0
  3190                           
  3191 ;; *************** function _USBDeviceTasks *****************
  3192 ;; Defined at:
  3193 ;;		line 481 in file "mcc_generated_files/usb/usb_device.c"
  3194 ;; Parameters:    Size  Location     Type
  3195 ;;		None
  3196 ;; Auto vars:     Size  Location     Type
  3197 ;;  i               1   30[COMRAM] unsigned char 
  3198 ;; Return value:  Size  Location     Type
  3199 ;;                  1    wreg      void 
  3200 ;; Registers used:
  3201 ;;		wreg, fsr0l, fsr0h, fsr1l, fsr1h, fsr2l, fsr2h, status,2, status,0, tblptrl, tblptrh, tblptru, prodl, prodh, cstack
  3202 ;; Tracked objects:
  3203 ;;		On entry : 0/0
  3204 ;;		On exit  : 0/0
  3205 ;;		Unchanged: 0/0
  3206 ;; Data sizes:     COMRAM   BANK0   BANK1   BANK2   BANK3   BANK4   BANK5   BANK6   BANK7
  3207 ;;      Params:         0       0       0       0       0       0       0       0       0
  3208 ;;      Locals:         1       0       0       0       0       0       0       0       0
  3209 ;;      Temps:          0       0       0       0       0       0       0       0       0
  3210 ;;      Totals:         1       0       0       0       0       0       0       0       0
  3211 ;;Total ram usage:        1 bytes
  3212 ;; Hardware stack levels used: 1
  3213 ;; Hardware stack levels required when called: 8
  3214 ;; This function calls:
  3215 ;;		_USBCtrlEPAllowStatusStage
  3216 ;;		_USBCtrlEPService
  3217 ;;		_USBIncrement1msInternalTimers
  3218 ;;		_USBStallHandler
  3219 ;;		_USBSuspend
  3220 ;;		_USBWakeFromSuspend
  3221 ;;		_USER_USB_CALLBACK_EVENT_HANDLER
  3222 ;;		i2_USBDeviceInit
  3223 ;; This function is called by:
  3224 ;;		_INTERRUPT_InterruptManager
  3225 ;; This function uses a non-reentrant model
  3226 ;;
  3227                           
  3228                           	psect	text20
  3229  000C0A                     __ptext20:
  3230                           	callstack 0
  3231  000C0A                     _USBDeviceTasks:
  3232                           	callstack 18
  3233  000C0A                     
  3234                           ;mcc_generated_files/usb/usb_device.c: 483:     uint8_t i;;mcc_generated_files/usb/usb_d
      +                          evice.c: 594:     if(USBDeviceState == ATTACHED_STATE)
  3235  000C0A  044E               	decf	_USBDeviceState^0,w,c	;volatile
  3236  000C0C  A4D8               	btfss	status,2,c
  3237  000C0E  EF0B  F006         	goto	i2u308_41
  3238  000C12  EF0D  F006         	goto	i2u308_40
  3239  000C16                     i2u308_41:
  3240  000C16  EF1A  F006         	goto	i2l4603
  3241  000C1A                     i2u308_40:
  3242  000C1A                     
  3243                           ;mcc_generated_files/usb/usb_device.c: 595:     {;mcc_generated_files/usb/usb_device.c: 
      +                          605:         if(!UCONbits.SE0)
  3244  000C1A  BA60               	btfsc	96,5,c	;volatile
  3245  000C1C  EF12  F006         	goto	i2u309_41
  3246  000C20  EF14  F006         	goto	i2u309_40
  3247  000C24                     i2u309_41:
  3248  000C24  EF1A  F006         	goto	i2l4603
  3249  000C28                     i2u309_40:
  3250  000C28                     
  3251                           ;mcc_generated_files/usb/usb_device.c: 606:         {;mcc_generated_files/usb/usb_device
      +                          .c: 612:                 {UIR = 0;};
  3252  000C28  0E00               	movlw	0
  3253  000C2A  6E65               	movwf	101,c	;volatile
  3254  000C2C                     
  3255                           ;mcc_generated_files/usb/usb_device.c: 618:             UIEbits.URSTIE = 1;
  3256  000C2C  8064               	bsf	100,0,c	;volatile
  3257  000C2E                     
  3258                           ;mcc_generated_files/usb/usb_device.c: 619:             UIEbits.IDLEIE = 1;
  3259  000C2E  8864               	bsf	100,4,c	;volatile
  3260                           
  3261                           ;mcc_generated_files/usb/usb_device.c: 620:             USBDeviceState = POWERED_STATE;
  3262  000C30  0E02               	movlw	2
  3263  000C32  6E4E               	movwf	_USBDeviceState^0,c	;volatile
  3264  000C34                     i2l4603:
  3265                           
  3266                           ;mcc_generated_files/usb/usb_device.c: 638:     if(UIRbits.ACTVIF && UIEbits.ACTVIE)
  3267  000C34  A465               	btfss	101,2,c	;volatile
  3268  000C36  EF1F  F006         	goto	i2u310_41
  3269  000C3A  EF21  F006         	goto	i2u310_40
  3270  000C3E                     i2u310_41:
  3271  000C3E  EF2B  F006         	goto	i2l4611
  3272  000C42                     i2u310_40:
  3273  000C42  A464               	btfss	100,2,c	;volatile
  3274  000C44  EF26  F006         	goto	i2u311_41
  3275  000C48  EF28  F006         	goto	i2u311_40
  3276  000C4C                     i2u311_41:
  3277  000C4C  EF2B  F006         	goto	i2l4611
  3278  000C50                     i2u311_40:
  3279  000C50                     
  3280                           ;mcc_generated_files/usb/usb_device.c: 639:     {;mcc_generated_files/usb/usb_device.c: 
      +                          640:         (UIR &= 0xFB);
  3281  000C50  9465               	bcf	101,2,c	;volatile
  3282  000C52                     
  3283                           ;mcc_generated_files/usb/usb_device.c: 644:             USBWakeFromSuspend();
  3284  000C52  EC03  F015         	call	_USBWakeFromSuspend	;wreg free
  3285  000C56                     i2l4611:
  3286                           
  3287                           ;mcc_generated_files/usb/usb_device.c: 651:     if(UCONbits.SUSPND==1)
  3288  000C56  A260               	btfss	96,1,c	;volatile
  3289  000C58  EF30  F006         	goto	i2u312_41
  3290  000C5C  EF32  F006         	goto	i2u312_40
  3291  000C60                     i2u312_41:
  3292  000C60  EF35  F006         	goto	i2l147
  3293  000C64                     i2u312_40:
  3294  000C64                     
  3295                           ;mcc_generated_files/usb/usb_device.c: 652:     {;mcc_generated_files/usb/usb_device.c: 
      +                          653:         PIR3bits.USBIF = 0;;
  3296  000C64  94A4               	bcf	164,2,c	;volatile
  3297                           
  3298                           ;mcc_generated_files/usb/usb_device.c: 654:         return;
  3299  000C66  EF18  F007         	goto	i2l148
  3300  000C6A                     i2l147:
  3301                           
  3302                           ;mcc_generated_files/usb/usb_device.c: 667:     if(UIRbits.URSTIF && UIEbits.URSTIE)
  3303  000C6A  A065               	btfss	101,0,c	;volatile
  3304  000C6C  EF3A  F006         	goto	i2u313_41
  3305  000C70  EF3C  F006         	goto	i2u313_40
  3306  000C74                     i2u313_41:
  3307  000C74  EF49  F006         	goto	i2l4625
  3308  000C78                     i2u313_40:
  3309  000C78  A064               	btfss	100,0,c	;volatile
  3310  000C7A  EF41  F006         	goto	i2u314_41
  3311  000C7E  EF43  F006         	goto	i2u314_40
  3312  000C82                     i2u314_41:
  3313  000C82  EF49  F006         	goto	i2l4625
  3314  000C86                     i2u314_40:
  3315  000C86                     
  3316                           ;mcc_generated_files/usb/usb_device.c: 668:     {;mcc_generated_files/usb/usb_device.c: 
      +                          669:         USBDeviceInit();
  3317  000C86  ECBC  F00A         	call	i2_USBDeviceInit	;wreg free
  3318  000C8A                     
  3319                           ;mcc_generated_files/usb/usb_device.c: 673:         {PIE3bits.USBIE = 1;};
  3320  000C8A  84A3               	bsf	163,2,c	;volatile
  3321  000C8C                     
  3322                           ;mcc_generated_files/usb/usb_device.c: 675:         USBDeviceState = DEFAULT_STATE;
  3323  000C8C  0E04               	movlw	4
  3324  000C8E  6E4E               	movwf	_USBDeviceState^0,c	;volatile
  3325  000C90                     
  3326                           ;mcc_generated_files/usb/usb_device.c: 685:         (UIR &= 0xFE);
  3327  000C90  9065               	bcf	101,0,c	;volatile
  3328  000C92                     i2l4625:
  3329                           
  3330                           ;mcc_generated_files/usb/usb_device.c: 691:     if(UIRbits.IDLEIF && UIEbits.IDLEIE)
  3331  000C92  A865               	btfss	101,4,c	;volatile
  3332  000C94  EF4E  F006         	goto	i2u315_41
  3333  000C98  EF50  F006         	goto	i2u315_40
  3334  000C9C                     i2u315_41:
  3335  000C9C  EF59  F006         	goto	i2l4631
  3336  000CA0                     i2u315_40:
  3337  000CA0  A864               	btfss	100,4,c	;volatile
  3338  000CA2  EF55  F006         	goto	i2u316_41
  3339  000CA6  EF57  F006         	goto	i2u316_40
  3340  000CAA                     i2u316_41:
  3341  000CAA  EF59  F006         	goto	i2l4631
  3342  000CAE                     i2u316_40:
  3343  000CAE                     
  3344                           ;mcc_generated_files/usb/usb_device.c: 692:     {;mcc_generated_files/usb/usb_device.c: 
      +                          698:             USBSuspend();
  3345  000CAE  EC6E  F015         	call	_USBSuspend	;wreg free
  3346  000CB2                     i2l4631:
  3347                           
  3348                           ;mcc_generated_files/usb/usb_device.c: 712:     if(UIRbits.SOFIF)
  3349  000CB2  AC65               	btfss	101,6,c	;volatile
  3350  000CB4  EF5E  F006         	goto	i2u317_41
  3351  000CB8  EF60  F006         	goto	i2u317_40
  3352  000CBC                     i2u317_41:
  3353  000CBC  EF8B  F006         	goto	i2l4649
  3354  000CC0                     i2u317_40:
  3355  000CC0                     
  3356                           ;mcc_generated_files/usb/usb_device.c: 713:     {;mcc_generated_files/usb/usb_device.c: 
      +                          715:         if(UIEbits.SOFIE)
  3357  000CC0  AC64               	btfss	100,6,c	;volatile
  3358  000CC2  EF65  F006         	goto	i2u318_41
  3359  000CC6  EF67  F006         	goto	i2u318_40
  3360  000CCA                     i2u318_41:
  3361  000CCA  EF75  F006         	goto	i2l4637
  3362  000CCE                     i2u318_40:
  3363  000CCE                     
  3364                           ;mcc_generated_files/usb/usb_device.c: 716:         {;mcc_generated_files/usb/usb_device
      +                          .c: 717:             USER_USB_CALLBACK_EVENT_HANDLER((USB_EVENT)EVENT_SOF,0,1);
  3365  000CCE  0E00               	movlw	0
  3366  000CD0  6E0E               	movwf	(USER_USB_CALLBACK_EVENT_HANDLER@event+1)^0,c
  3367  000CD2  0E73               	movlw	115
  3368  000CD4  6E0D               	movwf	USER_USB_CALLBACK_EVENT_HANDLER@event^0,c
  3369  000CD6  0E00               	movlw	0
  3370  000CD8  6E0F               	movwf	USER_USB_CALLBACK_EVENT_HANDLER@pdata^0,c
  3371  000CDA  0E00               	movlw	0
  3372  000CDC  6E10               	movwf	(USER_USB_CALLBACK_EVENT_HANDLER@pdata+1)^0,c
  3373  000CDE  0E00               	movlw	0
  3374  000CE0  6E12               	movwf	(USER_USB_CALLBACK_EVENT_HANDLER@size+1)^0,c
  3375  000CE2  0E01               	movlw	1
  3376  000CE4  6E11               	movwf	USER_USB_CALLBACK_EVENT_HANDLER@size^0,c
  3377  000CE6  ECB4  F013         	call	_USER_USB_CALLBACK_EVENT_HANDLER	;wreg free
  3378  000CEA                     i2l4637:
  3379                           
  3380                           ;mcc_generated_files/usb/usb_device.c: 719:         (UIR &= 0xBF);
  3381  000CEA  9C65               	bcf	101,6,c	;volatile
  3382  000CEC                     
  3383                           ;mcc_generated_files/usb/usb_device.c: 722:             USBIncrement1msInternalTimers();
  3384  000CEC  EC24  F015         	call	_USBIncrement1msInternalTimers	;wreg free
  3385  000CF0                     
  3386                           ;mcc_generated_files/usb/usb_device.c: 739:             if(USBStatusStageTimeoutCounter 
      +                          != 0u)
  3387  000CF0  5048               	movf	_USBStatusStageTimeoutCounter^0,w,c	;volatile
  3388  000CF2  B4D8               	btfsc	status,2,c
  3389  000CF4  EF7E  F006         	goto	i2u319_41
  3390  000CF8  EF80  F006         	goto	i2u319_40
  3391  000CFC                     i2u319_41:
  3392  000CFC  EF81  F006         	goto	i2l4645
  3393  000D00                     i2u319_40:
  3394  000D00                     
  3395                           ;mcc_generated_files/usb/usb_device.c: 740:             {;mcc_generated_files/usb/usb_de
      +                          vice.c: 741:                 USBStatusStageTimeoutCounter--;
  3396  000D00  0648               	decf	_USBStatusStageTimeoutCounter^0,f,c	;volatile
  3397  000D02                     i2l4645:
  3398                           
  3399                           ;mcc_generated_files/usb/usb_device.c: 748:             if(USBStatusStageTimeoutCounter 
      +                          == 0)
  3400  000D02  5048               	movf	_USBStatusStageTimeoutCounter^0,w,c	;volatile
  3401  000D04  A4D8               	btfss	status,2,c
  3402  000D06  EF87  F006         	goto	i2u320_41
  3403  000D0A  EF89  F006         	goto	i2u320_40
  3404  000D0E                     i2u320_41:
  3405  000D0E  EF8B  F006         	goto	i2l4649
  3406  000D12                     i2u320_40:
  3407  000D12                     
  3408                           ;mcc_generated_files/usb/usb_device.c: 749:             {;mcc_generated_files/usb/usb_de
      +                          vice.c: 750:                 USBCtrlEPAllowStatusStage();
  3409  000D12  EC16  F011         	call	_USBCtrlEPAllowStatusStage	;wreg free
  3410  000D16                     i2l4649:
  3411                           
  3412                           ;mcc_generated_files/usb/usb_device.c: 755:     if(UIRbits.STALLIF && UIEbits.STALLIE)
  3413  000D16  AA65               	btfss	101,5,c	;volatile
  3414  000D18  EF90  F006         	goto	i2u321_41
  3415  000D1C  EF92  F006         	goto	i2u321_40
  3416  000D20                     i2u321_41:
  3417  000D20  EF9B  F006         	goto	i2l4655
  3418  000D24                     i2u321_40:
  3419  000D24  AA64               	btfss	100,5,c	;volatile
  3420  000D26  EF97  F006         	goto	i2u322_41
  3421  000D2A  EF99  F006         	goto	i2u322_40
  3422  000D2E                     i2u322_41:
  3423  000D2E  EF9B  F006         	goto	i2l4655
  3424  000D32                     i2u322_40:
  3425  000D32                     
  3426                           ;mcc_generated_files/usb/usb_device.c: 756:     {;mcc_generated_files/usb/usb_device.c: 
      +                          757:         USBStallHandler();
  3427  000D32  EC64  F014         	call	_USBStallHandler	;wreg free
  3428  000D36                     i2l4655:
  3429                           
  3430                           ;mcc_generated_files/usb/usb_device.c: 760:     if(UIRbits.UERRIF && UIEbits.UERRIE)
  3431  000D36  A265               	btfss	101,1,c	;volatile
  3432  000D38  EFA0  F006         	goto	i2u323_41
  3433  000D3C  EFA2  F006         	goto	i2u323_40
  3434  000D40                     i2u323_41:
  3435  000D40  EFB8  F006         	goto	i2l4663
  3436  000D44                     i2u323_40:
  3437  000D44  A264               	btfss	100,1,c	;volatile
  3438  000D46  EFA7  F006         	goto	i2u324_41
  3439  000D4A  EFA9  F006         	goto	i2u324_40
  3440  000D4E                     i2u324_41:
  3441  000D4E  EFB8  F006         	goto	i2l4663
  3442  000D52                     i2u324_40:
  3443  000D52                     
  3444                           ;mcc_generated_files/usb/usb_device.c: 761:     {;mcc_generated_files/usb/usb_device.c: 
      +                          762:         USER_USB_CALLBACK_EVENT_HANDLER((USB_EVENT)EVENT_BUS_ERROR,0,1);
  3445  000D52  0E7F               	movlw	127
  3446  000D54  6E0E               	movwf	(USER_USB_CALLBACK_EVENT_HANDLER@event+1)^0,c
  3447  000D56  680D               	setf	USER_USB_CALLBACK_EVENT_HANDLER@event^0,c
  3448  000D58  0E00               	movlw	0
  3449  000D5A  6E0F               	movwf	USER_USB_CALLBACK_EVENT_HANDLER@pdata^0,c
  3450  000D5C  0E00               	movlw	0
  3451  000D5E  6E10               	movwf	(USER_USB_CALLBACK_EVENT_HANDLER@pdata+1)^0,c
  3452  000D60  0E00               	movlw	0
  3453  000D62  6E12               	movwf	(USER_USB_CALLBACK_EVENT_HANDLER@size+1)^0,c
  3454  000D64  0E01               	movlw	1
  3455  000D66  6E11               	movwf	USER_USB_CALLBACK_EVENT_HANDLER@size^0,c
  3456  000D68  ECB4  F013         	call	_USER_USB_CALLBACK_EVENT_HANDLER	;wreg free
  3457  000D6C                     
  3458                           ;mcc_generated_files/usb/usb_device.c: 763:         {UEIR = 0;};
  3459  000D6C  0E00               	movlw	0
  3460  000D6E  6E67               	movwf	103,c	;volatile
  3461  000D70                     i2l4663:
  3462                           
  3463                           ;mcc_generated_files/usb/usb_device.c: 778:     if(USBDeviceState < DEFAULT_STATE)
  3464  000D70  0E04               	movlw	4
  3465  000D72  604E               	cpfslt	_USBDeviceState^0,c	;volatile
  3466  000D74  EFBE  F006         	goto	i2u325_41
  3467  000D78  EFC0  F006         	goto	i2u325_40
  3468  000D7C                     i2u325_41:
  3469  000D7C  EFC3  F006         	goto	i2l157
  3470  000D80                     i2u325_40:
  3471  000D80                     
  3472                           ;mcc_generated_files/usb/usb_device.c: 779:     {;mcc_generated_files/usb/usb_device.c: 
      +                          780:         PIR3bits.USBIF = 0;;
  3473  000D80  94A4               	bcf	164,2,c	;volatile
  3474                           
  3475                           ;mcc_generated_files/usb/usb_device.c: 781:         return;
  3476  000D82  EF18  F007         	goto	i2l148
  3477  000D86                     i2l157:
  3478                           
  3479                           ;mcc_generated_files/usb/usb_device.c: 787:     if(UIEbits.TRNIE)
  3480  000D86  A664               	btfss	100,3,c	;volatile
  3481  000D88  EFC8  F006         	goto	i2u326_41
  3482  000D8C  EFCA  F006         	goto	i2u326_40
  3483  000D90                     i2u326_41:
  3484  000D90  EF17  F007         	goto	i2l158
  3485  000D94                     i2u326_40:
  3486  000D94                     
  3487                           ;mcc_generated_files/usb/usb_device.c: 788:     {;mcc_generated_files/usb/usb_device.c: 
      +                          789:         for(i = 0; i < 4u; i++)
  3488  000D94  0E00               	movlw	0
  3489  000D96  6E1F               	movwf	USBDeviceTasks@i^0,c
  3490  000D98                     i2l159:
  3491                           
  3492                           ;mcc_generated_files/usb/usb_device.c: 790:         {;mcc_generated_files/usb/usb_device
      +                          .c: 791:             if(UIRbits.TRNIF)
  3493  000D98  A665               	btfss	101,3,c	;volatile
  3494  000D9A  EFD1  F006         	goto	i2u327_41
  3495  000D9E  EFD3  F006         	goto	i2u327_40
  3496  000DA2                     i2u327_41:
  3497  000DA2  EF17  F007         	goto	i2l158
  3498  000DA6                     i2u327_40:
  3499  000DA6                     
  3500                           ;mcc_generated_files/usb/usb_device.c: 792:             {;mcc_generated_files/usb/usb_de
      +                          vice.c: 794:                 USTATcopy.Val = USTAT;
  3501  000DA6  CF61 F051          	movff	3937,_USTATcopy	;volatile
  3502  000DAA                     
  3503                           ;mcc_generated_files/usb/usb_device.c: 795:                 endpoint_number = USTATcopy.
      +                          endpoint_number;
  3504  000DAA  3051               	rrcf	_USTATcopy^0,w,c	;volatile
  3505  000DAC  32E8               	rrcf	wreg,f,c
  3506  000DAE  32E8               	rrcf	wreg,f,c
  3507  000DB0  0B0F               	andlw	15
  3508  000DB2  6E4A               	movwf	_endpoint_number^0,c	;volatile
  3509  000DB4                     
  3510                           ;mcc_generated_files/usb/usb_device.c: 797:                 (UIR &= 0xF7);
  3511  000DB4  9665               	bcf	101,3,c	;volatile
  3512  000DB6                     
  3513                           ;mcc_generated_files/usb/usb_device.c: 802:                 if(USTATcopy.direction == 0)
  3514  000DB6  B451               	btfsc	_USTATcopy^0,2,c	;volatile
  3515  000DB8  EFE0  F006         	goto	i2u328_41
  3516  000DBC  EFE2  F006         	goto	i2u328_40
  3517  000DC0                     i2u328_41:
  3518  000DC0  EFEC  F006         	goto	i2l4683
  3519  000DC4                     i2u328_40:
  3520  000DC4                     
  3521                           ;mcc_generated_files/usb/usb_device.c: 803:                 {;mcc_generated_files/usb/us
      +                          b_device.c: 804:                     ep_data_out[endpoint_number].bits.ping_pong_state ^
      +                          = 1;
  3522  000DC4  0E8A               	movlw	low _ep_data_out
  3523  000DC6  244A               	addwf	_endpoint_number^0,w,c	;volatile
  3524  000DC8  6ED9               	movwf	fsr2l,c
  3525  000DCA  6ADA               	clrf	fsr2h,c
  3526  000DCC  0E00               	movlw	high _ep_data_out
  3527  000DCE  22DA               	addwfc	fsr2h,f,c
  3528  000DD0  0100               	movlb	0	; () banked
  3529  000DD2  70DF               	btg	indf2,0,c
  3530                           
  3531                           ;mcc_generated_files/usb/usb_device.c: 805:                 }
  3532  000DD4  EFF4  F006         	goto	i2l4685
  3533  000DD8                     i2l4683:
  3534                           
  3535                           ;mcc_generated_files/usb/usb_device.c: 807:                 {;mcc_generated_files/usb/us
      +                          b_device.c: 808:                     ep_data_in[endpoint_number].bits.ping_pong_state ^=
      +                           1;
  3536  000DD8  0E8D               	movlw	low _ep_data_in
  3537  000DDA  244A               	addwf	_endpoint_number^0,w,c	;volatile
  3538  000DDC  6ED9               	movwf	fsr2l,c
  3539  000DDE  6ADA               	clrf	fsr2h,c
  3540  000DE0  0E00               	movlw	high _ep_data_in
  3541  000DE2  22DA               	addwfc	fsr2h,f,c
  3542  000DE4  0100               	movlb	0	; () banked
  3543  000DE6  70DF               	btg	indf2,0,c
  3544  000DE8                     i2l4685:
  3545                           
  3546                           ; BSR set to: 0
  3547                           ;mcc_generated_files/usb/usb_device.c: 814:                 if(endpoint_number == 0)
  3548  000DE8  504A               	movf	_endpoint_number^0,w,c	;volatile
  3549  000DEA  A4D8               	btfss	status,2,c
  3550  000DEC  EFFA  F006         	goto	i2u329_41
  3551  000DF0  EFFC  F006         	goto	i2u329_40
  3552  000DF4                     i2u329_41:
  3553  000DF4  EF00  F007         	goto	i2l4689
  3554  000DF8                     i2u329_40:
  3555  000DF8                     
  3556                           ; BSR set to: 0
  3557                           ;mcc_generated_files/usb/usb_device.c: 815:                 {;mcc_generated_files/usb/us
      +                          b_device.c: 816:                     USBCtrlEPService();
  3558  000DF8  EC60  F012         	call	_USBCtrlEPService	;wreg free
  3559                           
  3560                           ;mcc_generated_files/usb/usb_device.c: 817:                 }
  3561  000DFC  EF0E  F007         	goto	i2l4691
  3562  000E00                     i2l4689:
  3563                           
  3564                           ; BSR set to: 0
  3565                           ;mcc_generated_files/usb/usb_device.c: 819:                 {;mcc_generated_files/usb/us
      +                          b_device.c: 820:                     USER_USB_CALLBACK_EVENT_HANDLER((USB_EVENT)EVENT_TR
      +                          ANSFER,(uint8_t*)&USTATcopy.Val,0);
  3566  000E00  0E00               	movlw	0
  3567  000E02  6E0E               	movwf	(USER_USB_CALLBACK_EVENT_HANDLER@event+1)^0,c
  3568  000E04  0E72               	movlw	114
  3569  000E06  6E0D               	movwf	USER_USB_CALLBACK_EVENT_HANDLER@event^0,c
  3570  000E08  0E51               	movlw	low _USTATcopy
  3571  000E0A  6E0F               	movwf	USER_USB_CALLBACK_EVENT_HANDLER@pdata^0,c
  3572  000E0C  0E00               	movlw	high _USTATcopy
  3573  000E0E  6E10               	movwf	(USER_USB_CALLBACK_EVENT_HANDLER@pdata+1)^0,c
  3574  000E10  0E00               	movlw	0
  3575  000E12  6E12               	movwf	(USER_USB_CALLBACK_EVENT_HANDLER@size+1)^0,c
  3576  000E14  0E00               	movlw	0
  3577  000E16  6E11               	movwf	USER_USB_CALLBACK_EVENT_HANDLER@size^0,c
  3578  000E18  ECB4  F013         	call	_USER_USB_CALLBACK_EVENT_HANDLER	;wreg free
  3579  000E1C                     i2l4691:
  3580                           
  3581                           ;mcc_generated_files/usb/usb_device.c: 827:         }
  3582  000E1C  2A1F               	incf	USBDeviceTasks@i^0,f,c
  3583  000E1E  0E03               	movlw	3
  3584  000E20  641F               	cpfsgt	USBDeviceTasks@i^0,c
  3585  000E22  EF15  F007         	goto	i2u330_41
  3586  000E26  EF17  F007         	goto	i2u330_40
  3587  000E2A                     i2u330_41:
  3588  000E2A  EFCC  F006         	goto	i2l159
  3589  000E2E                     i2u330_40:
  3590  000E2E                     i2l158:
  3591                           
  3592                           ;mcc_generated_files/usb/usb_device.c: 830:     PIR3bits.USBIF = 0;;
  3593  000E2E  94A4               	bcf	164,2,c	;volatile
  3594  000E30                     i2l148:
  3595  000E30  0012               	return		;funcret
  3596  000E32                     __end_of_USBDeviceTasks:
  3597                           	callstack 0
  3598                           
  3599 ;; *************** function i2_USBDeviceInit *****************
  3600 ;; Defined at:
  3601 ;;		line 281 in file "mcc_generated_files/usb/usb_device.c"
  3602 ;; Parameters:    Size  Location     Type
  3603 ;;		None
  3604 ;; Auto vars:     Size  Location     Type
  3605 ;;  i               1   12[COMRAM] unsigned char 
  3606 ;; Return value:  Size  Location     Type
  3607 ;;                  1    wreg      void 
  3608 ;; Registers used:
  3609 ;;		wreg, fsr2l, fsr2h, status,2, status,0, prodl, prodh, cstack
  3610 ;; Tracked objects:
  3611 ;;		On entry : 0/0
  3612 ;;		On exit  : 0/0
  3613 ;;		Unchanged: 0/0
  3614 ;; Data sizes:     COMRAM   BANK0   BANK1   BANK2   BANK3   BANK4   BANK5   BANK6   BANK7
  3615 ;;      Params:         0       0       0       0       0       0       0       0       0
  3616 ;;      Locals:         1       0       0       0       0       0       0       0       0
  3617 ;;      Temps:          0       0       0       0       0       0       0       0       0
  3618 ;;      Totals:         1       0       0       0       0       0       0       0       0
  3619 ;;Total ram usage:        1 bytes
  3620 ;; Hardware stack levels used: 1
  3621 ;; Hardware stack levels required when called: 1
  3622 ;; This function calls:
  3623 ;;		i2_memset
  3624 ;; This function is called by:
  3625 ;;		_USBDeviceTasks
  3626 ;; This function uses a non-reentrant model
  3627 ;;
  3628                           
  3629                           	psect	text21
  3630  001578                     __ptext21:
  3631                           	callstack 0
  3632  001578                     i2_USBDeviceInit:
  3633                           	callstack 24
  3634  001578                     
  3635                           ;mcc_generated_files/usb/usb_device.c: 283:     uint8_t i;;mcc_generated_files/usb/usb_d
      +                          evice.c: 285:     {PIE3bits.USBIE = 0;};
  3636  001578  94A3               	bcf	163,2,c	;volatile
  3637  00157A                     
  3638                           ;mcc_generated_files/usb/usb_device.c: 292:     {UEIR = 0;};
  3639  00157A  0E00               	movlw	0
  3640  00157C  6E67               	movwf	103,c	;volatile
  3641                           
  3642                           ;mcc_generated_files/usb/usb_device.c: 295:     {UIR = 0;};
  3643  00157E  0E00               	movlw	0
  3644  001580  6E65               	movwf	101,c	;volatile
  3645                           
  3646                           ;mcc_generated_files/usb/usb_device.c: 298:     UEP0 = 0;
  3647  001582  0E00               	movlw	0
  3648  001584  6E6A               	movwf	106,c	;volatile
  3649  001586                     
  3650                           ;mcc_generated_files/usb/usb_device.c: 300:     memset((void*)&UEP1,0x00,(2));;
  3651  001586  0E6B               	movlw	107
  3652  001588  6E01               	movwf	i2memset@dest^0,c
  3653  00158A  0E0F               	movlw	15
  3654  00158C  6E02               	movwf	(i2memset@dest+1)^0,c
  3655  00158E  0E00               	movlw	0
  3656  001590  6E04               	movwf	(i2memset@c+1)^0,c
  3657  001592  0E00               	movlw	0
  3658  001594  6E03               	movwf	i2memset@c^0,c
  3659  001596  0E00               	movlw	0
  3660  001598  6E06               	movwf	(i2memset@n+1)^0,c
  3661  00159A  0E02               	movlw	2
  3662  00159C  6E05               	movwf	i2memset@n^0,c
  3663  00159E  ECA1  F008         	call	i2_memset	;wreg free
  3664  0015A2                     
  3665                           ;mcc_generated_files/usb/usb_device.c: 302:     { UCFG = 0x10 | 0x00 | 0x04 | 0x02; UEIE
      +                           = 0x9F; UIE = 0x39 | 0x40 | 0x02; };
  3666  0015A2  0E16               	movlw	22
  3667  0015A4  6E62               	movwf	98,c	;volatile
  3668  0015A6  0E9F               	movlw	159
  3669  0015A8  6E66               	movwf	102,c	;volatile
  3670  0015AA  0E7B               	movlw	123
  3671  0015AC  6E64               	movwf	100,c	;volatile
  3672  0015AE                     
  3673                           ;mcc_generated_files/usb/usb_device.c: 311:     for(i = 0; i < (sizeof(BDT)/sizeof(BDT_E
      +                          NTRY)); i++)
  3674  0015AE  0E00               	movlw	0
  3675  0015B0  6E0D               	movwf	i2USBDeviceInit@i^0,c
  3676  0015B2                     i2l4535:
  3677                           
  3678                           ;mcc_generated_files/usb/usb_device.c: 312:     {;mcc_generated_files/usb/usb_device.c: 
      +                          313:         BDT[i].Val = 0x00;
  3679  0015B2  500D               	movf	i2USBDeviceInit@i^0,w,c
  3680  0015B4  0D04               	mullw	4
  3681  0015B6  0E00               	movlw	0
  3682  0015B8  24F3               	addwf	243,w,c
  3683  0015BA  6ED9               	movwf	fsr2l,c
  3684  0015BC  0E04               	movlw	4
  3685  0015BE  20F4               	addwfc	prodh,w,c
  3686  0015C0  6EDA               	movwf	fsr2h,c
  3687  0015C2  6ADE               	clrf	postinc2,c
  3688  0015C4  6ADE               	clrf	postinc2,c
  3689  0015C6  6ADE               	clrf	postinc2,c
  3690  0015C8  6ADD               	clrf	postdec2,c
  3691  0015CA                     
  3692                           ;mcc_generated_files/usb/usb_device.c: 314:     }
  3693  0015CA  2A0D               	incf	i2USBDeviceInit@i^0,f,c
  3694  0015CC  0E0B               	movlw	11
  3695  0015CE  640D               	cpfsgt	i2USBDeviceInit@i^0,c
  3696  0015D0  EFEC  F00A         	goto	i2u305_41
  3697  0015D4  EFEE  F00A         	goto	i2u305_40
  3698  0015D8                     i2u305_41:
  3699  0015D8  EFD9  F00A         	goto	i2l4535
  3700  0015DC                     i2u305_40:
  3701  0015DC                     
  3702                           ;mcc_generated_files/usb/usb_device.c: 317:     UCONbits.PPBRST = 1;
  3703  0015DC  8C60               	bsf	96,6,c	;volatile
  3704  0015DE                     
  3705                           ;mcc_generated_files/usb/usb_device.c: 320:     UADDR = 0x00;
  3706  0015DE  0E00               	movlw	0
  3707  0015E0  6E63               	movwf	99,c	;volatile
  3708  0015E2                     
  3709                           ;mcc_generated_files/usb/usb_device.c: 323:     UCONbits.PKTDIS = 0;
  3710  0015E2  9860               	bcf	96,4,c	;volatile
  3711  0015E4                     
  3712                           ;mcc_generated_files/usb/usb_device.c: 326:     UCONbits.PPBRST = 0;
  3713  0015E4  9C60               	bcf	96,6,c	;volatile
  3714  0015E6                     i2l4547:
  3715                           
  3716                           ;mcc_generated_files/usb/usb_device.c: 330:     {;mcc_generated_files/usb/usb_device.c: 
      +                          331:         (UIR &= 0xF7);
  3717  0015E6  9665               	bcf	101,3,c	;volatile
  3718  0015E8                     
  3719                           ;mcc_generated_files/usb/usb_device.c: 333:         inPipes[0].info.Val = 0;
  3720  0015E8  0E00               	movlw	0
  3721  0015EA  0100               	movlb	0	; () banked
  3722  0015EC  6F75               	movwf	(_inPipes+3)& (0+255),b	;volatile
  3723  0015EE                     
  3724                           ; BSR set to: 0
  3725                           ;mcc_generated_files/usb/usb_device.c: 334:         outPipes[0].info.Val = 0;
  3726  0015EE  0E00               	movlw	0
  3727  0015F0  6F6D               	movwf	(_outPipes+3)& (0+255),b	;volatile
  3728  0015F2                     
  3729                           ; BSR set to: 0
  3730                           ;mcc_generated_files/usb/usb_device.c: 335:         outPipes[0].wCount.Val = 0;
  3731  0015F2  0E00               	movlw	0
  3732  0015F4  6F6F               	movwf	(_outPipes+5)& (0+255),b	;volatile
  3733  0015F6  0E00               	movlw	0
  3734  0015F8  6F6E               	movwf	(_outPipes+4)& (0+255),b	;volatile
  3735  0015FA                     
  3736                           ; BSR set to: 0
  3737                           ;mcc_generated_files/usb/usb_device.c: 336:     }while(UIRbits.TRNIF == 1);
  3738  0015FA  B665               	btfsc	101,3,c	;volatile
  3739  0015FC  EF02  F00B         	goto	i2u306_41
  3740  001600  EF04  F00B         	goto	i2u306_40
  3741  001604                     i2u306_41:
  3742  001604  EFF3  F00A         	goto	i2l4547
  3743  001608                     i2u306_40:
  3744  001608                     
  3745                           ; BSR set to: 0
  3746                           ;mcc_generated_files/usb/usb_device.c: 340:     USBStatusStageEnabledFlag1 = 1;
  3747  001608  0E01               	movlw	1
  3748  00160A  6E46               	movwf	_USBStatusStageEnabledFlag1^0,c	;volatile
  3749                           
  3750                           ;mcc_generated_files/usb/usb_device.c: 341:     USBStatusStageEnabledFlag2 = 1;
  3751  00160C  0E01               	movlw	1
  3752  00160E  6E45               	movwf	_USBStatusStageEnabledFlag2^0,c	;volatile
  3753                           
  3754                           ;mcc_generated_files/usb/usb_device.c: 343:     USBDeferINDataStagePackets = 0;
  3755  001610  0E00               	movlw	0
  3756  001612  6E44               	movwf	_USBDeferINDataStagePackets^0,c	;volatile
  3757                           
  3758                           ;mcc_generated_files/usb/usb_device.c: 344:     USBDeferOUTDataStagePackets = 0;
  3759  001614  0E00               	movlw	0
  3760  001616  6E43               	movwf	_USBDeferOUTDataStagePackets^0,c	;volatile
  3761                           
  3762                           ;mcc_generated_files/usb/usb_device.c: 345:     USBBusIsSuspended = 0;
  3763  001618  0E00               	movlw	0
  3764  00161A  6F98               	movwf	_USBBusIsSuspended& (0+255),b	;volatile
  3765                           
  3766                           ;mcc_generated_files/usb/usb_device.c: 349:     for(i = 0; i < (uint8_t)(2 +1u); i++)
  3767  00161C  0E00               	movlw	0
  3768  00161E  6E0D               	movwf	i2USBDeviceInit@i^0,c
  3769  001620                     i2l4563:
  3770                           
  3771                           ;mcc_generated_files/usb/usb_device.c: 350:     {;mcc_generated_files/usb/usb_device.c: 
      +                          351:         pBDTEntryIn[i] = 0u;
  3772  001620  500D               	movf	i2USBDeviceInit@i^0,w,c
  3773  001622  0D02               	mullw	2
  3774  001624  0E78               	movlw	low _pBDTEntryIn
  3775  001626  24F3               	addwf	243,w,c
  3776  001628  6ED9               	movwf	fsr2l,c
  3777  00162A  0E00               	movlw	high _pBDTEntryIn
  3778  00162C  20F4               	addwfc	prodh,w,c
  3779  00162E  6EDA               	movwf	fsr2h,c
  3780  001630  0E00               	movlw	0
  3781  001632  6EDE               	movwf	postinc2,c
  3782  001634  0E00               	movlw	0
  3783  001636  6EDD               	movwf	postdec2,c
  3784                           
  3785                           ;mcc_generated_files/usb/usb_device.c: 352:         pBDTEntryOut[i] = 0u;
  3786  001638  500D               	movf	i2USBDeviceInit@i^0,w,c
  3787  00163A  0D02               	mullw	2
  3788  00163C  0E7E               	movlw	low _pBDTEntryOut
  3789  00163E  24F3               	addwf	243,w,c
  3790  001640  6ED9               	movwf	fsr2l,c
  3791  001642  0E00               	movlw	high _pBDTEntryOut
  3792  001644  20F4               	addwfc	prodh,w,c
  3793  001646  6EDA               	movwf	fsr2h,c
  3794  001648  0E00               	movlw	0
  3795  00164A  6EDE               	movwf	postinc2,c
  3796  00164C  0E00               	movlw	0
  3797  00164E  6EDD               	movwf	postdec2,c
  3798  001650                     
  3799                           ;mcc_generated_files/usb/usb_device.c: 353:         ep_data_in[i].Val = 0u;
  3800  001650  0E8D               	movlw	low _ep_data_in
  3801  001652  240D               	addwf	i2USBDeviceInit@i^0,w,c
  3802  001654  6ED9               	movwf	fsr2l,c
  3803  001656  6ADA               	clrf	fsr2h,c
  3804  001658  0E00               	movlw	high _ep_data_in
  3805  00165A  22DA               	addwfc	fsr2h,f,c
  3806  00165C  0E00               	movlw	0
  3807  00165E  6EDF               	movwf	indf2,c
  3808  001660                     
  3809                           ;mcc_generated_files/usb/usb_device.c: 354:         ep_data_out[i].Val = 0u;
  3810  001660  0E8A               	movlw	low _ep_data_out
  3811  001662  240D               	addwf	i2USBDeviceInit@i^0,w,c
  3812  001664  6ED9               	movwf	fsr2l,c
  3813  001666  6ADA               	clrf	fsr2h,c
  3814  001668  0E00               	movlw	high _ep_data_out
  3815  00166A  22DA               	addwfc	fsr2h,f,c
  3816  00166C  0E00               	movlw	0
  3817  00166E  6EDF               	movwf	indf2,c
  3818  001670                     
  3819                           ;mcc_generated_files/usb/usb_device.c: 355:     }
  3820  001670  2A0D               	incf	i2USBDeviceInit@i^0,f,c
  3821  001672  0E02               	movlw	2
  3822  001674  640D               	cpfsgt	i2USBDeviceInit@i^0,c
  3823  001676  EF3F  F00B         	goto	i2u307_41
  3824  00167A  EF41  F00B         	goto	i2u307_40
  3825  00167E                     i2u307_41:
  3826  00167E  EF10  F00B         	goto	i2l4563
  3827  001682                     i2u307_40:
  3828  001682                     
  3829                           ;mcc_generated_files/usb/usb_device.c: 358:     pBDTEntryIn[0] = (volatile BDT_ENTRY*)&B
      +                          DT[2];
  3830  001682  0E08               	movlw	8
  3831  001684  0100               	movlb	0	; () banked
  3832  001686  6F78               	movwf	_pBDTEntryIn& (0+255),b
  3833  001688  0E04               	movlw	4
  3834  00168A  6F79               	movwf	(_pBDTEntryIn+1)& (0+255),b
  3835  00168C                     
  3836                           ; BSR set to: 0
  3837                           ;mcc_generated_files/usb/usb_device.c: 360:     UEP0 = 0x06|0x10;
  3838  00168C  0E16               	movlw	22
  3839  00168E  6E6A               	movwf	106,c	;volatile
  3840  001690                     
  3841                           ; BSR set to: 0
  3842                           ;mcc_generated_files/usb/usb_device.c: 362:     BDT[0].ADR = ((uint16_t)(&SetupPkt));
  3843  001690  0E04               	movlw	4
  3844  001692  0104               	movlb	4	; () banked
  3845  001694  6F03               	movwf	3,b	;volatile
  3846  001696  0E30               	movlw	48
  3847  001698  6F02               	movwf	2,b	;volatile
  3848  00169A                     
  3849                           ; BSR set to: 4
  3850                           ;mcc_generated_files/usb/usb_device.c: 363:     BDT[0].CNT = 8;
  3851  00169A  0E08               	movlw	8
  3852  00169C  6F01               	movwf	1,b	;volatile
  3853  00169E                     
  3854                           ; BSR set to: 4
  3855                           ;mcc_generated_files/usb/usb_device.c: 364:     BDT[0].STAT.Val = 0x00|0x04;
  3856  00169E  0E04               	movlw	4
  3857  0016A0  6F00               	movwf	0,b	;volatile
  3858  0016A2                     
  3859                           ; BSR set to: 4
  3860                           ;mcc_generated_files/usb/usb_device.c: 365:     BDT[0].STAT.Val |= 0x80;
  3861  0016A2  8F00               	bsf	0,7,b	;volatile
  3862  0016A4                     
  3863                           ; BSR set to: 4
  3864                           ;mcc_generated_files/usb/usb_device.c: 368:     USBActiveConfiguration = 0;
  3865  0016A4  0E00               	movlw	0
  3866  0016A6  6E52               	movwf	_USBActiveConfiguration^0,c	;volatile
  3867  0016A8                     
  3868                           ; BSR set to: 4
  3869                           ;mcc_generated_files/usb/usb_device.c: 370:     USB1msTickCount = 0;
  3870  0016A8  0E00               	movlw	0
  3871  0016AA  6E30               	movwf	_USB1msTickCount^0,c	;volatile
  3872  0016AC  0E00               	movlw	0
  3873  0016AE  6E31               	movwf	(_USB1msTickCount+1)^0,c	;volatile
  3874  0016B0  0E00               	movlw	0
  3875  0016B2  6E32               	movwf	(_USB1msTickCount+2)^0,c	;volatile
  3876  0016B4  0E00               	movlw	0
  3877  0016B6  6E33               	movwf	(_USB1msTickCount+3)^0,c	;volatile
  3878  0016B8                     
  3879                           ; BSR set to: 4
  3880                           ;mcc_generated_files/usb/usb_device.c: 371:     USBTicksSinceSuspendEnd = 0;
  3881  0016B8  0E00               	movlw	0
  3882  0016BA  0100               	movlb	0	; () banked
  3883  0016BC  6F97               	movwf	_USBTicksSinceSuspendEnd& (0+255),b	;volatile
  3884  0016BE                     
  3885                           ; BSR set to: 0
  3886                           ;mcc_generated_files/usb/usb_device.c: 374:     USBDeviceState = DETACHED_STATE;
  3887  0016BE  0E00               	movlw	0
  3888  0016C0  6E4E               	movwf	_USBDeviceState^0,c	;volatile
  3889  0016C2                     
  3890                           ; BSR set to: 0
  3891  0016C2  0012               	return		;funcret
  3892  0016C4                     __end_ofi2_USBDeviceInit:
  3893                           	callstack 0
  3894                           
  3895 ;; *************** function _USBWakeFromSuspend *****************
  3896 ;; Defined at:
  3897 ;;		line 2307 in file "mcc_generated_files/usb/usb_device.c"
  3898 ;; Parameters:    Size  Location     Type
  3899 ;;		None
  3900 ;; Auto vars:     Size  Location     Type
  3901 ;;		None
  3902 ;; Return value:  Size  Location     Type
  3903 ;;                  1    wreg      void 
  3904 ;; Registers used:
  3905 ;;		wreg, fsr2l, fsr2h, status,2, status,0, prodl, prodh, cstack
  3906 ;; Tracked objects:
  3907 ;;		On entry : 0/0
  3908 ;;		On exit  : 0/0
  3909 ;;		Unchanged: 0/0
  3910 ;; Data sizes:     COMRAM   BANK0   BANK1   BANK2   BANK3   BANK4   BANK5   BANK6   BANK7
  3911 ;;      Params:         0       0       0       0       0       0       0       0       0
  3912 ;;      Locals:         0       0       0       0       0       0       0       0       0
  3913 ;;      Temps:          0       0       0       0       0       0       0       0       0
  3914 ;;      Totals:         0       0       0       0       0       0       0       0       0
  3915 ;;Total ram usage:        0 bytes
  3916 ;; Hardware stack levels used: 1
  3917 ;; Hardware stack levels required when called: 4
  3918 ;; This function calls:
  3919 ;;		_USER_USB_CALLBACK_EVENT_HANDLER
  3920 ;; This function is called by:
  3921 ;;		_USBDeviceTasks
  3922 ;; This function uses a non-reentrant model
  3923 ;;
  3924                           
  3925                           	psect	text22
  3926  002A06                     __ptext22:
  3927                           	callstack 0
  3928  002A06                     _USBWakeFromSuspend:
  3929                           	callstack 21
  3930  002A06                     
  3931                           ;mcc_generated_files/usb/usb_device.c: 2309:     USBBusIsSuspended = 0;
  3932  002A06  0E00               	movlw	0
  3933  002A08  0100               	movlb	0	; () banked
  3934  002A0A  6F98               	movwf	_USBBusIsSuspended& (0+255),b	;volatile
  3935  002A0C                     
  3936                           ; BSR set to: 0
  3937                           ;mcc_generated_files/usb/usb_device.c: 2315:     USER_USB_CALLBACK_EVENT_HANDLER((USB_EV
      +                          ENT)EVENT_RESUME,0,0);
  3938  002A0C  0E00               	movlw	0
  3939  002A0E  6E0E               	movwf	(USER_USB_CALLBACK_EVENT_HANDLER@event+1)^0,c
  3940  002A10  0E74               	movlw	116
  3941  002A12  6E0D               	movwf	USER_USB_CALLBACK_EVENT_HANDLER@event^0,c
  3942  002A14  0E00               	movlw	0
  3943  002A16  6E0F               	movwf	USER_USB_CALLBACK_EVENT_HANDLER@pdata^0,c
  3944  002A18  0E00               	movlw	0
  3945  002A1A  6E10               	movwf	(USER_USB_CALLBACK_EVENT_HANDLER@pdata+1)^0,c
  3946  002A1C  0E00               	movlw	0
  3947  002A1E  6E12               	movwf	(USER_USB_CALLBACK_EVENT_HANDLER@size+1)^0,c
  3948  002A20  0E00               	movlw	0
  3949  002A22  6E11               	movwf	USER_USB_CALLBACK_EVENT_HANDLER@size^0,c
  3950  002A24  ECB4  F013         	call	_USER_USB_CALLBACK_EVENT_HANDLER	;wreg free
  3951  002A28                     
  3952                           ;mcc_generated_files/usb/usb_device.c: 2322:         UCONbits.SUSPND = 0;
  3953  002A28  9260               	bcf	96,1,c	;volatile
  3954  002A2A                     
  3955                           ;mcc_generated_files/usb/usb_device.c: 2327:     UIEbits.ACTVIE = 0;
  3956  002A2A  9464               	bcf	100,2,c	;volatile
  3957                           
  3958                           ;mcc_generated_files/usb/usb_device.c: 2345:     while(UIRbits.ACTVIF)
  3959  002A2C  EF19  F015         	goto	i2l4353
  3960  002A30                     i2l4351:
  3961                           
  3962                           ;mcc_generated_files/usb/usb_device.c: 2347:     {;mcc_generated_files/usb/usb_device.c:
      +                           2348:         (UIR &= 0xFB);
  3963  002A30  9465               	bcf	101,2,c	;volatile
  3964  002A32                     i2l4353:
  3965                           
  3966                           ;mcc_generated_files/usb/usb_device.c: 2345:     while(UIRbits.ACTVIF)
  3967  002A32  B465               	btfsc	101,2,c	;volatile
  3968  002A34  EF1E  F015         	goto	i2u279_41
  3969  002A38  EF20  F015         	goto	i2u279_40
  3970  002A3C                     i2u279_41:
  3971  002A3C  EF18  F015         	goto	i2l4351
  3972  002A40                     i2u279_40:
  3973  002A40                     
  3974                           ;mcc_generated_files/usb/usb_device.c: 2351:     USBTicksSinceSuspendEnd = 0;
  3975  002A40  0E00               	movlw	0
  3976  002A42  0100               	movlb	0	; () banked
  3977  002A44  6F97               	movwf	_USBTicksSinceSuspendEnd& (0+255),b	;volatile
  3978  002A46                     
  3979                           ; BSR set to: 0
  3980  002A46  0012               	return		;funcret
  3981  002A48                     __end_of_USBWakeFromSuspend:
  3982                           	callstack 0
  3983                           
  3984 ;; *************** function _USBSuspend *****************
  3985 ;; Defined at:
  3986 ;;		line 2249 in file "mcc_generated_files/usb/usb_device.c"
  3987 ;; Parameters:    Size  Location     Type
  3988 ;;		None
  3989 ;; Auto vars:     Size  Location     Type
  3990 ;;		None
  3991 ;; Return value:  Size  Location     Type
  3992 ;;                  1    wreg      void 
  3993 ;; Registers used:
  3994 ;;		wreg, fsr2l, fsr2h, status,2, status,0, prodl, prodh, cstack
  3995 ;; Tracked objects:
  3996 ;;		On entry : 0/0
  3997 ;;		On exit  : 0/0
  3998 ;;		Unchanged: 0/0
  3999 ;; Data sizes:     COMRAM   BANK0   BANK1   BANK2   BANK3   BANK4   BANK5   BANK6   BANK7
  4000 ;;      Params:         0       0       0       0       0       0       0       0       0
  4001 ;;      Locals:         0       0       0       0       0       0       0       0       0
  4002 ;;      Temps:          0       0       0       0       0       0       0       0       0
  4003 ;;      Totals:         0       0       0       0       0       0       0       0       0
  4004 ;;Total ram usage:        0 bytes
  4005 ;; Hardware stack levels used: 1
  4006 ;; Hardware stack levels required when called: 4
  4007 ;; This function calls:
  4008 ;;		_USER_USB_CALLBACK_EVENT_HANDLER
  4009 ;; This function is called by:
  4010 ;;		_USBDeviceTasks
  4011 ;; This function uses a non-reentrant model
  4012 ;;
  4013                           
  4014                           	psect	text23
  4015  002ADC                     __ptext23:
  4016                           	callstack 0
  4017  002ADC                     _USBSuspend:
  4018                           	callstack 21
  4019  002ADC                     
  4020                           ;mcc_generated_files/usb/usb_device.c: 2274:     UIEbits.ACTVIE = 1;
  4021  002ADC  8464               	bsf	100,2,c	;volatile
  4022  002ADE                     
  4023                           ;mcc_generated_files/usb/usb_device.c: 2275:     (UIR &= 0xEF);
  4024  002ADE  9865               	bcf	101,4,c	;volatile
  4025  002AE0                     
  4026                           ;mcc_generated_files/usb/usb_device.c: 2278:         UCONbits.SUSPND = 1;
  4027  002AE0  8260               	bsf	96,1,c	;volatile
  4028  002AE2                     
  4029                           ;mcc_generated_files/usb/usb_device.c: 2281:     USBBusIsSuspended = 1;
  4030  002AE2  0E01               	movlw	1
  4031  002AE4  0100               	movlb	0	; () banked
  4032  002AE6  6F98               	movwf	_USBBusIsSuspended& (0+255),b	;volatile
  4033  002AE8                     
  4034                           ; BSR set to: 0
  4035                           ;mcc_generated_files/usb/usb_device.c: 2282:     USBTicksSinceSuspendEnd = 0;
  4036  002AE8  0E00               	movlw	0
  4037  002AEA  6F97               	movwf	_USBTicksSinceSuspendEnd& (0+255),b	;volatile
  4038  002AEC                     
  4039                           ; BSR set to: 0
  4040                           ;mcc_generated_files/usb/usb_device.c: 2289:     USER_USB_CALLBACK_EVENT_HANDLER((USB_EV
      +                          ENT)EVENT_SUSPEND,0,0);
  4041  002AEC  0E00               	movlw	0
  4042  002AEE  6E0E               	movwf	(USER_USB_CALLBACK_EVENT_HANDLER@event+1)^0,c
  4043  002AF0  0E75               	movlw	117
  4044  002AF2  6E0D               	movwf	USER_USB_CALLBACK_EVENT_HANDLER@event^0,c
  4045  002AF4  0E00               	movlw	0
  4046  002AF6  6E0F               	movwf	USER_USB_CALLBACK_EVENT_HANDLER@pdata^0,c
  4047  002AF8  0E00               	movlw	0
  4048  002AFA  6E10               	movwf	(USER_USB_CALLBACK_EVENT_HANDLER@pdata+1)^0,c
  4049  002AFC  0E00               	movlw	0
  4050  002AFE  6E12               	movwf	(USER_USB_CALLBACK_EVENT_HANDLER@size+1)^0,c
  4051  002B00  0E00               	movlw	0
  4052  002B02  6E11               	movwf	USER_USB_CALLBACK_EVENT_HANDLER@size^0,c
  4053  002B04  ECB4  F013         	call	_USER_USB_CALLBACK_EVENT_HANDLER	;wreg free
  4054  002B08  0012               	return		;funcret
  4055  002B0A                     __end_of_USBSuspend:
  4056                           	callstack 0
  4057                           
  4058 ;; *************** function _USBStallHandler *****************
  4059 ;; Defined at:
  4060 ;;		line 2206 in file "mcc_generated_files/usb/usb_device.c"
  4061 ;; Parameters:    Size  Location     Type
  4062 ;;		None
  4063 ;; Auto vars:     Size  Location     Type
  4064 ;;		None
  4065 ;; Return value:  Size  Location     Type
  4066 ;;                  1    wreg      void 
  4067 ;; Registers used:
  4068 ;;		wreg, fsr2l, fsr2h, status,2, status,0
  4069 ;; Tracked objects:
  4070 ;;		On entry : 0/0
  4071 ;;		On exit  : 0/0
  4072 ;;		Unchanged: 0/0
  4073 ;; Data sizes:     COMRAM   BANK0   BANK1   BANK2   BANK3   BANK4   BANK5   BANK6   BANK7
  4074 ;;      Params:         0       0       0       0       0       0       0       0       0
  4075 ;;      Locals:         0       0       0       0       0       0       0       0       0
  4076 ;;      Temps:          1       0       0       0       0       0       0       0       0
  4077 ;;      Totals:         1       0       0       0       0       0       0       0       0
  4078 ;;Total ram usage:        1 bytes
  4079 ;; Hardware stack levels used: 1
  4080 ;; This function calls:
  4081 ;;		Nothing
  4082 ;; This function is called by:
  4083 ;;		_USBDeviceTasks
  4084 ;; This function uses a non-reentrant model
  4085 ;;
  4086                           
  4087                           	psect	text24
  4088  0028C8                     __ptext24:
  4089                           	callstack 0
  4090  0028C8                     _USBStallHandler:
  4091                           	callstack 25
  4092  0028C8                     
  4093                           ;mcc_generated_files/usb/usb_device.c: 2218:     if(UEP0bits.EPSTALL == 1)
  4094  0028C8  A06A               	btfss	106,0,c	;volatile
  4095  0028CA  EF69  F014         	goto	i2u282_41
  4096  0028CE  EF6B  F014         	goto	i2u282_40
  4097  0028D2                     i2u282_41:
  4098  0028D2  EF92  F014         	goto	i2l297
  4099  0028D6                     i2u282_40:
  4100  0028D6                     
  4101                           ;mcc_generated_files/usb/usb_device.c: 2219:     {;mcc_generated_files/usb/usb_device.c:
      +                           2221:         if((pBDTEntryEP0OutCurrent->STAT.Val == 0x80) && (pBDTEntryIn[0]->STAT.Va
      +                          l == (0x80|0x04)))
  4102  0028D6  C03E  FFD9         	movff	_pBDTEntryEP0OutCurrent,fsr2l
  4103  0028DA  C03F  FFDA         	movff	_pBDTEntryEP0OutCurrent+1,fsr2h
  4104  0028DE  0E80               	movlw	128
  4105  0028E0  18DE               	xorwf	postinc2,w,c
  4106  0028E2  A4D8               	btfss	status,2,c
  4107  0028E4  EF76  F014         	goto	i2u283_41
  4108  0028E8  EF78  F014         	goto	i2u283_40
  4109  0028EC                     i2u283_41:
  4110  0028EC  EF91  F014         	goto	i2l4389
  4111  0028F0                     i2u283_40:
  4112  0028F0  C078  FFD9         	movff	_pBDTEntryIn,fsr2l
  4113  0028F4  C079  FFDA         	movff	_pBDTEntryIn+1,fsr2h
  4114  0028F8  0E84               	movlw	132
  4115  0028FA  18DE               	xorwf	postinc2,w,c
  4116  0028FC  A4D8               	btfss	status,2,c
  4117  0028FE  EF83  F014         	goto	i2u284_41
  4118  002902  EF85  F014         	goto	i2u284_40
  4119  002906                     i2u284_41:
  4120  002906  EF91  F014         	goto	i2l4389
  4121  00290A                     i2u284_40:
  4122  00290A                     
  4123                           ;mcc_generated_files/usb/usb_device.c: 2222:         {;mcc_generated_files/usb/usb_devic
      +                          e.c: 2224:             pBDTEntryEP0OutCurrent->STAT.Val = 0x00|(0x08 & 0x08)|0x04;
  4124  00290A  C03E  FFD9         	movff	_pBDTEntryEP0OutCurrent,fsr2l
  4125  00290E  C03F  FFDA         	movff	_pBDTEntryEP0OutCurrent+1,fsr2h
  4126  002912  0E0C               	movlw	12
  4127  002914  6EDF               	movwf	indf2,c
  4128  002916                     
  4129                           ;mcc_generated_files/usb/usb_device.c: 2225:             pBDTEntryEP0OutCurrent->STAT.Va
      +                          l |= 0x80;
  4130  002916  C03E  FFD9         	movff	_pBDTEntryEP0OutCurrent,fsr2l
  4131  00291A  C03F  FFDA         	movff	_pBDTEntryEP0OutCurrent+1,fsr2h
  4132  00291E  0E00               	movlw	0
  4133  002920  8EDB               	bsf	plusw2,7,c
  4134  002922                     i2l4389:
  4135                           
  4136                           ;mcc_generated_files/usb/usb_device.c: 2227:         UEP0bits.EPSTALL = 0;
  4137  002922  906A               	bcf	106,0,c	;volatile
  4138  002924                     i2l297:
  4139                           
  4140                           ;mcc_generated_files/usb/usb_device.c: 2230:     (UIR &= 0xDF);
  4141  002924  9A65               	bcf	101,5,c	;volatile
  4142  002926  0012               	return		;funcret
  4143  002928                     __end_of_USBStallHandler:
  4144                           	callstack 0
  4145                           
  4146 ;; *************** function _USBIncrement1msInternalTimers *****************
  4147 ;; Defined at:
  4148 ;;		line 3029 in file "mcc_generated_files/usb/usb_device.c"
  4149 ;; Parameters:    Size  Location     Type
  4150 ;;		None
  4151 ;; Auto vars:     Size  Location     Type
  4152 ;;		None
  4153 ;; Return value:  Size  Location     Type
  4154 ;;                  1    wreg      void 
  4155 ;; Registers used:
  4156 ;;		wreg, status,2, status,0
  4157 ;; Tracked objects:
  4158 ;;		On entry : 0/0
  4159 ;;		On exit  : 0/0
  4160 ;;		Unchanged: 0/0
  4161 ;; Data sizes:     COMRAM   BANK0   BANK1   BANK2   BANK3   BANK4   BANK5   BANK6   BANK7
  4162 ;;      Params:         0       0       0       0       0       0       0       0       0
  4163 ;;      Locals:         0       0       0       0       0       0       0       0       0
  4164 ;;      Temps:          0       0       0       0       0       0       0       0       0
  4165 ;;      Totals:         0       0       0       0       0       0       0       0       0
  4166 ;;Total ram usage:        0 bytes
  4167 ;; Hardware stack levels used: 1
  4168 ;; This function calls:
  4169 ;;		Nothing
  4170 ;; This function is called by:
  4171 ;;		_USBDeviceTasks
  4172 ;; This function uses a non-reentrant model
  4173 ;;
  4174                           
  4175                           	psect	text25
  4176  002A48                     __ptext25:
  4177                           	callstack 0
  4178  002A48                     _USBIncrement1msInternalTimers:
  4179                           	callstack 25
  4180  002A48                     
  4181                           ;mcc_generated_files/usb/usb_device.c: 3037:     USB1msTickCount++;
  4182  002A48  0E01               	movlw	1
  4183  002A4A  2630               	addwf	_USB1msTickCount^0,f,c	;volatile
  4184  002A4C  0E00               	movlw	0
  4185  002A4E  2231               	addwfc	(_USB1msTickCount+1)^0,f,c	;volatile
  4186  002A50  2232               	addwfc	(_USB1msTickCount+2)^0,f,c	;volatile
  4187  002A52  2233               	addwfc	(_USB1msTickCount+3)^0,f,c	;volatile
  4188  002A54                     
  4189                           ;mcc_generated_files/usb/usb_device.c: 3038:     if(USBBusIsSuspended == 0)
  4190  002A54  0100               	movlb	0	; () banked
  4191  002A56  5198               	movf	_USBBusIsSuspended& (0+255),w,b	;volatile
  4192  002A58  A4D8               	btfss	status,2,c
  4193  002A5A  EF31  F015         	goto	i2u280_41
  4194  002A5E  EF33  F015         	goto	i2u280_40
  4195  002A62                     i2u280_41:
  4196  002A62  EF3D  F015         	goto	i2l389
  4197  002A66                     i2u280_40:
  4198  002A66                     
  4199                           ; BSR set to: 0
  4200                           ;mcc_generated_files/usb/usb_device.c: 3039:     {;mcc_generated_files/usb/usb_device.c:
      +                           3040:         USBTicksSinceSuspendEnd++;
  4201  002A66  2B97               	incf	_USBTicksSinceSuspendEnd& (0+255),f,b	;volatile
  4202  002A68                     
  4203                           ; BSR set to: 0
  4204                           ;mcc_generated_files/usb/usb_device.c: 3042:         if(USBTicksSinceSuspendEnd == 0)
  4205  002A68  5197               	movf	_USBTicksSinceSuspendEnd& (0+255),w,b	;volatile
  4206  002A6A  A4D8               	btfss	status,2,c
  4207  002A6C  EF3A  F015         	goto	i2u281_41
  4208  002A70  EF3C  F015         	goto	i2u281_40
  4209  002A74                     i2u281_41:
  4210  002A74  EF3D  F015         	goto	i2l389
  4211  002A78                     i2u281_40:
  4212  002A78                     
  4213                           ; BSR set to: 0
  4214                           ;mcc_generated_files/usb/usb_device.c: 3043:         {;mcc_generated_files/usb/usb_devic
      +                          e.c: 3044:             USBTicksSinceSuspendEnd = 255;
  4215  002A78  6997               	setf	_USBTicksSinceSuspendEnd& (0+255),b	;volatile
  4216  002A7A                     i2l389:
  4217                           
  4218                           ; BSR set to: 0
  4219  002A7A  0012               	return		;funcret
  4220  002A7C                     __end_of_USBIncrement1msInternalTimers:
  4221                           	callstack 0
  4222                           
  4223 ;; *************** function _USBCtrlEPService *****************
  4224 ;; Defined at:
  4225 ;;		line 2376 in file "mcc_generated_files/usb/usb_device.c"
  4226 ;; Parameters:    Size  Location     Type
  4227 ;;		None
  4228 ;; Auto vars:     Size  Location     Type
  4229 ;;		None
  4230 ;; Return value:  Size  Location     Type
  4231 ;;                  1    wreg      void 
  4232 ;; Registers used:
  4233 ;;		wreg, fsr0l, fsr0h, fsr1l, fsr1h, fsr2l, fsr2h, status,2, status,0, tblptrl, tblptrh, tblptru, prodl, prodh, cstack
  4234 ;; Tracked objects:
  4235 ;;		On entry : 0/0
  4236 ;;		On exit  : 0/0
  4237 ;;		Unchanged: 0/0
  4238 ;; Data sizes:     COMRAM   BANK0   BANK1   BANK2   BANK3   BANK4   BANK5   BANK6   BANK7
  4239 ;;      Params:         0       0       0       0       0       0       0       0       0
  4240 ;;      Locals:         0       0       0       0       0       0       0       0       0
  4241 ;;      Temps:          1       0       0       0       0       0       0       0       0
  4242 ;;      Totals:         1       0       0       0       0       0       0       0       0
  4243 ;;Total ram usage:        1 bytes
  4244 ;; Hardware stack levels used: 1
  4245 ;; Hardware stack levels required when called: 7
  4246 ;; This function calls:
  4247 ;;		_USBCtrlTrfInHandler
  4248 ;;		_USBCtrlTrfOutHandler
  4249 ;;		_USBCtrlTrfSetupHandler
  4250 ;;		_memcpy
  4251 ;; This function is called by:
  4252 ;;		_USBDeviceTasks
  4253 ;; This function uses a non-reentrant model
  4254 ;;
  4255                           
  4256                           	psect	text26
  4257  0024C0                     __ptext26:
  4258                           	callstack 0
  4259  0024C0                     _USBCtrlEPService:
  4260                           	callstack 18
  4261  0024C0                     
  4262                           ;mcc_generated_files/usb/usb_device.c: 2382:         USBStatusStageTimeoutCounter = (uin
      +                          t8_t)45;
  4263  0024C0  0E2D               	movlw	45
  4264  0024C2  6E48               	movwf	_USBStatusStageTimeoutCounter^0,c	;volatile
  4265  0024C4                     
  4266                           ;mcc_generated_files/usb/usb_device.c: 2386:     if((USTATcopy.Val & ~0x02) == 0x00)
  4267  0024C4  C051  F01E         	movff	_USTATcopy,??_USBCtrlEPService	;volatile
  4268  0024C8  0EFD               	movlw	253
  4269  0024CA  161E               	andwf	??_USBCtrlEPService^0,f,c
  4270  0024CC  A4D8               	btfss	status,2,c
  4271  0024CE  EF6B  F012         	goto	i2u285_41
  4272  0024D2  EF6D  F012         	goto	i2u285_40
  4273  0024D6                     i2u285_41:
  4274  0024D6  EFAF  F012         	goto	i2l4409
  4275  0024DA                     i2u285_40:
  4276  0024DA                     
  4277                           ;mcc_generated_files/usb/usb_device.c: 2387:     {;mcc_generated_files/usb/usb_device.c:
      +                           2390:             pBDTEntryEP0OutCurrent = (volatile BDT_ENTRY*)&BDT[(USTATcopy.Val & 0
      +                          x7E)>>1];
  4278  0024DA  C051  F01E         	movff	_USTATcopy,??_USBCtrlEPService	;volatile
  4279  0024DE  90D8               	bcf	status,0,c
  4280  0024E0  321E               	rrcf	??_USBCtrlEPService^0,f,c
  4281  0024E2  0E3F               	movlw	63
  4282  0024E4  161E               	andwf	??_USBCtrlEPService^0,f,c
  4283  0024E6  501E               	movf	??_USBCtrlEPService^0,w,c
  4284  0024E8  0D04               	mullw	4
  4285  0024EA  0E00               	movlw	0
  4286  0024EC  24F3               	addwf	243,w,c
  4287  0024EE  6E3E               	movwf	_pBDTEntryEP0OutCurrent^0,c
  4288  0024F0  0E04               	movlw	4
  4289  0024F2  20F4               	addwfc	prodh,w,c
  4290  0024F4  6E3F               	movwf	(_pBDTEntryEP0OutCurrent+1)^0,c
  4291  0024F6                     
  4292                           ;mcc_generated_files/usb/usb_device.c: 2398:         pBDTEntryEP0OutNext = pBDTEntryEP0O
      +                          utCurrent;
  4293  0024F6  C03E  F03C         	movff	_pBDTEntryEP0OutCurrent,_pBDTEntryEP0OutNext
  4294  0024FA  C03F  F03D         	movff	_pBDTEntryEP0OutCurrent+1,_pBDTEntryEP0OutNext+1
  4295  0024FE                     
  4296                           ;mcc_generated_files/usb/usb_device.c: 2400:         pBDTEntryEP0OutNext = (volatile BDT
      +                          _ENTRY*)(((uint16_t)pBDTEntryEP0OutNext) ^ 0x0004);
  4297  0024FE  0E04               	movlw	4
  4298  002500  183C               	xorwf	_pBDTEntryEP0OutNext^0,w,c
  4299  002502  6E3C               	movwf	_pBDTEntryEP0OutNext^0,c
  4300  002504  503D               	movf	(_pBDTEntryEP0OutNext+1)^0,w,c
  4301  002506  6E3D               	movwf	(_pBDTEntryEP0OutNext+1)^0,c
  4302  002508                     
  4303                           ;mcc_generated_files/usb/usb_device.c: 2403:         if(pBDTEntryEP0OutCurrent->STAT.PID
      +                           == 0xD)
  4304  002508  C03E  FFD9         	movff	_pBDTEntryEP0OutCurrent,fsr2l
  4305  00250C  C03F  FFDA         	movff	_pBDTEntryEP0OutCurrent+1,fsr2h
  4306  002510  30DF               	rrcf	223,w,c
  4307  002512  32E8               	rrcf	wreg,f,c
  4308  002514  0B0F               	andlw	15
  4309  002516  0A0D               	xorlw	13
  4310  002518  A4D8               	btfss	status,2,c
  4311  00251A  EF91  F012         	goto	i2u286_41
  4312  00251E  EF93  F012         	goto	i2u286_40
  4313  002522                     i2u286_41:
  4314  002522  EFAB  F012         	goto	i2l4407
  4315  002526                     i2u286_40:
  4316  002526                     
  4317                           ;mcc_generated_files/usb/usb_device.c: 2404:         {;mcc_generated_files/usb/usb_devic
      +                          e.c: 2409:             memcpy((uint8_t*)&SetupPkt, (uint8_t*)((void *)(pBDTEntryEP0OutCu
      +                          rrent->ADR)), 8);
  4318  002526  0E30               	movlw	48
  4319  002528  6E01               	movwf	memcpy@d1^0,c
  4320  00252A  0E04               	movlw	4
  4321  00252C  6E02               	movwf	(memcpy@d1+1)^0,c
  4322  00252E  EE20 F002          	lfsr	2,2
  4323  002532  503E               	movf	_pBDTEntryEP0OutCurrent^0,w,c
  4324  002534  26D9               	addwf	fsr2l,f,c
  4325  002536  503F               	movf	(_pBDTEntryEP0OutCurrent+1)^0,w,c
  4326  002538  22DA               	addwfc	fsr2h,f,c
  4327  00253A  CFDE F003          	movff	postinc2,memcpy@s1
  4328  00253E  CFDD F004          	movff	postdec2,memcpy@s1+1
  4329  002542  0E00               	movlw	0
  4330  002544  6E06               	movwf	(memcpy@n+1)^0,c
  4331  002546  0E08               	movlw	8
  4332  002548  6E05               	movwf	memcpy@n^0,c
  4333  00254A  EC94  F014         	call	_memcpy	;wreg free
  4334  00254E                     
  4335                           ;mcc_generated_files/usb/usb_device.c: 2412:             USBCtrlTrfSetupHandler();
  4336  00254E  EC6C  F013         	call	_USBCtrlTrfSetupHandler	;wreg free
  4337                           
  4338                           ;mcc_generated_files/usb/usb_device.c: 2413:         }
  4339  002552  EFBB  F012         	goto	i2l316
  4340  002556                     i2l4407:
  4341                           
  4342                           ;mcc_generated_files/usb/usb_device.c: 2415:         {;mcc_generated_files/usb/usb_devic
      +                          e.c: 2417:             USBCtrlTrfOutHandler();
  4343  002556  ECF8  F013         	call	_USBCtrlTrfOutHandler	;wreg free
  4344  00255A  EFBB  F012         	goto	i2l316
  4345  00255E                     i2l4409:
  4346  00255E  5051               	movf	_USTATcopy^0,w,c	;volatile
  4347  002560  0BFD               	andlw	253
  4348  002562  0A04               	xorlw	4
  4349  002564  A4D8               	btfss	status,2,c
  4350  002566  EFB7  F012         	goto	i2u287_41
  4351  00256A  EFB9  F012         	goto	i2u287_40
  4352  00256E                     i2u287_41:
  4353  00256E  EFBB  F012         	goto	i2l316
  4354  002572                     i2u287_40:
  4355  002572                     
  4356                           ;mcc_generated_files/usb/usb_device.c: 2421:     {;mcc_generated_files/usb/usb_device.c:
      +                           2424:         USBCtrlTrfInHandler();
  4357  002572  EC0D  F010         	call	_USBCtrlTrfInHandler	;wreg free
  4358  002576                     i2l316:
  4359  002576  0012               	return		;funcret
  4360  002578                     __end_of_USBCtrlEPService:
  4361                           	callstack 0
  4362                           
  4363 ;; *************** function _memcpy *****************
  4364 ;; Defined at:
  4365 ;;		line 4 in file "/Applications/microchip/xc8/v2.36/pic/sources/c99/common/memcpy.c"
  4366 ;; Parameters:    Size  Location     Type
  4367 ;;  d1              2    0[COMRAM] PTR void 
  4368 ;;		 -> SetupPkt(8), 
  4369 ;;  s1              2    2[COMRAM] PTR const void 
  4370 ;;		 -> CtrlTrfData(8), RAM(2047), SetupPkt(8), 
  4371 ;;  n               2    4[COMRAM] unsigned int 
  4372 ;; Auto vars:     Size  Location     Type
  4373 ;;  s               2    8[COMRAM] PTR const unsigned char 
  4374 ;;		 -> CtrlTrfData(8), RAM(2047), SetupPkt(8), 
  4375 ;;  d               2    6[COMRAM] PTR unsigned char 
  4376 ;;		 -> SetupPkt(8), 
  4377 ;;  tmp             1   10[COMRAM] unsigned char 
  4378 ;; Return value:  Size  Location     Type
  4379 ;;                  2    0[COMRAM] PTR void 
  4380 ;; Registers used:
  4381 ;;		wreg, fsr2l, fsr2h, status,2, status,0
  4382 ;; Tracked objects:
  4383 ;;		On entry : 0/0
  4384 ;;		On exit  : 0/0
  4385 ;;		Unchanged: 0/0
  4386 ;; Data sizes:     COMRAM   BANK0   BANK1   BANK2   BANK3   BANK4   BANK5   BANK6   BANK7
  4387 ;;      Params:         6       0       0       0       0       0       0       0       0
  4388 ;;      Locals:         5       0       0       0       0       0       0       0       0
  4389 ;;      Temps:          0       0       0       0       0       0       0       0       0
  4390 ;;      Totals:        11       0       0       0       0       0       0       0       0
  4391 ;;Total ram usage:       11 bytes
  4392 ;; Hardware stack levels used: 1
  4393 ;; This function calls:
  4394 ;;		Nothing
  4395 ;; This function is called by:
  4396 ;;		_USBCtrlEPService
  4397 ;; This function uses a non-reentrant model
  4398 ;;
  4399                           
  4400                           	psect	text27
  4401  002928                     __ptext27:
  4402                           	callstack 0
  4403  002928                     _memcpy:
  4404                           	callstack 24
  4405  002928  C003  F009         	movff	memcpy@s1,memcpy@s
  4406  00292C  C004  F00A         	movff	memcpy@s1+1,memcpy@s+1
  4407  002930  C001  F007         	movff	memcpy@d1,memcpy@d
  4408  002934  C002  F008         	movff	memcpy@d1+1,memcpy@d+1
  4409  002938  EFAE  F014         	goto	i2l4185
  4410  00293C                     i2l4177:
  4411  00293C  C009  FFD9         	movff	memcpy@s,fsr2l
  4412  002940  C00A  FFDA         	movff	memcpy@s+1,fsr2h
  4413  002944  50DF               	movf	indf2,w,c
  4414  002946  6E0B               	movwf	memcpy@tmp^0,c
  4415  002948  4A09               	infsnz	memcpy@s^0,f,c
  4416  00294A  2A0A               	incf	(memcpy@s+1)^0,f,c
  4417  00294C  C007  FFD9         	movff	memcpy@d,fsr2l
  4418  002950  C008  FFDA         	movff	memcpy@d+1,fsr2h
  4419  002954  C00B  FFDF         	movff	memcpy@tmp,indf2
  4420  002958  4A07               	infsnz	memcpy@d^0,f,c
  4421  00295A  2A08               	incf	(memcpy@d+1)^0,f,c
  4422  00295C                     i2l4185:
  4423  00295C  0605               	decf	memcpy@n^0,f,c
  4424  00295E  A0D8               	btfss	status,0,c
  4425  002960  0606               	decf	(memcpy@n+1)^0,f,c
  4426  002962  2805               	incf	memcpy@n^0,w,c
  4427  002964  E106               	bnz	i2u267_41
  4428  002966  2806               	incf	(memcpy@n+1)^0,w,c
  4429  002968  A4D8               	btfss	status,2,c
  4430  00296A  EFB9  F014         	goto	i2u267_41
  4431  00296E  EFBB  F014         	goto	i2u267_40
  4432  002972                     i2u267_41:
  4433  002972  EF9E  F014         	goto	i2l4177
  4434  002976                     i2u267_40:
  4435  002976  0012               	return		;funcret
  4436  002978                     __end_of_memcpy:
  4437                           	callstack 0
  4438                           
  4439 ;; *************** function _USBCtrlTrfSetupHandler *****************
  4440 ;; Defined at:
  4441 ;;		line 2469 in file "mcc_generated_files/usb/usb_device.c"
  4442 ;; Parameters:    Size  Location     Type
  4443 ;;		None
  4444 ;; Auto vars:     Size  Location     Type
  4445 ;;		None
  4446 ;; Return value:  Size  Location     Type
  4447 ;;                  1    wreg      void 
  4448 ;; Registers used:
  4449 ;;		wreg, fsr0l, fsr0h, fsr2l, fsr2h, status,2, status,0, tblptrl, tblptrh, tblptru, prodl, prodh, cstack
  4450 ;; Tracked objects:
  4451 ;;		On entry : 0/0
  4452 ;;		On exit  : 0/0
  4453 ;;		Unchanged: 0/0
  4454 ;; Data sizes:     COMRAM   BANK0   BANK1   BANK2   BANK3   BANK4   BANK5   BANK6   BANK7
  4455 ;;      Params:         0       0       0       0       0       0       0       0       0
  4456 ;;      Locals:         0       0       0       0       0       0       0       0       0
  4457 ;;      Temps:          0       0       0       0       0       0       0       0       0
  4458 ;;      Totals:         0       0       0       0       0       0       0       0       0
  4459 ;;Total ram usage:        0 bytes
  4460 ;; Hardware stack levels used: 1
  4461 ;; Hardware stack levels required when called: 6
  4462 ;; This function calls:
  4463 ;;		_USBCheckStdRequest
  4464 ;;		_USBCtrlEPServiceComplete
  4465 ;;		_USER_USB_CALLBACK_EVENT_HANDLER
  4466 ;; This function is called by:
  4467 ;;		_USBCtrlEPService
  4468 ;; This function uses a non-reentrant model
  4469 ;;
  4470                           
  4471                           	psect	text28
  4472  0026D8                     __ptext28:
  4473                           	callstack 0
  4474  0026D8                     _USBCtrlTrfSetupHandler:
  4475                           	callstack 18
  4476  0026D8                     
  4477                           ;mcc_generated_files/usb/usb_device.c: 2474:     shortPacketStatus = 0;
  4478  0026D8  0E00               	movlw	0
  4479  0026DA  6E4D               	movwf	_shortPacketStatus^0,c	;volatile
  4480                           
  4481                           ;mcc_generated_files/usb/usb_device.c: 2475:     USBDeferStatusStagePacket = 0;
  4482  0026DC  0E00               	movlw	0
  4483  0026DE  6E47               	movwf	_USBDeferStatusStagePacket^0,c	;volatile
  4484                           
  4485                           ;mcc_generated_files/usb/usb_device.c: 2476:     USBDeferINDataStagePackets = 0;
  4486  0026E0  0E00               	movlw	0
  4487  0026E2  6E44               	movwf	_USBDeferINDataStagePackets^0,c	;volatile
  4488                           
  4489                           ;mcc_generated_files/usb/usb_device.c: 2477:     USBDeferOUTDataStagePackets = 0;
  4490  0026E4  0E00               	movlw	0
  4491  0026E6  6E43               	movwf	_USBDeferOUTDataStagePackets^0,c	;volatile
  4492                           
  4493                           ;mcc_generated_files/usb/usb_device.c: 2478:     BothEP0OutUOWNsSet = 0;
  4494  0026E8  0E00               	movlw	0
  4495  0026EA  6E49               	movwf	_BothEP0OutUOWNsSet^0,c	;volatile
  4496                           
  4497                           ;mcc_generated_files/usb/usb_device.c: 2479:     controlTransferState = 0;
  4498  0026EC  0E00               	movlw	0
  4499  0026EE  6E4C               	movwf	_controlTransferState^0,c	;volatile
  4500  0026F0                     
  4501                           ;mcc_generated_files/usb/usb_device.c: 2488:     pBDTEntryIn[0]->STAT.Val &= ~(0x80);
  4502  0026F0  C078  FFD9         	movff	_pBDTEntryIn,fsr2l
  4503  0026F4  C079  FFDA         	movff	_pBDTEntryIn+1,fsr2h
  4504  0026F8  0E7F               	movlw	127
  4505  0026FA  16DF               	andwf	indf2,f,c
  4506  0026FC                     
  4507                           ;mcc_generated_files/usb/usb_device.c: 2490:     pBDTEntryIn[0] = (volatile BDT_ENTRY*)(
      +                          ((uint16_t)pBDTEntryIn[0]) ^ 0x0004);
  4508  0026FC  0E04               	movlw	4
  4509  0026FE  0100               	movlb	0	; () banked
  4510  002700  1978               	xorwf	_pBDTEntryIn& (0+255),w,b
  4511  002702  6F78               	movwf	_pBDTEntryIn& (0+255),b
  4512  002704  5179               	movf	(_pBDTEntryIn+1)& (0+255),w,b
  4513  002706  6F79               	movwf	(_pBDTEntryIn+1)& (0+255),b
  4514  002708                     
  4515                           ; BSR set to: 0
  4516                           ;mcc_generated_files/usb/usb_device.c: 2491:     pBDTEntryIn[0]->STAT.Val &= ~(0x80);
  4517  002708  C078  FFD9         	movff	_pBDTEntryIn,fsr2l
  4518  00270C  C079  FFDA         	movff	_pBDTEntryIn+1,fsr2h
  4519  002710  0E7F               	movlw	127
  4520  002712  16DF               	andwf	indf2,f,c
  4521  002714                     
  4522                           ; BSR set to: 0
  4523                           ;mcc_generated_files/usb/usb_device.c: 2492:     pBDTEntryIn[0] = (volatile BDT_ENTRY*)(
      +                          ((uint16_t)pBDTEntryIn[0]) ^ 0x0004);
  4524  002714  0E04               	movlw	4
  4525  002716  1978               	xorwf	_pBDTEntryIn& (0+255),w,b
  4526  002718  6F78               	movwf	_pBDTEntryIn& (0+255),b
  4527  00271A  5179               	movf	(_pBDTEntryIn+1)& (0+255),w,b
  4528  00271C  6F79               	movwf	(_pBDTEntryIn+1)& (0+255),b
  4529  00271E                     
  4530                           ; BSR set to: 0
  4531                           ;mcc_generated_files/usb/usb_device.c: 2493:     pBDTEntryEP0OutNext->STAT.Val &= ~(0x80
      +                          );
  4532  00271E  C03C  FFD9         	movff	_pBDTEntryEP0OutNext,fsr2l
  4533  002722  C03D  FFDA         	movff	_pBDTEntryEP0OutNext+1,fsr2h
  4534  002726  0E7F               	movlw	127
  4535  002728  16DF               	andwf	indf2,f,c
  4536  00272A                     
  4537                           ; BSR set to: 0
  4538                           ;mcc_generated_files/usb/usb_device.c: 2495:     inPipes[0].info.Val = 0;
  4539  00272A  0E00               	movlw	0
  4540  00272C  6F75               	movwf	(_inPipes+3)& (0+255),b	;volatile
  4541  00272E                     
  4542                           ; BSR set to: 0
  4543                           ;mcc_generated_files/usb/usb_device.c: 2496:     inPipes[0].wCount.Val = 0;
  4544  00272E  0E00               	movlw	0
  4545  002730  6F77               	movwf	(_inPipes+5)& (0+255),b	;volatile
  4546  002732  0E00               	movlw	0
  4547  002734  6F76               	movwf	(_inPipes+4)& (0+255),b	;volatile
  4548  002736                     
  4549                           ; BSR set to: 0
  4550                           ;mcc_generated_files/usb/usb_device.c: 2497:     outPipes[0].info.Val = 0;
  4551  002736  0E00               	movlw	0
  4552  002738  6F6D               	movwf	(_outPipes+3)& (0+255),b	;volatile
  4553  00273A                     
  4554                           ; BSR set to: 0
  4555                           ;mcc_generated_files/usb/usb_device.c: 2498:     outPipes[0].wCount.Val = 0;
  4556  00273A  0E00               	movlw	0
  4557  00273C  6F6F               	movwf	(_outPipes+5)& (0+255),b	;volatile
  4558  00273E  0E00               	movlw	0
  4559  002740  6F6E               	movwf	(_outPipes+4)& (0+255),b	;volatile
  4560  002742                     
  4561                           ; BSR set to: 0
  4562                           ;mcc_generated_files/usb/usb_device.c: 2504:     USBCheckStdRequest();
  4563  002742  ECE5  F00D         	call	_USBCheckStdRequest	;wreg free
  4564  002746                     
  4565                           ;mcc_generated_files/usb/usb_device.c: 2505:     USER_USB_CALLBACK_EVENT_HANDLER((USB_EV
      +                          ENT)EVENT_EP0_REQUEST,0,0);
  4566  002746  0E00               	movlw	0
  4567  002748  6E0E               	movwf	(USER_USB_CALLBACK_EVENT_HANDLER@event+1)^0,c
  4568  00274A  0E03               	movlw	3
  4569  00274C  6E0D               	movwf	USER_USB_CALLBACK_EVENT_HANDLER@event^0,c
  4570  00274E  0E00               	movlw	0
  4571  002750  6E0F               	movwf	USER_USB_CALLBACK_EVENT_HANDLER@pdata^0,c
  4572  002752  0E00               	movlw	0
  4573  002754  6E10               	movwf	(USER_USB_CALLBACK_EVENT_HANDLER@pdata+1)^0,c
  4574  002756  0E00               	movlw	0
  4575  002758  6E12               	movwf	(USER_USB_CALLBACK_EVENT_HANDLER@size+1)^0,c
  4576  00275A  0E00               	movlw	0
  4577  00275C  6E11               	movwf	USER_USB_CALLBACK_EVENT_HANDLER@size^0,c
  4578  00275E  ECB4  F013         	call	_USER_USB_CALLBACK_EVENT_HANDLER	;wreg free
  4579  002762                     
  4580                           ;mcc_generated_files/usb/usb_device.c: 2518:     USBCtrlEPServiceComplete();
  4581  002762  ECA5  F00C         	call	_USBCtrlEPServiceComplete	;wreg free
  4582  002766  0012               	return		;funcret
  4583  002768                     __end_of_USBCtrlTrfSetupHandler:
  4584                           	callstack 0
  4585                           
  4586 ;; *************** function _USBCtrlEPServiceComplete *****************
  4587 ;; Defined at:
  4588 ;;		line 1620 in file "mcc_generated_files/usb/usb_device.c"
  4589 ;; Parameters:    Size  Location     Type
  4590 ;;		None
  4591 ;; Auto vars:     Size  Location     Type
  4592 ;;		None
  4593 ;; Return value:  Size  Location     Type
  4594 ;;                  1    wreg      void 
  4595 ;; Registers used:
  4596 ;;		wreg, fsr0l, fsr0h, fsr2l, fsr2h, status,2, status,0, tblptrl, tblptrh, tblptru, cstack
  4597 ;; Tracked objects:
  4598 ;;		On entry : 0/0
  4599 ;;		On exit  : 0/0
  4600 ;;		Unchanged: 0/0
  4601 ;; Data sizes:     COMRAM   BANK0   BANK1   BANK2   BANK3   BANK4   BANK5   BANK6   BANK7
  4602 ;;      Params:         0       0       0       0       0       0       0       0       0
  4603 ;;      Locals:         0       0       0       0       0       0       0       0       0
  4604 ;;      Temps:          0       0       0       0       0       0       0       0       0
  4605 ;;      Totals:         0       0       0       0       0       0       0       0       0
  4606 ;;Total ram usage:        0 bytes
  4607 ;; Hardware stack levels used: 1
  4608 ;; Hardware stack levels required when called: 2
  4609 ;; This function calls:
  4610 ;;		_USBCtrlEPAllowDataStage
  4611 ;;		_USBCtrlEPAllowStatusStage
  4612 ;; This function is called by:
  4613 ;;		_USBCtrlTrfSetupHandler
  4614 ;; This function uses a non-reentrant model
  4615 ;;
  4616                           
  4617                           	psect	text29
  4618  00194A                     __ptext29:
  4619                           	callstack 0
  4620  00194A                     _USBCtrlEPServiceComplete:
  4621                           	callstack 21
  4622  00194A                     
  4623                           ;mcc_generated_files/usb/usb_device.c: 1626:     UCONbits.PKTDIS = 0;
  4624  00194A  9860               	bcf	96,4,c	;volatile
  4625                           
  4626                           ;mcc_generated_files/usb/usb_device.c: 1632:     if(inPipes[0].info.bits.busy == 0)
  4627  00194C  0100               	movlb	0	; () banked
  4628  00194E  BF75               	btfsc	(_inPipes+3)& (0+255),7,b	;volatile
  4629  001950  EFAC  F00C         	goto	i2u246_41
  4630  001954  EFAE  F00C         	goto	i2u246_40
  4631  001958                     i2u246_41:
  4632  001958  EFF3  F00C         	goto	i2l221
  4633  00195C                     i2u246_40:
  4634  00195C                     
  4635                           ; BSR set to: 0
  4636                           ;mcc_generated_files/usb/usb_device.c: 1633:     {;mcc_generated_files/usb/usb_device.c:
      +                           1634:         if(outPipes[0].info.bits.busy == 1)
  4637  00195C  AF6D               	btfss	(_outPipes+3)& (0+255),7,b	;volatile
  4638  00195E  EFB3  F00C         	goto	i2u247_41
  4639  001962  EFB5  F00C         	goto	i2u247_40
  4640  001966                     i2u247_41:
  4641  001966  EFC7  F00C         	goto	i2l3987
  4642  00196A                     i2u247_40:
  4643  00196A                     
  4644                           ; BSR set to: 0
  4645                           ;mcc_generated_files/usb/usb_device.c: 1635:         {;mcc_generated_files/usb/usb_devic
      +                          e.c: 1636:             controlTransferState = 2;
  4646  00196A  0E02               	movlw	2
  4647  00196C  6E4C               	movwf	_controlTransferState^0,c	;volatile
  4648                           
  4649                           ;mcc_generated_files/usb/usb_device.c: 1647:             if(USBDeferOUTDataStagePackets 
      +                          == 0)
  4650  00196E  5043               	movf	_USBDeferOUTDataStagePackets^0,w,c	;volatile
  4651  001970  A4D8               	btfss	status,2,c
  4652  001972  EFBD  F00C         	goto	i2u248_41
  4653  001976  EFBF  F00C         	goto	i2u248_40
  4654  00197A                     i2u248_41:
  4655  00197A  EFC1  F00C         	goto	i2l3983
  4656  00197E                     i2u248_40:
  4657  00197E                     
  4658                           ; BSR set to: 0
  4659                           ;mcc_generated_files/usb/usb_device.c: 1648:             {;mcc_generated_files/usb/usb_d
      +                          evice.c: 1649:                 USBCtrlEPAllowDataStage();
  4660  00197E  ECBC  F012         	call	_USBCtrlEPAllowDataStage	;wreg free
  4661  001982                     i2l3983:
  4662                           
  4663                           ;mcc_generated_files/usb/usb_device.c: 1654:             USBStatusStageEnabledFlag2 = 0;
  4664  001982  0E00               	movlw	0
  4665  001984  6E45               	movwf	_USBStatusStageEnabledFlag2^0,c	;volatile
  4666  001986                     
  4667                           ;mcc_generated_files/usb/usb_device.c: 1655:             USBStatusStageEnabledFlag1 = 0;
  4668  001986  0E00               	movlw	0
  4669  001988  6E46               	movwf	_USBStatusStageEnabledFlag1^0,c	;volatile
  4670                           
  4671                           ;mcc_generated_files/usb/usb_device.c: 1656:         }
  4672  00198A  EF45  F00D         	goto	i2l231
  4673  00198E                     i2l3987:
  4674                           
  4675                           ; BSR set to: 0
  4676                           ;mcc_generated_files/usb/usb_device.c: 1658:         {;mcc_generated_files/usb/usb_devic
      +                          e.c: 1663:             pBDTEntryEP0OutNext->CNT = 8;
  4677  00198E  EE20 F001          	lfsr	2,1
  4678  001992  503C               	movf	_pBDTEntryEP0OutNext^0,w,c
  4679  001994  26D9               	addwf	fsr2l,f,c
  4680  001996  503D               	movf	(_pBDTEntryEP0OutNext+1)^0,w,c
  4681  001998  22DA               	addwfc	fsr2h,f,c
  4682  00199A  0E08               	movlw	8
  4683  00199C  6EDF               	movwf	indf2,c
  4684                           
  4685                           ;mcc_generated_files/usb/usb_device.c: 1664:             pBDTEntryEP0OutNext->ADR = ((ui
      +                          nt16_t)(&SetupPkt));
  4686  00199E  EE20 F002          	lfsr	2,2
  4687  0019A2  503C               	movf	_pBDTEntryEP0OutNext^0,w,c
  4688  0019A4  26D9               	addwf	fsr2l,f,c
  4689  0019A6  503D               	movf	(_pBDTEntryEP0OutNext+1)^0,w,c
  4690  0019A8  22DA               	addwfc	fsr2h,f,c
  4691  0019AA  0E30               	movlw	48
  4692  0019AC  6EDE               	movwf	postinc2,c
  4693  0019AE  0E04               	movlw	4
  4694  0019B0  6EDD               	movwf	postdec2,c
  4695  0019B2                     
  4696                           ; BSR set to: 0
  4697                           ;mcc_generated_files/usb/usb_device.c: 1665:             pBDTEntryEP0OutNext->STAT.Val =
      +                           0x00|(0x08 & 0x08)|0x04;
  4698  0019B2  C03C  FFD9         	movff	_pBDTEntryEP0OutNext,fsr2l
  4699  0019B6  C03D  FFDA         	movff	_pBDTEntryEP0OutNext+1,fsr2h
  4700  0019BA  0E0C               	movlw	12
  4701  0019BC  6EDF               	movwf	indf2,c
  4702  0019BE                     
  4703                           ; BSR set to: 0
  4704                           ;mcc_generated_files/usb/usb_device.c: 1666:             pBDTEntryEP0OutNext->STAT.Val |
      +                          = 0x80;
  4705  0019BE  C03C  FFD9         	movff	_pBDTEntryEP0OutNext,fsr2l
  4706  0019C2  C03D  FFDA         	movff	_pBDTEntryEP0OutNext+1,fsr2h
  4707  0019C6  0E00               	movlw	0
  4708  0019C8  8EDB               	bsf	plusw2,7,c
  4709                           
  4710                           ;mcc_generated_files/usb/usb_device.c: 1667:             pBDTEntryIn[0]->STAT.Val = 0x04
      +                          ;
  4711  0019CA  C078  FFD9         	movff	_pBDTEntryIn,fsr2l
  4712  0019CE  C079  FFDA         	movff	_pBDTEntryIn+1,fsr2h
  4713  0019D2  0E04               	movlw	4
  4714  0019D4  6EDF               	movwf	indf2,c
  4715  0019D6                     
  4716                           ; BSR set to: 0
  4717                           ;mcc_generated_files/usb/usb_device.c: 1668:             pBDTEntryIn[0]->STAT.Val |= 0x8
      +                          0;
  4718  0019D6  C078  FFD9         	movff	_pBDTEntryIn,fsr2l
  4719  0019DA  C079  FFDA         	movff	_pBDTEntryIn+1,fsr2h
  4720  0019DE  0E00               	movlw	0
  4721  0019E0  8EDB               	bsf	plusw2,7,c
  4722  0019E2  EF45  F00D         	goto	i2l231
  4723  0019E6                     i2l221:
  4724                           
  4725                           ; BSR set to: 0
  4726                           ;mcc_generated_files/usb/usb_device.c: 1672:     {;mcc_generated_files/usb/usb_device.c:
      +                           1673:   if(SetupPkt.DataDir == (0x80>>7))
  4727  0019E6  0104               	movlb	4	; () banked
  4728  0019E8  AF30               	btfss	48,7,b	;volatile
  4729  0019EA  EFF9  F00C         	goto	i2u249_41
  4730  0019EE  EFFB  F00C         	goto	i2u249_40
  4731  0019F2                     i2u249_41:
  4732  0019F2  EF17  F00D         	goto	i2l4007
  4733  0019F6                     i2u249_40:
  4734  0019F6                     
  4735                           ; BSR set to: 4
  4736                           ;mcc_generated_files/usb/usb_device.c: 1674:   {;mcc_generated_files/usb/usb_device.c: 1
      +                          675:    controlTransferState = 1;
  4737  0019F6  0E01               	movlw	1
  4738  0019F8  6E4C               	movwf	_controlTransferState^0,c	;volatile
  4739                           
  4740                           ;mcc_generated_files/usb/usb_device.c: 1689:    if(USBDeferINDataStagePackets == 0)
  4741  0019FA  5044               	movf	_USBDeferINDataStagePackets^0,w,c	;volatile
  4742  0019FC  A4D8               	btfss	status,2,c
  4743  0019FE  EF03  F00D         	goto	i2u250_41
  4744  001A02  EF05  F00D         	goto	i2u250_40
  4745  001A06                     i2u250_41:
  4746  001A06  EF07  F00D         	goto	i2l3999
  4747  001A0A                     i2u250_40:
  4748  001A0A                     
  4749                           ; BSR set to: 4
  4750                           ;mcc_generated_files/usb/usb_device.c: 1690:             {;mcc_generated_files/usb/usb_d
      +                          evice.c: 1691:                 USBCtrlEPAllowDataStage();
  4751  001A0A  ECBC  F012         	call	_USBCtrlEPAllowDataStage	;wreg free
  4752  001A0E                     i2l3999:
  4753                           
  4754                           ;mcc_generated_files/usb/usb_device.c: 1714:             USBStatusStageEnabledFlag2 = 0;
  4755  001A0E  0E00               	movlw	0
  4756  001A10  6E45               	movwf	_USBStatusStageEnabledFlag2^0,c	;volatile
  4757  001A12                     
  4758                           ;mcc_generated_files/usb/usb_device.c: 1715:             USBStatusStageEnabledFlag1 = 0;
  4759  001A12  0E00               	movlw	0
  4760  001A14  6E46               	movwf	_USBStatusStageEnabledFlag1^0,c	;volatile
  4761  001A16                     
  4762                           ;mcc_generated_files/usb/usb_device.c: 1716:             if(USBDeferStatusStagePacket ==
      +                           0)
  4763  001A16  5047               	movf	_USBDeferStatusStagePacket^0,w,c	;volatile
  4764  001A18  A4D8               	btfss	status,2,c
  4765  001A1A  EF11  F00D         	goto	i2u251_41
  4766  001A1E  EF13  F00D         	goto	i2u251_40
  4767  001A22                     i2u251_41:
  4768  001A22  EF45  F00D         	goto	i2l231
  4769  001A26                     i2u251_40:
  4770  001A26                     i2l4005:
  4771                           
  4772                           ;mcc_generated_files/usb/usb_device.c: 1717:             {;mcc_generated_files/usb/usb_d
      +                          evice.c: 1718:                 USBCtrlEPAllowStatusStage();
  4773  001A26  EC16  F011         	call	_USBCtrlEPAllowStatusStage	;wreg free
  4774  001A2A  EF45  F00D         	goto	i2l231
  4775  001A2E                     i2l4007:
  4776                           
  4777                           ; BSR set to: 4
  4778                           ;mcc_generated_files/usb/usb_device.c: 1722:   {;mcc_generated_files/usb/usb_device.c: 1
      +                          733:    controlTransferState = 2;
  4779  001A2E  0E02               	movlw	2
  4780  001A30  6E4C               	movwf	_controlTransferState^0,c	;volatile
  4781  001A32                     
  4782                           ; BSR set to: 4
  4783                           ;mcc_generated_files/usb/usb_device.c: 1736:    pBDTEntryEP0OutNext->CNT = 8;
  4784  001A32  EE20 F001          	lfsr	2,1
  4785  001A36  503C               	movf	_pBDTEntryEP0OutNext^0,w,c
  4786  001A38  26D9               	addwf	fsr2l,f,c
  4787  001A3A  503D               	movf	(_pBDTEntryEP0OutNext+1)^0,w,c
  4788  001A3C  22DA               	addwfc	fsr2h,f,c
  4789  001A3E  0E08               	movlw	8
  4790  001A40  6EDF               	movwf	indf2,c
  4791  001A42                     
  4792                           ; BSR set to: 4
  4793                           ;mcc_generated_files/usb/usb_device.c: 1737:    pBDTEntryEP0OutNext->ADR = ((uint16_t)(&
      +                          SetupPkt));
  4794  001A42  EE20 F002          	lfsr	2,2
  4795  001A46  503C               	movf	_pBDTEntryEP0OutNext^0,w,c
  4796  001A48  26D9               	addwf	fsr2l,f,c
  4797  001A4A  503D               	movf	(_pBDTEntryEP0OutNext+1)^0,w,c
  4798  001A4C  22DA               	addwfc	fsr2h,f,c
  4799  001A4E  0E30               	movlw	48
  4800  001A50  6EDE               	movwf	postinc2,c
  4801  001A52  0E04               	movlw	4
  4802  001A54  6EDD               	movwf	postdec2,c
  4803  001A56                     
  4804                           ; BSR set to: 4
  4805                           ;mcc_generated_files/usb/usb_device.c: 1738:    pBDTEntryEP0OutNext->STAT.Val = 0x04;
  4806  001A56  C03C  FFD9         	movff	_pBDTEntryEP0OutNext,fsr2l
  4807  001A5A  C03D  FFDA         	movff	_pBDTEntryEP0OutNext+1,fsr2h
  4808  001A5E  0E04               	movlw	4
  4809  001A60  6EDF               	movwf	indf2,c
  4810  001A62                     
  4811                           ; BSR set to: 4
  4812                           ;mcc_generated_files/usb/usb_device.c: 1739:             pBDTEntryEP0OutNext->STAT.Val |
      +                          = 0x80;
  4813  001A62  C03C  FFD9         	movff	_pBDTEntryEP0OutNext,fsr2l
  4814  001A66  C03D  FFDA         	movff	_pBDTEntryEP0OutNext+1,fsr2h
  4815  001A6A  0E00               	movlw	0
  4816  001A6C  8EDB               	bsf	plusw2,7,c
  4817  001A6E                     
  4818                           ; BSR set to: 4
  4819                           ;mcc_generated_files/usb/usb_device.c: 1742:             USBStatusStageEnabledFlag2 = 0;
  4820  001A6E  0E00               	movlw	0
  4821  001A70  6E45               	movwf	_USBStatusStageEnabledFlag2^0,c	;volatile
  4822  001A72                     
  4823                           ; BSR set to: 4
  4824                           ;mcc_generated_files/usb/usb_device.c: 1743:             USBStatusStageEnabledFlag1 = 0;
  4825  001A72  0E00               	movlw	0
  4826  001A74  6E46               	movwf	_USBStatusStageEnabledFlag1^0,c	;volatile
  4827  001A76                     
  4828                           ; BSR set to: 4
  4829                           ;mcc_generated_files/usb/usb_device.c: 1744:    if(USBDeferStatusStagePacket == 0)
  4830  001A76  5047               	movf	_USBDeferStatusStagePacket^0,w,c	;volatile
  4831  001A78  A4D8               	btfss	status,2,c
  4832  001A7A  EF41  F00D         	goto	i2u252_41
  4833  001A7E  EF43  F00D         	goto	i2u252_40
  4834  001A82                     i2u252_41:
  4835  001A82  EF45  F00D         	goto	i2l231
  4836  001A86                     i2u252_40:
  4837  001A86  EF13  F00D         	goto	i2l4005
  4838  001A8A                     i2l231:
  4839  001A8A  0012               	return		;funcret
  4840  001A8C                     __end_of_USBCtrlEPServiceComplete:
  4841                           	callstack 0
  4842                           
  4843 ;; *************** function _USBCtrlEPAllowDataStage *****************
  4844 ;; Defined at:
  4845 ;;		line 1492 in file "mcc_generated_files/usb/usb_device.c"
  4846 ;; Parameters:    Size  Location     Type
  4847 ;;		None
  4848 ;; Auto vars:     Size  Location     Type
  4849 ;;		None
  4850 ;; Return value:  Size  Location     Type
  4851 ;;                  1    wreg      void 
  4852 ;; Registers used:
  4853 ;;		wreg, fsr0l, fsr0h, fsr2l, fsr2h, status,2, status,0, tblptrl, tblptrh, tblptru, cstack
  4854 ;; Tracked objects:
  4855 ;;		On entry : 0/0
  4856 ;;		On exit  : 0/0
  4857 ;;		Unchanged: 0/0
  4858 ;; Data sizes:     COMRAM   BANK0   BANK1   BANK2   BANK3   BANK4   BANK5   BANK6   BANK7
  4859 ;;      Params:         0       0       0       0       0       0       0       0       0
  4860 ;;      Locals:         0       0       0       0       0       0       0       0       0
  4861 ;;      Temps:          0       0       0       0       0       0       0       0       0
  4862 ;;      Totals:         0       0       0       0       0       0       0       0       0
  4863 ;;Total ram usage:        0 bytes
  4864 ;; Hardware stack levels used: 1
  4865 ;; Hardware stack levels required when called: 1
  4866 ;; This function calls:
  4867 ;;		_USBCtrlTrfTxService
  4868 ;; This function is called by:
  4869 ;;		_USBCtrlEPServiceComplete
  4870 ;; This function uses a non-reentrant model
  4871 ;;
  4872                           
  4873                           	psect	text30
  4874  002578                     __ptext30:
  4875                           	callstack 0
  4876  002578                     _USBCtrlEPAllowDataStage:
  4877                           	callstack 21
  4878  002578                     
  4879                           ;mcc_generated_files/usb/usb_device.c: 1494:     USBDeferINDataStagePackets = 0;
  4880  002578  0E00               	movlw	0
  4881  00257A  6E44               	movwf	_USBDeferINDataStagePackets^0,c	;volatile
  4882                           
  4883                           ;mcc_generated_files/usb/usb_device.c: 1495:     USBDeferOUTDataStagePackets = 0;
  4884  00257C  0E00               	movlw	0
  4885  00257E  6E43               	movwf	_USBDeferOUTDataStagePackets^0,c	;volatile
  4886  002580                     
  4887                           ;mcc_generated_files/usb/usb_device.c: 1497:     if(controlTransferState == 2)
  4888  002580  0E02               	movlw	2
  4889  002582  184C               	xorwf	_controlTransferState^0,w,c	;volatile
  4890  002584  A4D8               	btfss	status,2,c
  4891  002586  EFC7  F012         	goto	i2u213_41
  4892  00258A  EFC9  F012         	goto	i2u213_40
  4893  00258E                     i2u213_41:
  4894  00258E  EFE9  F012         	goto	i2l3773
  4895  002592                     i2u213_40:
  4896  002592                     
  4897                           ;mcc_generated_files/usb/usb_device.c: 1498:     {;mcc_generated_files/usb/usb_device.c:
      +                           1500:         pBDTEntryEP0OutNext->CNT = 8;
  4898  002592  EE20 F001          	lfsr	2,1
  4899  002596  503C               	movf	_pBDTEntryEP0OutNext^0,w,c
  4900  002598  26D9               	addwf	fsr2l,f,c
  4901  00259A  503D               	movf	(_pBDTEntryEP0OutNext+1)^0,w,c
  4902  00259C  22DA               	addwfc	fsr2h,f,c
  4903  00259E  0E08               	movlw	8
  4904  0025A0  6EDF               	movwf	indf2,c
  4905                           
  4906                           ;mcc_generated_files/usb/usb_device.c: 1501:         pBDTEntryEP0OutNext->ADR = ((uint16
      +                          _t)(&CtrlTrfData));
  4907  0025A2  EE20 F002          	lfsr	2,2
  4908  0025A6  503C               	movf	_pBDTEntryEP0OutNext^0,w,c
  4909  0025A8  26D9               	addwf	fsr2l,f,c
  4910  0025AA  503D               	movf	(_pBDTEntryEP0OutNext+1)^0,w,c
  4911  0025AC  22DA               	addwfc	fsr2h,f,c
  4912  0025AE  0E38               	movlw	56
  4913  0025B0  6EDE               	movwf	postinc2,c
  4914  0025B2  0E04               	movlw	4
  4915  0025B4  6EDD               	movwf	postdec2,c
  4916  0025B6                     
  4917                           ;mcc_generated_files/usb/usb_device.c: 1502:         pBDTEntryEP0OutNext->STAT.Val = 0x4
      +                          0|(0x08 & 0x08);
  4918  0025B6  C03C  FFD9         	movff	_pBDTEntryEP0OutNext,fsr2l
  4919  0025BA  C03D  FFDA         	movff	_pBDTEntryEP0OutNext+1,fsr2h
  4920  0025BE  0E48               	movlw	72
  4921  0025C0  6EDF               	movwf	indf2,c
  4922  0025C2                     
  4923                           ;mcc_generated_files/usb/usb_device.c: 1503:         pBDTEntryEP0OutNext->STAT.Val |= 0x
      +                          80;
  4924  0025C2  C03C  FFD9         	movff	_pBDTEntryEP0OutNext,fsr2l
  4925  0025C6  C03D  FFDA         	movff	_pBDTEntryEP0OutNext+1,fsr2h
  4926  0025CA  0E00               	movlw	0
  4927  0025CC  8EDB               	bsf	plusw2,7,c
  4928                           
  4929                           ;mcc_generated_files/usb/usb_device.c: 1504:     }
  4930  0025CE  EF15  F013         	goto	i2l213
  4931  0025D2                     i2l3773:
  4932                           
  4933                           ;mcc_generated_files/usb/usb_device.c: 1506:     {;mcc_generated_files/usb/usb_device.c:
      +                           1509:   if(SetupPkt.wLength < inPipes[0].wCount.Val)
  4934  0025D2  0100               	movlb	0	; () banked
  4935  0025D4  5176               	movf	(_inPipes+4)& (0+255),w,b	;volatile
  4936  0025D6  0104               	movlb	4	; () banked
  4937  0025D8  5D36               	subwf	54,w,b	;volatile
  4938  0025DA  0100               	movlb	0	; () banked
  4939  0025DC  5177               	movf	(_inPipes+5)& (0+255),w,b	;volatile
  4940  0025DE  0104               	movlb	4	; () banked
  4941  0025E0  5937               	subwfb	55,w,b	;volatile
  4942  0025E2  B0D8               	btfsc	status,0,c
  4943  0025E4  EFF6  F012         	goto	i2u214_41
  4944  0025E8  EFF8  F012         	goto	i2u214_40
  4945  0025EC                     i2u214_41:
  4946  0025EC  EFFC  F012         	goto	i2l3777
  4947  0025F0                     i2u214_40:
  4948  0025F0                     
  4949                           ; BSR set to: 4
  4950                           ;mcc_generated_files/usb/usb_device.c: 1510:   {;mcc_generated_files/usb/usb_device.c: 1
      +                          511:    inPipes[0].wCount.Val = SetupPkt.wLength;
  4951  0025F0  C436 F076          	movff	1078,_inPipes+4	;volatile
  4952  0025F4  C437 F077          	movff	1079,_inPipes+5	;volatile
  4953  0025F8                     i2l3777:
  4954                           
  4955                           ; BSR set to: 4
  4956                           ;mcc_generated_files/usb/usb_device.c: 1513:   USBCtrlTrfTxService();
  4957  0025F8  EC78  F00E         	call	_USBCtrlTrfTxService	;wreg free
  4958  0025FC                     
  4959                           ;mcc_generated_files/usb/usb_device.c: 1518:   pBDTEntryIn[0]->ADR = ((uint16_t)(&CtrlTr
      +                          fData));
  4960  0025FC  0100               	movlb	0	; () banked
  4961  0025FE  EE20 F002          	lfsr	2,2
  4962  002602  5178               	movf	_pBDTEntryIn& (0+255),w,b
  4963  002604  26D9               	addwf	fsr2l,f,c
  4964  002606  5179               	movf	(_pBDTEntryIn+1)& (0+255),w,b
  4965  002608  22DA               	addwfc	fsr2h,f,c
  4966  00260A  0E38               	movlw	56
  4967  00260C  6EDE               	movwf	postinc2,c
  4968  00260E  0E04               	movlw	4
  4969  002610  6EDD               	movwf	postdec2,c
  4970  002612                     
  4971                           ; BSR set to: 0
  4972                           ;mcc_generated_files/usb/usb_device.c: 1519:   pBDTEntryIn[0]->STAT.Val = 0x40|(0x08 & 0
      +                          x08);
  4973  002612  C078  FFD9         	movff	_pBDTEntryIn,fsr2l
  4974  002616  C079  FFDA         	movff	_pBDTEntryIn+1,fsr2h
  4975  00261A  0E48               	movlw	72
  4976  00261C  6EDF               	movwf	indf2,c
  4977  00261E                     
  4978                           ; BSR set to: 0
  4979                           ;mcc_generated_files/usb/usb_device.c: 1520:         pBDTEntryIn[0]->STAT.Val |= 0x80;
  4980  00261E  C078  FFD9         	movff	_pBDTEntryIn,fsr2l
  4981  002622  C079  FFDA         	movff	_pBDTEntryIn+1,fsr2h
  4982  002626  0E00               	movlw	0
  4983  002628  8EDB               	bsf	plusw2,7,c
  4984  00262A                     i2l213:
  4985  00262A  0012               	return		;funcret
  4986  00262C                     __end_of_USBCtrlEPAllowDataStage:
  4987                           	callstack 0
  4988                           
  4989 ;; *************** function _USBCheckStdRequest *****************
  4990 ;; Defined at:
  4991 ;;		line 2690 in file "mcc_generated_files/usb/usb_device.c"
  4992 ;; Parameters:    Size  Location     Type
  4993 ;;		None
  4994 ;; Auto vars:     Size  Location     Type
  4995 ;;		None
  4996 ;; Return value:  Size  Location     Type
  4997 ;;                  1    wreg      void 
  4998 ;; Registers used:
  4999 ;;		wreg, fsr0l, fsr0h, fsr2l, fsr2h, status,2, status,0, tblptrl, tblptrh, tblptru, prodl, prodh, cstack
  5000 ;; Tracked objects:
  5001 ;;		On entry : 0/0
  5002 ;;		On exit  : 0/0
  5003 ;;		Unchanged: 0/0
  5004 ;; Data sizes:     COMRAM   BANK0   BANK1   BANK2   BANK3   BANK4   BANK5   BANK6   BANK7
  5005 ;;      Params:         0       0       0       0       0       0       0       0       0
  5006 ;;      Locals:         0       0       0       0       0       0       0       0       0
  5007 ;;      Temps:          2       0       0       0       0       0       0       0       0
  5008 ;;      Totals:         2       0       0       0       0       0       0       0       0
  5009 ;;Total ram usage:        2 bytes
  5010 ;; Hardware stack levels used: 1
  5011 ;; Hardware stack levels required when called: 5
  5012 ;; This function calls:
  5013 ;;		_USBStdFeatureReqHandler
  5014 ;;		_USBStdGetDscHandler
  5015 ;;		_USBStdGetStatusHandler
  5016 ;;		_USBStdSetCfgHandler
  5017 ;;		_USER_USB_CALLBACK_EVENT_HANDLER
  5018 ;; This function is called by:
  5019 ;;		_USBCtrlTrfSetupHandler
  5020 ;; This function uses a non-reentrant model
  5021 ;;
  5022                           
  5023                           	psect	text31
  5024  001BCA                     __ptext31:
  5025                           	callstack 0
  5026  001BCA                     _USBCheckStdRequest:
  5027                           	callstack 18
  5028  001BCA                     
  5029                           ;mcc_generated_files/usb/usb_device.c: 2692:     if(SetupPkt.RequestType != (0x00>>5)) r
      +                          eturn;
  5030  001BCA  0104               	movlb	4	; () banked
  5031  001BCC  3930               	swapf	48,w,b	;volatile
  5032  001BCE  32E8               	rrcf	wreg,f,c
  5033  001BD0  0B03               	andlw	3
  5034  001BD2  0900               	iorlw	0
  5035  001BD4  B4D8               	btfsc	status,2,c
  5036  001BD6  EFEF  F00D         	goto	i2u258_41
  5037  001BDA  EFF1  F00D         	goto	i2u258_40
  5038  001BDE                     i2u258_41:
  5039  001BDE  EF3E  F00E         	goto	i2l4105
  5040  001BE2                     i2u258_40:
  5041  001BE2  EF77  F00E         	goto	i2l344
  5042  001BE6                     i2l346:
  5043                           
  5044                           ; BSR set to: 4
  5045                           ;mcc_generated_files/usb/usb_device.c: 2697:             inPipes[0].info.bits.busy = 1;
  5046  001BE6  0100               	movlb	0	; () banked
  5047  001BE8  8F75               	bsf	(_inPipes+3)& (0+255),7,b	;volatile
  5048  001BEA                     
  5049                           ; BSR set to: 0
  5050                           ;mcc_generated_files/usb/usb_device.c: 2698:             USBDeviceState = ADR_PENDING_ST
      +                          ATE;
  5051  001BEA  0E08               	movlw	8
  5052  001BEC  6E4E               	movwf	_USBDeviceState^0,c	;volatile
  5053                           
  5054                           ;mcc_generated_files/usb/usb_device.c: 2700:             break;
  5055  001BEE  EF77  F00E         	goto	i2l344
  5056  001BF2                     i2l4075:
  5057                           
  5058                           ; BSR set to: 4
  5059                           ;mcc_generated_files/usb/usb_device.c: 2702:             USBStdGetDscHandler();
  5060  001BF2  EC5C  F009         	call	_USBStdGetDscHandler	;wreg free
  5061                           
  5062                           ;mcc_generated_files/usb/usb_device.c: 2703:             break;
  5063  001BF6  EF77  F00E         	goto	i2l344
  5064  001BFA                     i2l4077:
  5065                           
  5066                           ; BSR set to: 4
  5067                           ;mcc_generated_files/usb/usb_device.c: 2705:             USBStdSetCfgHandler();
  5068  001BFA  EC8F  F011         	call	_USBStdSetCfgHandler	;wreg free
  5069                           
  5070                           ;mcc_generated_files/usb/usb_device.c: 2706:             break;
  5071  001BFE  EF77  F00E         	goto	i2l344
  5072  001C02                     i2l4079:
  5073                           
  5074                           ; BSR set to: 4
  5075                           ;mcc_generated_files/usb/usb_device.c: 2708:             inPipes[0].pSrc.bRam = (uint8_t
      +                          *)&USBActiveConfiguration;
  5076  001C02  0E52               	movlw	low _USBActiveConfiguration
  5077  001C04  0100               	movlb	0	; () banked
  5078  001C06  6F72               	movwf	_inPipes& (0+255),b	;volatile
  5079  001C08  0E00               	movlw	high _USBActiveConfiguration
  5080  001C0A  6F73               	movwf	(_inPipes+1)& (0+255),b	;volatile
  5081  001C0C                     
  5082                           ; BSR set to: 0
  5083                           ;mcc_generated_files/usb/usb_device.c: 2709:             inPipes[0].info.bits.ctrl_trf_m
      +                          em = 0x01;
  5084  001C0C  8175               	bsf	(_inPipes+3)& (0+255),0,b	;volatile
  5085  001C0E                     
  5086                           ; BSR set to: 0
  5087                           ;mcc_generated_files/usb/usb_device.c: 2710:             inPipes[0].wCount.v[0] = 1;
  5088  001C0E  0E01               	movlw	1
  5089  001C10  6F76               	movwf	(_inPipes+4)& (0+255),b	;volatile
  5090  001C12                     
  5091                           ; BSR set to: 0
  5092                           ;mcc_generated_files/usb/usb_device.c: 2711:             inPipes[0].info.bits.busy = 1;
  5093  001C12  8F75               	bsf	(_inPipes+3)& (0+255),7,b	;volatile
  5094                           
  5095                           ;mcc_generated_files/usb/usb_device.c: 2712:             break;
  5096  001C14  EF77  F00E         	goto	i2l344
  5097  001C18                     i2l4087:
  5098                           
  5099                           ; BSR set to: 4
  5100                           ;mcc_generated_files/usb/usb_device.c: 2714:             USBStdGetStatusHandler();
  5101  001C18  EC00  F00F         	call	_USBStdGetStatusHandler	;wreg free
  5102                           
  5103                           ;mcc_generated_files/usb/usb_device.c: 2715:             break;
  5104  001C1C  EF77  F00E         	goto	i2l344
  5105  001C20                     i2l4089:
  5106                           
  5107                           ; BSR set to: 4
  5108                           ;mcc_generated_files/usb/usb_device.c: 2718:             USBStdFeatureReqHandler();
  5109  001C20  EC57  F004         	call	_USBStdFeatureReqHandler	;wreg free
  5110                           
  5111                           ;mcc_generated_files/usb/usb_device.c: 2719:             break;
  5112  001C24  EF77  F00E         	goto	i2l344
  5113  001C28                     i2l4091:
  5114                           
  5115                           ; BSR set to: 4
  5116                           ;mcc_generated_files/usb/usb_device.c: 2721:             inPipes[0].pSrc.bRam = (uint8_t
      +                          *)&USBAlternateInterface[SetupPkt.bIntfID];
  5117  001C28  0E4F               	movlw	low _USBAlternateInterface
  5118  001C2A  2534               	addwf	52,w,b	;volatile
  5119  001C2C  0100               	movlb	0	; () banked
  5120  001C2E  6F72               	movwf	_inPipes& (0+255),b	;volatile
  5121  001C30  6B73               	clrf	(_inPipes+1)& (0+255),b	;volatile
  5122  001C32  0E00               	movlw	high _USBAlternateInterface
  5123  001C34  2373               	addwfc	(_inPipes+1)& (0+255),f,b	;volatile
  5124  001C36                     
  5125                           ; BSR set to: 0
  5126                           ;mcc_generated_files/usb/usb_device.c: 2722:             inPipes[0].info.bits.ctrl_trf_m
      +                          em = 0x01;
  5127  001C36  8175               	bsf	(_inPipes+3)& (0+255),0,b	;volatile
  5128  001C38                     
  5129                           ; BSR set to: 0
  5130                           ;mcc_generated_files/usb/usb_device.c: 2723:             inPipes[0].wCount.v[0] = 1;
  5131  001C38  0E01               	movlw	1
  5132  001C3A  6F76               	movwf	(_inPipes+4)& (0+255),b	;volatile
  5133  001C3C                     
  5134                           ; BSR set to: 0
  5135                           ;mcc_generated_files/usb/usb_device.c: 2724:             inPipes[0].info.bits.busy = 1;
  5136  001C3C  8F75               	bsf	(_inPipes+3)& (0+255),7,b	;volatile
  5137                           
  5138                           ;mcc_generated_files/usb/usb_device.c: 2725:             break;
  5139  001C3E  EF77  F00E         	goto	i2l344
  5140  001C42                     i2l355:
  5141                           
  5142                           ; BSR set to: 4
  5143                           ;mcc_generated_files/usb/usb_device.c: 2727:             inPipes[0].info.bits.busy = 1;
  5144  001C42  0100               	movlb	0	; () banked
  5145  001C44  8F75               	bsf	(_inPipes+3)& (0+255),7,b	;volatile
  5146  001C46                     
  5147                           ; BSR set to: 0
  5148                           ;mcc_generated_files/usb/usb_device.c: 2728:             USBAlternateInterface[SetupPkt.
      +                          bIntfID] = SetupPkt.bAltID;
  5149  001C46  0E4F               	movlw	low _USBAlternateInterface
  5150  001C48  0104               	movlb	4	; () banked
  5151  001C4A  2534               	addwf	52,w,b	;volatile
  5152  001C4C  6ED9               	movwf	fsr2l,c
  5153  001C4E  6ADA               	clrf	fsr2h,c
  5154  001C50  0E00               	movlw	high _USBAlternateInterface
  5155  001C52  22DA               	addwfc	fsr2h,f,c
  5156  001C54  C432 FFDF          	movff	1074,indf2	;volatile
  5157                           
  5158                           ;mcc_generated_files/usb/usb_device.c: 2729:             break;
  5159  001C58  EF77  F00E         	goto	i2l344
  5160  001C5C                     i2l4101:
  5161                           
  5162                           ; BSR set to: 4
  5163                           ;mcc_generated_files/usb/usb_device.c: 2731:             USER_USB_CALLBACK_EVENT_HANDLER
      +                          ((USB_EVENT)EVENT_SET_DESCRIPTOR,0,0);
  5164  001C5C  0E00               	movlw	0
  5165  001C5E  6E0E               	movwf	(USER_USB_CALLBACK_EVENT_HANDLER@event+1)^0,c
  5166  001C60  0E02               	movlw	2
  5167  001C62  6E0D               	movwf	USER_USB_CALLBACK_EVENT_HANDLER@event^0,c
  5168  001C64  0E00               	movlw	0
  5169  001C66  6E0F               	movwf	USER_USB_CALLBACK_EVENT_HANDLER@pdata^0,c
  5170  001C68  0E00               	movlw	0
  5171  001C6A  6E10               	movwf	(USER_USB_CALLBACK_EVENT_HANDLER@pdata+1)^0,c
  5172  001C6C  0E00               	movlw	0
  5173  001C6E  6E12               	movwf	(USER_USB_CALLBACK_EVENT_HANDLER@size+1)^0,c
  5174  001C70  0E00               	movlw	0
  5175  001C72  6E11               	movwf	USER_USB_CALLBACK_EVENT_HANDLER@size^0,c
  5176  001C74  ECB4  F013         	call	_USER_USB_CALLBACK_EVENT_HANDLER	;wreg free
  5177                           
  5178                           ;mcc_generated_files/usb/usb_device.c: 2732:             break;
  5179  001C78  EF77  F00E         	goto	i2l344
  5180  001C7C                     i2l4105:
  5181                           
  5182                           ; BSR set to: 4
  5183  001C7C  5131               	movf	49,w,b	;volatile
  5184  001C7E  6E1C               	movwf	??_USBCheckStdRequest^0,c
  5185  001C80  6A1D               	clrf	(??_USBCheckStdRequest+1)^0,c
  5186                           
  5187                           ; Switch on 2 bytes has been partitioned into a top level switch of size 1, and 1 sub-sw
      +                          itches
  5188                           ; Switch size 1, requested type "simple"
  5189                           ; Number of cases is 1, Range of values is 0 to 0
  5190                           ; switch strategies available:
  5191                           ; Name         Instructions Cycles
  5192                           ; simple_byte            4     3 (average)
  5193                           ;	Chosen strategy is simple_byte
  5194  001C82  501D               	movf	(??_USBCheckStdRequest+1)^0,w,c
  5195  001C84  0A00               	xorlw	0	; case 0
  5196  001C86  B4D8               	btfsc	status,2,c
  5197  001C88  EF48  F00E         	goto	i2l5565
  5198  001C8C  EF77  F00E         	goto	i2l344
  5199  001C90                     i2l5565:
  5200                           
  5201                           ; BSR set to: 4
  5202                           ; Switch size 1, requested type "simple"
  5203                           ; Number of cases is 11, Range of values is 0 to 12
  5204                           ; switch strategies available:
  5205                           ; Name         Instructions Cycles
  5206                           ; simple_byte           34    18 (average)
  5207                           ;	Chosen strategy is simple_byte
  5208  001C90  501C               	movf	??_USBCheckStdRequest^0,w,c
  5209  001C92  0A00               	xorlw	0	; case 0
  5210  001C94  B4D8               	btfsc	status,2,c
  5211  001C96  EF0C  F00E         	goto	i2l4087
  5212  001C9A  0A01               	xorlw	1	; case 1
  5213  001C9C  B4D8               	btfsc	status,2,c
  5214  001C9E  EF10  F00E         	goto	i2l4089
  5215  001CA2  0A02               	xorlw	2	; case 3
  5216  001CA4  B4D8               	btfsc	status,2,c
  5217  001CA6  EF10  F00E         	goto	i2l4089
  5218  001CAA  0A06               	xorlw	6	; case 5
  5219  001CAC  B4D8               	btfsc	status,2,c
  5220  001CAE  EFF3  F00D         	goto	i2l346
  5221  001CB2  0A03               	xorlw	3	; case 6
  5222  001CB4  B4D8               	btfsc	status,2,c
  5223  001CB6  EFF9  F00D         	goto	i2l4075
  5224  001CBA  0A01               	xorlw	1	; case 7
  5225  001CBC  B4D8               	btfsc	status,2,c
  5226  001CBE  EF2E  F00E         	goto	i2l4101
  5227  001CC2  0A0F               	xorlw	15	; case 8
  5228  001CC4  B4D8               	btfsc	status,2,c
  5229  001CC6  EF01  F00E         	goto	i2l4079
  5230  001CCA  0A01               	xorlw	1	; case 9
  5231  001CCC  B4D8               	btfsc	status,2,c
  5232  001CCE  EFFD  F00D         	goto	i2l4077
  5233  001CD2  0A03               	xorlw	3	; case 10
  5234  001CD4  B4D8               	btfsc	status,2,c
  5235  001CD6  EF14  F00E         	goto	i2l4091
  5236  001CDA  0A01               	xorlw	1	; case 11
  5237  001CDC  B4D8               	btfsc	status,2,c
  5238  001CDE  EF21  F00E         	goto	i2l355
  5239  001CE2  0A07               	xorlw	7	; case 12
  5240  001CE4  B4D8               	btfsc	status,2,c
  5241  001CE6  EF77  F00E         	goto	i2l344
  5242  001CEA  EF77  F00E         	goto	i2l344
  5243  001CEE                     i2l344:
  5244  001CEE  0012               	return		;funcret
  5245  001CF0                     __end_of_USBCheckStdRequest:
  5246                           	callstack 0
  5247                           
  5248 ;; *************** function _USBStdSetCfgHandler *****************
  5249 ;; Defined at:
  5250 ;;		line 1972 in file "mcc_generated_files/usb/usb_device.c"
  5251 ;; Parameters:    Size  Location     Type
  5252 ;;		None
  5253 ;; Auto vars:     Size  Location     Type
  5254 ;;  i               1   20[COMRAM] unsigned char 
  5255 ;; Return value:  Size  Location     Type
  5256 ;;                  1    wreg      void 
  5257 ;; Registers used:
  5258 ;;		wreg, fsr2l, fsr2h, status,2, status,0, prodl, prodh, cstack
  5259 ;; Tracked objects:
  5260 ;;		On entry : 0/0
  5261 ;;		On exit  : 0/0
  5262 ;;		Unchanged: 0/0
  5263 ;; Data sizes:     COMRAM   BANK0   BANK1   BANK2   BANK3   BANK4   BANK5   BANK6   BANK7
  5264 ;;      Params:         0       0       0       0       0       0       0       0       0
  5265 ;;      Locals:         1       0       0       0       0       0       0       0       0
  5266 ;;      Temps:          0       0       0       0       0       0       0       0       0
  5267 ;;      Totals:         1       0       0       0       0       0       0       0       0
  5268 ;;Total ram usage:        1 bytes
  5269 ;; Hardware stack levels used: 1
  5270 ;; Hardware stack levels required when called: 4
  5271 ;; This function calls:
  5272 ;;		_USER_USB_CALLBACK_EVENT_HANDLER
  5273 ;;		i2_memset
  5274 ;; This function is called by:
  5275 ;;		_USBCheckStdRequest
  5276 ;; This function uses a non-reentrant model
  5277 ;;
  5278                           
  5279                           	psect	text32
  5280  00231E                     __ptext32:
  5281                           	callstack 0
  5282  00231E                     _USBStdSetCfgHandler:
  5283                           	callstack 18
  5284  00231E                     
  5285                           ;mcc_generated_files/usb/usb_device.c: 1974:     uint8_t i;;mcc_generated_files/usb/usb_
      +                          device.c: 1977:     inPipes[0].info.bits.busy = 1;
  5286  00231E  0100               	movlb	0	; () banked
  5287  002320  8F75               	bsf	(_inPipes+3)& (0+255),7,b	;volatile
  5288  002322                     
  5289                           ; BSR set to: 0
  5290                           ;mcc_generated_files/usb/usb_device.c: 1980:     memset((void*)&UEP1,0x00,(2));;
  5291  002322  0E6B               	movlw	107
  5292  002324  6E01               	movwf	i2memset@dest^0,c
  5293  002326  0E0F               	movlw	15
  5294  002328  6E02               	movwf	(i2memset@dest+1)^0,c
  5295  00232A  0E00               	movlw	0
  5296  00232C  6E04               	movwf	(i2memset@c+1)^0,c
  5297  00232E  0E00               	movlw	0
  5298  002330  6E03               	movwf	i2memset@c^0,c
  5299  002332  0E00               	movlw	0
  5300  002334  6E06               	movwf	(i2memset@n+1)^0,c
  5301  002336  0E02               	movlw	2
  5302  002338  6E05               	movwf	i2memset@n^0,c
  5303  00233A  ECA1  F008         	call	i2_memset	;wreg free
  5304                           
  5305                           ;mcc_generated_files/usb/usb_device.c: 1983:     memset((void*)&BDT[0], 0x00, sizeof(BDT
      +                          ));
  5306  00233E  0E00               	movlw	0
  5307  002340  6E01               	movwf	i2memset@dest^0,c
  5308  002342  0E04               	movlw	4
  5309  002344  6E02               	movwf	(i2memset@dest+1)^0,c
  5310  002346  0E00               	movlw	0
  5311  002348  6E04               	movwf	(i2memset@c+1)^0,c
  5312  00234A  0E00               	movlw	0
  5313  00234C  6E03               	movwf	i2memset@c^0,c
  5314  00234E  0E00               	movlw	0
  5315  002350  6E06               	movwf	(i2memset@n+1)^0,c
  5316  002352  0E30               	movlw	48
  5317  002354  6E05               	movwf	i2memset@n^0,c
  5318  002356  ECA1  F008         	call	i2_memset	;wreg free
  5319  00235A                     
  5320                           ;mcc_generated_files/usb/usb_device.c: 1986:     UCONbits.PPBRST = 1;
  5321  00235A  8C60               	bsf	96,6,c	;volatile
  5322  00235C                     
  5323                           ;mcc_generated_files/usb/usb_device.c: 1991:  for(i = 0; i < (uint8_t)(2 +1u); i++)
  5324  00235C  0E00               	movlw	0
  5325  00235E  6E15               	movwf	USBStdSetCfgHandler@i^0,c
  5326  002360                     i2l3797:
  5327                           
  5328                           ;mcc_generated_files/usb/usb_device.c: 1992:  {;mcc_generated_files/usb/usb_device.c: 19
      +                          93:   ep_data_in[i].Val = 0u;
  5329  002360  0E8D               	movlw	low _ep_data_in
  5330  002362  2415               	addwf	USBStdSetCfgHandler@i^0,w,c
  5331  002364  6ED9               	movwf	fsr2l,c
  5332  002366  6ADA               	clrf	fsr2h,c
  5333  002368  0E00               	movlw	high _ep_data_in
  5334  00236A  22DA               	addwfc	fsr2h,f,c
  5335  00236C  0E00               	movlw	0
  5336  00236E  6EDF               	movwf	indf2,c
  5337                           
  5338                           ;mcc_generated_files/usb/usb_device.c: 1994:         ep_data_out[i].Val = 0u;
  5339  002370  0E8A               	movlw	low _ep_data_out
  5340  002372  2415               	addwf	USBStdSetCfgHandler@i^0,w,c
  5341  002374  6ED9               	movwf	fsr2l,c
  5342  002376  6ADA               	clrf	fsr2h,c
  5343  002378  0E00               	movlw	high _ep_data_out
  5344  00237A  22DA               	addwfc	fsr2h,f,c
  5345  00237C  0E00               	movlw	0
  5346  00237E  6EDF               	movwf	indf2,c
  5347  002380                     
  5348                           ;mcc_generated_files/usb/usb_device.c: 1995:  }
  5349  002380  2A15               	incf	USBStdSetCfgHandler@i^0,f,c
  5350  002382  0E02               	movlw	2
  5351  002384  6415               	cpfsgt	USBStdSetCfgHandler@i^0,c
  5352  002386  EFC7  F011         	goto	i2u215_41
  5353  00238A  EFC9  F011         	goto	i2u215_40
  5354  00238E                     i2u215_41:
  5355  00238E  EFB0  F011         	goto	i2l3797
  5356  002392                     i2u215_40:
  5357  002392                     
  5358                           ;mcc_generated_files/usb/usb_device.c: 1998:     memset((void*)&USBAlternateInterface,0x
      +                          00,2);
  5359  002392  0E4F               	movlw	low _USBAlternateInterface
  5360  002394  6E01               	movwf	i2memset@dest^0,c
  5361  002396  0E00               	movlw	high _USBAlternateInterface
  5362  002398  6E02               	movwf	(i2memset@dest+1)^0,c
  5363  00239A  0E00               	movlw	0
  5364  00239C  6E04               	movwf	(i2memset@c+1)^0,c
  5365  00239E  0E00               	movlw	0
  5366  0023A0  6E03               	movwf	i2memset@c^0,c
  5367  0023A2  0E00               	movlw	0
  5368  0023A4  6E06               	movwf	(i2memset@n+1)^0,c
  5369  0023A6  0E02               	movlw	2
  5370  0023A8  6E05               	movwf	i2memset@n^0,c
  5371  0023AA  ECA1  F008         	call	i2_memset	;wreg free
  5372  0023AE                     
  5373                           ;mcc_generated_files/usb/usb_device.c: 2001:     UCONbits.PPBRST = 0;
  5374  0023AE  9C60               	bcf	96,6,c	;volatile
  5375  0023B0                     
  5376                           ;mcc_generated_files/usb/usb_device.c: 2003:     pBDTEntryIn[0] = (volatile BDT_ENTRY*)&
      +                          BDT[2];
  5377  0023B0  0E08               	movlw	8
  5378  0023B2  0100               	movlb	0	; () banked
  5379  0023B4  6F78               	movwf	_pBDTEntryIn& (0+255),b
  5380  0023B6  0E04               	movlw	4
  5381  0023B8  6F79               	movwf	(_pBDTEntryIn+1)& (0+255),b
  5382  0023BA                     
  5383                           ; BSR set to: 0
  5384                           ;mcc_generated_files/usb/usb_device.c: 2006:     pBDTEntryEP0OutCurrent = (volatile BDT_
      +                          ENTRY*)&BDT[0];
  5385  0023BA  0E00               	movlw	0
  5386  0023BC  6E3E               	movwf	_pBDTEntryEP0OutCurrent^0,c
  5387  0023BE  0E04               	movlw	4
  5388  0023C0  6E3F               	movwf	(_pBDTEntryEP0OutCurrent+1)^0,c
  5389  0023C2                     
  5390                           ; BSR set to: 0
  5391                           ;mcc_generated_files/usb/usb_device.c: 2007:     pBDTEntryEP0OutNext = pBDTEntryEP0OutCu
      +                          rrent;
  5392  0023C2  C03E  F03C         	movff	_pBDTEntryEP0OutCurrent,_pBDTEntryEP0OutNext
  5393  0023C6  C03F  F03D         	movff	_pBDTEntryEP0OutCurrent+1,_pBDTEntryEP0OutNext+1
  5394  0023CA                     
  5395                           ; BSR set to: 0
  5396                           ;mcc_generated_files/usb/usb_device.c: 2010:     USBActiveConfiguration = SetupPkt.bConf
      +                          igurationValue;
  5397  0023CA  C432 F052          	movff	1074,_USBActiveConfiguration	;volatile
  5398  0023CE                     
  5399                           ; BSR set to: 0
  5400                           ;mcc_generated_files/usb/usb_device.c: 2013:     if(USBActiveConfiguration == 0)
  5401  0023CE  5052               	movf	_USBActiveConfiguration^0,w,c	;volatile
  5402  0023D0  A4D8               	btfss	status,2,c
  5403  0023D2  EFED  F011         	goto	i2u216_41
  5404  0023D6  EFEF  F011         	goto	i2u216_40
  5405  0023DA                     i2u216_41:
  5406  0023DA  EFF3  F011         	goto	i2l3819
  5407  0023DE                     i2u216_40:
  5408  0023DE                     
  5409                           ; BSR set to: 0
  5410                           ;mcc_generated_files/usb/usb_device.c: 2014:     {;mcc_generated_files/usb/usb_device.c:
      +                           2016:         USBDeviceState = ADDRESS_STATE;
  5411  0023DE  0E10               	movlw	16
  5412  0023E0  6E4E               	movwf	_USBDeviceState^0,c	;volatile
  5413                           
  5414                           ;mcc_generated_files/usb/usb_device.c: 2017:     }
  5415  0023E2  EF03  F012         	goto	i2l266
  5416  0023E6                     i2l3819:
  5417                           
  5418                           ; BSR set to: 0
  5419                           ;mcc_generated_files/usb/usb_device.c: 2019:     {;mcc_generated_files/usb/usb_device.c:
      +                           2021:         USER_USB_CALLBACK_EVENT_HANDLER((USB_EVENT)EVENT_CONFIGURED,(void*)&USBAc
      +                          tiveConfiguration,1);
  5420  0023E6  0E00               	movlw	0
  5421  0023E8  6E0E               	movwf	(USER_USB_CALLBACK_EVENT_HANDLER@event+1)^0,c
  5422  0023EA  0E01               	movlw	1
  5423  0023EC  6E0D               	movwf	USER_USB_CALLBACK_EVENT_HANDLER@event^0,c
  5424  0023EE  0E52               	movlw	low _USBActiveConfiguration
  5425  0023F0  6E0F               	movwf	USER_USB_CALLBACK_EVENT_HANDLER@pdata^0,c
  5426  0023F2  0E00               	movlw	high _USBActiveConfiguration
  5427  0023F4  6E10               	movwf	(USER_USB_CALLBACK_EVENT_HANDLER@pdata+1)^0,c
  5428  0023F6  0E00               	movlw	0
  5429  0023F8  6E12               	movwf	(USER_USB_CALLBACK_EVENT_HANDLER@size+1)^0,c
  5430  0023FA  0E01               	movlw	1
  5431  0023FC  6E11               	movwf	USER_USB_CALLBACK_EVENT_HANDLER@size^0,c
  5432  0023FE  ECB4  F013         	call	_USER_USB_CALLBACK_EVENT_HANDLER	;wreg free
  5433  002402                     
  5434                           ;mcc_generated_files/usb/usb_device.c: 2026:         USBDeviceState = CONFIGURED_STATE;
  5435  002402  0E20               	movlw	32
  5436  002404  6E4E               	movwf	_USBDeviceState^0,c	;volatile
  5437  002406                     i2l266:
  5438  002406  0012               	return		;funcret
  5439  002408                     __end_of_USBStdSetCfgHandler:
  5440                           	callstack 0
  5441                           
  5442 ;; *************** function i2_memset *****************
  5443 ;; Defined at:
  5444 ;;		line 4 in file "/Applications/microchip/xc8/v2.36/pic/sources/c99/common/memset.c"
  5445 ;; Parameters:    Size  Location     Type
  5446 ;;  dest            2    0[COMRAM] PTR void 
  5447 ;;		 -> USBAlternateInterface(2), BDT(48), UEP1(1), 
  5448 ;;  c               2    2[COMRAM] int 
  5449 ;;  n               2    4[COMRAM] unsigned int 
  5450 ;; Auto vars:     Size  Location     Type
  5451 ;;  s               2   10[COMRAM] PTR unsigned char 
  5452 ;;		 -> USBAlternateInterface(2), BDT(48), UEP1(1), 
  5453 ;;  k               2    8[COMRAM] unsigned int 
  5454 ;; Return value:  Size  Location     Type
  5455 ;;                  2    0[COMRAM] PTR void 
  5456 ;; Registers used:
  5457 ;;		wreg, fsr2l, fsr2h, status,2, status,0
  5458 ;; Tracked objects:
  5459 ;;		On entry : 0/0
  5460 ;;		On exit  : 0/0
  5461 ;;		Unchanged: 0/0
  5462 ;; Data sizes:     COMRAM   BANK0   BANK1   BANK2   BANK3   BANK4   BANK5   BANK6   BANK7
  5463 ;;      Params:         6       0       0       0       0       0       0       0       0
  5464 ;;      Locals:         4       0       0       0       0       0       0       0       0
  5465 ;;      Temps:          2       0       0       0       0       0       0       0       0
  5466 ;;      Totals:        12       0       0       0       0       0       0       0       0
  5467 ;;Total ram usage:       12 bytes
  5468 ;; Hardware stack levels used: 1
  5469 ;; This function calls:
  5470 ;;		Nothing
  5471 ;; This function is called by:
  5472 ;;		_USBStdSetCfgHandler
  5473 ;;		i2_USBDeviceInit
  5474 ;; This function uses a non-reentrant model
  5475 ;;
  5476                           
  5477                           	psect	text33
  5478  001142                     __ptext33:
  5479                           	callstack 0
  5480  001142                     i2_memset:
  5481                           	callstack 24
  5482  001142  C001  F00B         	movff	i2memset@dest,i2memset@s
  5483  001146  C002  F00C         	movff	i2memset@dest+1,i2memset@s+1
  5484  00114A  5005               	movf	i2memset@n^0,w,c
  5485  00114C  1006               	iorwf	(i2memset@n+1)^0,w,c
  5486  00114E  A4D8               	btfss	status,2,c
  5487  001150  EFAC  F008         	goto	i2u204_41
  5488  001154  EFAE  F008         	goto	i2u204_40
  5489  001158                     i2u204_41:
  5490  001158  EFB0  F008         	goto	i2l3701
  5491  00115C                     i2u204_40:
  5492  00115C  EF5B  F009         	goto	i2l1649
  5493  001160                     i2l3701:
  5494  001160  C00B  FFD9         	movff	i2memset@s,fsr2l
  5495  001164  C00C  FFDA         	movff	i2memset@s+1,fsr2h
  5496  001168  C003  FFDF         	movff	i2memset@c,indf2
  5497  00116C  5005               	movf	i2memset@n^0,w,c
  5498  00116E  240B               	addwf	i2memset@s^0,w,c
  5499  001170  6E07               	movwf	??i2_memset^0,c
  5500  001172  5006               	movf	(i2memset@n+1)^0,w,c
  5501  001174  200C               	addwfc	(i2memset@s+1)^0,w,c
  5502  001176  6E08               	movwf	(??i2_memset+1)^0,c
  5503  001178  0EFF               	movlw	255
  5504  00117A  2407               	addwf	??i2_memset^0,w,c
  5505  00117C  6ED9               	movwf	fsr2l,c
  5506  00117E  0EFF               	movlw	255
  5507  001180  2008               	addwfc	(??i2_memset+1)^0,w,c
  5508  001182  6EDA               	movwf	fsr2h,c
  5509  001184  C003  FFDF         	movff	i2memset@c,indf2
  5510  001188  5006               	movf	(i2memset@n+1)^0,w,c
  5511  00118A  E107               	bnz	i2u205_41
  5512  00118C  0E03               	movlw	3
  5513  00118E  5C05               	subwf	i2memset@n^0,w,c
  5514  001190  B0D8               	btfsc	status,0,c
  5515  001192  EFCD  F008         	goto	i2u205_41
  5516  001196  EFCF  F008         	goto	i2u205_40
  5517  00119A                     i2u205_41:
  5518  00119A  EFD1  F008         	goto	i2l3707
  5519  00119E                     i2u205_40:
  5520  00119E  EF5B  F009         	goto	i2l1649
  5521  0011A2                     i2l3707:
  5522  0011A2  EE20 F001          	lfsr	2,1
  5523  0011A6  500B               	movf	i2memset@s^0,w,c
  5524  0011A8  26D9               	addwf	fsr2l,f,c
  5525  0011AA  500C               	movf	(i2memset@s+1)^0,w,c
  5526  0011AC  22DA               	addwfc	fsr2h,f,c
  5527  0011AE  C003  FFDF         	movff	i2memset@c,indf2
  5528  0011B2  EE20 F002          	lfsr	2,2
  5529  0011B6  500B               	movf	i2memset@s^0,w,c
  5530  0011B8  26D9               	addwf	fsr2l,f,c
  5531  0011BA  500C               	movf	(i2memset@s+1)^0,w,c
  5532  0011BC  22DA               	addwfc	fsr2h,f,c
  5533  0011BE  C003  FFDF         	movff	i2memset@c,indf2
  5534  0011C2  5005               	movf	i2memset@n^0,w,c
  5535  0011C4  240B               	addwf	i2memset@s^0,w,c
  5536  0011C6  6E07               	movwf	??i2_memset^0,c
  5537  0011C8  5006               	movf	(i2memset@n+1)^0,w,c
  5538  0011CA  200C               	addwfc	(i2memset@s+1)^0,w,c
  5539  0011CC  6E08               	movwf	(??i2_memset+1)^0,c
  5540  0011CE  0EFE               	movlw	254
  5541  0011D0  2407               	addwf	??i2_memset^0,w,c
  5542  0011D2  6ED9               	movwf	fsr2l,c
  5543  0011D4  0EFF               	movlw	255
  5544  0011D6  2008               	addwfc	(??i2_memset+1)^0,w,c
  5545  0011D8  6EDA               	movwf	fsr2h,c
  5546  0011DA  C003  FFDF         	movff	i2memset@c,indf2
  5547  0011DE  5005               	movf	i2memset@n^0,w,c
  5548  0011E0  240B               	addwf	i2memset@s^0,w,c
  5549  0011E2  6E07               	movwf	??i2_memset^0,c
  5550  0011E4  5006               	movf	(i2memset@n+1)^0,w,c
  5551  0011E6  200C               	addwfc	(i2memset@s+1)^0,w,c
  5552  0011E8  6E08               	movwf	(??i2_memset+1)^0,c
  5553  0011EA  0EFD               	movlw	253
  5554  0011EC  2407               	addwf	??i2_memset^0,w,c
  5555  0011EE  6ED9               	movwf	fsr2l,c
  5556  0011F0  0EFF               	movlw	255
  5557  0011F2  2008               	addwfc	(??i2_memset+1)^0,w,c
  5558  0011F4  6EDA               	movwf	fsr2h,c
  5559  0011F6  C003  FFDF         	movff	i2memset@c,indf2
  5560  0011FA  5006               	movf	(i2memset@n+1)^0,w,c
  5561  0011FC  E107               	bnz	i2u206_41
  5562  0011FE  0E07               	movlw	7
  5563  001200  5C05               	subwf	i2memset@n^0,w,c
  5564  001202  B0D8               	btfsc	status,0,c
  5565  001204  EF06  F009         	goto	i2u206_41
  5566  001208  EF08  F009         	goto	i2u206_40
  5567  00120C                     i2u206_41:
  5568  00120C  EF0A  F009         	goto	i2l3713
  5569  001210                     i2u206_40:
  5570  001210  EF5B  F009         	goto	i2l1649
  5571  001214                     i2l3713:
  5572  001214  EE20 F003          	lfsr	2,3
  5573  001218  500B               	movf	i2memset@s^0,w,c
  5574  00121A  26D9               	addwf	fsr2l,f,c
  5575  00121C  500C               	movf	(i2memset@s+1)^0,w,c
  5576  00121E  22DA               	addwfc	fsr2h,f,c
  5577  001220  C003  FFDF         	movff	i2memset@c,indf2
  5578  001224  5005               	movf	i2memset@n^0,w,c
  5579  001226  240B               	addwf	i2memset@s^0,w,c
  5580  001228  6E07               	movwf	??i2_memset^0,c
  5581  00122A  5006               	movf	(i2memset@n+1)^0,w,c
  5582  00122C  200C               	addwfc	(i2memset@s+1)^0,w,c
  5583  00122E  6E08               	movwf	(??i2_memset+1)^0,c
  5584  001230  0EFC               	movlw	252
  5585  001232  2407               	addwf	??i2_memset^0,w,c
  5586  001234  6ED9               	movwf	fsr2l,c
  5587  001236  0EFF               	movlw	255
  5588  001238  2008               	addwfc	(??i2_memset+1)^0,w,c
  5589  00123A  6EDA               	movwf	fsr2h,c
  5590  00123C  C003  FFDF         	movff	i2memset@c,indf2
  5591  001240  5006               	movf	(i2memset@n+1)^0,w,c
  5592  001242  E107               	bnz	i2u207_41
  5593  001244  0E09               	movlw	9
  5594  001246  5C05               	subwf	i2memset@n^0,w,c
  5595  001248  B0D8               	btfsc	status,0,c
  5596  00124A  EF29  F009         	goto	i2u207_41
  5597  00124E  EF2B  F009         	goto	i2u207_40
  5598  001252                     i2u207_41:
  5599  001252  EF2D  F009         	goto	i2l3719
  5600  001256                     i2u207_40:
  5601  001256  EF5B  F009         	goto	i2l1649
  5602  00125A                     i2l3719:
  5603  00125A  C00B  F007         	movff	i2memset@s,??i2_memset
  5604  00125E  C00C  F008         	movff	i2memset@s+1,??i2_memset+1
  5605  001262  1E07               	comf	??i2_memset^0,f,c
  5606  001264  1E08               	comf	(??i2_memset+1)^0,f,c
  5607  001266  4A07               	infsnz	??i2_memset^0,f,c
  5608  001268  2A08               	incf	(??i2_memset+1)^0,f,c
  5609  00126A  0E03               	movlw	3
  5610  00126C  1407               	andwf	??i2_memset^0,w,c
  5611  00126E  6E09               	movwf	i2memset@k^0,c
  5612  001270  6A0A               	clrf	(i2memset@k+1)^0,c
  5613  001272  5009               	movf	i2memset@k^0,w,c
  5614  001274  260B               	addwf	i2memset@s^0,f,c
  5615  001276  500A               	movf	(i2memset@k+1)^0,w,c
  5616  001278  220C               	addwfc	(i2memset@s+1)^0,f,c
  5617  00127A  5009               	movf	i2memset@k^0,w,c
  5618  00127C  5E05               	subwf	i2memset@n^0,f,c
  5619  00127E  500A               	movf	(i2memset@k+1)^0,w,c
  5620  001280  5A06               	subwfb	(i2memset@n+1)^0,f,c
  5621  001282  0EFC               	movlw	252
  5622  001284  1605               	andwf	i2memset@n^0,f,c
  5623  001286  0EFF               	movlw	255
  5624  001288  1606               	andwf	(i2memset@n+1)^0,f,c
  5625  00128A  EF52  F009         	goto	i2l3727
  5626  00128E                     i2l3721:
  5627  00128E  C00B  FFD9         	movff	i2memset@s,fsr2l
  5628  001292  C00C  FFDA         	movff	i2memset@s+1,fsr2h
  5629  001296  C003  FFDF         	movff	i2memset@c,indf2
  5630  00129A  0605               	decf	i2memset@n^0,f,c
  5631  00129C  A0D8               	btfss	status,0,c
  5632  00129E  0606               	decf	(i2memset@n+1)^0,f,c
  5633  0012A0  4A0B               	infsnz	i2memset@s^0,f,c
  5634  0012A2  2A0C               	incf	(i2memset@s+1)^0,f,c
  5635  0012A4                     i2l3727:
  5636  0012A4  5005               	movf	i2memset@n^0,w,c
  5637  0012A6  1006               	iorwf	(i2memset@n+1)^0,w,c
  5638  0012A8  A4D8               	btfss	status,2,c
  5639  0012AA  EF59  F009         	goto	i2u208_41
  5640  0012AE  EF5B  F009         	goto	i2u208_40
  5641  0012B2                     i2u208_41:
  5642  0012B2  EF47  F009         	goto	i2l3721
  5643  0012B6                     i2u208_40:
  5644  0012B6                     i2l1649:
  5645  0012B6  0012               	return		;funcret
  5646  0012B8                     __end_ofi2_memset:
  5647                           	callstack 0
  5648                           
  5649 ;; *************** function _USBStdGetStatusHandler *****************
  5650 ;; Defined at:
  5651 ;;		line 2133 in file "mcc_generated_files/usb/usb_device.c"
  5652 ;; Parameters:    Size  Location     Type
  5653 ;;		None
  5654 ;; Auto vars:     Size  Location     Type
  5655 ;;  p               2    2[COMRAM] PTR struct __BDT
  5656 ;;		 -> RAM(2047), NULL(0), BDT(48), 
  5657 ;; Return value:  Size  Location     Type
  5658 ;;                  1    wreg      void 
  5659 ;; Registers used:
  5660 ;;		wreg, fsr2l, fsr2h, status,2, status,0, prodl, prodh
  5661 ;; Tracked objects:
  5662 ;;		On entry : 0/0
  5663 ;;		On exit  : 0/0
  5664 ;;		Unchanged: 0/0
  5665 ;; Data sizes:     COMRAM   BANK0   BANK1   BANK2   BANK3   BANK4   BANK5   BANK6   BANK7
  5666 ;;      Params:         0       0       0       0       0       0       0       0       0
  5667 ;;      Locals:         2       0       0       0       0       0       0       0       0
  5668 ;;      Temps:          2       0       0       0       0       0       0       0       0
  5669 ;;      Totals:         4       0       0       0       0       0       0       0       0
  5670 ;;Total ram usage:        4 bytes
  5671 ;; Hardware stack levels used: 1
  5672 ;; This function calls:
  5673 ;;		Nothing
  5674 ;; This function is called by:
  5675 ;;		_USBCheckStdRequest
  5676 ;; This function uses a non-reentrant model
  5677 ;;
  5678                           
  5679                           	psect	text34
  5680  001E00                     __ptext34:
  5681                           	callstack 0
  5682  001E00                     _USBStdGetStatusHandler:
  5683                           	callstack 22
  5684  001E00                     
  5685                           ;mcc_generated_files/usb/usb_device.c: 2135:     CtrlTrfData[0] = 0;
  5686  001E00  0E00               	movlw	0
  5687  001E02  0104               	movlb	4	; () banked
  5688  001E04  6F38               	movwf	56,b	;volatile
  5689                           
  5690                           ;mcc_generated_files/usb/usb_device.c: 2136:     CtrlTrfData[1] = 0;
  5691  001E06  0E00               	movlw	0
  5692  001E08  6F39               	movwf	57,b	;volatile
  5693                           
  5694                           ;mcc_generated_files/usb/usb_device.c: 2138:     switch(SetupPkt.Recipient)
  5695  001E0A  EF5D  F00F         	goto	i2l3879
  5696  001E0E                     i2l284:
  5697                           
  5698                           ; BSR set to: 4
  5699                           ;mcc_generated_files/usb/usb_device.c: 2141:             inPipes[0].info.bits.busy = 1;
  5700  001E0E  0100               	movlb	0	; () banked
  5701  001E10  8F75               	bsf	(_inPipes+3)& (0+255),7,b	;volatile
  5702  001E12                     
  5703                           ; BSR set to: 0
  5704                           ;mcc_generated_files/usb/usb_device.c: 2151:             if(RemoteWakeup == 1)
  5705  001E12  044B               	decf	_RemoteWakeup^0,w,c	;volatile
  5706  001E14  A4D8               	btfss	status,2,c
  5707  001E16  EF0F  F00F         	goto	i2u223_41
  5708  001E1A  EF11  F00F         	goto	i2u223_40
  5709  001E1E                     i2u223_41:
  5710  001E1E  EF77  F00F         	goto	i2l287
  5711  001E22                     i2u223_40:
  5712  001E22                     
  5713                           ; BSR set to: 0
  5714                           ;mcc_generated_files/usb/usb_device.c: 2152:             {;mcc_generated_files/usb/usb_d
      +                          evice.c: 2153:                 CtrlTrfData[0]|=0x02;
  5715  001E22  0104               	movlb	4	; () banked
  5716  001E24  8338               	bsf	56,1,b	;volatile
  5717  001E26  EF77  F00F         	goto	i2l287
  5718  001E2A                     i2l288:
  5719                           
  5720                           ; BSR set to: 4
  5721                           ;mcc_generated_files/usb/usb_device.c: 2157:             inPipes[0].info.bits.busy = 1;
  5722  001E2A  0100               	movlb	0	; () banked
  5723  001E2C  8F75               	bsf	(_inPipes+3)& (0+255),7,b	;volatile
  5724                           
  5725                           ;mcc_generated_files/usb/usb_device.c: 2158:             break;
  5726  001E2E  EF77  F00F         	goto	i2l287
  5727  001E32                     i2l289:
  5728                           
  5729                           ; BSR set to: 4
  5730                           ;mcc_generated_files/usb/usb_device.c: 2160:             inPipes[0].info.bits.busy = 1;
  5731  001E32  0100               	movlb	0	; () banked
  5732  001E34  8F75               	bsf	(_inPipes+3)& (0+255),7,b	;volatile
  5733                           
  5734                           ;mcc_generated_files/usb/usb_device.c: 2164:             {;mcc_generated_files/usb/usb_d
      +                          evice.c: 2165:                 BDT_ENTRY *p;;mcc_generated_files/usb/usb_device.c: 2167:
      +                                           if(SetupPkt.EPDir == 0)
  5735  001E36  0104               	movlb	4	; () banked
  5736  001E38  BF34               	btfsc	52,7,b	;volatile
  5737  001E3A  EF21  F00F         	goto	i2u224_41
  5738  001E3E  EF23  F00F         	goto	i2u224_40
  5739  001E42                     i2u224_41:
  5740  001E42  EF34  F00F         	goto	i2l3869
  5741  001E46                     i2u224_40:
  5742  001E46                     
  5743                           ; BSR set to: 4
  5744                           ;mcc_generated_files/usb/usb_device.c: 2168:                 {;mcc_generated_files/usb/u
      +                          sb_device.c: 2169:                     p = (BDT_ENTRY*)pBDTEntryOut[SetupPkt.EPNum];
  5745  001E46  5134               	movf	52,w,b	;volatile
  5746  001E48  0B0F               	andlw	15
  5747  001E4A  6E01               	movwf	??_USBStdGetStatusHandler^0,c
  5748  001E4C  5001               	movf	??_USBStdGetStatusHandler^0,w,c
  5749  001E4E  0D02               	mullw	2
  5750  001E50  0E7E               	movlw	low _pBDTEntryOut
  5751  001E52  24F3               	addwf	243,w,c
  5752  001E54  6ED9               	movwf	fsr2l,c
  5753  001E56  0E00               	movlw	high _pBDTEntryOut
  5754  001E58  20F4               	addwfc	prodh,w,c
  5755  001E5A  6EDA               	movwf	fsr2h,c
  5756  001E5C  CFDE F003          	movff	postinc2,USBStdGetStatusHandler@p
  5757  001E60  CFDD F004          	movff	postdec2,USBStdGetStatusHandler@p+1
  5758                           
  5759                           ;mcc_generated_files/usb/usb_device.c: 2170:                 }
  5760  001E64  EF43  F00F         	goto	i2l3871
  5761  001E68                     i2l3869:
  5762                           
  5763                           ; BSR set to: 4
  5764                           ;mcc_generated_files/usb/usb_device.c: 2172:                 {;mcc_generated_files/usb/u
      +                          sb_device.c: 2173:                     p = (BDT_ENTRY*)pBDTEntryIn[SetupPkt.EPNum];
  5765  001E68  5134               	movf	52,w,b	;volatile
  5766  001E6A  0B0F               	andlw	15
  5767  001E6C  6E01               	movwf	??_USBStdGetStatusHandler^0,c
  5768  001E6E  5001               	movf	??_USBStdGetStatusHandler^0,w,c
  5769  001E70  0D02               	mullw	2
  5770  001E72  0E78               	movlw	low _pBDTEntryIn
  5771  001E74  24F3               	addwf	243,w,c
  5772  001E76  6ED9               	movwf	fsr2l,c
  5773  001E78  0E00               	movlw	high _pBDTEntryIn
  5774  001E7A  20F4               	addwfc	prodh,w,c
  5775  001E7C  6EDA               	movwf	fsr2h,c
  5776  001E7E  CFDE F003          	movff	postinc2,USBStdGetStatusHandler@p
  5777  001E82  CFDD F004          	movff	postdec2,USBStdGetStatusHandler@p+1
  5778  001E86                     i2l3871:
  5779                           
  5780                           ; BSR set to: 4
  5781                           ;mcc_generated_files/usb/usb_device.c: 2176:                 if((p->STAT.UOWN == 1) && (
      +                          p->STAT.BSTALL == 1))
  5782  001E86  C003  FFD9         	movff	USBStdGetStatusHandler@p,fsr2l
  5783  001E8A  C004  FFDA         	movff	USBStdGetStatusHandler@p+1,fsr2h
  5784  001E8E  AEDF               	btfss	indf2,7,c
  5785  001E90  EF4C  F00F         	goto	i2u225_41
  5786  001E94  EF4E  F00F         	goto	i2u225_40
  5787  001E98                     i2u225_41:
  5788  001E98  EF77  F00F         	goto	i2l287
  5789  001E9C                     i2u225_40:
  5790  001E9C                     
  5791                           ; BSR set to: 4
  5792  001E9C  C003  FFD9         	movff	USBStdGetStatusHandler@p,fsr2l
  5793  001EA0  C004  FFDA         	movff	USBStdGetStatusHandler@p+1,fsr2h
  5794  001EA4  A4DF               	btfss	indf2,2,c
  5795  001EA6  EF57  F00F         	goto	i2u226_41
  5796  001EAA  EF59  F00F         	goto	i2u226_40
  5797  001EAE                     i2u226_41:
  5798  001EAE  EF77  F00F         	goto	i2l287
  5799  001EB2                     i2u226_40:
  5800  001EB2                     
  5801                           ; BSR set to: 4
  5802                           ;mcc_generated_files/usb/usb_device.c: 2177:                     CtrlTrfData[0]=0x01;
  5803  001EB2  0E01               	movlw	1
  5804  001EB4  6F38               	movwf	56,b	;volatile
  5805  001EB6  EF77  F00F         	goto	i2l287
  5806  001EBA                     i2l3879:
  5807                           
  5808                           ; BSR set to: 4
  5809  001EBA  5130               	movf	48,w,b	;volatile
  5810  001EBC  0B1F               	andlw	31
  5811  001EBE  6E01               	movwf	??_USBStdGetStatusHandler^0,c
  5812  001EC0  6A02               	clrf	(??_USBStdGetStatusHandler+1)^0,c
  5813                           
  5814                           ; Switch on 2 bytes has been partitioned into a top level switch of size 1, and 1 sub-sw
      +                          itches
  5815                           ; Switch size 1, requested type "simple"
  5816                           ; Number of cases is 1, Range of values is 0 to 0
  5817                           ; switch strategies available:
  5818                           ; Name         Instructions Cycles
  5819                           ; simple_byte            4     3 (average)
  5820                           ;	Chosen strategy is simple_byte
  5821  001EC2  5002               	movf	(??_USBStdGetStatusHandler+1)^0,w,c
  5822  001EC4  0A00               	xorlw	0	; case 0
  5823  001EC6  B4D8               	btfsc	status,2,c
  5824  001EC8  EF68  F00F         	goto	i2l5567
  5825  001ECC  EF77  F00F         	goto	i2l287
  5826  001ED0                     i2l5567:
  5827                           
  5828                           ; BSR set to: 4
  5829                           ; Switch size 1, requested type "simple"
  5830                           ; Number of cases is 3, Range of values is 0 to 2
  5831                           ; switch strategies available:
  5832                           ; Name         Instructions Cycles
  5833                           ; simple_byte           10     6 (average)
  5834                           ;	Chosen strategy is simple_byte
  5835  001ED0  5001               	movf	??_USBStdGetStatusHandler^0,w,c
  5836  001ED2  0A00               	xorlw	0	; case 0
  5837  001ED4  B4D8               	btfsc	status,2,c
  5838  001ED6  EF07  F00F         	goto	i2l284
  5839  001EDA  0A01               	xorlw	1	; case 1
  5840  001EDC  B4D8               	btfsc	status,2,c
  5841  001EDE  EF15  F00F         	goto	i2l288
  5842  001EE2  0A03               	xorlw	3	; case 2
  5843  001EE4  B4D8               	btfsc	status,2,c
  5844  001EE6  EF19  F00F         	goto	i2l289
  5845  001EEA  EF77  F00F         	goto	i2l287
  5846  001EEE                     i2l287:
  5847                           
  5848                           ;mcc_generated_files/usb/usb_device.c: 2182:     if(inPipes[0].info.bits.busy == 1)
  5849  001EEE  0100               	movlb	0	; () banked
  5850  001EF0  AF75               	btfss	(_inPipes+3)& (0+255),7,b	;volatile
  5851  001EF2  EF7D  F00F         	goto	i2u227_41
  5852  001EF6  EF7F  F00F         	goto	i2u227_40
  5853  001EFA                     i2u227_41:
  5854  001EFA  EF86  F00F         	goto	i2l294
  5855  001EFE                     i2u227_40:
  5856  001EFE                     
  5857                           ; BSR set to: 0
  5858                           ;mcc_generated_files/usb/usb_device.c: 2183:     {;mcc_generated_files/usb/usb_device.c:
      +                           2184:         inPipes[0].pSrc.bRam = (uint8_t*)&CtrlTrfData;
  5859  001EFE  0E38               	movlw	56
  5860  001F00  6F72               	movwf	_inPipes& (0+255),b	;volatile
  5861  001F02  0E04               	movlw	4
  5862  001F04  6F73               	movwf	(_inPipes+1)& (0+255),b	;volatile
  5863  001F06                     
  5864                           ; BSR set to: 0
  5865                           ;mcc_generated_files/usb/usb_device.c: 2185:         inPipes[0].info.bits.ctrl_trf_mem =
      +                           0x01;
  5866  001F06  8175               	bsf	(_inPipes+3)& (0+255),0,b	;volatile
  5867  001F08                     
  5868                           ; BSR set to: 0
  5869                           ;mcc_generated_files/usb/usb_device.c: 2186:         inPipes[0].wCount.v[0] = 2;
  5870  001F08  0E02               	movlw	2
  5871  001F0A  6F76               	movwf	(_inPipes+4)& (0+255),b	;volatile
  5872  001F0C                     i2l294:
  5873                           
  5874                           ; BSR set to: 0
  5875  001F0C  0012               	return		;funcret
  5876  001F0E                     __end_of_USBStdGetStatusHandler:
  5877                           	callstack 0
  5878                           
  5879 ;; *************** function _USBStdGetDscHandler *****************
  5880 ;; Defined at:
  5881 ;;		line 2047 in file "mcc_generated_files/usb/usb_device.c"
  5882 ;; Parameters:    Size  Location     Type
  5883 ;;		None
  5884 ;; Auto vars:     Size  Location     Type
  5885 ;;		None
  5886 ;; Return value:  Size  Location     Type
  5887 ;;                  1    wreg      void 
  5888 ;; Registers used:
  5889 ;;		wreg, fsr0l, fsr0h, status,2, status,0, tblptrl, tblptrh, tblptru, prodl, prodh
  5890 ;; Tracked objects:
  5891 ;;		On entry : 0/0
  5892 ;;		On exit  : 0/0
  5893 ;;		Unchanged: 0/0
  5894 ;; Data sizes:     COMRAM   BANK0   BANK1   BANK2   BANK3   BANK4   BANK5   BANK6   BANK7
  5895 ;;      Params:         0       0       0       0       0       0       0       0       0
  5896 ;;      Locals:         0       0       0       0       0       0       0       0       0
  5897 ;;      Temps:          2       0       0       0       0       0       0       0       0
  5898 ;;      Totals:         2       0       0       0       0       0       0       0       0
  5899 ;;Total ram usage:        2 bytes
  5900 ;; Hardware stack levels used: 1
  5901 ;; This function calls:
  5902 ;;		Nothing
  5903 ;; This function is called by:
  5904 ;;		_USBCheckStdRequest
  5905 ;; This function uses a non-reentrant model
  5906 ;;
  5907                           
  5908                           	psect	text35
  5909  0012B8                     __ptext35:
  5910                           	callstack 0
  5911  0012B8                     _USBStdGetDscHandler:
  5912                           	callstack 22
  5913  0012B8                     
  5914                           ;mcc_generated_files/usb/usb_device.c: 2049:     if(SetupPkt.bmRequestType == 0x80)
  5915  0012B8  0E80               	movlw	128
  5916  0012BA  0104               	movlb	4	; () banked
  5917  0012BC  1930               	xorwf	48,w,b	;volatile
  5918  0012BE  A4D8               	btfss	status,2,c
  5919  0012C0  EF64  F009         	goto	i2u217_41
  5920  0012C4  EF66  F009         	goto	i2u217_40
  5921  0012C8                     i2u217_41:
  5922  0012C8  EF15  F00A         	goto	i2l280
  5923  0012CC                     i2u217_40:
  5924  0012CC                     
  5925                           ; BSR set to: 4
  5926                           ;mcc_generated_files/usb/usb_device.c: 2050:     {;mcc_generated_files/usb/usb_device.c:
      +                           2051:         inPipes[0].info.Val = 0x00 | 0x80 | 0x40;
  5927  0012CC  0EC0               	movlw	192
  5928  0012CE  0100               	movlb	0	; () banked
  5929  0012D0  6F75               	movwf	(_inPipes+3)& (0+255),b	;volatile
  5930                           
  5931                           ;mcc_generated_files/usb/usb_device.c: 2053:         switch(SetupPkt.bDescriptorType)
  5932  0012D2  EFFB  F009         	goto	i2l3853
  5933  0012D6                     i2l3827:
  5934                           
  5935                           ; BSR set to: 4
  5936                           ;mcc_generated_files/usb/usb_device.c: 2059:                     inPipes[0].pSrc.bRom = 
      +                          (const uint8_t*)&device_dsc;
  5937  0012D6  0E96               	movlw	low _device_dsc
  5938  0012D8  0100               	movlb	0	; () banked
  5939  0012DA  6F72               	movwf	_inPipes& (0+255),b	;volatile
  5940  0012DC  0E08               	movlw	high _device_dsc
  5941  0012DE  6F73               	movwf	(_inPipes+1)& (0+255),b	;volatile
  5942  0012E0                     
  5943                           ; BSR set to: 0
  5944                           ;mcc_generated_files/usb/usb_device.c: 2061:                 inPipes[0].wCount.Val = siz
      +                          eof(device_dsc);
  5945  0012E0  0E00               	movlw	0
  5946  0012E2  6F77               	movwf	(_inPipes+5)& (0+255),b	;volatile
  5947  0012E4  0E12               	movlw	18
  5948  0012E6  6F76               	movwf	(_inPipes+4)& (0+255),b	;volatile
  5949                           
  5950                           ;mcc_generated_files/usb/usb_device.c: 2062:                 break;
  5951  0012E8  EF15  F00A         	goto	i2l280
  5952  0012EC                     i2l3831:
  5953                           
  5954                           ; BSR set to: 4
  5955                           ;mcc_generated_files/usb/usb_device.c: 2067:                 if(SetupPkt.bDscIndex < 1)
  5956  0012EC  5132               	movf	50,w,b	;volatile
  5957  0012EE  A4D8               	btfss	status,2,c
  5958  0012F0  EF7C  F009         	goto	i2u218_41
  5959  0012F4  EF7E  F009         	goto	i2u218_40
  5960  0012F8                     i2u218_41:
  5961  0012F8  EFBF  F009         	goto	i2l3839
  5962  0012FC                     i2u218_40:
  5963  0012FC                     
  5964                           ; BSR set to: 4
  5965                           ;mcc_generated_files/usb/usb_device.c: 2068:                 {;mcc_generated_files/usb/u
      +                          sb_device.c: 2072:                         inPipes[0].pSrc.bRom = *(USB_CD_Ptr+SetupPkt.
      +                          bDscIndex);
  5966  0012FC  5132               	movf	50,w,b	;volatile
  5967  0012FE  0D02               	mullw	2
  5968  001300  0E07               	movlw	low _USB_CD_Ptr
  5969  001302  24F3               	addwf	243,w,c
  5970  001304  6EF6               	movwf	tblptrl,c
  5971  001306  0E08               	movlw	high _USB_CD_Ptr
  5972  001308  20F4               	addwfc	244,w,c
  5973  00130A  6EF7               	movwf	tblptrh,c
  5974  00130C                     	if	0	;There are less than 3 active tblptr bytes
  5975  00130C                     	endif
  5976  00130C  0009               	tblrd		*+
  5977  00130E  CFF5 F072          	movff	tablat,_inPipes	;volatile
  5978  001312  000A               	tblrd		*-
  5979  001314  CFF5 F073          	movff	tablat,_inPipes+1	;volatile
  5980  001318                     
  5981                           ; BSR set to: 4
  5982                           ;mcc_generated_files/usb/usb_device.c: 2078:                     inPipes[0].wCount.byte.
      +                          LB = *(inPipes[0].pSrc.bRom+2);
  5983  001318  0E02               	movlw	2
  5984  00131A  0100               	movlb	0	; () banked
  5985  00131C  2572               	addwf	_inPipes& (0+255),w,b	;volatile
  5986  00131E  6E01               	movwf	??_USBStdGetDscHandler^0,c
  5987  001320  0E00               	movlw	0
  5988  001322  2173               	addwfc	(_inPipes+1)& (0+255),w,b	;volatile
  5989  001324  6E02               	movwf	(??_USBStdGetDscHandler+1)^0,c
  5990  001326  C001  FFF6         	movff	??_USBStdGetDscHandler,tblptrl
  5991  00132A  C002  FFF7         	movff	??_USBStdGetDscHandler+1,tblptrh
  5992  00132E  6AF8               	clrf	tblptru,c
  5993  001330  0E07               	movlw	(high __ramtop+-1)
  5994  001332  64F7               	cpfsgt	tblptrh,c
  5995  001334  D003               	bra	i2u219_47
  5996  001336  0008               	tblrd		*
  5997  001338  50F5               	movf	tablat,w,c
  5998  00133A  D005               	bra	i2u219_40
  5999  00133C                     i2u219_47:
  6000  00133C  CFF6 FFE9          	movff	tblptrl,fsr0l
  6001  001340  CFF7 FFEA          	movff	tblptrh,fsr0h
  6002  001344  50EF               	movf	indf0,w,c
  6003  001346                     i2u219_40:
  6004  001346  0100               	movlb	0	; () banked
  6005  001348  6F76               	movwf	(_inPipes+4)& (0+255),b	;volatile
  6006  00134A                     
  6007                           ; BSR set to: 0
  6008                           ;mcc_generated_files/usb/usb_device.c: 2079:                     inPipes[0].wCount.byte.
      +                          HB = *(inPipes[0].pSrc.bRom+3);
  6009  00134A  0E03               	movlw	3
  6010  00134C  2572               	addwf	_inPipes& (0+255),w,b	;volatile
  6011  00134E  6E01               	movwf	??_USBStdGetDscHandler^0,c
  6012  001350  0E00               	movlw	0
  6013  001352  2173               	addwfc	(_inPipes+1)& (0+255),w,b	;volatile
  6014  001354  6E02               	movwf	(??_USBStdGetDscHandler+1)^0,c
  6015  001356  C001  FFF6         	movff	??_USBStdGetDscHandler,tblptrl
  6016  00135A  C002  FFF7         	movff	??_USBStdGetDscHandler+1,tblptrh
  6017  00135E  6AF8               	clrf	tblptru,c
  6018  001360  0E07               	movlw	(high __ramtop+-1)
  6019  001362  64F7               	cpfsgt	tblptrh,c
  6020  001364  D003               	bra	i2u220_47
  6021  001366  0008               	tblrd		*
  6022  001368  50F5               	movf	tablat,w,c
  6023  00136A  D005               	bra	i2u220_40
  6024  00136C                     i2u220_47:
  6025  00136C  CFF6 FFE9          	movff	tblptrl,fsr0l
  6026  001370  CFF7 FFEA          	movff	tblptrh,fsr0h
  6027  001374  50EF               	movf	indf0,w,c
  6028  001376                     i2u220_40:
  6029  001376  0100               	movlb	0	; () banked
  6030  001378  6F77               	movwf	(_inPipes+5)& (0+255),b	;volatile
  6031                           
  6032                           ;mcc_generated_files/usb/usb_device.c: 2080:                 }
  6033  00137A  EF15  F00A         	goto	i2l280
  6034  00137E                     i2l3839:
  6035                           
  6036                           ; BSR set to: 4
  6037                           ;mcc_generated_files/usb/usb_device.c: 2082:     {;mcc_generated_files/usb/usb_device.c:
      +                           2083:      inPipes[0].info.Val = 0;
  6038  00137E  0E00               	movlw	0
  6039  001380  0100               	movlb	0	; () banked
  6040  001382  6F75               	movwf	(_inPipes+3)& (0+255),b	;volatile
  6041  001384  EF15  F00A         	goto	i2l280
  6042  001388                     i2l3841:
  6043                           
  6044                           ; BSR set to: 4
  6045                           ;mcc_generated_files/usb/usb_device.c: 2090:                 if(SetupPkt.bDscIndex<3)
  6046  001388  0E03               	movlw	3
  6047  00138A  6132               	cpfslt	50,b	;volatile
  6048  00138C  EFCA  F009         	goto	i2u221_41
  6049  001390  EFCC  F009         	goto	i2u221_40
  6050  001394                     i2u221_41:
  6051  001394  EFF1  F009         	goto	i2l3847
  6052  001398                     i2u221_40:
  6053  001398                     
  6054                           ; BSR set to: 4
  6055                           ;mcc_generated_files/usb/usb_device.c: 2091:                 {;mcc_generated_files/usb/u
      +                          sb_device.c: 2093:                     inPipes[0].pSrc.bRom = *(USB_SD_Ptr+SetupPkt.bDsc
      +                          Index);
  6056  001398  5132               	movf	50,w,b	;volatile
  6057  00139A  0D02               	mullw	2
  6058  00139C  0E01               	movlw	low _USB_SD_Ptr
  6059  00139E  24F3               	addwf	243,w,c
  6060  0013A0  6EF6               	movwf	tblptrl,c
  6061  0013A2  0E08               	movlw	high _USB_SD_Ptr
  6062  0013A4  20F4               	addwfc	244,w,c
  6063  0013A6  6EF7               	movwf	tblptrh,c
  6064  0013A8                     	if	0	;There are less than 3 active tblptr bytes
  6065  0013A8                     	endif
  6066  0013A8  0009               	tblrd		*+
  6067  0013AA  CFF5 F072          	movff	tablat,_inPipes	;volatile
  6068  0013AE  000A               	tblrd		*-
  6069  0013B0  CFF5 F073          	movff	tablat,_inPipes+1	;volatile
  6070  0013B4                     
  6071                           ; BSR set to: 4
  6072                           ;mcc_generated_files/usb/usb_device.c: 2095:                     inPipes[0].wCount.Val =
      +                           *inPipes[0].pSrc.bRom;
  6073  0013B4  C072  FFF6         	movff	_inPipes,tblptrl	;volatile
  6074  0013B8  C073  FFF7         	movff	_inPipes+1,tblptrh	;volatile
  6075  0013BC  6AF8               	clrf	tblptru,c
  6076  0013BE  0E07               	movlw	(high __ramtop+-1)
  6077  0013C0  64F7               	cpfsgt	tblptrh,c
  6078  0013C2  D003               	bra	i2u222_47
  6079  0013C4  0008               	tblrd		*
  6080  0013C6  50F5               	movf	tablat,w,c
  6081  0013C8  D005               	bra	i2u222_40
  6082  0013CA                     i2u222_47:
  6083  0013CA  CFF6 FFE9          	movff	tblptrl,fsr0l
  6084  0013CE  CFF7 FFEA          	movff	tblptrh,fsr0h
  6085  0013D2  50EF               	movf	indf0,w,c
  6086  0013D4                     i2u222_40:
  6087  0013D4  6E01               	movwf	??_USBStdGetDscHandler^0,c
  6088  0013D6  5001               	movf	??_USBStdGetDscHandler^0,w,c
  6089  0013D8  0100               	movlb	0	; () banked
  6090  0013DA  6F76               	movwf	(_inPipes+4)& (0+255),b	;volatile
  6091  0013DC  6B77               	clrf	(_inPipes+5)& (0+255),b	;volatile
  6092                           
  6093                           ;mcc_generated_files/usb/usb_device.c: 2096:                 }
  6094  0013DE  EF15  F00A         	goto	i2l280
  6095  0013E2                     i2l3847:
  6096                           
  6097                           ; BSR set to: 4
  6098                           ;mcc_generated_files/usb/usb_device.c: 2107:                 {;mcc_generated_files/usb/u
      +                          sb_device.c: 2108:                     inPipes[0].info.Val = 0;
  6099  0013E2  0E00               	movlw	0
  6100  0013E4  0100               	movlb	0	; () banked
  6101  0013E6  6F75               	movwf	(_inPipes+3)& (0+255),b	;volatile
  6102  0013E8  EF15  F00A         	goto	i2l280
  6103  0013EC                     i2l3849:
  6104                           
  6105                           ; BSR set to: 4
  6106                           ;mcc_generated_files/usb/usb_device.c: 2112:                 inPipes[0].info.Val = 0;
  6107  0013EC  0E00               	movlw	0
  6108  0013EE  0100               	movlb	0	; () banked
  6109  0013F0  6F75               	movwf	(_inPipes+3)& (0+255),b	;volatile
  6110                           
  6111                           ;mcc_generated_files/usb/usb_device.c: 2113:                 break;
  6112  0013F2  EF15  F00A         	goto	i2l280
  6113  0013F6                     i2l3853:
  6114                           
  6115                           ; BSR set to: 0
  6116  0013F6  0104               	movlb	4	; () banked
  6117  0013F8  5133               	movf	51,w,b	;volatile
  6118  0013FA  6E01               	movwf	??_USBStdGetDscHandler^0,c
  6119  0013FC  6A02               	clrf	(??_USBStdGetDscHandler+1)^0,c
  6120                           
  6121                           ; Switch on 2 bytes has been partitioned into a top level switch of size 1, and 1 sub-sw
      +                          itches
  6122                           ; Switch size 1, requested type "simple"
  6123                           ; Number of cases is 1, Range of values is 0 to 0
  6124                           ; switch strategies available:
  6125                           ; Name         Instructions Cycles
  6126                           ; simple_byte            4     3 (average)
  6127                           ;	Chosen strategy is simple_byte
  6128  0013FE  5002               	movf	(??_USBStdGetDscHandler+1)^0,w,c
  6129  001400  0A00               	xorlw	0	; case 0
  6130  001402  B4D8               	btfsc	status,2,c
  6131  001404  EF06  F00A         	goto	i2l5569
  6132  001408  EFF6  F009         	goto	i2l3849
  6133  00140C                     i2l5569:
  6134                           
  6135                           ; BSR set to: 4
  6136                           ; Switch size 1, requested type "simple"
  6137                           ; Number of cases is 3, Range of values is 1 to 3
  6138                           ; switch strategies available:
  6139                           ; Name         Instructions Cycles
  6140                           ; simple_byte           10     6 (average)
  6141                           ;	Chosen strategy is simple_byte
  6142  00140C  5001               	movf	??_USBStdGetDscHandler^0,w,c
  6143  00140E  0A01               	xorlw	1	; case 1
  6144  001410  B4D8               	btfsc	status,2,c
  6145  001412  EF6B  F009         	goto	i2l3827
  6146  001416  0A03               	xorlw	3	; case 2
  6147  001418  B4D8               	btfsc	status,2,c
  6148  00141A  EF76  F009         	goto	i2l3831
  6149  00141E  0A01               	xorlw	1	; case 3
  6150  001420  B4D8               	btfsc	status,2,c
  6151  001422  EFC4  F009         	goto	i2l3841
  6152  001426  EFF6  F009         	goto	i2l3849
  6153  00142A                     i2l280:
  6154  00142A  0012               	return		;funcret
  6155  00142C                     __end_of_USBStdGetDscHandler:
  6156                           	callstack 0
  6157                           
  6158 ;; *************** function _USBStdFeatureReqHandler *****************
  6159 ;; Defined at:
  6160 ;;		line 2758 in file "mcc_generated_files/usb/usb_device.c"
  6161 ;; Parameters:    Size  Location     Type
  6162 ;;		None
  6163 ;; Auto vars:     Size  Location     Type
  6164 ;;  p               2   25[COMRAM] PTR struct __BDT
  6165 ;;		 -> RAM(2047), NULL(0), BDT(48), 
  6166 ;;  pUEP            2   22[COMRAM] PTR unsigned char 
  6167 ;;		 -> UEP0(1), 
  6168 ;;  current_ep_d    1   24[COMRAM] struct .
  6169 ;; Return value:  Size  Location     Type
  6170 ;;                  1    wreg      void 
  6171 ;; Registers used:
  6172 ;;		wreg, fsr2l, fsr2h, status,2, status,0, prodl, prodh, cstack
  6173 ;; Tracked objects:
  6174 ;;		On entry : 0/0
  6175 ;;		On exit  : 0/0
  6176 ;;		Unchanged: 0/0
  6177 ;; Data sizes:     COMRAM   BANK0   BANK1   BANK2   BANK3   BANK4   BANK5   BANK6   BANK7
  6178 ;;      Params:         0       0       0       0       0       0       0       0       0
  6179 ;;      Locals:         5       0       0       0       0       0       0       0       0
  6180 ;;      Temps:          2       0       0       0       0       0       0       0       0
  6181 ;;      Totals:         7       0       0       0       0       0       0       0       0
  6182 ;;Total ram usage:        7 bytes
  6183 ;; Hardware stack levels used: 1
  6184 ;; Hardware stack levels required when called: 4
  6185 ;; This function calls:
  6186 ;;		_USER_USB_CALLBACK_EVENT_HANDLER
  6187 ;; This function is called by:
  6188 ;;		_USBCheckStdRequest
  6189 ;; This function uses a non-reentrant model
  6190 ;;
  6191                           
  6192                           	psect	text36
  6193  0008AE                     __ptext36:
  6194                           	callstack 0
  6195  0008AE                     _USBStdFeatureReqHandler:
  6196                           	callstack 18
  6197  0008AE                     
  6198                           ;mcc_generated_files/usb/usb_device.c: 2760:     BDT_ENTRY *p;;mcc_generated_files/usb/u
      +                          sb_device.c: 2761:     EP_STATUS current_ep_data;;mcc_generated_files/usb/usb_device.c: 
      +                          2765:         unsigned char* pUEP;;mcc_generated_files/usb/usb_device.c: 2803:     if((S
      +                          etupPkt.bFeature == 1)&&
  6199  0008AE  0104               	movlb	4	; () banked
  6200  0008B0  0532               	decf	50,w,b	;volatile
  6201  0008B2  A4D8               	btfss	status,2,c
  6202  0008B4  EF5E  F004         	goto	i2u228_41
  6203  0008B8  EF60  F004         	goto	i2u228_40
  6204  0008BC                     i2u228_41:
  6205  0008BC  EF7C  F004         	goto	i2l361
  6206  0008C0                     i2u228_40:
  6207  0008C0                     
  6208                           ; BSR set to: 4
  6209  0008C0  5130               	movf	48,w,b	;volatile
  6210  0008C2  0B1F               	andlw	31
  6211  0008C4  0900               	iorlw	0
  6212  0008C6  A4D8               	btfss	status,2,c
  6213  0008C8  EF68  F004         	goto	i2u229_41
  6214  0008CC  EF6A  F004         	goto	i2u229_40
  6215  0008D0                     i2u229_41:
  6216  0008D0  EF7C  F004         	goto	i2l361
  6217  0008D4                     i2u229_40:
  6218  0008D4                     
  6219                           ; BSR set to: 4
  6220                           ;mcc_generated_files/usb/usb_device.c: 2805:     {;mcc_generated_files/usb/usb_device.c:
      +                           2806:         inPipes[0].info.bits.busy = 1;
  6221  0008D4  0100               	movlb	0	; () banked
  6222  0008D6  8F75               	bsf	(_inPipes+3)& (0+255),7,b	;volatile
  6223  0008D8                     
  6224                           ; BSR set to: 0
  6225                           ;mcc_generated_files/usb/usb_device.c: 2807:         if(SetupPkt.bRequest == 3)
  6226  0008D8  0E03               	movlw	3
  6227  0008DA  0104               	movlb	4	; () banked
  6228  0008DC  1931               	xorwf	49,w,b	;volatile
  6229  0008DE  A4D8               	btfss	status,2,c
  6230  0008E0  EF74  F004         	goto	i2u230_41
  6231  0008E4  EF76  F004         	goto	i2u230_40
  6232  0008E8                     i2u230_41:
  6233  0008E8  EF7A  F004         	goto	i2l3901
  6234  0008EC                     i2u230_40:
  6235  0008EC                     
  6236                           ; BSR set to: 4
  6237                           ;mcc_generated_files/usb/usb_device.c: 2808:             RemoteWakeup = 1;
  6238  0008EC  0E01               	movlw	1
  6239  0008EE  6E4B               	movwf	_RemoteWakeup^0,c	;volatile
  6240  0008F0  EF7C  F004         	goto	i2l361
  6241  0008F4                     i2l3901:
  6242                           
  6243                           ; BSR set to: 4
  6244                           ;mcc_generated_files/usb/usb_device.c: 2810:             RemoteWakeup = 0;
  6245  0008F4  0E00               	movlw	0
  6246  0008F6  6E4B               	movwf	_RemoteWakeup^0,c	;volatile
  6247  0008F8                     i2l361:
  6248                           
  6249                           ; BSR set to: 4
  6250                           ;mcc_generated_files/usb/usb_device.c: 2814:     if((SetupPkt.bFeature == 0)&&
  6251  0008F8  5132               	movf	50,w,b	;volatile
  6252  0008FA  A4D8               	btfss	status,2,c
  6253  0008FC  EF82  F004         	goto	i2u231_41
  6254  000900  EF84  F004         	goto	i2u231_40
  6255  000904                     i2u231_41:
  6256  000904  EF04  F006         	goto	i2l384
  6257  000908                     i2u231_40:
  6258  000908                     
  6259                           ; BSR set to: 4
  6260  000908  5130               	movf	48,w,b	;volatile
  6261  00090A  0B1F               	andlw	31
  6262  00090C  0A02               	xorlw	2
  6263  00090E  A4D8               	btfss	status,2,c
  6264  000910  EF8C  F004         	goto	i2u232_41
  6265  000914  EF8E  F004         	goto	i2u232_40
  6266  000918                     i2u232_41:
  6267  000918  EF04  F006         	goto	i2l384
  6268  00091C                     i2u232_40:
  6269  00091C                     
  6270                           ; BSR set to: 4
  6271  00091C  5134               	movf	52,w,b	;volatile
  6272  00091E  0B0F               	andlw	15
  6273  000920  0900               	iorlw	0
  6274  000922  B4D8               	btfsc	status,2,c
  6275  000924  EF96  F004         	goto	i2u233_41
  6276  000928  EF98  F004         	goto	i2u233_40
  6277  00092C                     i2u233_41:
  6278  00092C  EF04  F006         	goto	i2l384
  6279  000930                     i2u233_40:
  6280  000930                     
  6281                           ; BSR set to: 4
  6282  000930  5134               	movf	52,w,b	;volatile
  6283  000932  0B0F               	andlw	15
  6284  000934  6E15               	movwf	??_USBStdFeatureReqHandler^0,c
  6285  000936  0E03               	movlw	3
  6286  000938  6015               	cpfslt	??_USBStdFeatureReqHandler^0,c
  6287  00093A  EFA1  F004         	goto	i2u234_41
  6288  00093E  EFA3  F004         	goto	i2u234_40
  6289  000942                     i2u234_41:
  6290  000942  EF04  F006         	goto	i2l384
  6291  000946                     i2u234_40:
  6292  000946                     
  6293                           ; BSR set to: 4
  6294  000946  0E20               	movlw	32
  6295  000948  184E               	xorwf	_USBDeviceState^0,w,c	;volatile
  6296  00094A  A4D8               	btfss	status,2,c
  6297  00094C  EFAA  F004         	goto	i2u235_41
  6298  000950  EFAC  F004         	goto	i2u235_40
  6299  000954                     i2u235_41:
  6300  000954  EF04  F006         	goto	i2l384
  6301  000958                     i2u235_40:
  6302  000958                     
  6303                           ; BSR set to: 4
  6304                           ;mcc_generated_files/usb/usb_device.c: 2818:     {;mcc_generated_files/usb/usb_device.c:
      +                           2821:   inPipes[0].info.bits.busy = 1;
  6305  000958  0100               	movlb	0	; () banked
  6306  00095A  8F75               	bsf	(_inPipes+3)& (0+255),7,b	;volatile
  6307                           
  6308                           ;mcc_generated_files/usb/usb_device.c: 2824:         if(SetupPkt.EPDir == 0)
  6309  00095C  0104               	movlb	4	; () banked
  6310  00095E  BF34               	btfsc	52,7,b	;volatile
  6311  000960  EFB4  F004         	goto	i2u236_41
  6312  000964  EFB6  F004         	goto	i2u236_40
  6313  000968                     i2u236_41:
  6314  000968  EFD3  F004         	goto	i2l3917
  6315  00096C                     i2u236_40:
  6316  00096C                     
  6317                           ; BSR set to: 4
  6318                           ;mcc_generated_files/usb/usb_device.c: 2825:         {;mcc_generated_files/usb/usb_devic
      +                          e.c: 2826:             p = (BDT_ENTRY*)pBDTEntryOut[SetupPkt.EPNum];
  6319  00096C  5134               	movf	52,w,b	;volatile
  6320  00096E  0B0F               	andlw	15
  6321  000970  6E15               	movwf	??_USBStdFeatureReqHandler^0,c
  6322  000972  5015               	movf	??_USBStdFeatureReqHandler^0,w,c
  6323  000974  0D02               	mullw	2
  6324  000976  0E7E               	movlw	low _pBDTEntryOut
  6325  000978  24F3               	addwf	243,w,c
  6326  00097A  6ED9               	movwf	fsr2l,c
  6327  00097C  0E00               	movlw	high _pBDTEntryOut
  6328  00097E  20F4               	addwfc	prodh,w,c
  6329  000980  6EDA               	movwf	fsr2h,c
  6330  000982  CFDE F01A          	movff	postinc2,USBStdFeatureReqHandler@p
  6331  000986  CFDD F01B          	movff	postdec2,USBStdFeatureReqHandler@p+1
  6332  00098A                     
  6333                           ; BSR set to: 4
  6334                           ;mcc_generated_files/usb/usb_device.c: 2827:             current_ep_data.Val = ep_data_o
      +                          ut[SetupPkt.EPNum].Val;
  6335  00098A  5134               	movf	52,w,b	;volatile
  6336  00098C  0B0F               	andlw	15
  6337  00098E  6E15               	movwf	??_USBStdFeatureReqHandler^0,c
  6338  000990  6A16               	clrf	(??_USBStdFeatureReqHandler+1)^0,c
  6339  000992  0E8A               	movlw	low _ep_data_out
  6340  000994  2415               	addwf	??_USBStdFeatureReqHandler^0,w,c
  6341  000996  6ED9               	movwf	fsr2l,c
  6342  000998  0E00               	movlw	high _ep_data_out
  6343  00099A  2016               	addwfc	(??_USBStdFeatureReqHandler+1)^0,w,c
  6344  00099C  6EDA               	movwf	fsr2h,c
  6345  00099E  50DF               	movf	indf2,w,c
  6346  0009A0  6E19               	movwf	USBStdFeatureReqHandler@current_ep_data^0,c
  6347                           
  6348                           ;mcc_generated_files/usb/usb_device.c: 2828:         }
  6349  0009A2  EFEE  F004         	goto	i2l3921
  6350  0009A6                     i2l3917:
  6351                           
  6352                           ; BSR set to: 4
  6353                           ;mcc_generated_files/usb/usb_device.c: 2830:         {;mcc_generated_files/usb/usb_devic
      +                          e.c: 2831:             p = (BDT_ENTRY*)pBDTEntryIn[SetupPkt.EPNum];
  6354  0009A6  5134               	movf	52,w,b	;volatile
  6355  0009A8  0B0F               	andlw	15
  6356  0009AA  6E15               	movwf	??_USBStdFeatureReqHandler^0,c
  6357  0009AC  5015               	movf	??_USBStdFeatureReqHandler^0,w,c
  6358  0009AE  0D02               	mullw	2
  6359  0009B0  0E78               	movlw	low _pBDTEntryIn
  6360  0009B2  24F3               	addwf	243,w,c
  6361  0009B4  6ED9               	movwf	fsr2l,c
  6362  0009B6  0E00               	movlw	high _pBDTEntryIn
  6363  0009B8  20F4               	addwfc	prodh,w,c
  6364  0009BA  6EDA               	movwf	fsr2h,c
  6365  0009BC  CFDE F01A          	movff	postinc2,USBStdFeatureReqHandler@p
  6366  0009C0  CFDD F01B          	movff	postdec2,USBStdFeatureReqHandler@p+1
  6367  0009C4                     
  6368                           ; BSR set to: 4
  6369                           ;mcc_generated_files/usb/usb_device.c: 2832:             current_ep_data.Val = ep_data_i
      +                          n[SetupPkt.EPNum].Val;
  6370  0009C4  5134               	movf	52,w,b	;volatile
  6371  0009C6  0B0F               	andlw	15
  6372  0009C8  6E15               	movwf	??_USBStdFeatureReqHandler^0,c
  6373  0009CA  6A16               	clrf	(??_USBStdFeatureReqHandler+1)^0,c
  6374  0009CC  0E8D               	movlw	low _ep_data_in
  6375  0009CE  2415               	addwf	??_USBStdFeatureReqHandler^0,w,c
  6376  0009D0  6ED9               	movwf	fsr2l,c
  6377  0009D2  0E00               	movlw	high _ep_data_in
  6378  0009D4  2016               	addwfc	(??_USBStdFeatureReqHandler+1)^0,w,c
  6379  0009D6  6EDA               	movwf	fsr2h,c
  6380  0009D8  50DF               	movf	indf2,w,c
  6381  0009DA  6E19               	movwf	USBStdFeatureReqHandler@current_ep_data^0,c
  6382  0009DC                     i2l3921:
  6383                           
  6384                           ; BSR set to: 4
  6385                           ;mcc_generated_files/usb/usb_device.c: 2839:             if(current_ep_data.bits.ping_po
      +                          ng_state == 0)
  6386  0009DC  B019               	btfsc	USBStdFeatureReqHandler@current_ep_data^0,0,c
  6387  0009DE  EFF3  F004         	goto	i2u237_41
  6388  0009E2  EFF5  F004         	goto	i2u237_40
  6389  0009E6                     i2u237_41:
  6390  0009E6  EFFD  F004         	goto	i2l3925
  6391  0009EA                     i2u237_40:
  6392  0009EA                     
  6393                           ; BSR set to: 4
  6394                           ;mcc_generated_files/usb/usb_device.c: 2840:             {;mcc_generated_files/usb/usb_d
      +                          evice.c: 2841:                 p = (BDT_ENTRY*)(((uint16_t)p) & (~0x0004));
  6395  0009EA  0EFB               	movlw	251
  6396  0009EC  141A               	andwf	USBStdFeatureReqHandler@p^0,w,c
  6397  0009EE  6E1A               	movwf	USBStdFeatureReqHandler@p^0,c
  6398  0009F0  0EFF               	movlw	255
  6399  0009F2  141B               	andwf	(USBStdFeatureReqHandler@p+1)^0,w,c
  6400  0009F4  6E1B               	movwf	(USBStdFeatureReqHandler@p+1)^0,c
  6401                           
  6402                           ;mcc_generated_files/usb/usb_device.c: 2842:             }
  6403  0009F6  EF02  F005         	goto	i2l3927
  6404  0009FA                     i2l3925:
  6405                           
  6406                           ; BSR set to: 4
  6407                           ;mcc_generated_files/usb/usb_device.c: 2844:             {;mcc_generated_files/usb/usb_d
      +                          evice.c: 2845:                 p = (BDT_ENTRY*)(((uint16_t)p) | 0x0004);
  6408  0009FA  0E04               	movlw	4
  6409  0009FC  101A               	iorwf	USBStdFeatureReqHandler@p^0,w,c
  6410  0009FE  6E1A               	movwf	USBStdFeatureReqHandler@p^0,c
  6411  000A00  501B               	movf	(USBStdFeatureReqHandler@p+1)^0,w,c
  6412  000A02  6E1B               	movwf	(USBStdFeatureReqHandler@p+1)^0,c
  6413  000A04                     i2l3927:
  6414                           
  6415                           ; BSR set to: 4
  6416                           ;mcc_generated_files/usb/usb_device.c: 2851:         if(SetupPkt.EPDir == 0)
  6417  000A04  BF34               	btfsc	52,7,b	;volatile
  6418  000A06  EF07  F005         	goto	i2u238_41
  6419  000A0A  EF09  F005         	goto	i2u238_40
  6420  000A0E                     i2u238_41:
  6421  000A0E  EF1A  F005         	goto	i2l3931
  6422  000A12                     i2u238_40:
  6423  000A12                     
  6424                           ; BSR set to: 4
  6425                           ;mcc_generated_files/usb/usb_device.c: 2852:         {;mcc_generated_files/usb/usb_devic
      +                          e.c: 2853:             pBDTEntryOut[SetupPkt.EPNum] = (volatile BDT_ENTRY *)p;
  6426  000A12  5134               	movf	52,w,b	;volatile
  6427  000A14  0B0F               	andlw	15
  6428  000A16  6E15               	movwf	??_USBStdFeatureReqHandler^0,c
  6429  000A18  5015               	movf	??_USBStdFeatureReqHandler^0,w,c
  6430  000A1A  0D02               	mullw	2
  6431  000A1C  0E7E               	movlw	low _pBDTEntryOut
  6432  000A1E  24F3               	addwf	243,w,c
  6433  000A20  6ED9               	movwf	fsr2l,c
  6434  000A22  0E00               	movlw	high _pBDTEntryOut
  6435  000A24  20F4               	addwfc	prodh,w,c
  6436  000A26  6EDA               	movwf	fsr2h,c
  6437  000A28  C01A  FFDE         	movff	USBStdFeatureReqHandler@p,postinc2
  6438  000A2C  C01B  FFDD         	movff	USBStdFeatureReqHandler@p+1,postdec2
  6439                           
  6440                           ;mcc_generated_files/usb/usb_device.c: 2854:         }
  6441  000A30  EF29  F005         	goto	i2l3933
  6442  000A34                     i2l3931:
  6443                           
  6444                           ; BSR set to: 4
  6445                           ;mcc_generated_files/usb/usb_device.c: 2856:         {;mcc_generated_files/usb/usb_devic
      +                          e.c: 2857:             pBDTEntryIn[SetupPkt.EPNum] = (volatile BDT_ENTRY *)p;
  6446  000A34  5134               	movf	52,w,b	;volatile
  6447  000A36  0B0F               	andlw	15
  6448  000A38  6E15               	movwf	??_USBStdFeatureReqHandler^0,c
  6449  000A3A  5015               	movf	??_USBStdFeatureReqHandler^0,w,c
  6450  000A3C  0D02               	mullw	2
  6451  000A3E  0E78               	movlw	low _pBDTEntryIn
  6452  000A40  24F3               	addwf	243,w,c
  6453  000A42  6ED9               	movwf	fsr2l,c
  6454  000A44  0E00               	movlw	high _pBDTEntryIn
  6455  000A46  20F4               	addwfc	prodh,w,c
  6456  000A48  6EDA               	movwf	fsr2h,c
  6457  000A4A  C01A  FFDE         	movff	USBStdFeatureReqHandler@p,postinc2
  6458  000A4E  C01B  FFDD         	movff	USBStdFeatureReqHandler@p+1,postdec2
  6459  000A52                     i2l3933:
  6460                           
  6461                           ; BSR set to: 4
  6462                           ;mcc_generated_files/usb/usb_device.c: 2861:         if(SetupPkt.bRequest == 3)
  6463  000A52  0E03               	movlw	3
  6464  000A54  1931               	xorwf	49,w,b	;volatile
  6465  000A56  A4D8               	btfss	status,2,c
  6466  000A58  EF30  F005         	goto	i2u239_41
  6467  000A5C  EF32  F005         	goto	i2u239_40
  6468  000A60                     i2u239_41:
  6469  000A60  EF6C  F005         	goto	i2l3943
  6470  000A64                     i2u239_40:
  6471  000A64                     
  6472                           ; BSR set to: 4
  6473                           ;mcc_generated_files/usb/usb_device.c: 2862:         {;mcc_generated_files/usb/usb_devic
      +                          e.c: 2863:             if(p->STAT.UOWN == 1)
  6474  000A64  C01A  FFD9         	movff	USBStdFeatureReqHandler@p,fsr2l
  6475  000A68  C01B  FFDA         	movff	USBStdFeatureReqHandler@p+1,fsr2h
  6476  000A6C  AEDF               	btfss	indf2,7,c
  6477  000A6E  EF3B  F005         	goto	i2u240_41
  6478  000A72  EF3D  F005         	goto	i2u240_40
  6479  000A76                     i2u240_41:
  6480  000A76  EF5E  F005         	goto	i2l372
  6481  000A7A                     i2u240_40:
  6482  000A7A                     
  6483                           ; BSR set to: 4
  6484                           ;mcc_generated_files/usb/usb_device.c: 2864:             {;mcc_generated_files/usb/usb_d
      +                          evice.c: 2867:                 if(SetupPkt.EPDir == 0)
  6485  000A7A  BF34               	btfsc	52,7,b	;volatile
  6486  000A7C  EF42  F005         	goto	i2u241_41
  6487  000A80  EF44  F005         	goto	i2u241_40
  6488  000A84                     i2u241_41:
  6489  000A84  EF52  F005         	goto	i2l3941
  6490  000A88                     i2u241_40:
  6491  000A88                     
  6492                           ; BSR set to: 4
  6493                           ;mcc_generated_files/usb/usb_device.c: 2868:                 {;mcc_generated_files/usb/u
      +                          sb_device.c: 2869:                     ep_data_out[SetupPkt.EPNum].bits.transfer_termina
      +                          ted = 1;
  6494  000A88  5134               	movf	52,w,b	;volatile
  6495  000A8A  0B0F               	andlw	15
  6496  000A8C  6E15               	movwf	??_USBStdFeatureReqHandler^0,c
  6497  000A8E  6A16               	clrf	(??_USBStdFeatureReqHandler+1)^0,c
  6498  000A90  0E8A               	movlw	low _ep_data_out
  6499  000A92  2415               	addwf	??_USBStdFeatureReqHandler^0,w,c
  6500  000A94  6ED9               	movwf	fsr2l,c
  6501  000A96  0E00               	movlw	high _ep_data_out
  6502  000A98  2016               	addwfc	(??_USBStdFeatureReqHandler+1)^0,w,c
  6503  000A9A  6EDA               	movwf	fsr2h,c
  6504  000A9C  0100               	movlb	0	; () banked
  6505  000A9E  82DF               	bsf	indf2,1,c
  6506                           
  6507                           ;mcc_generated_files/usb/usb_device.c: 2870:                 }
  6508  000AA0  EF5E  F005         	goto	i2l372
  6509  000AA4                     i2l3941:
  6510                           
  6511                           ; BSR set to: 4
  6512                           ;mcc_generated_files/usb/usb_device.c: 2872:                 {;mcc_generated_files/usb/u
      +                          sb_device.c: 2873:                     ep_data_in[SetupPkt.EPNum].bits.transfer_terminat
      +                          ed = 1;
  6513  000AA4  5134               	movf	52,w,b	;volatile
  6514  000AA6  0B0F               	andlw	15
  6515  000AA8  6E15               	movwf	??_USBStdFeatureReqHandler^0,c
  6516  000AAA  6A16               	clrf	(??_USBStdFeatureReqHandler+1)^0,c
  6517  000AAC  0E8D               	movlw	low _ep_data_in
  6518  000AAE  2415               	addwf	??_USBStdFeatureReqHandler^0,w,c
  6519  000AB0  6ED9               	movwf	fsr2l,c
  6520  000AB2  0E00               	movlw	high _ep_data_in
  6521  000AB4  2016               	addwfc	(??_USBStdFeatureReqHandler+1)^0,w,c
  6522  000AB6  6EDA               	movwf	fsr2h,c
  6523  000AB8  0100               	movlb	0	; () banked
  6524  000ABA  82DF               	bsf	indf2,1,c
  6525  000ABC                     i2l372:
  6526                           
  6527                           ;mcc_generated_files/usb/usb_device.c: 2878:             p->STAT.Val |= 0x04;
  6528  000ABC  C01A  FFD9         	movff	USBStdFeatureReqHandler@p,fsr2l
  6529  000AC0  C01B  FFDA         	movff	USBStdFeatureReqHandler@p+1,fsr2h
  6530  000AC4  0E00               	movlw	0
  6531  000AC6  84DB               	bsf	plusw2,2,c
  6532                           
  6533                           ;mcc_generated_files/usb/usb_device.c: 2879:             p->STAT.Val |= 0x80;
  6534  000AC8  C01A  FFD9         	movff	USBStdFeatureReqHandler@p,fsr2l
  6535  000ACC  C01B  FFDA         	movff	USBStdFeatureReqHandler@p+1,fsr2h
  6536  000AD0  0E00               	movlw	0
  6537  000AD2  8EDB               	bsf	plusw2,7,c
  6538                           
  6539                           ;mcc_generated_files/usb/usb_device.c: 2880:         }
  6540  000AD4  EF04  F006         	goto	i2l384
  6541  000AD8                     i2l3943:
  6542                           
  6543                           ; BSR set to: 4
  6544                           ;mcc_generated_files/usb/usb_device.c: 2882:         {;mcc_generated_files/usb/usb_devic
      +                          e.c: 2886:                 p = (BDT_ENTRY*)(((uint16_t)p) ^ 0x0004);
  6545  000AD8  0E04               	movlw	4
  6546  000ADA  181A               	xorwf	USBStdFeatureReqHandler@p^0,w,c
  6547  000ADC  6E1A               	movwf	USBStdFeatureReqHandler@p^0,c
  6548  000ADE  501B               	movf	(USBStdFeatureReqHandler@p+1)^0,w,c
  6549  000AE0  6E1B               	movwf	(USBStdFeatureReqHandler@p+1)^0,c
  6550  000AE2                     
  6551                           ; BSR set to: 4
  6552                           ;mcc_generated_files/usb/usb_device.c: 2888:                 if(p->STAT.UOWN == 1)
  6553  000AE2  C01A  FFD9         	movff	USBStdFeatureReqHandler@p,fsr2l
  6554  000AE6  C01B  FFDA         	movff	USBStdFeatureReqHandler@p+1,fsr2h
  6555  000AEA  AEDF               	btfss	indf2,7,c
  6556  000AEC  EF7A  F005         	goto	i2u242_41
  6557  000AF0  EF7C  F005         	goto	i2u242_40
  6558  000AF4                     i2u242_41:
  6559  000AF4  EF98  F005         	goto	i2l3953
  6560  000AF8                     i2u242_40:
  6561  000AF8                     
  6562                           ; BSR set to: 4
  6563                           ;mcc_generated_files/usb/usb_device.c: 2889:                 {;mcc_generated_files/usb/u
      +                          sb_device.c: 2892:                     p->STAT.Val &= (~0x80);
  6564  000AF8  C01A  FFD9         	movff	USBStdFeatureReqHandler@p,fsr2l
  6565  000AFC  C01B  FFDA         	movff	USBStdFeatureReqHandler@p+1,fsr2h
  6566  000B00  0E7F               	movlw	127
  6567  000B02  16DF               	andwf	indf2,f,c
  6568  000B04                     
  6569                           ; BSR set to: 4
  6570                           ;mcc_generated_files/usb/usb_device.c: 2893:                     p->STAT.Val |= 0x40;
  6571  000B04  C01A  FFD9         	movff	USBStdFeatureReqHandler@p,fsr2l
  6572  000B08  C01B  FFDA         	movff	USBStdFeatureReqHandler@p+1,fsr2h
  6573  000B0C  0E00               	movlw	0
  6574  000B0E  8CDB               	bsf	plusw2,6,c
  6575  000B10                     
  6576                           ; BSR set to: 4
  6577                           ;mcc_generated_files/usb/usb_device.c: 2894:                     USER_USB_CALLBACK_EVENT
      +                          _HANDLER((USB_EVENT)EVENT_TRANSFER_TERMINATED,p,sizeof(p));
  6578  000B10  0E00               	movlw	0
  6579  000B12  6E0E               	movwf	(USER_USB_CALLBACK_EVENT_HANDLER@event+1)^0,c
  6580  000B14  0E05               	movlw	5
  6581  000B16  6E0D               	movwf	USER_USB_CALLBACK_EVENT_HANDLER@event^0,c
  6582  000B18  C01A  F00F         	movff	USBStdFeatureReqHandler@p,USER_USB_CALLBACK_EVENT_HANDLER@pdata
  6583  000B1C  C01B  F010         	movff	USBStdFeatureReqHandler@p+1,USER_USB_CALLBACK_EVENT_HANDLER@pdata+1
  6584  000B20  0E00               	movlw	0
  6585  000B22  6E12               	movwf	(USER_USB_CALLBACK_EVENT_HANDLER@size+1)^0,c
  6586  000B24  0E02               	movlw	2
  6587  000B26  6E11               	movwf	USER_USB_CALLBACK_EVENT_HANDLER@size^0,c
  6588  000B28  ECB4  F013         	call	_USER_USB_CALLBACK_EVENT_HANDLER	;wreg free
  6589                           
  6590                           ;mcc_generated_files/usb/usb_device.c: 2895:                 }
  6591  000B2C  EF9E  F005         	goto	i2l3955
  6592  000B30                     i2l3953:
  6593                           
  6594                           ; BSR set to: 4
  6595                           ;mcc_generated_files/usb/usb_device.c: 2897:                 {;mcc_generated_files/usb/u
      +                          sb_device.c: 2899:      p->STAT.Val |= 0x40;
  6596  000B30  C01A  FFD9         	movff	USBStdFeatureReqHandler@p,fsr2l
  6597  000B34  C01B  FFDA         	movff	USBStdFeatureReqHandler@p+1,fsr2h
  6598  000B38  0E00               	movlw	0
  6599  000B3A  8CDB               	bsf	plusw2,6,c
  6600  000B3C                     i2l3955:
  6601                           
  6602                           ;mcc_generated_files/usb/usb_device.c: 2904:                 p = (BDT_ENTRY*)(((uint16_t
      +                          )p) ^ 0x0004);
  6603  000B3C  0E04               	movlw	4
  6604  000B3E  181A               	xorwf	USBStdFeatureReqHandler@p^0,w,c
  6605  000B40  6E1A               	movwf	USBStdFeatureReqHandler@p^0,c
  6606  000B42  501B               	movf	(USBStdFeatureReqHandler@p+1)^0,w,c
  6607  000B44  6E1B               	movwf	(USBStdFeatureReqHandler@p+1)^0,c
  6608  000B46                     
  6609                           ;mcc_generated_files/usb/usb_device.c: 2910:                 if((current_ep_data.bits.tr
      +                          ansfer_terminated != 0) || (p->STAT.UOWN == 1))
  6610  000B46  B219               	btfsc	USBStdFeatureReqHandler@current_ep_data^0,1,c
  6611  000B48  EFA8  F005         	goto	i2u243_41
  6612  000B4C  EFAA  F005         	goto	i2u243_40
  6613  000B50                     i2u243_41:
  6614  000B50  EFB5  F005         	goto	i2l380
  6615  000B54                     i2u243_40:
  6616  000B54  C01A  FFD9         	movff	USBStdFeatureReqHandler@p,fsr2l
  6617  000B58  C01B  FFDA         	movff	USBStdFeatureReqHandler@p+1,fsr2h
  6618  000B5C  AEDF               	btfss	indf2,7,c
  6619  000B5E  EFB3  F005         	goto	i2u244_41
  6620  000B62  EFB5  F005         	goto	i2u244_40
  6621  000B66                     i2u244_41:
  6622  000B66  EFED  F005         	goto	i2l3969
  6623  000B6A                     i2u244_40:
  6624  000B6A                     i2l380:
  6625                           
  6626                           ;mcc_generated_files/usb/usb_device.c: 2911:                 {;mcc_generated_files/usb/u
      +                          sb_device.c: 2912:                     if(SetupPkt.EPDir == 0)
  6627  000B6A  0104               	movlb	4	; () banked
  6628  000B6C  BF34               	btfsc	52,7,b	;volatile
  6629  000B6E  EFBB  F005         	goto	i2u245_41
  6630  000B72  EFBD  F005         	goto	i2u245_40
  6631  000B76                     i2u245_41:
  6632  000B76  EFCB  F005         	goto	i2l3963
  6633  000B7A                     i2u245_40:
  6634  000B7A                     
  6635                           ; BSR set to: 4
  6636                           ;mcc_generated_files/usb/usb_device.c: 2913:                     {;mcc_generated_files/u
      +                          sb/usb_device.c: 2914:                         ep_data_out[SetupPkt.EPNum].bits.transfer
      +                          _terminated = 0;
  6637  000B7A  5134               	movf	52,w,b	;volatile
  6638  000B7C  0B0F               	andlw	15
  6639  000B7E  6E15               	movwf	??_USBStdFeatureReqHandler^0,c
  6640  000B80  6A16               	clrf	(??_USBStdFeatureReqHandler+1)^0,c
  6641  000B82  0E8A               	movlw	low _ep_data_out
  6642  000B84  2415               	addwf	??_USBStdFeatureReqHandler^0,w,c
  6643  000B86  6ED9               	movwf	fsr2l,c
  6644  000B88  0E00               	movlw	high _ep_data_out
  6645  000B8A  2016               	addwfc	(??_USBStdFeatureReqHandler+1)^0,w,c
  6646  000B8C  6EDA               	movwf	fsr2h,c
  6647  000B8E  0100               	movlb	0	; () banked
  6648  000B90  92DF               	bcf	indf2,1,c
  6649                           
  6650                           ;mcc_generated_files/usb/usb_device.c: 2915:                     }
  6651  000B92  EFD7  F005         	goto	i2l3965
  6652  000B96                     i2l3963:
  6653                           
  6654                           ; BSR set to: 4
  6655                           ;mcc_generated_files/usb/usb_device.c: 2917:                     {;mcc_generated_files/u
      +                          sb/usb_device.c: 2918:                         ep_data_in[SetupPkt.EPNum].bits.transfer_
      +                          terminated = 0;
  6656  000B96  5134               	movf	52,w,b	;volatile
  6657  000B98  0B0F               	andlw	15
  6658  000B9A  6E15               	movwf	??_USBStdFeatureReqHandler^0,c
  6659  000B9C  6A16               	clrf	(??_USBStdFeatureReqHandler+1)^0,c
  6660  000B9E  0E8D               	movlw	low _ep_data_in
  6661  000BA0  2415               	addwf	??_USBStdFeatureReqHandler^0,w,c
  6662  000BA2  6ED9               	movwf	fsr2l,c
  6663  000BA4  0E00               	movlw	high _ep_data_in
  6664  000BA6  2016               	addwfc	(??_USBStdFeatureReqHandler+1)^0,w,c
  6665  000BA8  6EDA               	movwf	fsr2h,c
  6666  000BAA  0100               	movlb	0	; () banked
  6667  000BAC  92DF               	bcf	indf2,1,c
  6668  000BAE                     i2l3965:
  6669                           
  6670                           ; BSR set to: 0
  6671                           ;mcc_generated_files/usb/usb_device.c: 2921:                     p->STAT.Val &= ~(0x80 |
      +                           0x40 | 0x04);
  6672  000BAE  C01A  FFD9         	movff	USBStdFeatureReqHandler@p,fsr2l
  6673  000BB2  C01B  FFDA         	movff	USBStdFeatureReqHandler@p+1,fsr2h
  6674  000BB6  0E3B               	movlw	59
  6675  000BB8  16DF               	andwf	indf2,f,c
  6676  000BBA                     
  6677                           ; BSR set to: 0
  6678                           ;mcc_generated_files/usb/usb_device.c: 2924:                     USER_USB_CALLBACK_EVENT
      +                          _HANDLER((USB_EVENT)EVENT_TRANSFER_TERMINATED,p,sizeof(p));
  6679  000BBA  0E00               	movlw	0
  6680  000BBC  6E0E               	movwf	(USER_USB_CALLBACK_EVENT_HANDLER@event+1)^0,c
  6681  000BBE  0E05               	movlw	5
  6682  000BC0  6E0D               	movwf	USER_USB_CALLBACK_EVENT_HANDLER@event^0,c
  6683  000BC2  C01A  F00F         	movff	USBStdFeatureReqHandler@p,USER_USB_CALLBACK_EVENT_HANDLER@pdata
  6684  000BC6  C01B  F010         	movff	USBStdFeatureReqHandler@p+1,USER_USB_CALLBACK_EVENT_HANDLER@pdata+1
  6685  000BCA  0E00               	movlw	0
  6686  000BCC  6E12               	movwf	(USER_USB_CALLBACK_EVENT_HANDLER@size+1)^0,c
  6687  000BCE  0E02               	movlw	2
  6688  000BD0  6E11               	movwf	USER_USB_CALLBACK_EVENT_HANDLER@size^0,c
  6689  000BD2  ECB4  F013         	call	_USER_USB_CALLBACK_EVENT_HANDLER	;wreg free
  6690                           
  6691                           ;mcc_generated_files/usb/usb_device.c: 2925:                 }
  6692  000BD6  EFF3  F005         	goto	i2l3971
  6693  000BDA                     i2l3969:
  6694                           
  6695                           ;mcc_generated_files/usb/usb_device.c: 2927:                 {;mcc_generated_files/usb/u
      +                          sb_device.c: 2929:                     p->STAT.Val &= ~(0x80 | 0x40 | 0x04);
  6696  000BDA  C01A  FFD9         	movff	USBStdFeatureReqHandler@p,fsr2l
  6697  000BDE  C01B  FFDA         	movff	USBStdFeatureReqHandler@p+1,fsr2h
  6698  000BE2  0E3B               	movlw	59
  6699  000BE4  16DF               	andwf	indf2,f,c
  6700  000BE6                     i2l3971:
  6701                           
  6702                           ;mcc_generated_files/usb/usb_device.c: 2977:                 pUEP = (unsigned char*)(&UE
      +                          P0+SetupPkt.EPNum);
  6703  000BE6  0104               	movlb	4	; () banked
  6704  000BE8  5134               	movf	52,w,b	;volatile
  6705  000BEA  0B0F               	andlw	15
  6706  000BEC  6E15               	movwf	??_USBStdFeatureReqHandler^0,c
  6707  000BEE  6A16               	clrf	(??_USBStdFeatureReqHandler+1)^0,c
  6708  000BF0  0E6A               	movlw	106
  6709  000BF2  2415               	addwf	??_USBStdFeatureReqHandler^0,w,c
  6710  000BF4  6E17               	movwf	USBStdFeatureReqHandler@pUEP^0,c
  6711  000BF6  0E0F               	movlw	15
  6712  000BF8  2016               	addwfc	(??_USBStdFeatureReqHandler+1)^0,w,c
  6713  000BFA  6E18               	movwf	(USBStdFeatureReqHandler@pUEP+1)^0,c
  6714  000BFC                     
  6715                           ; BSR set to: 4
  6716                           ;mcc_generated_files/usb/usb_device.c: 2981:             *pUEP &= ~0x0001;
  6717  000BFC  C017  FFD9         	movff	USBStdFeatureReqHandler@pUEP,fsr2l
  6718  000C00  C018  FFDA         	movff	USBStdFeatureReqHandler@pUEP+1,fsr2h
  6719  000C04  0EFE               	movlw	254
  6720  000C06  16DF               	andwf	indf2,f,c
  6721  000C08                     i2l384:
  6722  000C08  0012               	return		;funcret
  6723  000C0A                     __end_of_USBStdFeatureReqHandler:
  6724                           	callstack 0
  6725                           
  6726 ;; *************** function _USER_USB_CALLBACK_EVENT_HANDLER *****************
  6727 ;; Defined at:
  6728 ;;		line 49 in file "mcc_generated_files/usb/usb_device_events.c"
  6729 ;; Parameters:    Size  Location     Type
  6730 ;;  event           2   12[COMRAM] enum E46
  6731 ;;  pdata           2   14[COMRAM] PTR void 
  6732 ;;		 -> RAM(2047), USTATcopy(1), USBActiveConfiguration(1), NULL(0), 
  6733 ;;		 -> BDT(48), 
  6734 ;;  size            2   16[COMRAM] unsigned short 
  6735 ;; Auto vars:     Size  Location     Type
  6736 ;;		None
  6737 ;; Return value:  Size  Location     Type
  6738 ;;                  1    wreg      _Bool 
  6739 ;; Registers used:
  6740 ;;		wreg, fsr2l, fsr2h, status,2, status,0, prodl, prodh, cstack
  6741 ;; Tracked objects:
  6742 ;;		On entry : 0/0
  6743 ;;		On exit  : 0/0
  6744 ;;		Unchanged: 0/0
  6745 ;; Data sizes:     COMRAM   BANK0   BANK1   BANK2   BANK3   BANK4   BANK5   BANK6   BANK7
  6746 ;;      Params:         6       0       0       0       0       0       0       0       0
  6747 ;;      Locals:         0       0       0       0       0       0       0       0       0
  6748 ;;      Temps:          2       0       0       0       0       0       0       0       0
  6749 ;;      Totals:         8       0       0       0       0       0       0       0       0
  6750 ;;Total ram usage:        8 bytes
  6751 ;; Hardware stack levels used: 1
  6752 ;; Hardware stack levels required when called: 3
  6753 ;; This function calls:
  6754 ;;		_CDCInitEP
  6755 ;;		_USBCheckCDCRequest
  6756 ;; This function is called by:
  6757 ;;		_USBDeviceTasks
  6758 ;;		_USBStdSetCfgHandler
  6759 ;;		_USBSuspend
  6760 ;;		_USBWakeFromSuspend
  6761 ;;		_USBCtrlTrfSetupHandler
  6762 ;;		_USBCheckStdRequest
  6763 ;;		_USBStdFeatureReqHandler
  6764 ;; This function uses a non-reentrant model
  6765 ;;
  6766                           
  6767                           	psect	text37
  6768  002768                     __ptext37:
  6769                           	callstack 0
  6770  002768                     _USER_USB_CALLBACK_EVENT_HANDLER:
  6771                           	callstack 22
  6772  002768                     
  6773                           ;mcc_generated_files/usb/usb_device_events.c: 49: _Bool USER_USB_CALLBACK_EVENT_HANDLER(
      +                          USB_EVENT event, void *pdata, uint16_t size);mcc_generated_files/usb/usb_device_events.c
      +                          : 50: {;mcc_generated_files/usb/usb_device_events.c: 51:     switch( (int) event )
  6774  002768  EFBE  F013         	goto	i2l3643
  6775  00276C                     i2l3637:
  6776                           
  6777                           ;mcc_generated_files/usb/usb_device_events.c: 76:             CDCInitEP();
  6778  00276C  EC32  F014         	call	_CDCInitEP	;wreg free
  6779                           
  6780                           ;mcc_generated_files/usb/usb_device_events.c: 77:             break;
  6781  002770  EFF7  F013         	goto	i2l427
  6782  002774                     i2l3639:
  6783                           
  6784                           ;mcc_generated_files/usb/usb_device_events.c: 85:             USBCheckCDCRequest();
  6785  002774  EC87  F00F         	call	_USBCheckCDCRequest	;wreg free
  6786                           
  6787                           ;mcc_generated_files/usb/usb_device_events.c: 86:             break;
  6788  002778  EFF7  F013         	goto	i2l427
  6789  00277C                     i2l3643:
  6790  00277C  C00D  F013         	movff	USER_USB_CALLBACK_EVENT_HANDLER@event,??_USER_USB_CALLBACK_EVENT_HANDLER
  6791  002780  C00E  F014         	movff	USER_USB_CALLBACK_EVENT_HANDLER@event+1,??_USER_USB_CALLBACK_EVENT_HANDLER+1
  6792                           
  6793                           ; Switch on 2 bytes has been partitioned into a top level switch of size 1, and 2 sub-sw
      +                          itches
  6794                           ; Switch size 1, requested type "simple"
  6795                           ; Number of cases is 2, Range of values is 0 to 127
  6796                           ; switch strategies available:
  6797                           ; Name         Instructions Cycles
  6798                           ; simple_byte            7     4 (average)
  6799                           ;	Chosen strategy is simple_byte
  6800  002784  5014               	movf	(??_USER_USB_CALLBACK_EVENT_HANDLER+1)^0,w,c
  6801  002786  0A00               	xorlw	0	; case 0
  6802  002788  B4D8               	btfsc	status,2,c
  6803  00278A  EFCD  F013         	goto	i2l5571
  6804  00278E  0A7F               	xorlw	127	; case 127
  6805  002790  B4D8               	btfsc	status,2,c
  6806  002792  EFF0  F013         	goto	i2l5573
  6807  002796  EFF7  F013         	goto	i2l427
  6808  00279A                     i2l5571:
  6809                           
  6810                           ; Switch size 1, requested type "simple"
  6811                           ; Number of cases is 8, Range of values is 1 to 117
  6812                           ; switch strategies available:
  6813                           ; Name         Instructions Cycles
  6814                           ; simple_byte           25    13 (average)
  6815                           ;	Chosen strategy is simple_byte
  6816  00279A  5013               	movf	??_USER_USB_CALLBACK_EVENT_HANDLER^0,w,c
  6817  00279C  0A01               	xorlw	1	; case 1
  6818  00279E  B4D8               	btfsc	status,2,c
  6819  0027A0  EFB6  F013         	goto	i2l3637
  6820  0027A4  0A03               	xorlw	3	; case 2
  6821  0027A6  B4D8               	btfsc	status,2,c
  6822  0027A8  EFF7  F013         	goto	i2l427
  6823  0027AC  0A01               	xorlw	1	; case 3
  6824  0027AE  B4D8               	btfsc	status,2,c
  6825  0027B0  EFBA  F013         	goto	i2l3639
  6826  0027B4  0A06               	xorlw	6	; case 5
  6827  0027B6  B4D8               	btfsc	status,2,c
  6828  0027B8  EFF7  F013         	goto	i2l427
  6829  0027BC  0A77               	xorlw	119	; case 114
  6830  0027BE  B4D8               	btfsc	status,2,c
  6831  0027C0  EFF7  F013         	goto	i2l427
  6832  0027C4  0A01               	xorlw	1	; case 115
  6833  0027C6  B4D8               	btfsc	status,2,c
  6834  0027C8  EFF7  F013         	goto	i2l427
  6835  0027CC  0A07               	xorlw	7	; case 116
  6836  0027CE  B4D8               	btfsc	status,2,c
  6837  0027D0  EFF7  F013         	goto	i2l427
  6838  0027D4  0A01               	xorlw	1	; case 117
  6839  0027D6  B4D8               	btfsc	status,2,c
  6840  0027D8  EFF7  F013         	goto	i2l427
  6841  0027DC  EFF7  F013         	goto	i2l427
  6842  0027E0                     i2l5573:
  6843                           
  6844                           ; Switch size 1, requested type "simple"
  6845                           ; Number of cases is 1, Range of values is 255 to 255
  6846                           ; switch strategies available:
  6847                           ; Name         Instructions Cycles
  6848                           ; simple_byte            4     3 (average)
  6849                           ;	Chosen strategy is simple_byte
  6850  0027E0  5013               	movf	??_USER_USB_CALLBACK_EVENT_HANDLER^0,w,c
  6851  0027E2  0AFF               	xorlw	255	; case 255
  6852  0027E4  B4D8               	btfsc	status,2,c
  6853  0027E6  EFF7  F013         	goto	i2l427
  6854  0027EA  EFF7  F013         	goto	i2l427
  6855  0027EE                     i2l427:
  6856  0027EE  0012               	return		;funcret
  6857  0027F0                     __end_of_USER_USB_CALLBACK_EVENT_HANDLER:
  6858                           	callstack 0
  6859                           
  6860 ;; *************** function _USBCheckCDCRequest *****************
  6861 ;; Defined at:
  6862 ;;		line 147 in file "mcc_generated_files/usb/usb_device_cdc.c"
  6863 ;; Parameters:    Size  Location     Type
  6864 ;;		None
  6865 ;; Auto vars:     Size  Location     Type
  6866 ;;		None
  6867 ;; Return value:  Size  Location     Type
  6868 ;;                  1    wreg      void 
  6869 ;; Registers used:
  6870 ;;		wreg, status,2, status,0
  6871 ;; Tracked objects:
  6872 ;;		On entry : 0/0
  6873 ;;		On exit  : 0/0
  6874 ;;		Unchanged: 0/0
  6875 ;; Data sizes:     COMRAM   BANK0   BANK1   BANK2   BANK3   BANK4   BANK5   BANK6   BANK7
  6876 ;;      Params:         0       0       0       0       0       0       0       0       0
  6877 ;;      Locals:         0       0       0       0       0       0       0       0       0
  6878 ;;      Temps:          2       0       0       0       0       0       0       0       0
  6879 ;;      Totals:         2       0       0       0       0       0       0       0       0
  6880 ;;Total ram usage:        2 bytes
  6881 ;; Hardware stack levels used: 1
  6882 ;; This function calls:
  6883 ;;		Nothing
  6884 ;; This function is called by:
  6885 ;;		_USER_USB_CALLBACK_EVENT_HANDLER
  6886 ;; This function uses a non-reentrant model
  6887 ;;
  6888                           
  6889                           	psect	text38
  6890  001F0E                     __ptext38:
  6891                           	callstack 0
  6892  001F0E                     _USBCheckCDCRequest:
  6893                           	callstack 24
  6894  001F0E                     
  6895                           ;mcc_generated_files/usb/usb_device_cdc.c: 152:     if(SetupPkt.Recipient != (0x01)) ret
      +                          urn;
  6896  001F0E  0104               	movlb	4	; () banked
  6897  001F10  5130               	movf	48,w,b	;volatile
  6898  001F12  0B1F               	andlw	31
  6899  001F14  06E8               	decf	wreg,f,c
  6900  001F16  B4D8               	btfsc	status,2,c
  6901  001F18  EF90  F00F         	goto	i2u192_41
  6902  001F1C  EF92  F00F         	goto	i2u192_40
  6903  001F20                     i2u192_41:
  6904  001F20  EF94  F00F         	goto	i2l3593
  6905  001F24                     i2u192_40:
  6906  001F24  EF0C  F010         	goto	i2l473
  6907  001F28                     i2l3593:
  6908                           
  6909                           ; BSR set to: 4
  6910                           ;mcc_generated_files/usb/usb_device_cdc.c: 157:     if(SetupPkt.RequestType != (0x20>>5)
      +                          ) return;
  6911  001F28  3930               	swapf	48,w,b	;volatile
  6912  001F2A  32E8               	rrcf	wreg,f,c
  6913  001F2C  0B03               	andlw	3
  6914  001F2E  06E8               	decf	wreg,f,c
  6915  001F30  B4D8               	btfsc	status,2,c
  6916  001F32  EF9D  F00F         	goto	i2u193_41
  6917  001F36  EF9F  F00F         	goto	i2u193_40
  6918  001F3A                     i2u193_41:
  6919  001F3A  EFA1  F00F         	goto	i2l3597
  6920  001F3E                     i2u193_40:
  6921  001F3E  EF0C  F010         	goto	i2l473
  6922  001F42                     i2l3597:
  6923                           
  6924                           ; BSR set to: 4
  6925                           ;mcc_generated_files/usb/usb_device_cdc.c: 163:     if((SetupPkt.bIntfID != 0x0)&&
  6926  001F42  5134               	movf	52,w,b	;volatile
  6927  001F44  B4D8               	btfsc	status,2,c
  6928  001F46  EFA7  F00F         	goto	i2u194_41
  6929  001F4A  EFA9  F00F         	goto	i2u194_40
  6930  001F4E                     i2u194_41:
  6931  001F4E  EFEB  F00F         	goto	i2l3627
  6932  001F52                     i2u194_40:
  6933  001F52                     
  6934                           ; BSR set to: 4
  6935  001F52  0534               	decf	52,w,b	;volatile
  6936  001F54  B4D8               	btfsc	status,2,c
  6937  001F56  EFAF  F00F         	goto	i2u195_41
  6938  001F5A  EFB1  F00F         	goto	i2u195_40
  6939  001F5E                     i2u195_41:
  6940  001F5E  EFEB  F00F         	goto	i2l3627
  6941  001F62                     i2u195_40:
  6942  001F62  EF0C  F010         	goto	i2l473
  6943  001F66                     i2l3603:
  6944                           
  6945                           ; BSR set to: 4
  6946                           ;mcc_generated_files/usb/usb_device_cdc.c: 171:             inPipes[0].pSrc.bRam = (uint
      +                          8_t*)&dummy_encapsulated_cmd_response;
  6947  001F66  0ED9               	movlw	low _dummy_encapsulated_cmd_response
  6948  001F68  0100               	movlb	0	; () banked
  6949  001F6A  6F72               	movwf	_inPipes& (0+255),b	;volatile
  6950  001F6C  0E00               	movlw	high _dummy_encapsulated_cmd_response
  6951  001F6E  6F73               	movwf	(_inPipes+1)& (0+255),b	;volatile
  6952  001F70                     
  6953                           ; BSR set to: 0
  6954                           ;mcc_generated_files/usb/usb_device_cdc.c: 172:             inPipes[0].wCount.Val = 0x08
      +                          ;
  6955  001F70  0E00               	movlw	0
  6956  001F72  6F77               	movwf	(_inPipes+5)& (0+255),b	;volatile
  6957  001F74  0E08               	movlw	8
  6958  001F76  6F76               	movwf	(_inPipes+4)& (0+255),b	;volatile
  6959  001F78                     
  6960                           ; BSR set to: 0
  6961                           ;mcc_generated_files/usb/usb_device_cdc.c: 173:             inPipes[0].info.bits.ctrl_tr
      +                          f_mem = 0x01;
  6962  001F78  8175               	bsf	(_inPipes+3)& (0+255),0,b	;volatile
  6963  001F7A                     
  6964                           ; BSR set to: 0
  6965                           ;mcc_generated_files/usb/usb_device_cdc.c: 174:             inPipes[0].info.bits.busy = 
      +                          1;
  6966  001F7A  8F75               	bsf	(_inPipes+3)& (0+255),7,b	;volatile
  6967                           
  6968                           ;mcc_generated_files/usb/usb_device_cdc.c: 175:             break;
  6969  001F7C  EF0C  F010         	goto	i2l473
  6970  001F80                     i2l3611:
  6971                           
  6972                           ; BSR set to: 4
  6973                           ;mcc_generated_files/usb/usb_device_cdc.c: 178:             inPipes[0].pSrc.bRam = (uint
      +                          8_t*)&dummy_encapsulated_cmd_response;
  6974  001F80  0ED9               	movlw	low _dummy_encapsulated_cmd_response
  6975  001F82  0100               	movlb	0	; () banked
  6976  001F84  6F72               	movwf	_inPipes& (0+255),b	;volatile
  6977  001F86  0E00               	movlw	high _dummy_encapsulated_cmd_response
  6978  001F88  6F73               	movwf	(_inPipes+1)& (0+255),b	;volatile
  6979  001F8A                     
  6980                           ; BSR set to: 0
  6981                           ;mcc_generated_files/usb/usb_device_cdc.c: 179:             inPipes[0].info.bits.busy = 
      +                          1;
  6982  001F8A  8F75               	bsf	(_inPipes+3)& (0+255),7,b	;volatile
  6983                           
  6984                           ;mcc_generated_files/usb/usb_device_cdc.c: 180:             break;
  6985  001F8C  EF0C  F010         	goto	i2l473
  6986  001F90                     i2l480:
  6987                           
  6988                           ; BSR set to: 4
  6989                           ;mcc_generated_files/usb/usb_device_cdc.c: 185:             outPipes[0].wCount.Val = Set
      +                          upPkt.wLength;
  6990  001F90  C436 F06E          	movff	1078,_outPipes+4	;volatile
  6991  001F94  C437 F06F          	movff	1079,_outPipes+5	;volatile
  6992  001F98                     
  6993                           ; BSR set to: 4
  6994                           ;mcc_generated_files/usb/usb_device_cdc.c: 186:             outPipes[0].pDst.bRam = (uin
      +                          t8_t*)&line_coding._byte[0];
  6995  001F98  0EE1               	movlw	low _line_coding
  6996  001F9A  0100               	movlb	0	; () banked
  6997  001F9C  6F6A               	movwf	_outPipes& (0+255),b	;volatile
  6998  001F9E  0E00               	movlw	high _line_coding
  6999  001FA0  6F6B               	movwf	(_outPipes+1)& (0+255),b	;volatile
  7000                           
  7001                           ;mcc_generated_files/usb/usb_device_cdc.c: 187:             outPipes[0].pFunc = ((void*)
      +                          0);
  7002  001FA2  0E00               	movlw	0
  7003  001FA4  6F70               	movwf	(_outPipes+6)& (0+255),b	;volatile
  7004  001FA6  0E00               	movlw	0
  7005  001FA8  6F71               	movwf	(_outPipes+7)& (0+255),b	;volatile
  7006  001FAA                     
  7007                           ; BSR set to: 0
  7008                           ;mcc_generated_files/usb/usb_device_cdc.c: 188:             outPipes[0].info.bits.busy =
      +                           1;
  7009  001FAA  8F6D               	bsf	(_outPipes+3)& (0+255),7,b	;volatile
  7010                           
  7011                           ;mcc_generated_files/usb/usb_device_cdc.c: 189:             break;
  7012  001FAC  EF0C  F010         	goto	i2l473
  7013  001FB0                     i2l3619:
  7014                           
  7015                           ; BSR set to: 4
  7016                           ;mcc_generated_files/usb/usb_device_cdc.c: 192:             { inPipes[0].pSrc.bRam = (ui
      +                          nt8_t*)&line_coding; inPipes[0].wCount.Val = 0x07; inPipes[0].info.Val = 0x40 | 0x80 | 0
      +                          x01; };
  7017  001FB0  0EE1               	movlw	low _line_coding
  7018  001FB2  0100               	movlb	0	; () banked
  7019  001FB4  6F72               	movwf	_inPipes& (0+255),b	;volatile
  7020  001FB6  0E00               	movlw	high _line_coding
  7021  001FB8  6F73               	movwf	(_inPipes+1)& (0+255),b	;volatile
  7022  001FBA                     
  7023                           ; BSR set to: 0
  7024  001FBA  0E00               	movlw	0
  7025  001FBC  6F77               	movwf	(_inPipes+5)& (0+255),b	;volatile
  7026  001FBE  0E07               	movlw	7
  7027  001FC0  6F76               	movwf	(_inPipes+4)& (0+255),b	;volatile
  7028  001FC2                     
  7029                           ; BSR set to: 0
  7030  001FC2  0EC1               	movlw	193
  7031  001FC4  6F75               	movwf	(_inPipes+3)& (0+255),b	;volatile
  7032                           
  7033                           ;mcc_generated_files/usb/usb_device_cdc.c: 196:             break;
  7034  001FC6  EF0C  F010         	goto	i2l473
  7035  001FCA                     i2l482:
  7036                           
  7037                           ; BSR set to: 4
  7038                           ;mcc_generated_files/usb/usb_device_cdc.c: 199:             control_signal_bitmap._byte 
      +                          = (uint8_t)SetupPkt.wValue;
  7039  001FCA  C432 F041          	movff	1074,_control_signal_bitmap	;volatile
  7040                           
  7041                           ;mcc_generated_files/usb/usb_device_cdc.c: 231:             inPipes[0].info.bits.busy = 
      +                          1;
  7042  001FCE  0100               	movlb	0	; () banked
  7043  001FD0  8F75               	bsf	(_inPipes+3)& (0+255),7,b	;volatile
  7044                           
  7045                           ;mcc_generated_files/usb/usb_device_cdc.c: 232:             break;
  7046  001FD2  EF0C  F010         	goto	i2l473
  7047  001FD6                     i2l3627:
  7048                           
  7049                           ; BSR set to: 4
  7050  001FD6  5131               	movf	49,w,b	;volatile
  7051  001FD8  6E01               	movwf	??_USBCheckCDCRequest^0,c
  7052  001FDA  6A02               	clrf	(??_USBCheckCDCRequest+1)^0,c
  7053                           
  7054                           ; Switch on 2 bytes has been partitioned into a top level switch of size 1, and 1 sub-sw
      +                          itches
  7055                           ; Switch size 1, requested type "simple"
  7056                           ; Number of cases is 1, Range of values is 0 to 0
  7057                           ; switch strategies available:
  7058                           ; Name         Instructions Cycles
  7059                           ; simple_byte            4     3 (average)
  7060                           ;	Chosen strategy is simple_byte
  7061  001FDC  5002               	movf	(??_USBCheckCDCRequest+1)^0,w,c
  7062  001FDE  0A00               	xorlw	0	; case 0
  7063  001FE0  B4D8               	btfsc	status,2,c
  7064  001FE2  EFF5  F00F         	goto	i2l5575
  7065  001FE6  EF0C  F010         	goto	i2l473
  7066  001FEA                     i2l5575:
  7067                           
  7068                           ; BSR set to: 4
  7069                           ; Switch size 1, requested type "simple"
  7070                           ; Number of cases is 5, Range of values is 0 to 34
  7071                           ; switch strategies available:
  7072                           ; Name         Instructions Cycles
  7073                           ; simple_byte           16     9 (average)
  7074                           ;	Chosen strategy is simple_byte
  7075  001FEA  5001               	movf	??_USBCheckCDCRequest^0,w,c
  7076  001FEC  0A00               	xorlw	0	; case 0
  7077  001FEE  B4D8               	btfsc	status,2,c
  7078  001FF0  EFB3  F00F         	goto	i2l3603
  7079  001FF4  0A01               	xorlw	1	; case 1
  7080  001FF6  B4D8               	btfsc	status,2,c
  7081  001FF8  EFC0  F00F         	goto	i2l3611
  7082  001FFC  0A21               	xorlw	33	; case 32
  7083  001FFE  B4D8               	btfsc	status,2,c
  7084  002000  EFC8  F00F         	goto	i2l480
  7085  002004  0A01               	xorlw	1	; case 33
  7086  002006  B4D8               	btfsc	status,2,c
  7087  002008  EFD8  F00F         	goto	i2l3619
  7088  00200C  0A03               	xorlw	3	; case 34
  7089  00200E  B4D8               	btfsc	status,2,c
  7090  002010  EFE5  F00F         	goto	i2l482
  7091  002014  EF0C  F010         	goto	i2l473
  7092  002018                     i2l473:
  7093  002018  0012               	return		;funcret
  7094  00201A                     __end_of_USBCheckCDCRequest:
  7095                           	callstack 0
  7096                           
  7097 ;; *************** function _CDCInitEP *****************
  7098 ;; Defined at:
  7099 ;;		line 294 in file "mcc_generated_files/usb/usb_device_cdc.c"
  7100 ;; Parameters:    Size  Location     Type
  7101 ;;		None
  7102 ;; Auto vars:     Size  Location     Type
  7103 ;;		None
  7104 ;; Return value:  Size  Location     Type
  7105 ;;                  1    wreg      void 
  7106 ;; Registers used:
  7107 ;;		wreg, fsr2l, fsr2h, status,2, status,0, prodl, prodh, cstack
  7108 ;; Tracked objects:
  7109 ;;		On entry : 0/0
  7110 ;;		On exit  : 0/0
  7111 ;;		Unchanged: 0/0
  7112 ;; Data sizes:     COMRAM   BANK0   BANK1   BANK2   BANK3   BANK4   BANK5   BANK6   BANK7
  7113 ;;      Params:         0       0       0       0       0       0       0       0       0
  7114 ;;      Locals:         0       0       0       0       0       0       0       0       0
  7115 ;;      Temps:          0       0       0       0       0       0       0       0       0
  7116 ;;      Totals:         0       0       0       0       0       0       0       0       0
  7117 ;;Total ram usage:        0 bytes
  7118 ;; Hardware stack levels used: 1
  7119 ;; Hardware stack levels required when called: 2
  7120 ;; This function calls:
  7121 ;;		_USBEnableEndpoint
  7122 ;;		i2_USBTransferOnePacket
  7123 ;; This function is called by:
  7124 ;;		_USER_USB_CALLBACK_EVENT_HANDLER
  7125 ;; This function uses a non-reentrant model
  7126 ;;
  7127                           
  7128                           	psect	text39
  7129  002864                     __ptext39:
  7130                           	callstack 0
  7131  002864                     _CDCInitEP:
  7132                           	callstack 22
  7133  002864                     
  7134                           ;mcc_generated_files/usb/usb_device_cdc.c: 297:     line_coding.dwDTERate = 19200;
  7135  002864  0E00               	movlw	0
  7136  002866  0100               	movlb	0	; () banked
  7137  002868  6FE1               	movwf	_line_coding& (0+255),b
  7138  00286A  0E4B               	movlw	75
  7139  00286C  6FE2               	movwf	(_line_coding+1)& (0+255),b
  7140  00286E  0E00               	movlw	0
  7141  002870  6FE3               	movwf	(_line_coding+2)& (0+255),b
  7142  002872  0E00               	movlw	0
  7143  002874  6FE4               	movwf	(_line_coding+3)& (0+255),b
  7144                           
  7145                           ;mcc_generated_files/usb/usb_device_cdc.c: 298:     line_coding.bCharFormat = 0x00;
  7146  002876  0E00               	movlw	0
  7147  002878  6FE5               	movwf	(_line_coding+4)& (0+255),b
  7148                           
  7149                           ;mcc_generated_files/usb/usb_device_cdc.c: 299:     line_coding.bParityType = 0x00;
  7150  00287A  0E00               	movlw	0
  7151  00287C  6FE6               	movwf	(_line_coding+5)& (0+255),b
  7152                           
  7153                           ;mcc_generated_files/usb/usb_device_cdc.c: 300:     line_coding.bDataBits = 0x08;
  7154  00287E  0E08               	movlw	8
  7155  002880  6FE7               	movwf	(_line_coding+6)& (0+255),b
  7156                           
  7157                           ;mcc_generated_files/usb/usb_device_cdc.c: 302:     cdc_rx_len = 0;
  7158  002882  0E00               	movlw	0
  7159  002884  6F96               	movwf	_cdc_rx_len& (0+255),b
  7160  002886                     
  7161                           ; BSR set to: 0
  7162                           ;mcc_generated_files/usb/usb_device_cdc.c: 315:     USBEnableEndpoint(1,0x02|0x10|0x08);
  7163  002886  0E1A               	movlw	26
  7164  002888  6E09               	movwf	USBEnableEndpoint@options^0,c
  7165  00288A  0E01               	movlw	1
  7166  00288C  ECBC  F014         	call	_USBEnableEndpoint
  7167  002890                     
  7168                           ;mcc_generated_files/usb/usb_device_cdc.c: 316:     USBEnableEndpoint(2,0x02|0x04|0x10|0
      +                          x08);
  7169  002890  0E1E               	movlw	30
  7170  002892  6E09               	movwf	USBEnableEndpoint@options^0,c
  7171  002894  0E02               	movlw	2
  7172  002896  ECBC  F014         	call	_USBEnableEndpoint
  7173  00289A                     
  7174                           ;mcc_generated_files/usb/usb_device_cdc.c: 318:     CDCDataOutHandle = USBTransferOnePac
      +                          ket(2,0,(uint8_t*)&cdc_data_rx,sizeof(cdc_data_rx));
  7175  00289A  0E00               	movlw	0
  7176  00289C  6E01               	movwf	i2USBTransferOnePacket@dir^0,c
  7177  00289E  0E40               	movlw	64
  7178  0028A0  6E02               	movwf	i2USBTransferOnePacket@data^0,c
  7179  0028A2  0E05               	movlw	5
  7180  0028A4  6E03               	movwf	(i2USBTransferOnePacket@data+1)^0,c
  7181  0028A6  0E40               	movlw	64
  7182  0028A8  6E04               	movwf	i2USBTransferOnePacket@len^0,c
  7183  0028AA  0E02               	movlw	2
  7184  0028AC  EC46  F00D         	call	i2_USBTransferOnePacket
  7185  0028B0  C001  F092         	movff	?i2_USBTransferOnePacket,_CDCDataOutHandle
  7186  0028B4  C002  F093         	movff	?i2_USBTransferOnePacket+1,_CDCDataOutHandle+1
  7187  0028B8                     
  7188                           ;mcc_generated_files/usb/usb_device_cdc.c: 319:     CDCDataInHandle = ((void*)0);
  7189  0028B8  0E00               	movlw	0
  7190  0028BA  0100               	movlb	0	; () banked
  7191  0028BC  6F90               	movwf	_CDCDataInHandle& (0+255),b
  7192  0028BE  0E00               	movlw	0
  7193  0028C0  6F91               	movwf	(_CDCDataInHandle+1)& (0+255),b
  7194  0028C2                     
  7195                           ; BSR set to: 0
  7196                           ;mcc_generated_files/usb/usb_device_cdc.c: 346:     cdc_trf_state = 0;
  7197  0028C2  0E00               	movlw	0
  7198  0028C4  6E42               	movwf	_cdc_trf_state^0,c
  7199  0028C6                     
  7200                           ; BSR set to: 0
  7201  0028C6  0012               	return		;funcret
  7202  0028C8                     __end_of_CDCInitEP:
  7203                           	callstack 0
  7204                           
  7205 ;; *************** function i2_USBTransferOnePacket *****************
  7206 ;; Defined at:
  7207 ;;		line 999 in file "mcc_generated_files/usb/usb_device.c"
  7208 ;; Parameters:    Size  Location     Type
  7209 ;;  ep              1    wreg     unsigned char 
  7210 ;;  dir             1    0[COMRAM] unsigned char 
  7211 ;;  data            2    1[COMRAM] PTR unsigned char 
  7212 ;;		 -> cdc_data_tx(64), cdc_data_rx(64), NULL(0), 
  7213 ;;  len             1    3[COMRAM] unsigned char 
  7214 ;; Auto vars:     Size  Location     Type
  7215 ;;  ep              1    8[COMRAM] unsigned char 
  7216 ;;  handle          2    9[COMRAM] PTR volatile struct __BD
  7217 ;;		 -> RAM(2047), NULL(0), BDT(48), 
  7218 ;; Return value:  Size  Location     Type
  7219 ;;                  2    0[COMRAM] PTR void 
  7220 ;; Registers used:
  7221 ;;		wreg, fsr2l, fsr2h, status,2, status,0, prodl, prodh
  7222 ;; Tracked objects:
  7223 ;;		On entry : 0/0
  7224 ;;		On exit  : 0/0
  7225 ;;		Unchanged: 0/0
  7226 ;; Data sizes:     COMRAM   BANK0   BANK1   BANK2   BANK3   BANK4   BANK5   BANK6   BANK7
  7227 ;;      Params:         4       0       0       0       0       0       0       0       0
  7228 ;;      Locals:         3       0       0       0       0       0       0       0       0
  7229 ;;      Temps:          4       0       0       0       0       0       0       0       0
  7230 ;;      Totals:        11       0       0       0       0       0       0       0       0
  7231 ;;Total ram usage:       11 bytes
  7232 ;; Hardware stack levels used: 1
  7233 ;; This function calls:
  7234 ;;		Nothing
  7235 ;; This function is called by:
  7236 ;;		_CDCInitEP
  7237 ;; This function uses a non-reentrant model
  7238 ;;
  7239                           
  7240                           	psect	text40
  7241  001A8C                     __ptext40:
  7242                           	callstack 0
  7243  001A8C                     i2_USBTransferOnePacket:
  7244                           	callstack 23
  7245                           
  7246                           ; BSR set to: 0
  7247                           ;incstack = 0
  7248                           ;i2USBTransferOnePacket@ep stored from wreg
  7249  001A8C  6E09               	movwf	i2USBTransferOnePacket@ep^0,c
  7250  001A8E                     
  7251                           ;mcc_generated_files/usb/usb_device.c: 999: void* USBTransferOnePacket(uint8_t ep,uint8_
      +                          t dir,uint8_t* data,uint8_t len);mcc_generated_files/usb/usb_device.c: 1000: {;mcc_gener
      +                          ated_files/usb/usb_device.c: 1001:     volatile BDT_ENTRY* handle;;mcc_generated_files/u
      +                          sb/usb_device.c: 1004:     if(dir != 0)
  7252  001A8E  5001               	movf	i2USBTransferOnePacket@dir^0,w,c
  7253  001A90  B4D8               	btfsc	status,2,c
  7254  001A92  EF4D  F00D         	goto	i2u189_41
  7255  001A96  EF4F  F00D         	goto	i2u189_40
  7256  001A9A                     i2u189_41:
  7257  001A9A  EF5D  F00D         	goto	i2l3551
  7258  001A9E                     i2u189_40:
  7259  001A9E                     
  7260                           ;mcc_generated_files/usb/usb_device.c: 1005:     {;mcc_generated_files/usb/usb_device.c:
      +                           1007:         handle = pBDTEntryIn[ep];
  7261  001A9E  5009               	movf	i2USBTransferOnePacket@ep^0,w,c
  7262  001AA0  0D02               	mullw	2
  7263  001AA2  0E78               	movlw	low _pBDTEntryIn
  7264  001AA4  24F3               	addwf	243,w,c
  7265  001AA6  6ED9               	movwf	fsr2l,c
  7266  001AA8  0E00               	movlw	high _pBDTEntryIn
  7267  001AAA  20F4               	addwfc	prodh,w,c
  7268  001AAC  6EDA               	movwf	fsr2h,c
  7269  001AAE  CFDE F00A          	movff	postinc2,i2USBTransferOnePacket@handle
  7270  001AB2  CFDD F00B          	movff	postdec2,i2USBTransferOnePacket@handle+1
  7271                           
  7272                           ;mcc_generated_files/usb/usb_device.c: 1008:     }
  7273  001AB6  EF69  F00D         	goto	i2l3553
  7274  001ABA                     i2l3551:
  7275                           
  7276                           ;mcc_generated_files/usb/usb_device.c: 1010:     {;mcc_generated_files/usb/usb_device.c:
      +                           1012:         handle = pBDTEntryOut[ep];
  7277  001ABA  5009               	movf	i2USBTransferOnePacket@ep^0,w,c
  7278  001ABC  0D02               	mullw	2
  7279  001ABE  0E7E               	movlw	low _pBDTEntryOut
  7280  001AC0  24F3               	addwf	243,w,c
  7281  001AC2  6ED9               	movwf	fsr2l,c
  7282  001AC4  0E00               	movlw	high _pBDTEntryOut
  7283  001AC6  20F4               	addwfc	prodh,w,c
  7284  001AC8  6EDA               	movwf	fsr2h,c
  7285  001ACA  CFDE F00A          	movff	postinc2,i2USBTransferOnePacket@handle
  7286  001ACE  CFDD F00B          	movff	postdec2,i2USBTransferOnePacket@handle+1
  7287  001AD2                     i2l3553:
  7288                           
  7289                           ;mcc_generated_files/usb/usb_device.c: 1017:     if(handle == 0)
  7290  001AD2  500A               	movf	i2USBTransferOnePacket@handle^0,w,c
  7291  001AD4  100B               	iorwf	(i2USBTransferOnePacket@handle+1)^0,w,c
  7292  001AD6  A4D8               	btfss	status,2,c
  7293  001AD8  EF70  F00D         	goto	i2u190_41
  7294  001ADC  EF72  F00D         	goto	i2u190_40
  7295  001AE0                     i2u190_41:
  7296  001AE0  EF78  F00D         	goto	i2l3559
  7297  001AE4                     i2u190_40:
  7298  001AE4                     
  7299                           ;mcc_generated_files/usb/usb_device.c: 1018:     {;mcc_generated_files/usb/usb_device.c:
      +                           1019:         return 0;
  7300  001AE4  0E00               	movlw	0
  7301  001AE6  6E01               	movwf	?i2_USBTransferOnePacket^0,c
  7302  001AE8  0E00               	movlw	0
  7303  001AEA  6E02               	movwf	(?i2_USBTransferOnePacket+1)^0,c
  7304  001AEC  EFE4  F00D         	goto	i2l177
  7305  001AF0                     i2l3559:
  7306                           
  7307                           ;mcc_generated_files/usb/usb_device.c: 1033:     handle->ADR = ((uint16_t)(data));
  7308  001AF0  EE20 F002          	lfsr	2,2
  7309  001AF4  500A               	movf	i2USBTransferOnePacket@handle^0,w,c
  7310  001AF6  26D9               	addwf	fsr2l,f,c
  7311  001AF8  500B               	movf	(i2USBTransferOnePacket@handle+1)^0,w,c
  7312  001AFA  22DA               	addwfc	fsr2h,f,c
  7313  001AFC  C002  FFDE         	movff	i2USBTransferOnePacket@data,postinc2
  7314  001B00  C003  FFDD         	movff	i2USBTransferOnePacket@data+1,postdec2
  7315                           
  7316                           ;mcc_generated_files/usb/usb_device.c: 1034:     handle->CNT = len;
  7317  001B04  EE20 F001          	lfsr	2,1
  7318  001B08  500A               	movf	i2USBTransferOnePacket@handle^0,w,c
  7319  001B0A  26D9               	addwf	fsr2l,f,c
  7320  001B0C  500B               	movf	(i2USBTransferOnePacket@handle+1)^0,w,c
  7321  001B0E  22DA               	addwfc	fsr2h,f,c
  7322  001B10  C004  FFDF         	movff	i2USBTransferOnePacket@len,indf2
  7323  001B14                     
  7324                           ;mcc_generated_files/usb/usb_device.c: 1035:     handle->STAT.Val &= 0x40;
  7325  001B14  C00A  FFD9         	movff	i2USBTransferOnePacket@handle,fsr2l
  7326  001B18  C00B  FFDA         	movff	i2USBTransferOnePacket@handle+1,fsr2h
  7327  001B1C  0E40               	movlw	64
  7328  001B1E  16DF               	andwf	indf2,f,c
  7329  001B20                     
  7330                           ;mcc_generated_files/usb/usb_device.c: 1036:     handle->STAT.Val |= (0x08 & 0x08);
  7331  001B20  C00A  FFD9         	movff	i2USBTransferOnePacket@handle,fsr2l
  7332  001B24  C00B  FFDA         	movff	i2USBTransferOnePacket@handle+1,fsr2h
  7333  001B28  0E00               	movlw	0
  7334  001B2A  86DB               	bsf	plusw2,3,c
  7335  001B2C                     
  7336                           ;mcc_generated_files/usb/usb_device.c: 1037:     handle->STAT.Val |= 0x80;
  7337  001B2C  C00A  FFD9         	movff	i2USBTransferOnePacket@handle,fsr2l
  7338  001B30  C00B  FFDA         	movff	i2USBTransferOnePacket@handle+1,fsr2h
  7339  001B34  0E00               	movlw	0
  7340  001B36  8EDB               	bsf	plusw2,7,c
  7341  001B38                     
  7342                           ;mcc_generated_files/usb/usb_device.c: 1040:     if(dir != 0)
  7343  001B38  5001               	movf	i2USBTransferOnePacket@dir^0,w,c
  7344  001B3A  B4D8               	btfsc	status,2,c
  7345  001B3C  EFA2  F00D         	goto	i2u191_41
  7346  001B40  EFA4  F00D         	goto	i2u191_40
  7347  001B44                     i2u191_41:
  7348  001B44  EFC3  F00D         	goto	i2l3571
  7349  001B48                     i2u191_40:
  7350  001B48                     
  7351                           ;mcc_generated_files/usb/usb_device.c: 1041:     {;mcc_generated_files/usb/usb_device.c:
      +                           1043:         pBDTEntryIn[ep] = (BDT_ENTRY*)(((uint16_t)pBDTEntryIn[ep]) ^ 0x0004);
  7352  001B48  5009               	movf	i2USBTransferOnePacket@ep^0,w,c
  7353  001B4A  0D02               	mullw	2
  7354  001B4C  0E78               	movlw	low _pBDTEntryIn
  7355  001B4E  24F3               	addwf	243,w,c
  7356  001B50  6ED9               	movwf	fsr2l,c
  7357  001B52  0E00               	movlw	high _pBDTEntryIn
  7358  001B54  20F4               	addwfc	prodh,w,c
  7359  001B56  6EDA               	movwf	fsr2h,c
  7360  001B58  CFDE F005          	movff	postinc2,??i2_USBTransferOnePacket
  7361  001B5C  CFDD F006          	movff	postdec2,??i2_USBTransferOnePacket+1
  7362  001B60  0E04               	movlw	4
  7363  001B62  1805               	xorwf	??i2_USBTransferOnePacket^0,w,c
  7364  001B64  6E07               	movwf	(??i2_USBTransferOnePacket+2)^0,c
  7365  001B66  5006               	movf	(??i2_USBTransferOnePacket+1)^0,w,c
  7366  001B68  6E08               	movwf	(??i2_USBTransferOnePacket+3)^0,c
  7367  001B6A  5009               	movf	i2USBTransferOnePacket@ep^0,w,c
  7368  001B6C  0D02               	mullw	2
  7369  001B6E  0E78               	movlw	low _pBDTEntryIn
  7370  001B70  24F3               	addwf	243,w,c
  7371  001B72  6ED9               	movwf	fsr2l,c
  7372  001B74  0E00               	movlw	high _pBDTEntryIn
  7373  001B76  20F4               	addwfc	prodh,w,c
  7374  001B78  6EDA               	movwf	fsr2h,c
  7375  001B7A  C007  FFDE         	movff	??i2_USBTransferOnePacket+2,postinc2
  7376  001B7E  C008  FFDD         	movff	??i2_USBTransferOnePacket+3,postdec2
  7377                           
  7378                           ;mcc_generated_files/usb/usb_device.c: 1044:     }
  7379  001B82  EFE0  F00D         	goto	i2l3573
  7380  001B86                     i2l3571:
  7381                           
  7382                           ;mcc_generated_files/usb/usb_device.c: 1046:     {;mcc_generated_files/usb/usb_device.c:
      +                           1048:         pBDTEntryOut[ep] = (BDT_ENTRY*)(((uint16_t)pBDTEntryOut[ep]) ^ 0x0004);
  7383  001B86  5009               	movf	i2USBTransferOnePacket@ep^0,w,c
  7384  001B88  0D02               	mullw	2
  7385  001B8A  0E7E               	movlw	low _pBDTEntryOut
  7386  001B8C  24F3               	addwf	243,w,c
  7387  001B8E  6ED9               	movwf	fsr2l,c
  7388  001B90  0E00               	movlw	high _pBDTEntryOut
  7389  001B92  20F4               	addwfc	prodh,w,c
  7390  001B94  6EDA               	movwf	fsr2h,c
  7391  001B96  CFDE F005          	movff	postinc2,??i2_USBTransferOnePacket
  7392  001B9A  CFDD F006          	movff	postdec2,??i2_USBTransferOnePacket+1
  7393  001B9E  0E04               	movlw	4
  7394  001BA0  1805               	xorwf	??i2_USBTransferOnePacket^0,w,c
  7395  001BA2  6E07               	movwf	(??i2_USBTransferOnePacket+2)^0,c
  7396  001BA4  5006               	movf	(??i2_USBTransferOnePacket+1)^0,w,c
  7397  001BA6  6E08               	movwf	(??i2_USBTransferOnePacket+3)^0,c
  7398  001BA8  5009               	movf	i2USBTransferOnePacket@ep^0,w,c
  7399  001BAA  0D02               	mullw	2
  7400  001BAC  0E7E               	movlw	low _pBDTEntryOut
  7401  001BAE  24F3               	addwf	243,w,c
  7402  001BB0  6ED9               	movwf	fsr2l,c
  7403  001BB2  0E00               	movlw	high _pBDTEntryOut
  7404  001BB4  20F4               	addwfc	prodh,w,c
  7405  001BB6  6EDA               	movwf	fsr2h,c
  7406  001BB8  C007  FFDE         	movff	??i2_USBTransferOnePacket+2,postinc2
  7407  001BBC  C008  FFDD         	movff	??i2_USBTransferOnePacket+3,postdec2
  7408  001BC0                     i2l3573:
  7409                           
  7410                           ;mcc_generated_files/usb/usb_device.c: 1050:     return (void*)handle;
  7411  001BC0  C00A  F001         	movff	i2USBTransferOnePacket@handle,?i2_USBTransferOnePacket
  7412  001BC4  C00B  F002         	movff	i2USBTransferOnePacket@handle+1,?i2_USBTransferOnePacket+1
  7413  001BC8                     i2l177:
  7414  001BC8  0012               	return		;funcret
  7415  001BCA                     __end_ofi2_USBTransferOnePacket:
  7416                           	callstack 0
  7417                           
  7418 ;; *************** function _USBEnableEndpoint *****************
  7419 ;; Defined at:
  7420 ;;		line 882 in file "mcc_generated_files/usb/usb_device.c"
  7421 ;; Parameters:    Size  Location     Type
  7422 ;;  ep              1    wreg     unsigned char 
  7423 ;;  options         1    8[COMRAM] unsigned char 
  7424 ;; Auto vars:     Size  Location     Type
  7425 ;;  ep              1   11[COMRAM] unsigned char 
  7426 ;;  p               2    9[COMRAM] PTR unsigned char 
  7427 ;;		 -> UEP0(1), 
  7428 ;; Return value:  Size  Location     Type
  7429 ;;                  1    wreg      void 
  7430 ;; Registers used:
  7431 ;;		wreg, fsr2l, fsr2h, status,2, status,0, prodl, prodh, cstack
  7432 ;; Tracked objects:
  7433 ;;		On entry : 0/0
  7434 ;;		On exit  : 0/0
  7435 ;;		Unchanged: 0/0
  7436 ;; Data sizes:     COMRAM   BANK0   BANK1   BANK2   BANK3   BANK4   BANK5   BANK6   BANK7
  7437 ;;      Params:         1       0       0       0       0       0       0       0       0
  7438 ;;      Locals:         3       0       0       0       0       0       0       0       0
  7439 ;;      Temps:          0       0       0       0       0       0       0       0       0
  7440 ;;      Totals:         4       0       0       0       0       0       0       0       0
  7441 ;;Total ram usage:        4 bytes
  7442 ;; Hardware stack levels used: 1
  7443 ;; Hardware stack levels required when called: 1
  7444 ;; This function calls:
  7445 ;;		_USBConfigureEndpoint
  7446 ;; This function is called by:
  7447 ;;		_CDCInitEP
  7448 ;; This function uses a non-reentrant model
  7449 ;;
  7450                           
  7451                           	psect	text41
  7452  002978                     __ptext41:
  7453                           	callstack 0
  7454  002978                     _USBEnableEndpoint:
  7455                           	callstack 22
  7456                           
  7457                           ;incstack = 0
  7458                           ;USBEnableEndpoint@ep stored from wreg
  7459  002978  6E0C               	movwf	USBEnableEndpoint@ep^0,c
  7460  00297A                     
  7461                           ;mcc_generated_files/usb/usb_device.c: 882: void USBEnableEndpoint(uint8_t ep, uint8_t o
      +                          ptions);mcc_generated_files/usb/usb_device.c: 883: {;mcc_generated_files/usb/usb_device.
      +                          c: 884:     unsigned char* p;;mcc_generated_files/usb/usb_device.c: 888:     if(options 
      +                          & 0x04)
  7462  00297A  A409               	btfss	USBEnableEndpoint@options^0,2,c
  7463  00297C  EFC2  F014         	goto	i2u187_41
  7464  002980  EFC4  F014         	goto	i2u187_40
  7465  002984                     i2u187_41:
  7466  002984  EFC9  F014         	goto	i2l3539
  7467  002988                     i2u187_40:
  7468  002988                     
  7469                           ;mcc_generated_files/usb/usb_device.c: 889:     {;mcc_generated_files/usb/usb_device.c: 
      +                          890:         USBConfigureEndpoint(ep, 0);
  7470  002988  0E00               	movlw	0
  7471  00298A  6E01               	movwf	USBConfigureEndpoint@direction^0,c
  7472  00298C  500C               	movf	USBEnableEndpoint@ep^0,w,c
  7473  00298E  EC16  F013         	call	_USBConfigureEndpoint
  7474  002992                     i2l3539:
  7475                           
  7476                           ;mcc_generated_files/usb/usb_device.c: 892:     if(options & 0x02)
  7477  002992  A209               	btfss	USBEnableEndpoint@options^0,1,c
  7478  002994  EFCE  F014         	goto	i2u188_41
  7479  002998  EFD0  F014         	goto	i2u188_40
  7480  00299C                     i2u188_41:
  7481  00299C  EFD5  F014         	goto	i2l3543
  7482  0029A0                     i2u188_40:
  7483  0029A0                     
  7484                           ;mcc_generated_files/usb/usb_device.c: 893:     {;mcc_generated_files/usb/usb_device.c: 
      +                          894:         USBConfigureEndpoint(ep, 1);
  7485  0029A0  0E01               	movlw	1
  7486  0029A2  6E01               	movwf	USBConfigureEndpoint@direction^0,c
  7487  0029A4  500C               	movf	USBEnableEndpoint@ep^0,w,c
  7488  0029A6  EC16  F013         	call	_USBConfigureEndpoint
  7489  0029AA                     i2l3543:
  7490                           
  7491                           ;mcc_generated_files/usb/usb_device.c: 903:         p = (unsigned char*)(&UEP0+ep);
  7492  0029AA  0E6A               	movlw	106
  7493  0029AC  240C               	addwf	USBEnableEndpoint@ep^0,w,c
  7494  0029AE  6E0A               	movwf	USBEnableEndpoint@p^0,c
  7495  0029B0  6A0B               	clrf	(USBEnableEndpoint@p+1)^0,c
  7496  0029B2  0E0F               	movlw	15
  7497  0029B4  220B               	addwfc	(USBEnableEndpoint@p+1)^0,f,c
  7498  0029B6                     
  7499                           ;mcc_generated_files/usb/usb_device.c: 905:     *p = options;
  7500  0029B6  C00A  FFD9         	movff	USBEnableEndpoint@p,fsr2l
  7501  0029BA  C00B  FFDA         	movff	USBEnableEndpoint@p+1,fsr2h
  7502  0029BE  C009  FFDF         	movff	USBEnableEndpoint@options,indf2
  7503  0029C2  0012               	return		;funcret
  7504  0029C4                     __end_of_USBEnableEndpoint:
  7505                           	callstack 0
  7506                           
  7507 ;; *************** function _USBConfigureEndpoint *****************
  7508 ;; Defined at:
  7509 ;;		line 1547 in file "mcc_generated_files/usb/usb_device.c"
  7510 ;; Parameters:    Size  Location     Type
  7511 ;;  EPNum           1    wreg     unsigned char 
  7512 ;;  direction       1    0[COMRAM] unsigned char 
  7513 ;; Auto vars:     Size  Location     Type
  7514 ;;  EPNum           1    5[COMRAM] unsigned char 
  7515 ;;  handle          2    6[COMRAM] PTR volatile struct __BD
  7516 ;;		 -> BDT(48), 
  7517 ;; Return value:  Size  Location     Type
  7518 ;;                  1    wreg      void 
  7519 ;; Registers used:
  7520 ;;		wreg, fsr2l, fsr2h, status,2, status,0, prodl, prodh
  7521 ;; Tracked objects:
  7522 ;;		On entry : 0/0
  7523 ;;		On exit  : 0/0
  7524 ;;		Unchanged: 0/0
  7525 ;; Data sizes:     COMRAM   BANK0   BANK1   BANK2   BANK3   BANK4   BANK5   BANK6   BANK7
  7526 ;;      Params:         1       0       0       0       0       0       0       0       0
  7527 ;;      Locals:         3       0       0       0       0       0       0       0       0
  7528 ;;      Temps:          4       0       0       0       0       0       0       0       0
  7529 ;;      Totals:         8       0       0       0       0       0       0       0       0
  7530 ;;Total ram usage:        8 bytes
  7531 ;; Hardware stack levels used: 1
  7532 ;; This function calls:
  7533 ;;		Nothing
  7534 ;; This function is called by:
  7535 ;;		_USBEnableEndpoint
  7536 ;; This function uses a non-reentrant model
  7537 ;;
  7538                           
  7539                           	psect	text42
  7540  00262C                     __ptext42:
  7541                           	callstack 0
  7542  00262C                     _USBConfigureEndpoint:
  7543                           	callstack 22
  7544                           
  7545                           ;incstack = 0
  7546                           ;USBConfigureEndpoint@EPNum stored from wreg
  7547  00262C  6E06               	movwf	USBConfigureEndpoint@EPNum^0,c
  7548  00262E                     
  7549                           ;mcc_generated_files/usb/usb_device.c: 1547: static void USBConfigureEndpoint(uint8_t EP
      +                          Num, uint8_t direction);mcc_generated_files/usb/usb_device.c: 1548: {;mcc_generated_file
      +                          s/usb/usb_device.c: 1549:     volatile BDT_ENTRY* handle;;mcc_generated_files/usb/usb_de
      +                          vice.c: 1553:     handle = (volatile BDT_ENTRY*)&BDT[0];
  7550  00262E  0E00               	movlw	0
  7551  002630  6E07               	movwf	USBConfigureEndpoint@handle^0,c
  7552  002632  0E04               	movlw	4
  7553  002634  6E08               	movwf	(USBConfigureEndpoint@handle+1)^0,c
  7554  002636                     
  7555                           ;mcc_generated_files/usb/usb_device.c: 1554:     handle += (4*EPNum+2*direction+0u);
  7556  002636  5001               	movf	USBConfigureEndpoint@direction^0,w,c
  7557  002638  6E02               	movwf	??_USBConfigureEndpoint^0,c
  7558  00263A  6A03               	clrf	(??_USBConfigureEndpoint+1)^0,c
  7559  00263C  90D8               	bcf	status,0,c
  7560  00263E  3602               	rlcf	??_USBConfigureEndpoint^0,f,c
  7561  002640  3603               	rlcf	(??_USBConfigureEndpoint+1)^0,f,c
  7562  002642  5006               	movf	USBConfigureEndpoint@EPNum^0,w,c
  7563  002644  6E04               	movwf	(??_USBConfigureEndpoint+2)^0,c
  7564  002646  6A05               	clrf	(??_USBConfigureEndpoint+3)^0,c
  7565  002648  90D8               	bcf	status,0,c
  7566  00264A  3604               	rlcf	(??_USBConfigureEndpoint+2)^0,f,c
  7567  00264C  3605               	rlcf	(??_USBConfigureEndpoint+3)^0,f,c
  7568  00264E  90D8               	bcf	status,0,c
  7569  002650  3604               	rlcf	(??_USBConfigureEndpoint+2)^0,f,c
  7570  002652  3605               	rlcf	(??_USBConfigureEndpoint+3)^0,f,c
  7571  002654  5002               	movf	??_USBConfigureEndpoint^0,w,c
  7572  002656  2604               	addwf	(??_USBConfigureEndpoint+2)^0,f,c
  7573  002658  5003               	movf	(??_USBConfigureEndpoint+1)^0,w,c
  7574  00265A  2205               	addwfc	(??_USBConfigureEndpoint+3)^0,f,c
  7575  00265C  90D8               	bcf	status,0,c
  7576  00265E  3604               	rlcf	(??_USBConfigureEndpoint+2)^0,f,c
  7577  002660  3605               	rlcf	(??_USBConfigureEndpoint+3)^0,f,c
  7578  002662  90D8               	bcf	status,0,c
  7579  002664  3604               	rlcf	(??_USBConfigureEndpoint+2)^0,f,c
  7580  002666  3605               	rlcf	(??_USBConfigureEndpoint+3)^0,f,c
  7581  002668  5004               	movf	(??_USBConfigureEndpoint+2)^0,w,c
  7582  00266A  2607               	addwf	USBConfigureEndpoint@handle^0,f,c
  7583  00266C  5005               	movf	(??_USBConfigureEndpoint+3)^0,w,c
  7584  00266E  2208               	addwfc	(USBConfigureEndpoint@handle+1)^0,f,c
  7585  002670                     
  7586                           ;mcc_generated_files/usb/usb_device.c: 1556:     handle->STAT.UOWN = 0;
  7587  002670  C007  FFD9         	movff	USBConfigureEndpoint@handle,fsr2l
  7588  002674  C008  FFDA         	movff	USBConfigureEndpoint@handle+1,fsr2h
  7589  002678  9EDF               	bcf	indf2,7,c
  7590  00267A                     
  7591                           ;mcc_generated_files/usb/usb_device.c: 1561:     if(direction == 0)
  7592  00267A  5001               	movf	USBConfigureEndpoint@direction^0,w,c
  7593  00267C  A4D8               	btfss	status,2,c
  7594  00267E  EF43  F013         	goto	i2u186_41
  7595  002682  EF45  F013         	goto	i2u186_40
  7596  002686                     i2u186_41:
  7597  002686  EF53  F013         	goto	i2l3529
  7598  00268A                     i2u186_40:
  7599  00268A                     
  7600                           ;mcc_generated_files/usb/usb_device.c: 1562:     {;mcc_generated_files/usb/usb_device.c:
      +                           1563:         pBDTEntryOut[EPNum] = handle;
  7601  00268A  5006               	movf	USBConfigureEndpoint@EPNum^0,w,c
  7602  00268C  0D02               	mullw	2
  7603  00268E  0E7E               	movlw	low _pBDTEntryOut
  7604  002690  24F3               	addwf	243,w,c
  7605  002692  6ED9               	movwf	fsr2l,c
  7606  002694  0E00               	movlw	high _pBDTEntryOut
  7607  002696  20F4               	addwfc	prodh,w,c
  7608  002698  6EDA               	movwf	fsr2h,c
  7609  00269A  C007  FFDE         	movff	USBConfigureEndpoint@handle,postinc2
  7610  00269E  C008  FFDD         	movff	USBConfigureEndpoint@handle+1,postdec2
  7611                           
  7612                           ;mcc_generated_files/usb/usb_device.c: 1564:     }
  7613  0026A2  EF5F  F013         	goto	i2l3531
  7614  0026A6                     i2l3529:
  7615                           
  7616                           ;mcc_generated_files/usb/usb_device.c: 1566:     {;mcc_generated_files/usb/usb_device.c:
      +                           1567:         pBDTEntryIn[EPNum] = handle;
  7617  0026A6  5006               	movf	USBConfigureEndpoint@EPNum^0,w,c
  7618  0026A8  0D02               	mullw	2
  7619  0026AA  0E78               	movlw	low _pBDTEntryIn
  7620  0026AC  24F3               	addwf	243,w,c
  7621  0026AE  6ED9               	movwf	fsr2l,c
  7622  0026B0  0E00               	movlw	high _pBDTEntryIn
  7623  0026B2  20F4               	addwfc	prodh,w,c
  7624  0026B4  6EDA               	movwf	fsr2h,c
  7625  0026B6  C007  FFDE         	movff	USBConfigureEndpoint@handle,postinc2
  7626  0026BA  C008  FFDD         	movff	USBConfigureEndpoint@handle+1,postdec2
  7627  0026BE                     i2l3531:
  7628                           
  7629                           ;mcc_generated_files/usb/usb_device.c: 1571:         handle->STAT.DTS = 0;
  7630  0026BE  C007  FFD9         	movff	USBConfigureEndpoint@handle,fsr2l
  7631  0026C2  C008  FFDA         	movff	USBConfigureEndpoint@handle+1,fsr2h
  7632  0026C6  9CDF               	bcf	indf2,6,c
  7633  0026C8                     
  7634                           ;mcc_generated_files/usb/usb_device.c: 1572:         (handle+1)->STAT.DTS = 1;
  7635  0026C8  EE20 F004          	lfsr	2,4
  7636  0026CC  5007               	movf	USBConfigureEndpoint@handle^0,w,c
  7637  0026CE  26D9               	addwf	fsr2l,f,c
  7638  0026D0  5008               	movf	(USBConfigureEndpoint@handle+1)^0,w,c
  7639  0026D2  22DA               	addwfc	fsr2h,f,c
  7640  0026D4  8CDF               	bsf	indf2,6,c
  7641  0026D6  0012               	return		;funcret
  7642  0026D8                     __end_of_USBConfigureEndpoint:
  7643                           	callstack 0
  7644                           
  7645 ;; *************** function _USBCtrlTrfOutHandler *****************
  7646 ;; Defined at:
  7647 ;;		line 2542 in file "mcc_generated_files/usb/usb_device.c"
  7648 ;; Parameters:    Size  Location     Type
  7649 ;;		None
  7650 ;; Auto vars:     Size  Location     Type
  7651 ;;		None
  7652 ;; Return value:  Size  Location     Type
  7653 ;;                  1    wreg      void 
  7654 ;; Registers used:
  7655 ;;		wreg, fsr1l, fsr1h, fsr2l, fsr2h, status,2, status,0, cstack
  7656 ;; Tracked objects:
  7657 ;;		On entry : 0/0
  7658 ;;		On exit  : 0/0
  7659 ;;		Unchanged: 0/0
  7660 ;; Data sizes:     COMRAM   BANK0   BANK1   BANK2   BANK3   BANK4   BANK5   BANK6   BANK7
  7661 ;;      Params:         0       0       0       0       0       0       0       0       0
  7662 ;;      Locals:         0       0       0       0       0       0       0       0       0
  7663 ;;      Temps:          0       0       0       0       0       0       0       0       0
  7664 ;;      Totals:         0       0       0       0       0       0       0       0       0
  7665 ;;Total ram usage:        0 bytes
  7666 ;; Hardware stack levels used: 1
  7667 ;; Hardware stack levels required when called: 2
  7668 ;; This function calls:
  7669 ;;		_USBCtrlTrfRxService
  7670 ;; This function is called by:
  7671 ;;		_USBCtrlEPService
  7672 ;; This function uses a non-reentrant model
  7673 ;;
  7674                           
  7675                           	psect	text43
  7676  0027F0                     __ptext43:
  7677                           	callstack 0
  7678  0027F0                     _USBCtrlTrfOutHandler:
  7679                           	callstack 22
  7680  0027F0                     
  7681                           ;mcc_generated_files/usb/usb_device.c: 2544:     if(controlTransferState == 2)
  7682  0027F0  0E02               	movlw	2
  7683  0027F2  184C               	xorwf	_controlTransferState^0,w,c	;volatile
  7684  0027F4  A4D8               	btfss	status,2,c
  7685  0027F6  EFFF  F013         	goto	i2u268_41
  7686  0027FA  EF01  F014         	goto	i2u268_40
  7687  0027FE                     i2u268_41:
  7688  0027FE  EF05  F014         	goto	i2l4217
  7689  002802                     i2u268_40:
  7690  002802                     
  7691                           ;mcc_generated_files/usb/usb_device.c: 2545:     {;mcc_generated_files/usb/usb_device.c:
      +                           2546:         USBCtrlTrfRxService();
  7692  002802  EC62  F00B         	call	_USBCtrlTrfRxService	;wreg free
  7693                           
  7694                           ;mcc_generated_files/usb/usb_device.c: 2547:     }
  7695  002806  EF31  F014         	goto	i2l326
  7696  00280A                     i2l4217:
  7697                           
  7698                           ;mcc_generated_files/usb/usb_device.c: 2549:     {;mcc_generated_files/usb/usb_device.c:
      +                           2552:         controlTransferState = 0;
  7699  00280A  0E00               	movlw	0
  7700  00280C  6E4C               	movwf	_controlTransferState^0,c	;volatile
  7701                           
  7702                           ;mcc_generated_files/usb/usb_device.c: 2559:         if(BothEP0OutUOWNsSet == 0)
  7703  00280E  5049               	movf	_BothEP0OutUOWNsSet^0,w,c	;volatile
  7704  002810  A4D8               	btfss	status,2,c
  7705  002812  EF0D  F014         	goto	i2u269_41
  7706  002816  EF0F  F014         	goto	i2u269_40
  7707  00281A                     i2u269_41:
  7708  00281A  EF2F  F014         	goto	i2l4225
  7709  00281E                     i2u269_40:
  7710  00281E                     
  7711                           ;mcc_generated_files/usb/usb_device.c: 2560:         {;mcc_generated_files/usb/usb_devic
      +                          e.c: 2561:             pBDTEntryEP0OutNext->CNT = 8;
  7712  00281E  EE20 F001          	lfsr	2,1
  7713  002822  503C               	movf	_pBDTEntryEP0OutNext^0,w,c
  7714  002824  26D9               	addwf	fsr2l,f,c
  7715  002826  503D               	movf	(_pBDTEntryEP0OutNext+1)^0,w,c
  7716  002828  22DA               	addwfc	fsr2h,f,c
  7717  00282A  0E08               	movlw	8
  7718  00282C  6EDF               	movwf	indf2,c
  7719                           
  7720                           ;mcc_generated_files/usb/usb_device.c: 2562:             pBDTEntryEP0OutNext->ADR = ((ui
      +                          nt16_t)(&SetupPkt));
  7721  00282E  EE20 F002          	lfsr	2,2
  7722  002832  503C               	movf	_pBDTEntryEP0OutNext^0,w,c
  7723  002834  26D9               	addwf	fsr2l,f,c
  7724  002836  503D               	movf	(_pBDTEntryEP0OutNext+1)^0,w,c
  7725  002838  22DA               	addwfc	fsr2h,f,c
  7726  00283A  0E30               	movlw	48
  7727  00283C  6EDE               	movwf	postinc2,c
  7728  00283E  0E04               	movlw	4
  7729  002840  6EDD               	movwf	postdec2,c
  7730  002842                     
  7731                           ;mcc_generated_files/usb/usb_device.c: 2563:             pBDTEntryEP0OutNext->STAT.Val =
      +                           0x00|(0x08 & 0x08)|0x04;
  7732  002842  C03C  FFD9         	movff	_pBDTEntryEP0OutNext,fsr2l
  7733  002846  C03D  FFDA         	movff	_pBDTEntryEP0OutNext+1,fsr2h
  7734  00284A  0E0C               	movlw	12
  7735  00284C  6EDF               	movwf	indf2,c
  7736  00284E                     
  7737                           ;mcc_generated_files/usb/usb_device.c: 2564:             pBDTEntryEP0OutNext->STAT.Val |
      +                          = 0x80;
  7738  00284E  C03C  FFD9         	movff	_pBDTEntryEP0OutNext,fsr2l
  7739  002852  C03D  FFDA         	movff	_pBDTEntryEP0OutNext+1,fsr2h
  7740  002856  0E00               	movlw	0
  7741  002858  8EDB               	bsf	plusw2,7,c
  7742                           
  7743                           ;mcc_generated_files/usb/usb_device.c: 2565:         }
  7744  00285A  EF31  F014         	goto	i2l326
  7745  00285E                     i2l4225:
  7746                           
  7747                           ;mcc_generated_files/usb/usb_device.c: 2567:         {;mcc_generated_files/usb/usb_devic
      +                          e.c: 2568:                 BothEP0OutUOWNsSet = 0;
  7748  00285E  0E00               	movlw	0
  7749  002860  6E49               	movwf	_BothEP0OutUOWNsSet^0,c	;volatile
  7750  002862                     i2l326:
  7751  002862  0012               	return		;funcret
  7752  002864                     __end_of_USBCtrlTrfOutHandler:
  7753                           	callstack 0
  7754                           
  7755 ;; *************** function _USBCtrlTrfRxService *****************
  7756 ;; Defined at:
  7757 ;;		line 1856 in file "mcc_generated_files/usb/usb_device.c"
  7758 ;; Parameters:    Size  Location     Type
  7759 ;;		None
  7760 ;; Auto vars:     Size  Location     Type
  7761 ;;  byteToRead      1    1[COMRAM] unsigned char 
  7762 ;;  i               1    0[COMRAM] unsigned char 
  7763 ;; Return value:  Size  Location     Type
  7764 ;;                  1    wreg      void 
  7765 ;; Registers used:
  7766 ;;		wreg, fsr1l, fsr1h, fsr2l, fsr2h, status,2, status,0, cstack
  7767 ;; Tracked objects:
  7768 ;;		On entry : 0/0
  7769 ;;		On exit  : 0/0
  7770 ;;		Unchanged: 0/0
  7771 ;; Data sizes:     COMRAM   BANK0   BANK1   BANK2   BANK3   BANK4   BANK5   BANK6   BANK7
  7772 ;;      Params:         0       0       0       0       0       0       0       0       0
  7773 ;;      Locals:         2       0       0       0       0       0       0       0       0
  7774 ;;      Temps:          0       0       0       0       0       0       0       0       0
  7775 ;;      Totals:         2       0       0       0       0       0       0       0       0
  7776 ;;Total ram usage:        2 bytes
  7777 ;; Hardware stack levels used: 1
  7778 ;; Hardware stack levels required when called: 1
  7779 ;; This function calls:
  7780 ;;		_USBCtrlEPAllowStatusStage
  7781 ;; This function is called by:
  7782 ;;		_USBCtrlTrfOutHandler
  7783 ;; This function uses a non-reentrant model
  7784 ;;
  7785                           
  7786                           	psect	text44
  7787  0016C4                     __ptext44:
  7788                           	callstack 0
  7789  0016C4                     _USBCtrlTrfRxService:
  7790                           	callstack 22
  7791  0016C4                     
  7792                           ;mcc_generated_files/usb/usb_device.c: 1858:     uint8_t byteToRead;;mcc_generated_files
      +                          /usb/usb_device.c: 1859:     uint8_t i;;mcc_generated_files/usb/usb_device.c: 1863:     
      +                          byteToRead = pBDTEntryEP0OutCurrent->CNT;
  7793  0016C4  EE20 F001          	lfsr	2,1
  7794  0016C8  503E               	movf	_pBDTEntryEP0OutCurrent^0,w,c
  7795  0016CA  26D9               	addwf	fsr2l,f,c
  7796  0016CC  503F               	movf	(_pBDTEntryEP0OutCurrent+1)^0,w,c
  7797  0016CE  22DA               	addwfc	fsr2h,f,c
  7798  0016D0  50DF               	movf	indf2,w,c
  7799  0016D2  6E02               	movwf	USBCtrlTrfRxService@byteToRead^0,c
  7800  0016D4                     
  7801                           ;mcc_generated_files/usb/usb_device.c: 1869:     if(byteToRead > outPipes[0].wCount.Val)
  7802  0016D4  5002               	movf	USBCtrlTrfRxService@byteToRead^0,w,c
  7803  0016D6  0100               	movlb	0	; () banked
  7804  0016D8  5D6E               	subwf	(_outPipes+4)& (0+255),w,b	;volatile
  7805  0016DA  0E00               	movlw	0
  7806  0016DC  596F               	subwfb	(_outPipes+5)& (0+255),w,b	;volatile
  7807  0016DE  B0D8               	btfsc	status,0,c
  7808  0016E0  EF74  F00B         	goto	i2u253_41
  7809  0016E4  EF76  F00B         	goto	i2u253_40
  7810  0016E8                     i2u253_41:
  7811  0016E8  EF78  F00B         	goto	i2l4031
  7812  0016EC                     i2u253_40:
  7813  0016EC                     
  7814                           ; BSR set to: 0
  7815                           ;mcc_generated_files/usb/usb_device.c: 1870:     {;mcc_generated_files/usb/usb_device.c:
      +                           1871:         byteToRead = outPipes[0].wCount.Val;
  7816  0016EC  C06E  F002         	movff	_outPipes+4,USBCtrlTrfRxService@byteToRead	;volatile
  7817  0016F0                     i2l4031:
  7818                           
  7819                           ; BSR set to: 0
  7820                           ;mcc_generated_files/usb/usb_device.c: 1874:     outPipes[0].wCount.Val -= byteToRead;
  7821  0016F0  5002               	movf	USBCtrlTrfRxService@byteToRead^0,w,c
  7822  0016F2  5F6E               	subwf	(_outPipes+4)& (0+255),f,b	;volatile
  7823  0016F4  0E00               	movlw	0
  7824  0016F6  5B6F               	subwfb	(_outPipes+5)& (0+255),f,b	;volatile
  7825  0016F8                     
  7826                           ; BSR set to: 0
  7827                           ;mcc_generated_files/usb/usb_device.c: 1878:     for(i=0;i<byteToRead;i++)
  7828  0016F8  0E00               	movlw	0
  7829  0016FA  6E01               	movwf	USBCtrlTrfRxService@i^0,c
  7830  0016FC  EF8F  F00B         	goto	i2l4041
  7831  001700                     i2l4035:
  7832                           
  7833                           ; BSR set to: 0
  7834                           ;mcc_generated_files/usb/usb_device.c: 1879:     {;mcc_generated_files/usb/usb_device.c:
      +                           1880:         *outPipes[0].pDst.bRam++ = CtrlTrfData[i];
  7835  001700  0E38               	movlw	56
  7836  001702  2401               	addwf	USBCtrlTrfRxService@i^0,w,c
  7837  001704  6ED9               	movwf	fsr2l,c
  7838  001706  6ADA               	clrf	fsr2h,c
  7839  001708  0E04               	movlw	4
  7840  00170A  22DA               	addwfc	fsr2h,f,c
  7841  00170C  C06A  FFE1         	movff	_outPipes,fsr1l	;volatile
  7842  001710  C06B  FFE2         	movff	_outPipes+1,fsr1h	;volatile
  7843  001714  CFDF FFE7          	movff	indf2,indf1
  7844  001718                     
  7845                           ; BSR set to: 0
  7846  001718  4B6A               	infsnz	_outPipes& (0+255),f,b	;volatile
  7847  00171A  2B6B               	incf	(_outPipes+1)& (0+255),f,b	;volatile
  7848  00171C                     
  7849                           ; BSR set to: 0
  7850                           ;mcc_generated_files/usb/usb_device.c: 1881:     }
  7851  00171C  2A01               	incf	USBCtrlTrfRxService@i^0,f,c
  7852  00171E                     i2l4041:
  7853                           
  7854                           ; BSR set to: 0
  7855  00171E  5002               	movf	USBCtrlTrfRxService@byteToRead^0,w,c
  7856  001720  5C01               	subwf	USBCtrlTrfRxService@i^0,w,c
  7857  001722  A0D8               	btfss	status,0,c
  7858  001724  EF96  F00B         	goto	i2u254_41
  7859  001728  EF98  F00B         	goto	i2u254_40
  7860  00172C                     i2u254_41:
  7861  00172C  EF80  F00B         	goto	i2l4035
  7862  001730                     i2u254_40:
  7863  001730                     
  7864                           ; BSR set to: 0
  7865                           ;mcc_generated_files/usb/usb_device.c: 1885:     if(outPipes[0].wCount.Val > 0)
  7866  001730  516E               	movf	(_outPipes+4)& (0+255),w,b	;volatile
  7867  001732  116F               	iorwf	(_outPipes+5)& (0+255),w,b	;volatile
  7868  001734  B4D8               	btfsc	status,2,c
  7869  001736  EF9F  F00B         	goto	i2u255_41
  7870  00173A  EFA1  F00B         	goto	i2u255_40
  7871  00173E                     i2u255_41:
  7872  00173E  EFDA  F00B         	goto	i2l4057
  7873  001742                     i2u255_40:
  7874  001742                     
  7875                           ; BSR set to: 0
  7876                           ;mcc_generated_files/usb/usb_device.c: 1886:     {;mcc_generated_files/usb/usb_device.c:
      +                           1887:         pBDTEntryEP0OutNext->CNT = 8;
  7877  001742  EE20 F001          	lfsr	2,1
  7878  001746  503C               	movf	_pBDTEntryEP0OutNext^0,w,c
  7879  001748  26D9               	addwf	fsr2l,f,c
  7880  00174A  503D               	movf	(_pBDTEntryEP0OutNext+1)^0,w,c
  7881  00174C  22DA               	addwfc	fsr2h,f,c
  7882  00174E  0E08               	movlw	8
  7883  001750  6EDF               	movwf	indf2,c
  7884                           
  7885                           ;mcc_generated_files/usb/usb_device.c: 1888:         pBDTEntryEP0OutNext->ADR = ((uint16
      +                          _t)(&CtrlTrfData));
  7886  001752  EE20 F002          	lfsr	2,2
  7887  001756  503C               	movf	_pBDTEntryEP0OutNext^0,w,c
  7888  001758  26D9               	addwf	fsr2l,f,c
  7889  00175A  503D               	movf	(_pBDTEntryEP0OutNext+1)^0,w,c
  7890  00175C  22DA               	addwfc	fsr2h,f,c
  7891  00175E  0E38               	movlw	56
  7892  001760  6EDE               	movwf	postinc2,c
  7893  001762  0E04               	movlw	4
  7894  001764  6EDD               	movwf	postdec2,c
  7895  001766                     
  7896                           ; BSR set to: 0
  7897                           ;mcc_generated_files/usb/usb_device.c: 1889:         if(pBDTEntryEP0OutCurrent->STAT.DTS
      +                           == 0)
  7898  001766  C03E  FFD9         	movff	_pBDTEntryEP0OutCurrent,fsr2l
  7899  00176A  C03F  FFDA         	movff	_pBDTEntryEP0OutCurrent+1,fsr2h
  7900  00176E  BCDF               	btfsc	indf2,6,c
  7901  001770  EFBC  F00B         	goto	i2u256_41
  7902  001774  EFBE  F00B         	goto	i2u256_40
  7903  001778                     i2u256_41:
  7904  001778  EFCC  F00B         	goto	i2l4053
  7905  00177C                     i2u256_40:
  7906  00177C                     
  7907                           ; BSR set to: 0
  7908                           ;mcc_generated_files/usb/usb_device.c: 1890:         {;mcc_generated_files/usb/usb_devic
      +                          e.c: 1891:             pBDTEntryEP0OutNext->STAT.Val = 0x40|(0x08 & 0x08);
  7909  00177C  C03C  FFD9         	movff	_pBDTEntryEP0OutNext,fsr2l
  7910  001780  C03D  FFDA         	movff	_pBDTEntryEP0OutNext+1,fsr2h
  7911  001784  0E48               	movlw	72
  7912  001786  6EDF               	movwf	indf2,c
  7913  001788                     
  7914                           ; BSR set to: 0
  7915                           ;mcc_generated_files/usb/usb_device.c: 1892:             pBDTEntryEP0OutNext->STAT.Val |
      +                          = 0x80;
  7916  001788  C03C  FFD9         	movff	_pBDTEntryEP0OutNext,fsr2l
  7917  00178C  C03D  FFDA         	movff	_pBDTEntryEP0OutNext+1,fsr2h
  7918  001790  0E00               	movlw	0
  7919  001792  8EDB               	bsf	plusw2,7,c
  7920                           
  7921                           ;mcc_generated_files/usb/usb_device.c: 1893:         }
  7922  001794  EF03  F00C         	goto	i2l259
  7923  001798                     i2l4053:
  7924                           
  7925                           ; BSR set to: 0
  7926                           ;mcc_generated_files/usb/usb_device.c: 1895:         {;mcc_generated_files/usb/usb_devic
      +                          e.c: 1896:             pBDTEntryEP0OutNext->STAT.Val = 0x00|(0x08 & 0x08);
  7927  001798  C03C  FFD9         	movff	_pBDTEntryEP0OutNext,fsr2l
  7928  00179C  C03D  FFDA         	movff	_pBDTEntryEP0OutNext+1,fsr2h
  7929  0017A0  0E08               	movlw	8
  7930  0017A2  6EDF               	movwf	indf2,c
  7931  0017A4                     
  7932                           ; BSR set to: 0
  7933                           ;mcc_generated_files/usb/usb_device.c: 1897:             pBDTEntryEP0OutNext->STAT.Val |
      +                          = 0x80;
  7934  0017A4  C03C  FFD9         	movff	_pBDTEntryEP0OutNext,fsr2l
  7935  0017A8  C03D  FFDA         	movff	_pBDTEntryEP0OutNext+1,fsr2h
  7936  0017AC  0E00               	movlw	0
  7937  0017AE  8EDB               	bsf	plusw2,7,c
  7938  0017B0  EF03  F00C         	goto	i2l259
  7939  0017B4                     i2l4057:
  7940                           
  7941                           ; BSR set to: 0
  7942                           ;mcc_generated_files/usb/usb_device.c: 1901:     {;mcc_generated_files/usb/usb_device.c:
      +                           1905:         pBDTEntryEP0OutNext->CNT = 8;
  7943  0017B4  EE20 F001          	lfsr	2,1
  7944  0017B8  503C               	movf	_pBDTEntryEP0OutNext^0,w,c
  7945  0017BA  26D9               	addwf	fsr2l,f,c
  7946  0017BC  503D               	movf	(_pBDTEntryEP0OutNext+1)^0,w,c
  7947  0017BE  22DA               	addwfc	fsr2h,f,c
  7948  0017C0  0E08               	movlw	8
  7949  0017C2  6EDF               	movwf	indf2,c
  7950                           
  7951                           ;mcc_generated_files/usb/usb_device.c: 1906:         pBDTEntryEP0OutNext->ADR = ((uint16
      +                          _t)(&SetupPkt));
  7952  0017C4  EE20 F002          	lfsr	2,2
  7953  0017C8  503C               	movf	_pBDTEntryEP0OutNext^0,w,c
  7954  0017CA  26D9               	addwf	fsr2l,f,c
  7955  0017CC  503D               	movf	(_pBDTEntryEP0OutNext+1)^0,w,c
  7956  0017CE  22DA               	addwfc	fsr2h,f,c
  7957  0017D0  0E30               	movlw	48
  7958  0017D2  6EDE               	movwf	postinc2,c
  7959  0017D4  0E04               	movlw	4
  7960  0017D6  6EDD               	movwf	postdec2,c
  7961  0017D8                     
  7962                           ; BSR set to: 0
  7963                           ;mcc_generated_files/usb/usb_device.c: 1910:         pBDTEntryEP0OutNext->STAT.Val = 0x0
      +                          4;
  7964  0017D8  C03C  FFD9         	movff	_pBDTEntryEP0OutNext,fsr2l
  7965  0017DC  C03D  FFDA         	movff	_pBDTEntryEP0OutNext+1,fsr2h
  7966  0017E0  0E04               	movlw	4
  7967  0017E2  6EDF               	movwf	indf2,c
  7968  0017E4                     
  7969                           ; BSR set to: 0
  7970                           ;mcc_generated_files/usb/usb_device.c: 1911:         pBDTEntryEP0OutNext->STAT.Val |= 0x
      +                          80;
  7971  0017E4  C03C  FFD9         	movff	_pBDTEntryEP0OutNext,fsr2l
  7972  0017E8  C03D  FFDA         	movff	_pBDTEntryEP0OutNext+1,fsr2h
  7973  0017EC  0E00               	movlw	0
  7974  0017EE  8EDB               	bsf	plusw2,7,c
  7975  0017F0                     
  7976                           ; BSR set to: 0
  7977  0017F0  9F6D               	bcf	(_outPipes+3)& (0+255),7,b	;volatile
  7978  0017F2                     
  7979                           ; BSR set to: 0
  7980                           ;mcc_generated_files/usb/usb_device.c: 1945:         if(USBDeferStatusStagePacket == 0)
  7981  0017F2  5047               	movf	_USBDeferStatusStagePacket^0,w,c	;volatile
  7982  0017F4  A4D8               	btfss	status,2,c
  7983  0017F6  EFFF  F00B         	goto	i2u257_41
  7984  0017FA  EF01  F00C         	goto	i2u257_40
  7985  0017FE                     i2u257_41:
  7986  0017FE  EF03  F00C         	goto	i2l259
  7987  001802                     i2u257_40:
  7988  001802                     
  7989                           ; BSR set to: 0
  7990                           ;mcc_generated_files/usb/usb_device.c: 1946:         {;mcc_generated_files/usb/usb_devic
      +                          e.c: 1947:             USBCtrlEPAllowStatusStage();
  7991  001802  EC16  F011         	call	_USBCtrlEPAllowStatusStage	;wreg free
  7992  001806                     i2l259:
  7993  001806  0012               	return		;funcret
  7994  001808                     __end_of_USBCtrlTrfRxService:
  7995                           	callstack 0
  7996                           
  7997 ;; *************** function _USBCtrlEPAllowStatusStage *****************
  7998 ;; Defined at:
  7999 ;;		line 1420 in file "mcc_generated_files/usb/usb_device.c"
  8000 ;; Parameters:    Size  Location     Type
  8001 ;;		None
  8002 ;; Auto vars:     Size  Location     Type
  8003 ;;		None
  8004 ;; Return value:  Size  Location     Type
  8005 ;;                  1    wreg      void 
  8006 ;; Registers used:
  8007 ;;		wreg, fsr2l, fsr2h, status,2, status,0
  8008 ;; Tracked objects:
  8009 ;;		On entry : 0/0
  8010 ;;		On exit  : 0/0
  8011 ;;		Unchanged: 0/0
  8012 ;; Data sizes:     COMRAM   BANK0   BANK1   BANK2   BANK3   BANK4   BANK5   BANK6   BANK7
  8013 ;;      Params:         0       0       0       0       0       0       0       0       0
  8014 ;;      Locals:         0       0       0       0       0       0       0       0       0
  8015 ;;      Temps:          0       0       0       0       0       0       0       0       0
  8016 ;;      Totals:         0       0       0       0       0       0       0       0       0
  8017 ;;Total ram usage:        0 bytes
  8018 ;; Hardware stack levels used: 1
  8019 ;; This function calls:
  8020 ;;		Nothing
  8021 ;; This function is called by:
  8022 ;;		_USBDeviceTasks
  8023 ;;		_USBCtrlEPServiceComplete
  8024 ;;		_USBCtrlTrfRxService
  8025 ;; This function uses a non-reentrant model
  8026 ;;
  8027                           
  8028                           	psect	text45
  8029  00222C                     __ptext45:
  8030                           	callstack 0
  8031  00222C                     _USBCtrlEPAllowStatusStage:
  8032                           	callstack 22
  8033  00222C                     
  8034                           ;mcc_generated_files/usb/usb_device.c: 1427:     if(USBStatusStageEnabledFlag1 == 0)
  8035  00222C  5046               	movf	_USBStatusStageEnabledFlag1^0,w,c	;volatile
  8036  00222E  A4D8               	btfss	status,2,c
  8037  002230  EF1C  F011         	goto	i2u209_41
  8038  002234  EF1E  F011         	goto	i2u209_40
  8039  002238                     i2u209_41:
  8040  002238  EF8E  F011         	goto	i2l207
  8041  00223C                     i2u209_40:
  8042  00223C                     
  8043                           ;mcc_generated_files/usb/usb_device.c: 1428:     {;mcc_generated_files/usb/usb_device.c:
      +                           1429:         USBStatusStageEnabledFlag1 = 1;
  8044  00223C  0E01               	movlw	1
  8045  00223E  6E46               	movwf	_USBStatusStageEnabledFlag1^0,c	;volatile
  8046                           
  8047                           ;mcc_generated_files/usb/usb_device.c: 1430:         if(USBStatusStageEnabledFlag2 == 0)
  8048  002240  5045               	movf	_USBStatusStageEnabledFlag2^0,w,c	;volatile
  8049  002242  A4D8               	btfss	status,2,c
  8050  002244  EF26  F011         	goto	i2u210_41
  8051  002248  EF28  F011         	goto	i2u210_40
  8052  00224C                     i2u210_41:
  8053  00224C  EF8E  F011         	goto	i2l207
  8054  002250                     i2u210_40:
  8055  002250                     
  8056                           ;mcc_generated_files/usb/usb_device.c: 1431:         {;mcc_generated_files/usb/usb_devic
      +                          e.c: 1432:             USBStatusStageEnabledFlag2 = 1;
  8057  002250  0E01               	movlw	1
  8058  002252  6E45               	movwf	_USBStatusStageEnabledFlag2^0,c	;volatile
  8059  002254                     
  8060                           ;mcc_generated_files/usb/usb_device.c: 1436:             if(controlTransferState == 2)
  8061  002254  0E02               	movlw	2
  8062  002256  184C               	xorwf	_controlTransferState^0,w,c	;volatile
  8063  002258  A4D8               	btfss	status,2,c
  8064  00225A  EF31  F011         	goto	i2u211_41
  8065  00225E  EF33  F011         	goto	i2u211_40
  8066  002262                     i2u211_41:
  8067  002262  EF4A  F011         	goto	i2l3743
  8068  002266                     i2u211_40:
  8069  002266                     
  8070                           ;mcc_generated_files/usb/usb_device.c: 1437:             {;mcc_generated_files/usb/usb_d
      +                          evice.c: 1438:                 pBDTEntryIn[0]->CNT = 0;
  8071  002266  0100               	movlb	0	; () banked
  8072  002268  EE20 F001          	lfsr	2,1
  8073  00226C  5178               	movf	_pBDTEntryIn& (0+255),w,b
  8074  00226E  26D9               	addwf	fsr2l,f,c
  8075  002270  5179               	movf	(_pBDTEntryIn+1)& (0+255),w,b
  8076  002272  22DA               	addwfc	fsr2h,f,c
  8077  002274  0E00               	movlw	0
  8078  002276  6EDF               	movwf	indf2,c
  8079  002278                     
  8080                           ; BSR set to: 0
  8081                           ;mcc_generated_files/usb/usb_device.c: 1439:                 pBDTEntryIn[0]->STAT.Val = 
      +                          0x40|(0x08 & 0x08);
  8082  002278  C078  FFD9         	movff	_pBDTEntryIn,fsr2l
  8083  00227C  C079  FFDA         	movff	_pBDTEntryIn+1,fsr2h
  8084  002280  0E48               	movlw	72
  8085  002282  6EDF               	movwf	indf2,c
  8086  002284                     
  8087                           ; BSR set to: 0
  8088                           ;mcc_generated_files/usb/usb_device.c: 1440:                 pBDTEntryIn[0]->STAT.Val |=
      +                           0x80;
  8089  002284  C078  FFD9         	movff	_pBDTEntryIn,fsr2l
  8090  002288  C079  FFDA         	movff	_pBDTEntryIn+1,fsr2h
  8091  00228C  0E00               	movlw	0
  8092  00228E  8EDB               	bsf	plusw2,7,c
  8093                           
  8094                           ;mcc_generated_files/usb/usb_device.c: 1441:             }
  8095  002290  EF8E  F011         	goto	i2l207
  8096  002294                     i2l3743:
  8097  002294  044C               	decf	_controlTransferState^0,w,c	;volatile
  8098  002296  A4D8               	btfss	status,2,c
  8099  002298  EF50  F011         	goto	i2u212_41
  8100  00229C  EF52  F011         	goto	i2u212_40
  8101  0022A0                     i2u212_41:
  8102  0022A0  EF8E  F011         	goto	i2l203
  8103  0022A4                     i2u212_40:
  8104  0022A4                     
  8105                           ;mcc_generated_files/usb/usb_device.c: 1443:             {;mcc_generated_files/usb/usb_d
      +                          evice.c: 1444:                 BothEP0OutUOWNsSet = 0;
  8106  0022A4  0E00               	movlw	0
  8107  0022A6  6E49               	movwf	_BothEP0OutUOWNsSet^0,c	;volatile
  8108  0022A8                     
  8109                           ;mcc_generated_files/usb/usb_device.c: 1449:                     pBDTEntryEP0OutCurrent-
      +                          >CNT = 8;
  8110  0022A8  EE20 F001          	lfsr	2,1
  8111  0022AC  503E               	movf	_pBDTEntryEP0OutCurrent^0,w,c
  8112  0022AE  26D9               	addwf	fsr2l,f,c
  8113  0022B0  503F               	movf	(_pBDTEntryEP0OutCurrent+1)^0,w,c
  8114  0022B2  22DA               	addwfc	fsr2h,f,c
  8115  0022B4  0E08               	movlw	8
  8116  0022B6  6EDF               	movwf	indf2,c
  8117  0022B8                     
  8118                           ;mcc_generated_files/usb/usb_device.c: 1450:                     pBDTEntryEP0OutCurrent-
      +                          >ADR = ((uint16_t)(&SetupPkt));
  8119  0022B8  EE20 F002          	lfsr	2,2
  8120  0022BC  503E               	movf	_pBDTEntryEP0OutCurrent^0,w,c
  8121  0022BE  26D9               	addwf	fsr2l,f,c
  8122  0022C0  503F               	movf	(_pBDTEntryEP0OutCurrent+1)^0,w,c
  8123  0022C2  22DA               	addwfc	fsr2h,f,c
  8124  0022C4  0E30               	movlw	48
  8125  0022C6  6EDE               	movwf	postinc2,c
  8126  0022C8  0E04               	movlw	4
  8127  0022CA  6EDD               	movwf	postdec2,c
  8128  0022CC                     
  8129                           ;mcc_generated_files/usb/usb_device.c: 1451:                     pBDTEntryEP0OutCurrent-
      +                          >STAT.Val = 0x04;
  8130  0022CC  C03E  FFD9         	movff	_pBDTEntryEP0OutCurrent,fsr2l
  8131  0022D0  C03F  FFDA         	movff	_pBDTEntryEP0OutCurrent+1,fsr2h
  8132  0022D4  0E04               	movlw	4
  8133  0022D6  6EDF               	movwf	indf2,c
  8134  0022D8                     
  8135                           ;mcc_generated_files/usb/usb_device.c: 1452:                     pBDTEntryEP0OutCurrent-
      +                          >STAT.Val |= 0x80;
  8136  0022D8  C03E  FFD9         	movff	_pBDTEntryEP0OutCurrent,fsr2l
  8137  0022DC  C03F  FFDA         	movff	_pBDTEntryEP0OutCurrent+1,fsr2h
  8138  0022E0  0E00               	movlw	0
  8139  0022E2  8EDB               	bsf	plusw2,7,c
  8140  0022E4                     
  8141                           ;mcc_generated_files/usb/usb_device.c: 1453:                     BothEP0OutUOWNsSet = 1;
  8142  0022E4  0E01               	movlw	1
  8143  0022E6  6E49               	movwf	_BothEP0OutUOWNsSet^0,c	;volatile
  8144  0022E8                     
  8145                           ;mcc_generated_files/usb/usb_device.c: 1457:                 pBDTEntryEP0OutNext->CNT = 
      +                          8;
  8146  0022E8  EE20 F001          	lfsr	2,1
  8147  0022EC  503C               	movf	_pBDTEntryEP0OutNext^0,w,c
  8148  0022EE  26D9               	addwf	fsr2l,f,c
  8149  0022F0  503D               	movf	(_pBDTEntryEP0OutNext+1)^0,w,c
  8150  0022F2  22DA               	addwfc	fsr2h,f,c
  8151  0022F4  0E08               	movlw	8
  8152  0022F6  6EDF               	movwf	indf2,c
  8153  0022F8                     
  8154                           ;mcc_generated_files/usb/usb_device.c: 1458:                 pBDTEntryEP0OutNext->ADR = 
      +                          ((uint16_t)(&SetupPkt));
  8155  0022F8  EE20 F002          	lfsr	2,2
  8156  0022FC  503C               	movf	_pBDTEntryEP0OutNext^0,w,c
  8157  0022FE  26D9               	addwf	fsr2l,f,c
  8158  002300  503D               	movf	(_pBDTEntryEP0OutNext+1)^0,w,c
  8159  002302  22DA               	addwfc	fsr2h,f,c
  8160  002304  0E30               	movlw	48
  8161  002306  6EDE               	movwf	postinc2,c
  8162  002308  0E04               	movlw	4
  8163  00230A  6EDD               	movwf	postdec2,c
  8164  00230C                     
  8165                           ;mcc_generated_files/usb/usb_device.c: 1459:                 pBDTEntryEP0OutNext->STAT.V
      +                          al = 0x80;
  8166  00230C  C03C  FFD9         	movff	_pBDTEntryEP0OutNext,fsr2l
  8167  002310  C03D  FFDA         	movff	_pBDTEntryEP0OutNext+1,fsr2h
  8168  002314  0E80               	movlw	128
  8169  002316  6EDF               	movwf	indf2,c
  8170  002318  EF8E  F011         	goto	i2l207
  8171  00231C                     i2l203:
  8172  00231C                     i2l207:
  8173  00231C  0012               	return		;funcret
  8174  00231E                     __end_of_USBCtrlEPAllowStatusStage:
  8175                           	callstack 0
  8176                           
  8177 ;; *************** function _USBCtrlTrfInHandler *****************
  8178 ;; Defined at:
  8179 ;;		line 2596 in file "mcc_generated_files/usb/usb_device.c"
  8180 ;; Parameters:    Size  Location     Type
  8181 ;;		None
  8182 ;; Auto vars:     Size  Location     Type
  8183 ;;  lastDTS         1    1[COMRAM] unsigned char 
  8184 ;; Return value:  Size  Location     Type
  8185 ;;                  1    wreg      void 
  8186 ;; Registers used:
  8187 ;;		wreg, fsr0l, fsr0h, fsr2l, fsr2h, status,2, status,0, tblptrl, tblptrh, tblptru, cstack
  8188 ;; Tracked objects:
  8189 ;;		On entry : 0/0
  8190 ;;		On exit  : 0/0
  8191 ;;		Unchanged: 0/0
  8192 ;; Data sizes:     COMRAM   BANK0   BANK1   BANK2   BANK3   BANK4   BANK5   BANK6   BANK7
  8193 ;;      Params:         0       0       0       0       0       0       0       0       0
  8194 ;;      Locals:         1       0       0       0       0       0       0       0       0
  8195 ;;      Temps:          0       0       0       0       0       0       0       0       0
  8196 ;;      Totals:         1       0       0       0       0       0       0       0       0
  8197 ;;Total ram usage:        1 bytes
  8198 ;; Hardware stack levels used: 1
  8199 ;; Hardware stack levels required when called: 1
  8200 ;; This function calls:
  8201 ;;		_USBCtrlTrfTxService
  8202 ;; This function is called by:
  8203 ;;		_USBCtrlEPService
  8204 ;; This function uses a non-reentrant model
  8205 ;;
  8206                           
  8207                           	psect	text46
  8208  00201A                     __ptext46:
  8209                           	callstack 0
  8210  00201A                     _USBCtrlTrfInHandler:
  8211                           	callstack 23
  8212  00201A                     
  8213                           ;mcc_generated_files/usb/usb_device.c: 2598:     uint8_t lastDTS;;mcc_generated_files/us
      +                          b/usb_device.c: 2600:     lastDTS = pBDTEntryIn[0]->STAT.DTS;
  8214  00201A  C078  FFD9         	movff	_pBDTEntryIn,fsr2l
  8215  00201E  C079  FFDA         	movff	_pBDTEntryIn+1,fsr2h
  8216  002022  0100               	movlb	0	; () banked
  8217  002024  0E00               	movlw	0
  8218  002026  BCDF               	btfsc	indf2,6,c
  8219  002028  0E01               	movlw	1
  8220  00202A  6E02               	movwf	USBCtrlTrfInHandler@lastDTS^0,c
  8221  00202C                     
  8222                           ; BSR set to: 0
  8223                           ;mcc_generated_files/usb/usb_device.c: 2603:     pBDTEntryIn[0] = (volatile BDT_ENTRY*)(
      +                          ((uint16_t)pBDTEntryIn[0]) ^ 0x0004);
  8224  00202C  0E04               	movlw	4
  8225  00202E  1978               	xorwf	_pBDTEntryIn& (0+255),w,b
  8226  002030  6F78               	movwf	_pBDTEntryIn& (0+255),b
  8227  002032  5179               	movf	(_pBDTEntryIn+1)& (0+255),w,b
  8228  002034  6F79               	movwf	(_pBDTEntryIn+1)& (0+255),b
  8229  002036                     
  8230                           ; BSR set to: 0
  8231                           ;mcc_generated_files/usb/usb_device.c: 2608:     if(USBDeviceState == ADR_PENDING_STATE)
  8232  002036  0E08               	movlw	8
  8233  002038  184E               	xorwf	_USBDeviceState^0,w,c	;volatile
  8234  00203A  A4D8               	btfss	status,2,c
  8235  00203C  EF22  F010         	goto	i2u270_41
  8236  002040  EF24  F010         	goto	i2u270_40
  8237  002044                     i2u270_41:
  8238  002044  EF36  F010         	goto	i2l4241
  8239  002048                     i2u270_40:
  8240  002048                     
  8241                           ; BSR set to: 0
  8242                           ;mcc_generated_files/usb/usb_device.c: 2609:     {;mcc_generated_files/usb/usb_device.c:
      +                           2610:         UADDR = (SetupPkt.bDevADR & 0x7F);
  8243  002048  0104               	movlb	4	; () banked
  8244  00204A  5132               	movf	50,w,b	;volatile
  8245  00204C  0B7F               	andlw	127
  8246  00204E  6E63               	movwf	99,c	;volatile
  8247  002050                     
  8248                           ; BSR set to: 4
  8249                           ;mcc_generated_files/usb/usb_device.c: 2611:         if(UADDR != 0u)
  8250  002050  5063               	movf	99,w,c	;volatile
  8251  002052  B4D8               	btfsc	status,2,c
  8252  002054  EF2E  F010         	goto	i2u271_41
  8253  002058  EF30  F010         	goto	i2u271_40
  8254  00205C                     i2u271_41:
  8255  00205C  EF34  F010         	goto	i2l4239
  8256  002060                     i2u271_40:
  8257  002060                     
  8258                           ; BSR set to: 4
  8259                           ;mcc_generated_files/usb/usb_device.c: 2612:         {;mcc_generated_files/usb/usb_devic
      +                          e.c: 2613:             USBDeviceState=ADDRESS_STATE;
  8260  002060  0E10               	movlw	16
  8261  002062  6E4E               	movwf	_USBDeviceState^0,c	;volatile
  8262                           
  8263                           ;mcc_generated_files/usb/usb_device.c: 2614:         }
  8264  002064  EF36  F010         	goto	i2l4241
  8265  002068                     i2l4239:
  8266                           
  8267                           ; BSR set to: 4
  8268                           ;mcc_generated_files/usb/usb_device.c: 2616:         {;mcc_generated_files/usb/usb_devic
      +                          e.c: 2617:             USBDeviceState=DEFAULT_STATE;
  8269  002068  0E04               	movlw	4
  8270  00206A  6E4E               	movwf	_USBDeviceState^0,c	;volatile
  8271  00206C                     i2l4241:
  8272                           
  8273                           ;mcc_generated_files/usb/usb_device.c: 2622:     if(controlTransferState == 1)
  8274  00206C  044C               	decf	_controlTransferState^0,w,c	;volatile
  8275  00206E  A4D8               	btfss	status,2,c
  8276  002070  EF3C  F010         	goto	i2u272_41
  8277  002074  EF3E  F010         	goto	i2u272_40
  8278  002078                     i2u272_41:
  8279  002078  EF86  F010         	goto	i2l332
  8280  00207C                     i2u272_40:
  8281  00207C                     
  8282                           ;mcc_generated_files/usb/usb_device.c: 2623:     {;mcc_generated_files/usb/usb_device.c:
      +                           2624:         pBDTEntryIn[0]->ADR = ((uint16_t)(CtrlTrfData));
  8283  00207C  0100               	movlb	0	; () banked
  8284  00207E  EE20 F002          	lfsr	2,2
  8285  002082  5178               	movf	_pBDTEntryIn& (0+255),w,b
  8286  002084  26D9               	addwf	fsr2l,f,c
  8287  002086  5179               	movf	(_pBDTEntryIn+1)& (0+255),w,b
  8288  002088  22DA               	addwfc	fsr2h,f,c
  8289  00208A  0E38               	movlw	56
  8290  00208C  6EDE               	movwf	postinc2,c
  8291  00208E  0E04               	movlw	4
  8292  002090  6EDD               	movwf	postdec2,c
  8293  002092                     
  8294                           ; BSR set to: 0
  8295                           ;mcc_generated_files/usb/usb_device.c: 2625:         USBCtrlTrfTxService();
  8296  002092  EC78  F00E         	call	_USBCtrlTrfTxService	;wreg free
  8297  002096                     
  8298                           ;mcc_generated_files/usb/usb_device.c: 2631:         if(shortPacketStatus == 2)
  8299  002096  0E02               	movlw	2
  8300  002098  184D               	xorwf	_shortPacketStatus^0,w,c	;volatile
  8301  00209A  A4D8               	btfss	status,2,c
  8302  00209C  EF52  F010         	goto	i2u273_41
  8303  0020A0  EF54  F010         	goto	i2u273_40
  8304  0020A4                     i2u273_41:
  8305  0020A4  EF62  F010         	goto	i2l4253
  8306  0020A8                     i2u273_40:
  8307  0020A8                     
  8308                           ;mcc_generated_files/usb/usb_device.c: 2632:         {;mcc_generated_files/usb/usb_devic
      +                          e.c: 2635:             pBDTEntryIn[0]->STAT.Val = 0x04;
  8309  0020A8  C078  FFD9         	movff	_pBDTEntryIn,fsr2l
  8310  0020AC  C079  FFDA         	movff	_pBDTEntryIn+1,fsr2h
  8311  0020B0  0E04               	movlw	4
  8312  0020B2  6EDF               	movwf	indf2,c
  8313  0020B4                     
  8314                           ;mcc_generated_files/usb/usb_device.c: 2636:             pBDTEntryIn[0]->STAT.Val |= 0x8
      +                          0;
  8315  0020B4  C078  FFD9         	movff	_pBDTEntryIn,fsr2l
  8316  0020B8  C079  FFDA         	movff	_pBDTEntryIn+1,fsr2h
  8317  0020BC  0E00               	movlw	0
  8318  0020BE  8EDB               	bsf	plusw2,7,c
  8319                           
  8320                           ;mcc_generated_files/usb/usb_device.c: 2637:         }
  8321  0020C0  EF91  F010         	goto	i2l340
  8322  0020C4                     i2l4253:
  8323                           
  8324                           ;mcc_generated_files/usb/usb_device.c: 2639:         {;mcc_generated_files/usb/usb_devic
      +                          e.c: 2640:             if(lastDTS == 0)
  8325  0020C4  5002               	movf	USBCtrlTrfInHandler@lastDTS^0,w,c
  8326  0020C6  A4D8               	btfss	status,2,c
  8327  0020C8  EF68  F010         	goto	i2u274_41
  8328  0020CC  EF6A  F010         	goto	i2u274_40
  8329  0020D0                     i2u274_41:
  8330  0020D0  EF78  F010         	goto	i2l4259
  8331  0020D4                     i2u274_40:
  8332  0020D4                     
  8333                           ;mcc_generated_files/usb/usb_device.c: 2641:             {;mcc_generated_files/usb/usb_d
      +                          evice.c: 2642:                 pBDTEntryIn[0]->STAT.Val = 0x40|(0x08 & 0x08);
  8334  0020D4  C078  FFD9         	movff	_pBDTEntryIn,fsr2l
  8335  0020D8  C079  FFDA         	movff	_pBDTEntryIn+1,fsr2h
  8336  0020DC  0E48               	movlw	72
  8337  0020DE  6EDF               	movwf	indf2,c
  8338  0020E0                     
  8339                           ;mcc_generated_files/usb/usb_device.c: 2643:                 pBDTEntryIn[0]->STAT.Val |=
      +                           0x80;
  8340  0020E0  C078  FFD9         	movff	_pBDTEntryIn,fsr2l
  8341  0020E4  C079  FFDA         	movff	_pBDTEntryIn+1,fsr2h
  8342  0020E8  0E00               	movlw	0
  8343  0020EA  8EDB               	bsf	plusw2,7,c
  8344                           
  8345                           ;mcc_generated_files/usb/usb_device.c: 2644:             }
  8346  0020EC  EF91  F010         	goto	i2l340
  8347  0020F0                     i2l4259:
  8348                           
  8349                           ;mcc_generated_files/usb/usb_device.c: 2646:             {;mcc_generated_files/usb/usb_d
      +                          evice.c: 2647:                 pBDTEntryIn[0]->STAT.Val = 0x00|(0x08 & 0x08);
  8350  0020F0  C078  FFD9         	movff	_pBDTEntryIn,fsr2l
  8351  0020F4  C079  FFDA         	movff	_pBDTEntryIn+1,fsr2h
  8352  0020F8  0E08               	movlw	8
  8353  0020FA  6EDF               	movwf	indf2,c
  8354  0020FC                     
  8355                           ;mcc_generated_files/usb/usb_device.c: 2648:                 pBDTEntryIn[0]->STAT.Val |=
      +                           0x80;
  8356  0020FC  C078  FFD9         	movff	_pBDTEntryIn,fsr2l
  8357  002100  C079  FFDA         	movff	_pBDTEntryIn+1,fsr2h
  8358  002104  0E00               	movlw	0
  8359  002106  8EDB               	bsf	plusw2,7,c
  8360  002108  EF91  F010         	goto	i2l340
  8361  00210C                     i2l332:
  8362                           
  8363                           ;mcc_generated_files/usb/usb_device.c: 2653:  {;mcc_generated_files/usb/usb_device.c: 26
      +                          57:         if(outPipes[0].info.bits.busy == 1)
  8364  00210C  0100               	movlb	0	; () banked
  8365  00210E  AF6D               	btfss	(_outPipes+3)& (0+255),7,b	;volatile
  8366  002110  EF8C  F010         	goto	i2u275_41
  8367  002114  EF8E  F010         	goto	i2u275_40
  8368  002118                     i2u275_41:
  8369  002118  EF8F  F010         	goto	i2l4265
  8370  00211C                     i2u275_40:
  8371  00211C                     
  8372                           ; BSR set to: 0
  8373                           ;mcc_generated_files/usb/usb_device.c: 2663:             outPipes[0].info.bits.busy = 0;
  8374  00211C  9F6D               	bcf	(_outPipes+3)& (0+255),7,b	;volatile
  8375  00211E                     i2l4265:
  8376                           
  8377                           ; BSR set to: 0
  8378                           ;mcc_generated_files/usb/usb_device.c: 2666:         controlTransferState = 0;
  8379  00211E  0E00               	movlw	0
  8380  002120  6E4C               	movwf	_controlTransferState^0,c	;volatile
  8381  002122                     i2l340:
  8382  002122  0012               	return		;funcret
  8383  002124                     __end_of_USBCtrlTrfInHandler:
  8384                           	callstack 0
  8385                           
  8386 ;; *************** function _USBCtrlTrfTxService *****************
  8387 ;; Defined at:
  8388 ;;		line 1775 in file "mcc_generated_files/usb/usb_device.c"
  8389 ;; Parameters:    Size  Location     Type
  8390 ;;		None
  8391 ;; Auto vars:     Size  Location     Type
  8392 ;;  byteToSend      1    0[COMRAM] unsigned char 
  8393 ;; Return value:  Size  Location     Type
  8394 ;;                  1    wreg      void 
  8395 ;; Registers used:
  8396 ;;		wreg, fsr0l, fsr0h, fsr2l, fsr2h, status,2, status,0, tblptrl, tblptrh, tblptru
  8397 ;; Tracked objects:
  8398 ;;		On entry : 0/0
  8399 ;;		On exit  : 0/0
  8400 ;;		Unchanged: 0/0
  8401 ;; Data sizes:     COMRAM   BANK0   BANK1   BANK2   BANK3   BANK4   BANK5   BANK6   BANK7
  8402 ;;      Params:         0       0       0       0       0       0       0       0       0
  8403 ;;      Locals:         1       0       0       0       0       0       0       0       0
  8404 ;;      Temps:          0       0       0       0       0       0       0       0       0
  8405 ;;      Totals:         1       0       0       0       0       0       0       0       0
  8406 ;;Total ram usage:        1 bytes
  8407 ;; Hardware stack levels used: 1
  8408 ;; This function calls:
  8409 ;;		Nothing
  8410 ;; This function is called by:
  8411 ;;		_USBCtrlEPAllowDataStage
  8412 ;;		_USBCtrlTrfInHandler
  8413 ;; This function uses a non-reentrant model
  8414 ;;
  8415                           
  8416                           	psect	text47
  8417  001CF0                     __ptext47:
  8418                           	callstack 0
  8419  001CF0                     _USBCtrlTrfTxService:
  8420                           	callstack 21
  8421  001CF0                     
  8422                           ;mcc_generated_files/usb/usb_device.c: 1777:     uint8_t byteToSend;;mcc_generated_files
      +                          /usb/usb_device.c: 1781:     byteToSend = 8;
  8423  001CF0  0E08               	movlw	8
  8424  001CF2  6E01               	movwf	USBCtrlTrfTxService@byteToSend^0,c
  8425  001CF4                     
  8426                           ;mcc_generated_files/usb/usb_device.c: 1782:     if(inPipes[0].wCount.Val < (uint8_t)8)
  8427  001CF4  0100               	movlb	0	; () banked
  8428  001CF6  5177               	movf	(_inPipes+5)& (0+255),w,b	;volatile
  8429  001CF8  E107               	bnz	i2u196_41
  8430  001CFA  0E08               	movlw	8
  8431  001CFC  5D76               	subwf	(_inPipes+4)& (0+255),w,b	;volatile
  8432  001CFE  B0D8               	btfsc	status,0,c
  8433  001D00  EF84  F00E         	goto	i2u196_41
  8434  001D04  EF86  F00E         	goto	i2u196_40
  8435  001D08                     i2u196_41:
  8436  001D08  EF9E  F00E         	goto	i2l3667
  8437  001D0C                     i2u196_40:
  8438  001D0C                     
  8439                           ; BSR set to: 0
  8440                           ;mcc_generated_files/usb/usb_device.c: 1783:     {;mcc_generated_files/usb/usb_device.c:
      +                           1784:         byteToSend = inPipes[0].wCount.Val;
  8441  001D0C  C076  F001         	movff	_inPipes+4,USBCtrlTrfTxService@byteToSend	;volatile
  8442  001D10                     
  8443                           ; BSR set to: 0
  8444                           ;mcc_generated_files/usb/usb_device.c: 1791:         if(shortPacketStatus == 0)
  8445  001D10  504D               	movf	_shortPacketStatus^0,w,c	;volatile
  8446  001D12  A4D8               	btfss	status,2,c
  8447  001D14  EF8E  F00E         	goto	i2u197_41
  8448  001D18  EF90  F00E         	goto	i2u197_40
  8449  001D1C                     i2u197_41:
  8450  001D1C  EF94  F00E         	goto	i2l3663
  8451  001D20                     i2u197_40:
  8452  001D20                     
  8453                           ; BSR set to: 0
  8454                           ;mcc_generated_files/usb/usb_device.c: 1792:         {;mcc_generated_files/usb/usb_devic
      +                          e.c: 1793:             shortPacketStatus = 1;
  8455  001D20  0E01               	movlw	1
  8456  001D22  6E4D               	movwf	_shortPacketStatus^0,c	;volatile
  8457                           
  8458                           ;mcc_generated_files/usb/usb_device.c: 1794:         }
  8459  001D24  EF9E  F00E         	goto	i2l3667
  8460  001D28                     i2l3663:
  8461                           
  8462                           ; BSR set to: 0
  8463  001D28  044D               	decf	_shortPacketStatus^0,w,c	;volatile
  8464  001D2A  A4D8               	btfss	status,2,c
  8465  001D2C  EF9A  F00E         	goto	i2u198_41
  8466  001D30  EF9C  F00E         	goto	i2u198_40
  8467  001D34                     i2u198_41:
  8468  001D34  EF9E  F00E         	goto	i2l3667
  8469  001D38                     i2u198_40:
  8470  001D38                     
  8471                           ; BSR set to: 0
  8472                           ;mcc_generated_files/usb/usb_device.c: 1796:         {;mcc_generated_files/usb/usb_devic
      +                          e.c: 1797:             shortPacketStatus = 2;
  8473  001D38  0E02               	movlw	2
  8474  001D3A  6E4D               	movwf	_shortPacketStatus^0,c	;volatile
  8475  001D3C                     i2l3667:
  8476                           
  8477                           ; BSR set to: 0
  8478                           ;mcc_generated_files/usb/usb_device.c: 1803:     inPipes[0].wCount.Val -= byteToSend;
  8479  001D3C  5001               	movf	USBCtrlTrfTxService@byteToSend^0,w,c
  8480  001D3E  5F76               	subwf	(_inPipes+4)& (0+255),f,b	;volatile
  8481  001D40  0E00               	movlw	0
  8482  001D42  5B77               	subwfb	(_inPipes+5)& (0+255),f,b	;volatile
  8483  001D44                     
  8484                           ; BSR set to: 0
  8485                           ;mcc_generated_files/usb/usb_device.c: 1808:     pBDTEntryIn[0]->CNT = byteToSend;
  8486  001D44  EE20 F001          	lfsr	2,1
  8487  001D48  5178               	movf	_pBDTEntryIn& (0+255),w,b
  8488  001D4A  26D9               	addwf	fsr2l,f,c
  8489  001D4C  5179               	movf	(_pBDTEntryIn+1)& (0+255),w,b
  8490  001D4E  22DA               	addwfc	fsr2h,f,c
  8491  001D50  C001  FFDF         	movff	USBCtrlTrfTxService@byteToSend,indf2
  8492  001D54                     
  8493                           ; BSR set to: 0
  8494                           ;mcc_generated_files/usb/usb_device.c: 1812:     pDst = (volatile uint8_t*)CtrlTrfData;
  8495  001D54  0E38               	movlw	56
  8496  001D56  6E3A               	movwf	_pDst^0,c
  8497  001D58  0E04               	movlw	4
  8498  001D5A  6E3B               	movwf	(_pDst+1)^0,c
  8499  001D5C                     
  8500                           ; BSR set to: 0
  8501                           ;mcc_generated_files/usb/usb_device.c: 1813:     if(inPipes[0].info.bits.ctrl_trf_mem ==
      +                           0x00)
  8502  001D5C  B175               	btfsc	(_inPipes+3)& (0+255),0,b	;volatile
  8503  001D5E  EFB3  F00E         	goto	i2u199_41
  8504  001D62  EFB5  F00E         	goto	i2u199_40
  8505  001D66                     i2u199_41:
  8506  001D66  EFF7  F00E         	goto	i2l3695
  8507  001D6A                     i2u199_40:
  8508  001D6A  EFD2  F00E         	goto	i2l3685
  8509  001D6E                     i2l3677:
  8510                           
  8511                           ; BSR set to: 0
  8512                           ;mcc_generated_files/usb/usb_device.c: 1816:         {;mcc_generated_files/usb/usb_devic
      +                          e.c: 1817:             *pDst++ = *inPipes[0].pSrc.bRom++;
  8513  001D6E  C072  FFF6         	movff	_inPipes,tblptrl	;volatile
  8514  001D72  C073  FFF7         	movff	_inPipes+1,tblptrh	;volatile
  8515  001D76  6AF8               	clrf	tblptru,c
  8516  001D78  C03A  FFD9         	movff	_pDst,fsr2l
  8517  001D7C  C03B  FFDA         	movff	_pDst+1,fsr2h
  8518  001D80  0E07               	movlw	(high __ramtop+-1)
  8519  001D82  64F7               	cpfsgt	tblptrh,c
  8520  001D84  D003               	bra	i2u200_47
  8521  001D86  0008               	tblrd		*
  8522  001D88  50F5               	movf	tablat,w,c
  8523  001D8A  D005               	bra	i2u200_40
  8524  001D8C                     i2u200_47:
  8525  001D8C  CFF6 FFE9          	movff	tblptrl,fsr0l
  8526  001D90  CFF7 FFEA          	movff	tblptrh,fsr0h
  8527  001D94  50EF               	movf	indf0,w,c
  8528  001D96                     i2u200_40:
  8529  001D96  6EDF               	movwf	indf2,c
  8530  001D98  0100               	movlb	0	; () banked
  8531  001D9A  4B72               	infsnz	_inPipes& (0+255),f,b	;volatile
  8532  001D9C  2B73               	incf	(_inPipes+1)& (0+255),f,b	;volatile
  8533  001D9E                     
  8534                           ; BSR set to: 0
  8535  001D9E  4A3A               	infsnz	_pDst^0,f,c
  8536  001DA0  2A3B               	incf	(_pDst+1)^0,f,c
  8537  001DA2                     
  8538                           ; BSR set to: 0
  8539                           ;mcc_generated_files/usb/usb_device.c: 1818:             byteToSend--;
  8540  001DA2  0601               	decf	USBCtrlTrfTxService@byteToSend^0,f,c
  8541  001DA4                     i2l3685:
  8542                           
  8543                           ; BSR set to: 0
  8544                           ;mcc_generated_files/usb/usb_device.c: 1815:         while(byteToSend)
  8545  001DA4  5001               	movf	USBCtrlTrfTxService@byteToSend^0,w,c
  8546  001DA6  A4D8               	btfss	status,2,c
  8547  001DA8  EFD8  F00E         	goto	i2u201_41
  8548  001DAC  EFDA  F00E         	goto	i2u201_40
  8549  001DB0                     i2u201_41:
  8550  001DB0  EFB7  F00E         	goto	i2l3677
  8551  001DB4                     i2u201_40:
  8552  001DB4  EFFF  F00E         	goto	i2l246
  8553  001DB8                     i2l3687:
  8554                           
  8555                           ; BSR set to: 0
  8556                           ;mcc_generated_files/usb/usb_device.c: 1824:         {;mcc_generated_files/usb/usb_devic
      +                          e.c: 1825:             *pDst++ = *inPipes[0].pSrc.bRam++;
  8557  001DB8  C072  FFF6         	movff	_inPipes,tblptrl	;volatile
  8558  001DBC  C073  FFF7         	movff	_inPipes+1,tblptrh	;volatile
  8559  001DC0  6AF8               	clrf	tblptru,c
  8560  001DC2  C03A  FFD9         	movff	_pDst,fsr2l
  8561  001DC6  C03B  FFDA         	movff	_pDst+1,fsr2h
  8562  001DCA  0E07               	movlw	(high __ramtop+-1)
  8563  001DCC  64F7               	cpfsgt	tblptrh,c
  8564  001DCE  D003               	bra	i2u202_47
  8565  001DD0  0008               	tblrd		*
  8566  001DD2  50F5               	movf	tablat,w,c
  8567  001DD4  D005               	bra	i2u202_40
  8568  001DD6                     i2u202_47:
  8569  001DD6  CFF6 FFE9          	movff	tblptrl,fsr0l
  8570  001DDA  CFF7 FFEA          	movff	tblptrh,fsr0h
  8571  001DDE  50EF               	movf	indf0,w,c
  8572  001DE0                     i2u202_40:
  8573  001DE0  6EDF               	movwf	indf2,c
  8574  001DE2  0100               	movlb	0	; () banked
  8575  001DE4  4B72               	infsnz	_inPipes& (0+255),f,b	;volatile
  8576  001DE6  2B73               	incf	(_inPipes+1)& (0+255),f,b	;volatile
  8577  001DE8                     
  8578                           ; BSR set to: 0
  8579  001DE8  4A3A               	infsnz	_pDst^0,f,c
  8580  001DEA  2A3B               	incf	(_pDst+1)^0,f,c
  8581  001DEC                     
  8582                           ; BSR set to: 0
  8583                           ;mcc_generated_files/usb/usb_device.c: 1826:             byteToSend--;
  8584  001DEC  0601               	decf	USBCtrlTrfTxService@byteToSend^0,f,c
  8585  001DEE                     i2l3695:
  8586                           
  8587                           ; BSR set to: 0
  8588                           ;mcc_generated_files/usb/usb_device.c: 1823:         while(byteToSend)
  8589  001DEE  5001               	movf	USBCtrlTrfTxService@byteToSend^0,w,c
  8590  001DF0  A4D8               	btfss	status,2,c
  8591  001DF2  EFFD  F00E         	goto	i2u203_41
  8592  001DF6  EFFF  F00E         	goto	i2u203_40
  8593  001DFA                     i2u203_41:
  8594  001DFA  EFDC  F00E         	goto	i2l3687
  8595  001DFE                     i2u203_40:
  8596  001DFE                     i2l246:
  8597                           
  8598                           ; BSR set to: 0
  8599  001DFE  0012               	return		;funcret
  8600  001E00                     __end_of_USBCtrlTrfTxService:
  8601                           	callstack 0
  8602                           
  8603                           	psect	rparam
  8604  0000                     
  8605                           	psect	temp
  8606  000053                     btemp:
  8607                           	callstack 0
  8608  000053                     	ds	1
  8609  0000                     int$flags	set	btemp
  8610  0000                     wtemp8	set	btemp+1
  8611  0000                     ttemp5	set	btemp+1
  8612  0000                     ttemp6	set	btemp+4
  8613  0000                     ttemp7	set	btemp+8
  8614                           
  8615                           	psect	idloc
  8616                           
  8617                           ;Config register IDLOC0 @ 0x200000
  8618                           ;	unspecified, using default values
  8619  200000                     	org	2097152
  8620  200000  FF                 	db	255
  8621                           
  8622                           ;Config register IDLOC1 @ 0x200001
  8623                           ;	unspecified, using default values
  8624  200001                     	org	2097153
  8625  200001  FF                 	db	255
  8626                           
  8627                           ;Config register IDLOC2 @ 0x200002
  8628                           ;	unspecified, using default values
  8629  200002                     	org	2097154
  8630  200002  FF                 	db	255
  8631                           
  8632                           ;Config register IDLOC3 @ 0x200003
  8633                           ;	unspecified, using default values
  8634  200003                     	org	2097155
  8635  200003  FF                 	db	255
  8636                           
  8637                           ;Config register IDLOC4 @ 0x200004
  8638                           ;	unspecified, using default values
  8639  200004                     	org	2097156
  8640  200004  FF                 	db	255
  8641                           
  8642                           ;Config register IDLOC5 @ 0x200005
  8643                           ;	unspecified, using default values
  8644  200005                     	org	2097157
  8645  200005  FF                 	db	255
  8646                           
  8647                           ;Config register IDLOC6 @ 0x200006
  8648                           ;	unspecified, using default values
  8649  200006                     	org	2097158
  8650  200006  FF                 	db	255
  8651                           
  8652                           ;Config register IDLOC7 @ 0x200007
  8653                           ;	unspecified, using default values
  8654  200007                     	org	2097159
  8655  200007  FF                 	db	255
  8656                           
  8657                           	psect	config
  8658                           
  8659                           ;Config register CONFIG1L @ 0x300000
  8660                           ;	PLL Selection
  8661                           ;	PLLSEL = PLL3X, 3x clock multiplier
  8662                           ;	PLL Enable Configuration bit
  8663                           ;	CFGPLLEN = ON, PLL Enabled
  8664                           ;	CPU System Clock Postscaler
  8665                           ;	CPUDIV = NOCLKDIV, CPU uses system clock (no divide)
  8666                           ;	Low Speed USB mode with 48 MHz system clock
  8667                           ;	LS48MHZ = SYS48X8, System clock at 48 MHz, USB clock divider is set to 8
  8668  300000                     	org	3145728
  8669  300000  23                 	db	35
  8670                           
  8671                           ;Config register CONFIG1H @ 0x300001
  8672                           ;	Oscillator Selection
  8673                           ;	FOSC = INTOSCIO, Internal oscillator
  8674                           ;	Primary Oscillator Shutdown
  8675                           ;	PCLKEN = ON, Primary oscillator enabled
  8676                           ;	Fail-Safe Clock Monitor
  8677                           ;	FCMEN = OFF, Fail-Safe Clock Monitor disabled
  8678                           ;	Internal/External Oscillator Switchover
  8679                           ;	IESO = OFF, Oscillator Switchover mode disabled
  8680  300001                     	org	3145729
  8681  300001  28                 	db	40
  8682                           
  8683                           ;Config register CONFIG2L @ 0x300002
  8684                           ;	Power-up Timer Enable
  8685                           ;	nPWRTEN = OFF, Power up timer disabled
  8686                           ;	Brown-out Reset Enable
  8687                           ;	BOREN = SBORDIS, BOR enabled in hardware (SBOREN is ignored)
  8688                           ;	Brown-out Reset Voltage
  8689                           ;	BORV = 190, BOR set to 1.9V nominal
  8690                           ;	Low-Power Brown-out Reset
  8691                           ;	nLPBOR = OFF, Low-Power Brown-out Reset disabled
  8692  300002                     	org	3145730
  8693  300002  5F                 	db	95
  8694                           
  8695                           ;Config register CONFIG2H @ 0x300003
  8696                           ;	Watchdog Timer Enable bits
  8697                           ;	WDTEN = OFF, WDT disabled in hardware (SWDTEN ignored)
  8698                           ;	Watchdog Timer Postscaler
  8699                           ;	WDTPS = 32768, 1:32768
  8700  300003                     	org	3145731
  8701  300003  3C                 	db	60
  8702                           
  8703                           ; Padding undefined space
  8704  300004                     	org	3145732
  8705  300004  FF                 	db	255
  8706                           
  8707                           ;Config register CONFIG3H @ 0x300005
  8708                           ;	CCP2 MUX bit
  8709                           ;	CCP2MX = RC1, CCP2 input/output is multiplexed with RC1
  8710                           ;	PORTB A/D Enable bit
  8711                           ;	PBADEN = ON, PORTB<5:0> pins are configured as analog input channels on Reset
  8712                           ;	Timer3 Clock Input MUX bit
  8713                           ;	T3CMX = RC0, T3CKI function is on RC0
  8714                           ;	SDO Output MUX bit
  8715                           ;	SDOMX = RB3, SDO function is on RB3
  8716                           ;	Master Clear Reset Pin Enable
  8717                           ;	MCLRE = ON, MCLR pin enabled; RE3 input disabled
  8718  300005                     	org	3145733
  8719  300005  D3                 	db	211
  8720                           
  8721                           ;Config register CONFIG4L @ 0x300006
  8722                           ;	Stack Full/Underflow Reset
  8723                           ;	STVREN = ON, Stack full/underflow will cause Reset
  8724                           ;	Single-Supply ICSP Enable bit
  8725                           ;	LVP = ON, Single-Supply ICSP enabled if MCLRE is also 1
  8726                           ;	Dedicated In-Circuit Debug/Programming Port Enable
  8727                           ;	ICPRT = OFF, ICPORT disabled
  8728                           ;	Extended Instruction Set Enable bit
  8729                           ;	XINST = OFF, Instruction set extension and Indexed Addressing mode disabled
  8730                           ;	Background Debugger Enable bit
  8731                           ;	DEBUG = OFF, Background debugger disabled, RB6 and RB7 configured as general purpose I
      +                          /O pins
  8732  300006                     	org	3145734
  8733  300006  85                 	db	133
  8734                           
  8735                           ; Padding undefined space
  8736  300007                     	org	3145735
  8737  300007  FF                 	db	255
  8738                           
  8739                           ;Config register CONFIG5L @ 0x300008
  8740                           ;	Block 0 Code Protect
  8741                           ;	CP0 = OFF, Block 0 is not code-protected
  8742                           ;	Block 1 Code Protect
  8743                           ;	CP1 = OFF, Block 1 is not code-protected
  8744                           ;	Block 2 Code Protect
  8745                           ;	CP2 = OFF, Block 2 is not code-protected
  8746                           ;	Block 3 Code Protect
  8747                           ;	CP3 = OFF, Block 3 is not code-protected
  8748  300008                     	org	3145736
  8749  300008  0F                 	db	15
  8750                           
  8751                           ;Config register CONFIG5H @ 0x300009
  8752                           ;	Boot Block Code Protect
  8753                           ;	CPB = OFF, Boot block is not code-protected
  8754                           ;	Data EEPROM Code Protect
  8755                           ;	CPD = OFF, Data EEPROM is not code-protected
  8756  300009                     	org	3145737
  8757  300009  C0                 	db	192
  8758                           
  8759                           ;Config register CONFIG6L @ 0x30000A
  8760                           ;	Block 0 Write Protect
  8761                           ;	WRT0 = OFF, Block 0 (0800-1FFFh) is not write-protected
  8762                           ;	Block 1 Write Protect
  8763                           ;	WRT1 = OFF, Block 1 (2000-3FFFh) is not write-protected
  8764                           ;	Block 2 Write Protect
  8765                           ;	WRT2 = OFF, Block 2 (04000-5FFFh) is not write-protected
  8766                           ;	Block 3 Write Protect
  8767                           ;	WRT3 = OFF, Block 3 (06000-7FFFh) is not write-protected
  8768  30000A                     	org	3145738
  8769  30000A  0F                 	db	15
  8770                           
  8771                           ;Config register CONFIG6H @ 0x30000B
  8772                           ;	Configuration Registers Write Protect
  8773                           ;	WRTC = OFF, Configuration registers (300000-3000FFh) are not write-protected
  8774                           ;	Boot Block Write Protect
  8775                           ;	WRTB = OFF, Boot block (0000-7FFh) is not write-protected
  8776                           ;	Data EEPROM Write Protect
  8777                           ;	WRTD = OFF, Data EEPROM is not write-protected
  8778  30000B                     	org	3145739
  8779  30000B  E0                 	db	224
  8780                           
  8781                           ;Config register CONFIG7L @ 0x30000C
  8782                           ;	Block 0 Table Read Protect
  8783                           ;	EBTR0 = OFF, Block 0 is not protected from table reads executed in other blocks
  8784                           ;	Block 1 Table Read Protect
  8785                           ;	EBTR1 = OFF, Block 1 is not protected from table reads executed in other blocks
  8786                           ;	Block 2 Table Read Protect
  8787                           ;	EBTR2 = OFF, Block 2 is not protected from table reads executed in other blocks
  8788                           ;	Block 3 Table Read Protect
  8789                           ;	EBTR3 = OFF, Block 3 is not protected from table reads executed in other blocks
  8790  30000C                     	org	3145740
  8791  30000C  0F                 	db	15
  8792                           
  8793                           ;Config register CONFIG7H @ 0x30000D
  8794                           ;	Boot Block Table Read Protect
  8795                           ;	EBTRB = OFF, Boot block is not protected from table reads executed in other blocks
  8796  30000D                     	org	3145741
  8797  30000D  40                 	db	64
  8798                           tosu	equ	0xFFF
  8799                           tosh	equ	0xFFE
  8800                           tosl	equ	0xFFD
  8801                           stkptr	equ	0xFFC
  8802                           pclatu	equ	0xFFB
  8803                           pclath	equ	0xFFA
  8804                           pcl	equ	0xFF9
  8805                           tblptru	equ	0xFF8
  8806                           tblptrh	equ	0xFF7
  8807                           tblptrl	equ	0xFF6
  8808                           tablat	equ	0xFF5
  8809                           prodh	equ	0xFF4
  8810                           prodl	equ	0xFF3
  8811                           indf0	equ	0xFEF
  8812                           postinc0	equ	0xFEE
  8813                           postdec0	equ	0xFED
  8814                           preinc0	equ	0xFEC
  8815                           plusw0	equ	0xFEB
  8816                           fsr0h	equ	0xFEA
  8817                           fsr0l	equ	0xFE9
  8818                           wreg	equ	0xFE8
  8819                           indf1	equ	0xFE7
  8820                           postinc1	equ	0xFE6
  8821                           postdec1	equ	0xFE5
  8822                           preinc1	equ	0xFE4
  8823                           plusw1	equ	0xFE3
  8824                           fsr1h	equ	0xFE2
  8825                           fsr1l	equ	0xFE1
  8826                           bsr	equ	0xFE0
  8827                           indf2	equ	0xFDF
  8828                           postinc2	equ	0xFDE
  8829                           postdec2	equ	0xFDD
  8830                           preinc2	equ	0xFDC
  8831                           plusw2	equ	0xFDB
  8832                           fsr2h	equ	0xFDA
  8833                           fsr2l	equ	0xFD9
  8834                           status	equ	0xFD8

Data Sizes:
    Strings     0
    Constant    171
    Data        0
    BSS         239
    Persistent  0
    Stack       0

Auto Spaces:
    Space          Size  Autos    Used
    COMRAM           94     43      82
    BANK0           160     19     155
    BANK1           256      0      64
    BANK2           256      0       0
    BANK3           256      0       0
    BANK4           192      0       0
    BANK5           128      0       0
    BANK6           256      0       0
    BANK7           256      0       0

Pointer List with Targets:

    USER_USB_CALLBACK_EVENT_HANDLER@pdata	PTR void  size(2) Largest target is 2047
		 -> RAM(DATA[2047]), USTATcopy(COMRAM[1]), USBActiveConfiguration(COMRAM[1]), NULL(NULL[0]), 
		 -> BDT(BIGRAMl[48]), 

    ADC_InterruptHandler	PTR FTN()void  size(2) Largest target is 1
		 -> Absolute function(), 

    memset@dest	PTR void  size(2) Largest target is 48
		 -> USBAlternateInterface(COMRAM[2]), BDT(BIGRAMl[48]), UEP1(BITBIGSFRlhhlll[1]), 

    memset@s	PTR unsigned char  size(2) Largest target is 48
		 -> USBAlternateInterface(COMRAM[2]), BDT(BIGRAMl[48]), UEP1(BITBIGSFRlhhlll[1]), 

    memcpy@d1	PTR void  size(2) Largest target is 8
		 -> SetupPkt(BIGRAMhl[8]), 

    memcpy@d	PTR unsigned char  size(2) Largest target is 8
		 -> SetupPkt(BIGRAMhl[8]), 

    memcpy@s1	PTR const void  size(2) Largest target is 2047
		 -> CtrlTrfData(BIGRAMhl[8]), RAM(DATA[2047]), SetupPkt(BIGRAMhl[8]), 

    memcpy@s	PTR const unsigned char  size(2) Largest target is 2047
		 -> CtrlTrfData(BIGRAMhl[8]), RAM(DATA[2047]), SetupPkt(BIGRAMhl[8]), 

    putUSBUSART@data	PTR unsigned char  size(2) Largest target is 64
		 -> writeBuffer(BANK1[64]), 

    getsUSBUSART@buffer	PTR unsigned char  size(2) Largest target is 64
		 -> readBuffer(BANK0[64]), 

    CDCDataInHandle	PTR void  size(2) Largest target is 2047
		 -> RAM(DATA[2047]), NULL(NULL[0]), BDT(BIGRAMl[48]), 

    CDCDataOutHandle	PTR void  size(2) Largest target is 2047
		 -> RAM(DATA[2047]), NULL(NULL[0]), BDT(BIGRAMl[48]), 

    pCDCDst.wRom	PTR const unsigned short  size(2) Largest target is 0

    pCDCDst.bRom	PTR const unsigned char  size(2) Largest target is 0

    pCDCDst.wRam	PTR unsigned short  size(2) Largest target is 0

    pCDCDst.bRam	PTR unsigned char  size(2) Largest target is 0

    S1778_POINTER$wRom	PTR const unsigned short  size(2) Largest target is 0

    pCDCSrc.wRom	PTR const unsigned short  size(2) Largest target is 0

    S1778_POINTER$bRom	PTR const unsigned char  size(2) Largest target is 0

    pCDCSrc.bRom	PTR const unsigned char  size(2) Largest target is 0

    S1778_POINTER$wRam	PTR unsigned short  size(2) Largest target is 0

    pCDCSrc.wRam	PTR unsigned short  size(2) Largest target is 0

    S1778_POINTER$bRam	PTR unsigned char  size(2) Largest target is 0

    pCDCSrc.bRam	PTR unsigned char  size(2) Largest target is 0

    USBStdFeatureReqHandler@pUEP	PTR unsigned char  size(2) Largest target is 1
		 -> UEP0(BITBIGSFRlhl[1]), 

    USBStdFeatureReqHandler@p	PTR struct __BDT size(2) Largest target is 2047
		 -> RAM(DATA[2047]), NULL(NULL[0]), BDT(BIGRAMl[48]), 

    sp__memcpy	PTR void  size(2) Largest target is 8
		 -> SetupPkt(BIGRAMhl[8]), 

    USBStdGetStatusHandler@p	PTR struct __BDT size(2) Largest target is 2047
		 -> RAM(DATA[2047]), NULL(NULL[0]), BDT(BIGRAMl[48]), 

    USB_SD_Ptr	const PTR const unsigned char [3] size(2) Largest target is 52
		 -> sd002(CODE[22]), sd001(CODE[52]), sd000(CODE[4]), 

    USB_CD_Ptr	const PTR const unsigned char [1] size(2) Largest target is 67
		 -> configDescriptor1(CODE[67]), 

    pDst	PTR volatile unsigned char  size(2) Largest target is 8
		 -> CtrlTrfData(BIGRAMhl[8]), NULL(NULL[0]), 

    USBConfigureEndpoint@handle	PTR volatile struct __BDT size(2) Largest target is 48
		 -> BDT(BIGRAMl[48]), 

    pBDTEntryEP0OutCurrent	PTR volatile struct __BDT size(2) Largest target is 48
		 -> NULL(NULL[0]), BDT(BIGRAMl[48]), 

    pBDTEntryEP0OutNext	PTR volatile struct __BDT size(2) Largest target is 2047
		 -> RAM(DATA[2047]), NULL(NULL[0]), BDT(BIGRAMl[48]), 

    USBTransferOnePacket@data	PTR unsigned char  size(2) Largest target is 64
		 -> cdc_data_tx(BIGRAMhl[64]), cdc_data_rx(BIGRAMhh[64]), NULL(NULL[0]), 

    sp__USBTransferOnePacket	PTR void  size(2) Largest target is 2047
		 -> RAM(DATA[2047]), NULL(NULL[0]), BDT(BIGRAMl[48]), 

    USBTransferOnePacket@handle	PTR volatile struct __BDT size(2) Largest target is 2047
		 -> RAM(DATA[2047]), NULL(NULL[0]), BDT(BIGRAMl[48]), 

    USBEnableEndpoint@p	PTR unsigned char  size(2) Largest target is 1
		 -> UEP0(BITBIGSFRlhl[1]), 

    pBDTEntryOut	PTR volatile struct __BDT[3] size(2) Largest target is 2047
		 -> RAM(DATA[2047]), NULL(NULL[0]), BDT(BIGRAMl[48]), 

    pBDTEntryIn	PTR volatile struct __BDT[3] size(2) Largest target is 2047
		 -> RAM(DATA[2047]), NULL(NULL[0]), BDT(BIGRAMl[48]), 

    S105$pFunc	PTR FTN()void  size(2) Largest target is 0
		 -> NULL(NULL[0]), 

    outPipes.pFunc	PTR FTN()void  size(2) Largest target is 0
		 -> NULL(NULL[0]), 

    S95$wRam	PTR unsigned short  size(2) Largest target is 0

    outPipes.pDst.wRam	PTR unsigned short  size(2) Largest target is 0

    S95$bRam	PTR unsigned char  size(2) Largest target is 0

    outPipes.pDst.bRam	PTR unsigned char  size(2) Largest target is 0

    S71$wRom	PTR const unsigned short  size(2) Largest target is 0

    inPipes.pSrc.wRom	PTR const unsigned short  size(2) Largest target is 0

    S71$wRam	PTR unsigned short  size(2) Largest target is 0

    inPipes.pSrc.wRam	PTR unsigned short  size(2) Largest target is 0

    S71$bRom	PTR const unsigned char  size(2) Largest target is 0

    inPipes.pSrc.bRom	PTR const unsigned char  size(2) Largest target is 0

    S71$bRam	PTR unsigned char  size(2) Largest target is 0

    inPipes.pSrc.bRam	PTR unsigned char  size(2) Largest target is 0

    sp__memset	PTR void  size(2) Largest target is 48
		 -> USBAlternateInterface(COMRAM[2]), BDT(BIGRAMl[48]), UEP1(BITBIGSFRlhhlll[1]), 


Critical Paths under _main in COMRAM

    None.

Critical Paths under _INTERRUPT_InterruptManager in COMRAM

    _INTERRUPT_InterruptManager->_USBDeviceTasks
    _USBDeviceTasks->_USBCtrlEPService
    i2_USBDeviceInit->i2_memset
    _USBWakeFromSuspend->_USER_USB_CALLBACK_EVENT_HANDLER
    _USBSuspend->_USER_USB_CALLBACK_EVENT_HANDLER
    _USBCtrlTrfSetupHandler->_USBCheckStdRequest
    _USBCtrlEPAllowDataStage->_USBCtrlTrfTxService
    _USBCheckStdRequest->_USBStdFeatureReqHandler
    _USBStdSetCfgHandler->_USER_USB_CALLBACK_EVENT_HANDLER
    _USBStdFeatureReqHandler->_USER_USB_CALLBACK_EVENT_HANDLER
    _CDCInitEP->_USBEnableEndpoint
    _USBEnableEndpoint->_USBConfigureEndpoint
    _USBCtrlTrfOutHandler->_USBCtrlTrfRxService
    _USBCtrlTrfInHandler->_USBCtrlTrfTxService

Critical Paths under _main in BANK0

    _main->_MCC_USB_CDC_DemoTasks
    _SYSTEM_Initialize->_USBDeviceInit
    _USBDeviceInit->_memset
    _MCC_USB_CDC_DemoTasks->_getsUSBUSART
    _getsUSBUSART->_USBTransferOnePacket
    _CDCTxService->_USBTransferOnePacket

Critical Paths under _INTERRUPT_InterruptManager in BANK0

    None.

Critical Paths under _main in BANK1

    None.

Critical Paths under _INTERRUPT_InterruptManager in BANK1

    None.

Critical Paths under _main in BANK2

    None.

Critical Paths under _INTERRUPT_InterruptManager in BANK2

    None.

Critical Paths under _main in BANK3

    None.

Critical Paths under _INTERRUPT_InterruptManager in BANK3

    None.

Critical Paths under _main in BANK4

    None.

Critical Paths under _INTERRUPT_InterruptManager in BANK4

    None.

Critical Paths under _main in BANK5

    None.

Critical Paths under _INTERRUPT_InterruptManager in BANK5

    None.

Critical Paths under _main in BANK6

    None.

Critical Paths under _INTERRUPT_InterruptManager in BANK6

    None.

Critical Paths under _main in BANK7

    None.

Critical Paths under _INTERRUPT_InterruptManager in BANK7

    None.

Call Graph Tables:

 ---------------------------------------------------------------------------------
 (Depth) Function   	        Calls       Base Space   Used Autos Params    Refs
 ---------------------------------------------------------------------------------
 (0) _main                                                 0     0      0    7280
              _MCC_USB_CDC_DemoTasks
                  _SYSTEM_Initialize
 ---------------------------------------------------------------------------------
 (1) _SYSTEM_Initialize                                    0     0      0    2241
                     _ADC_Initialize
                    _CCP2_Initialize
               _INTERRUPT_Initialize
              _OSCILLATOR_Initialize
             _PIN_MANAGER_Initialize
                    _TMR0_Initialize
                    _TMR1_Initialize
                    _TMR2_Initialize
                    _TMR3_Initialize
                    _USBDeviceAttach
                      _USBDeviceInit
 ---------------------------------------------------------------------------------
 (2) _USBDeviceInit                                        1     1      0    2241
                                             12 BANK0      1     1      0
                             _memset
 ---------------------------------------------------------------------------------
 (3) _memset                                              12     6      6    1950
                                              0 BANK0     12     6      6
 ---------------------------------------------------------------------------------
 (2) _USBDeviceAttach                                      0     0      0       0
 ---------------------------------------------------------------------------------
 (2) _TMR3_Initialize                                      0     0      0       0
 ---------------------------------------------------------------------------------
 (2) _TMR2_Initialize                                      0     0      0       0
 ---------------------------------------------------------------------------------
 (2) _TMR1_Initialize                                      0     0      0       0
 ---------------------------------------------------------------------------------
 (2) _TMR0_Initialize                                      0     0      0       0
 ---------------------------------------------------------------------------------
 (2) _PIN_MANAGER_Initialize                               0     0      0       0
 ---------------------------------------------------------------------------------
 (2) _OSCILLATOR_Initialize                                0     0      0       0
 ---------------------------------------------------------------------------------
 (2) _INTERRUPT_Initialize                                 0     0      0       0
 ---------------------------------------------------------------------------------
 (2) _CCP2_Initialize                                      0     0      0       0
 ---------------------------------------------------------------------------------
 (2) _ADC_Initialize                                       0     0      0       0
 ---------------------------------------------------------------------------------
 (1) _MCC_USB_CDC_DemoTasks                                4     4      0    5039
                                             15 BANK0      4     4      0
                       _CDCTxService
                       _getsUSBUSART
                        _putUSBUSART
 ---------------------------------------------------------------------------------
 (2) _putUSBUSART                                          3     0      3     270
                                              0 BANK0      3     0      3
 ---------------------------------------------------------------------------------
 (2) _getsUSBUSART                                         4     1      3    2292
                                             11 BANK0      4     1      3
               _USBTransferOnePacket
 ---------------------------------------------------------------------------------
 (2) _CDCTxService                                         2     2      0    2189
                                             11 BANK0      2     2      0
               _USBTransferOnePacket
 ---------------------------------------------------------------------------------
 (3) _USBTransferOnePacket                                11     7      4    1988
                                              0 BANK0     11     7      4
 ---------------------------------------------------------------------------------
 Estimated maximum stack depth 3
 ---------------------------------------------------------------------------------
 (Depth) Function   	        Calls       Base Space   Used Autos Params    Refs
 ---------------------------------------------------------------------------------
 (4) _INTERRUPT_InterruptManager                          12    12      0   30801
                                             31 COMRAM    12    12      0
                     _USBDeviceTasks
 ---------------------------------------------------------------------------------
 (5) _USBDeviceTasks                                       1     1      0   30801
                                             30 COMRAM     1     1      0
          _USBCtrlEPAllowStatusStage
                   _USBCtrlEPService
      _USBIncrement1msInternalTimers
                    _USBStallHandler
                         _USBSuspend
                 _USBWakeFromSuspend
    _USER_USB_CALLBACK_EVENT_HANDLER
                    i2_USBDeviceInit
 ---------------------------------------------------------------------------------
 (6) i2_USBDeviceInit                                      1     1      0    1233
                                             12 COMRAM     1     1      0
                           i2_memset
 ---------------------------------------------------------------------------------
 (6) _USBWakeFromSuspend                                   0     0      0    3879
    _USER_USB_CALLBACK_EVENT_HANDLER
 ---------------------------------------------------------------------------------
 (6) _USBSuspend                                           0     0      0    3879
    _USER_USB_CALLBACK_EVENT_HANDLER
 ---------------------------------------------------------------------------------
 (6) _USBStallHandler                                      1     1      0       0
                                              0 COMRAM     1     1      0
 ---------------------------------------------------------------------------------
 (6) _USBIncrement1msInternalTimers                        0     0      0       0
 ---------------------------------------------------------------------------------
 (6) _USBCtrlEPService                                     1     1      0   17885
                                             29 COMRAM     1     1      0
                _USBCtrlTrfInHandler
               _USBCtrlTrfOutHandler
             _USBCtrlTrfSetupHandler
                             _memcpy
 ---------------------------------------------------------------------------------
 (7) _memcpy                                              11     5      6     410
                                              0 COMRAM    11     5      6
 ---------------------------------------------------------------------------------
 (7) _USBCtrlTrfSetupHandler                               0     0      0   17246
                 _USBCheckStdRequest
           _USBCtrlEPServiceComplete
    _USER_USB_CALLBACK_EVENT_HANDLER
 ---------------------------------------------------------------------------------
 (8) _USBCtrlEPServiceComplete                             0     0      0      92
            _USBCtrlEPAllowDataStage
          _USBCtrlEPAllowStatusStage
 ---------------------------------------------------------------------------------
 (9) _USBCtrlEPAllowDataStage                              0     0      0      92
                _USBCtrlTrfTxService
 ---------------------------------------------------------------------------------
 (8) _USBCheckStdRequest                                   2     2      0   13275
                                             27 COMRAM     2     2      0
            _USBStdFeatureReqHandler
                _USBStdGetDscHandler
             _USBStdGetStatusHandler
                _USBStdSetCfgHandler
    _USER_USB_CALLBACK_EVENT_HANDLER
 ---------------------------------------------------------------------------------
 (9) _USBStdSetCfgHandler                                  1     1      0    5000
                                             20 COMRAM     1     1      0
    _USER_USB_CALLBACK_EVENT_HANDLER
                           i2_memset
 ---------------------------------------------------------------------------------
 (7) i2_memset                                            12     6      6    1031
                                              0 COMRAM    12     6      6
 ---------------------------------------------------------------------------------
 (9) _USBStdGetStatusHandler                               4     4      0      46
                                              0 COMRAM     4     4      0
 ---------------------------------------------------------------------------------
 (9) _USBStdGetDscHandler                                  2     2      0       0
                                              0 COMRAM     2     2      0
 ---------------------------------------------------------------------------------
 (9) _USBStdFeatureReqHandler                              7     7      0    4350
                                             20 COMRAM     7     7      0
    _USER_USB_CALLBACK_EVENT_HANDLER
 ---------------------------------------------------------------------------------
 (6) _USER_USB_CALLBACK_EVENT_HANDLER                      8     2      6    3879
                                             12 COMRAM     8     2      6
                          _CDCInitEP
                 _USBCheckCDCRequest
 ---------------------------------------------------------------------------------
 (7) _USBCheckCDCRequest                                   2     2      0       0
                                              0 COMRAM     2     2      0
 ---------------------------------------------------------------------------------
 (7) _CDCInitEP                                            0     0      0    1187
                  _USBEnableEndpoint
             i2_USBTransferOnePacket
 ---------------------------------------------------------------------------------
 (8) i2_USBTransferOnePacket                              11     7      4     454
                                              0 COMRAM    11     7      4
 ---------------------------------------------------------------------------------
 (8) _USBEnableEndpoint                                    4     3      1     733
                                              8 COMRAM     4     3      1
               _USBConfigureEndpoint
 ---------------------------------------------------------------------------------
 (9) _USBConfigureEndpoint                                 8     7      1     400
                                              0 COMRAM     8     7      1
 ---------------------------------------------------------------------------------
 (7) _USBCtrlTrfOutHandler                                 0     0      0     114
                _USBCtrlTrfRxService
 ---------------------------------------------------------------------------------
 (8) _USBCtrlTrfRxService                                  2     2      0     114
                                              0 COMRAM     2     2      0
          _USBCtrlEPAllowStatusStage
 ---------------------------------------------------------------------------------
 (9) _USBCtrlEPAllowStatusStage                            0     0      0       0
 ---------------------------------------------------------------------------------
 (7) _USBCtrlTrfInHandler                                  1     1      0     115
                                              1 COMRAM     1     1      0
                _USBCtrlTrfTxService
 ---------------------------------------------------------------------------------
 (10) _USBCtrlTrfTxService                                 1     1      0      92
                                              0 COMRAM     1     1      0
 ---------------------------------------------------------------------------------
 Estimated maximum stack depth 10
 ---------------------------------------------------------------------------------

 Call Graph Graphs:

 _main (ROOT)
   _MCC_USB_CDC_DemoTasks
     _CDCTxService
       _USBTransferOnePacket
     _getsUSBUSART
       _USBTransferOnePacket
     _putUSBUSART
   _SYSTEM_Initialize
     _ADC_Initialize
     _CCP2_Initialize
     _INTERRUPT_Initialize
     _OSCILLATOR_Initialize
     _PIN_MANAGER_Initialize
     _TMR0_Initialize
     _TMR1_Initialize
     _TMR2_Initialize
     _TMR3_Initialize
     _USBDeviceAttach
     _USBDeviceInit
       _memset

 _INTERRUPT_InterruptManager (ROOT)
   _USBDeviceTasks
     _USBCtrlEPAllowStatusStage
     _USBCtrlEPService
       _USBCtrlTrfInHandler
         _USBCtrlTrfTxService
       _USBCtrlTrfOutHandler
         _USBCtrlTrfRxService
           _USBCtrlEPAllowStatusStage
       _USBCtrlTrfSetupHandler
         _USBCheckStdRequest
           _USBStdFeatureReqHandler
             _USER_USB_CALLBACK_EVENT_HANDLER
               _CDCInitEP
                 _USBEnableEndpoint
                   _USBConfigureEndpoint
                 i2_USBTransferOnePacket
               _USBCheckCDCRequest
           _USBStdGetDscHandler
           _USBStdGetStatusHandler
           _USBStdSetCfgHandler
             _USER_USB_CALLBACK_EVENT_HANDLER
             i2_memset
           _USER_USB_CALLBACK_EVENT_HANDLER
         _USBCtrlEPServiceComplete
           _USBCtrlEPAllowDataStage
             _USBCtrlTrfTxService
           _USBCtrlEPAllowStatusStage
         _USER_USB_CALLBACK_EVENT_HANDLER
       _memcpy
     _USBIncrement1msInternalTimers
     _USBStallHandler
     _USBSuspend
       _USER_USB_CALLBACK_EVENT_HANDLER
     _USBWakeFromSuspend
       _USER_USB_CALLBACK_EVENT_HANDLER
     _USER_USB_CALLBACK_EVENT_HANDLER
     i2_USBDeviceInit
       i2_memset

 Address spaces:
Name               Size   Autos  Total    Cost      Usage
BIGRAMl            3FF      0       0      44        0.0%
BIGRAMhh           280      0       0      42        0.0%
EEDATA             100      0       0       0        0.0%
BITBANK7           100      0       0      18        0.0%
BANK7              100      0       0      19        0.0%
BITBANK6           100      0       0      16        0.0%
BANK6              100      0       0      17        0.0%
BITBANK3           100      0       0      10        0.0%
BANK3              100      0       0      11        0.0%
BITBANK2           100      0       0       8        0.0%
BANK2              100      0       0       9        0.0%
BITBANK1           100      0       0       6        0.0%
BANK1              100      0      40       7       25.0%
BIGRAMhl            C0      0       0      43        0.0%
BITBANK4            C0      0       0      12        0.0%
BANK4               C0      0       0      13        0.0%
BITBANK0            A0      0       0       4        0.0%
BANK0               A0     13      9B       5       96.9%
BITBANK5            80      0       0      14        0.0%
BANK5               80      0       0      15        0.0%
BITCOMRAM           5E      0       0       0        0.0%
COMRAM              5E     2B      52       1       87.2%
BITBIGSFRhhlhh      19      0       0      22        0.0%
BITBIGSFRlhhlll     19      0       0      36        0.0%
BITBIGSFRhllh        7      0       0      28        0.0%
BITBIGSFRhhhh        7      0       0      20        0.0%
BITBIGSFRhlhhlh      7      0       0      25        0.0%
BITBIGSFRllllll      6      0       0      40        0.0%
BITBIGSFRlhhlhl      4      0       0      34        0.0%
BITBIGSFRhlhl        4      0       0      27        0.0%
BITBIGSFRlhhlhh      3      0       0      32        0.0%
BITBIGSFRlhhllh      3      0       0      35        0.0%
BITBIGSFRhlhhll      3      0       0      26        0.0%
BITBIGSFRlllllh      2      0       0      38        0.0%
BITBIGSFRlhhlhh      2      0       0      33        0.0%
BITBIGSFRlhhhlh      2      0       0      30        0.0%
BITBIGSFRlhhhll      2      0       0      31        0.0%
BITBIGSFRhhhl        2      0       0      21        0.0%
BITBIGSFRlhl         2      0       0      37        0.0%
BITBIGSFRllllll      1      0       0      39        0.0%
BITBIGSFRlhhhh       1      0       0      29        0.0%
BITBIGSFRhhlhl       1      0       0      23        0.0%
BITBIGSFRhhll        1      0       0      24        0.0%
BIGSFR               0      0       0     200        0.0%
BITSFR_1             0      0       0     200        0.0%
SFR_1                0      0       0     200        0.0%
BITSFR               0      0       0     200        0.0%
SFR                  0      0       0     200        0.0%
STACK                0      0       0       2        0.0%
NULL                 0      0       0       0        0.0%
ABS                  0      0     12D      41        0.0%
DATA                 0      0     12D       3        0.0%
CODE                 0      0       0       0        0.0%


Microchip Technology PIC18 Macro Assembler V2.36 build 20220127204148 
Symbol Table                                                                                   Sat Aug 27 12:09:41 2022

                             _USB_SD_Ptr 0801                            _USBDeviceInit 142C  
                        _timer0ReloadVal 0040     USER_USB_CALLBACK_EVENT_HANDLER@event 000D  
   USER_USB_CALLBACK_EVENT_HANDLER@pdata 000F                                      l141 1576  
                                    l136 1494              __end_of_USBStdGetDscHandler 142C  
                                    l177 1948                                      l505 24BE  
                                    l196 29F2                                      l533 0EF0  
                                    l509 2B34                                      l197 29F0  
                                    l527 0FC8                                      l199 2A04  
                                    l528 0E7A                                      l633 2ADA  
                                    l564 2138                                      l636 2B70  
                                    l660 2B9A                                      l565 222A  
                                    l639 2B7E                                      l817 2BCC  
                                    l739 2BB6                                      l780 2BF2  
                                    _BDT 000400                                      l589 2C16  
                                    l944 2C04                                      l865 2B5E  
                                    l699 2C12                                      _PR2 000FBB  
                                    _UIE 000F64                                      _UIR 000F65  
                        _timer1ReloadVal 0036                               _USBSuspend 2ADC  
                   USBStdSetCfgHandler@i 0015                          _TMR2_Initialize 2C06  
                                    prod 000FF3                                      wreg 000FE8  
                         _USBDeviceTasks 0C0A                           _USBDeviceState 004E  
                  ??_USBCtrlTrfRxService 0001                           ??_getsUSBUSART 00F6  
               USBEnableEndpoint@options 0009                          _timer3ReloadVal 0038  
             USBConfigureEndpoint@handle 0007                                     l5101 1464  
                                   l5031 0FEA                                     l5111 1484  
                                   l5201 2B0C                                     l5033 0FF6  
                                   l1649 1140                                     l5121 14A0  
                                   l5113 1496                                     l5203 2B1C  
                                   l5211 2B32                                     l5051 1118  
                                   l5043 109E                                     l5027 0FCA  
                                   l5123 14A4                                     l5115 149A  
                                   l5107 146A                                     l5061 181E  
                                   l5221 0E64                                     l5213 0E32  
                                   l5205 2B24                                     l5301 2B94  
                                   l5053 1124                                     l5045 10CA  
                                   l5037 102C                                     l5141 1526  
                                   l5125 14A8                                     l5117 149C  
                                   l5109 1482                                     l5071 1870  
                                   l5063 183A                                     l5231 0EC0  
                                   l5223 0E76                                     l5215 0E34  
                                   l5207 2B28                                     l5311 2BA8  
                                   l5303 2C06                                     l5055 112A  
                                   l5039 1084                                     l5151 154E  
                                   l5143 1528                                     l5135 14D6  
                                   l5127 14B0                                     l5119 149E  
                                   l5081 18C8                                     l5073 1894  
                                   l5065 1852                                     l5241 0F02  
                                   l5233 0EC8                                     l5225 0E8A  
                                   l5217 0E48                                     l5209 2B2E  
                                   l5321 2124                                     l5313 2BB0  
                                   l5305 2C08                                     l5057 112E  
                                   l5049 10E4                                     l5161 156C  
                                   l5153 1552                                     l5145 1538  
                                   l5137 1506                                     l5129 14BE  
                                   l5401 2BD6                                     l5083 1906  
                                   l5075 18A0                                     l5067 1864  
                                   l5059 180C                                     l5251 0F32  
                                   l5243 0F06                                     l5235 0ED8  
                                   l5227 0E90                                     l5219 0E5E  
                                   l5331 2170                                     l5315 2BE2  
                                   l5307 2C0C                                     l5171 29EA  
                                   l5163 1572                                     l5155 1556  
                                   l5147 1540                                     l5139 1516  
                                   l5091 142E                                     l5085 1940  
                                   l5077 18AC                                     l5261 0F64  
                                   l5253 0F36                                     l5237 0EE8  
                                   l5229 0EA2                                     l5181 2436  
                                   l5341 21F2                                     l5333 2178  
                                   l5317 2BEE                                     l5309 2B9C  
                                   l5173 2A00                                     l5165 29C4  
                                   l5157 1558                                     l5149 1544  
                                   l5093 143A                                     l5079 18B8  
                                   l5271 0F9C                                     l5263 0F68  
                                   l5247 0F1A                                     l5255 0F38  
                                   l5239 0EF4                                     l5191 248A  
                                   l5183 2454                                     l5175 2408  
                                   l5335 2198                                     l5343 21F4  
                                   l5327 214A                                     l5319 2BF0  
                                   l5167 29D4                                     l5159 155C  
                                   l5095 1458                                     l5273 0FA4  
                                   l5257 0F4C                                     l5249 0F2E  
                                   l5265 0F6A                                     l5193 249C  
                                   l5185 2464                                     l5177 240E  
                                   l5345 2206                                     l5329 215A  
                                   l5281 2B36                                     l5169 29E8  
                                   l5097 145C                                     l5089 142C  
                                   l5361 2ABA                                     l5275 0FA8  
                                   l5259 0F60                                     l5267 0F7A  
                                   l5187 246C                                     l5195 24BA  
                                   l5179 2420                                     l5347 2216  
                                   l5339 21BC                                     l5291 2BF4  
                                   l5283 2B42                                     l5099 1460  
                                   l5371 2ACE                                     l5363 2ABE  
                                   l5355 2AAE                                     l5269 0F8A  
                                   l5277 0FC6                                     l5189 2488  
                                   l5349 2226                                     l5293 2C00  
                                   l5285 2B44                                     l5373 2AD2  
                                   l5365 2AC2                                     l5357 2AB2  
                                   l5199 2B0A                                     l5295 2BB8  
                                   l5279 2C14                                     l5287 2B5C  
                                   l5375 2AD6                                     l5367 2AC6  
                                   l5359 2AB6                                     l5289 2B60  
                                   l5297 2B80                                     l5369 2ACA  
                                   l5563 21DC                                     l5299 2B8C  
                                   l5395 2BCE                                     l5397 2BD2  
                                   l5399 2BD4                                     _LATA 000F89  
                                   _LATB 000F8A                                     _LATC 000F8B  
                                   u3500 1028                                     u3501 1024  
                                   u3510 109A                                     u3511 1096  
                                   u3600 29D4                                     u3520 10E0  
                                   u3601 29D0                                     u3521 10DC  
                                   u3610 2A00                                     u3530 1140  
                                   u3611 29FC                                     u3531 113C  
                                   u3540 181E                                     u3700 0E8A  
                                   u3620 2420                                     u3541 181A  
                                   u3701 0E86                                     u3621 241C  
                                   u3550 1864                                     u3710 0EA2  
                                   u3630 2436                                     u3551 1860  
                                   u3711 0E9E                                     u3631 2432  
                                   u3560 18C8                                     u3720 0ED8  
                                   u3640 2454                                     u3800 2134  
                                   u3561 18C4                                     u3721 0ED4  
                                   u3641 2450                                     u3801 2130  
                                   u3730 0EE8                                     u3650 249C  
                                   u3810 2146                                     u3490 0FE6  
                                   u3570 1494                                     u3731 0EE4  
                                   u3651 2498                                     u3811 2142  
                                   u3491 0FE2                                     u3571 1490  
                                   u3740 0F16                                     u3660 2B1C  
                                   u3820 215A                                     u3580 14BE  
                                   u3741 0F12                                     u3661 2B18  
                                   u3821 2156                                     u3581 14BA  
                                   u3750 0F48                                     u3670 0E48  
                                   u3830 2206                                     u3590 1538  
                                   u3751 0F44                                     u3671 0E44  
                                   u3831 2202                                     u3591 1534  
                                   u3760 0F7A                                     u3680 0E5E  
                                   u3840 2216                                     u3761 0F76  
                                   u3681 0E5A                                     u3841 2212  
                                   u3770 0F8A                                     u3690 0E76  
                                   u3771 0F86                                     u3691 0E72  
                                   u3780 0F9C                                     u3781 0F98  
                                   u3790 2B7E                                     u3791 2B7A  
                  ??_USBCtrlTrfTxService 0001                                     _UCFG 000F62  
                                   _UEP0 000F6A                                     _UEP1 000F6B  
                                   _UEIE 000F66                                     _UEIR 000F67  
                                   _UCON 000F60                                     _TMR1 000FCE  
                                   _TMR2 000FBC                                     _TMR3 000FB2  
                                   _WPUB 000F85                          _CDCDataInHandle 0090  
 USBStdFeatureReqHandler@current_ep_data 0019                                     _pDst 003A  
                __end_of_CCP2_Initialize 2C06                                     _main 2BCE  
               ??i2_USBTransferOnePacket 0005                                     fsr0h 000FEA  
                                   fsr1h 000FE2                                     indf0 000FEF  
                                   fsr2h 000FDA                                     fsr0l 000FE9  
                                   indf1 000FE7                              _BaudRateGen 002C  
                                   indf2 000FDF                                     fsr1l 000FE1  
                                   fsr2l 000FD9                          _USBDeviceAttach 29C4  
                                   btemp 0053                                     prodh 000FF4  
                                   prodl 000FF3                                     start 009C  
                        _TMR3_Initialize 2B80               __end_of_USBCheckStdRequest 1CF0  
                 ??_USBCtrlTrfOutHandler 0003                             ___param_bank 000000  
              ??_USBStdFeatureReqHandler 0015                 ??_USBStdGetStatusHandler 0001  
                         ?_USBDeviceInit 0001                  __end_of_TMR0_Initialize 2BF4  
          __end_of_OSCILLATOR_Initialize 2B80                              _writeBuffer 0100  
                                  ?_main 0001                                    _EEADR 000FA9  
                                  _T0CON 000FD5                                    _T1CON 000FCD  
                 __end_of_USBDeviceTasks 0E32                                    _T2CON 000FBA  
                                  _T3CON 000FB1                ?_USBCtrlEPServiceComplete 0001  
                                  i2l203 231C                                    i2l213 262A  
                                  i2l221 19E6                                    i2l141 16C2  
                                  i2l302 2B08                                    i2l207 231C  
                                  i2l231 1A8A                                    i2l136 15DC  
                                  i2l218 26D6                                    i2l171 29C2  
                                  i2l147 0C6A                                    i2l340 2122  
                                  i2l332 210C                                    i2l316 2576  
                                  i2l308 2A46                                    i2l148 0E30  
                                  i2l157 0D86                                    i2l246 1DFE  
                                  i2l326 2862                                    i2l158 0E2E  
                                  i2l319 2766                                    i2l159 0D98  
                                  i2l280 142A                                    i2l344 1CEE  
                                  i2l257 17F0                                    i2l177 1BC8  
                                  i2l361 08F8                                    i2l266 2406  
                                  i2l346 1BE6                                    i2l339 211C  
                                  i2l259 1806                                    i2l427 27EE  
                                  i2l355 1C42                                    i2l380 0B6A  
                                  i2l372 0ABC                                    i2l284 1E0E  
                                  i2l294 1F0C                                    i2l287 1EEE  
                                  i2l480 1F90                                    i2l384 0C08  
                                  i2l288 1E2A                                    i2l473 2018  
                                  i2l289 1E32                                    i2l297 2924  
                                  i2l482 1FCA                                    i2l299 2926  
                                  i2l389 2A7A                                    i2l486 28C6  
                                  i2l598 0068                                    _UADDR 000F63  
                                  _TMR0H 000FD7                                    _TMR1H 000FCF  
                                  _TMR0L 000FD6                                    _TMR3H 000FB3  
                                  _TMR1L 000FCE                                    _TMR3L 000FB2  
                                  _TRISA 000F92                                    _TRISB 000F93  
                                  _TRISC 000F94                                    _USTAT 000F61  
        __end_of_USBCtrlEPAllowDataStage 262C                                    _sd000 08A8  
                                  _sd001 084C                                    _sd002 0880  
         ?_USBIncrement1msInternalTimers 0001                  __end_of_TMR1_Initialize 2BB8  
                                  tablat 000FF5                                    plusw2 000FDB  
                      __end_of_CDCInitEP 28C8        MCC_USB_CDC_DemoTasks@numBytesRead 00F9  
                                  ttemp5 0054                                    ttemp6 0057  
                                  ttemp7 005B                                    status 000FD8  
                                  wtemp8 0054                         __end_ofi2_memset 12B8  
                        putUSBUSART@data 00E8                          __initialization 2A7C  
                           __end_of_main 2BE2                    _control_signal_bitmap 0041  
                __end_of_TMR2_Initialize 2C14              ?_INTERRUPT_InterruptManager 0001  
                                 ??_main 00FB                            __activetblptr 000002  
                        ?_USBDeviceTasks 0001                              ?_USBSuspend 0001  
                           _cdc_mem_type 0094                  __end_of_USBDeviceAttach 2A06  
                                 _ADCON0 000FC2                                   _ADCON1 000FC1  
                                 _ADCON2 000FC0                         _CDCDataOutHandle 0092  
                                 _ACTCON 000FB5                                   _ADRESH 000FC4  
                                 _ADRESL 000FC3                                   _EEDATA 000FA8  
                                 _CCPR2H 000F91                                   _CCPR2L 000F90  
                                 _EECON2 000FA7                                   _ANSELA 000F5B  
                                 _ANSELB 000F5C                                   _ANSELC 000F5D  
                        getsUSBUSART@len 00F5                                   _T1GCON 000FCC  
                                 _T3GCON 000FB4                  __end_of_TMR3_Initialize 2B9C  
                                 i2l4001 1A12                                   i2l4011 1A42  
                                 i2l4003 1A16                                   i2l4101 1C5C  
                                 i2l4021 1A76                                   i2l4013 1A56  
                                 i2l4005 1A26                                   i2l4031 16F0  
                                 i2l4015 1A62                                   i2l4007 1A2E  
                                 i2l4041 171E                                   i2l4033 16F8  
                                 i2l4025 16C4                                   i2l4105 1C7C  
                                 i2l4017 1A6E                                   i2l4009 1A32  
                                 i2l4201 272E                                   i2l4051 1788  
                                 i2l4043 1730                                   i2l4035 1700  
                                 i2l4027 16D4                                   i2l4019 1A72  
                                 i2l4211 2762                                   i2l4203 2736  
                                 i2l4061 17E4                                   i2l4053 1798  
                                 i2l4045 1742                                   i2l4037 1718  
                                 i2l4029 16EC                                   i2l4221 2842  
                                 i2l4213 27F0                                   i2l4205 273A  
                                 i2l1645 2976                                   i2l4231 2036  
                                 i2l4063 17F0                                   i2l4055 17A4  
                                 i2l4047 1766                                   i2l4039 171C  
                                 i2l4223 284E                                   i2l4215 2802  
                                 i2l4207 2742                                   i2l4233 2048  
                                 i2l4241 206C                                   i2l4065 17F2  
                                 i2l4049 177C                                   i2l4057 17B4  
                                 i2l4225 285E                                   i2l4217 280A  
                                 i2l3521 2636                                   i2l1649 12B6  
                                 i2l4081 1C0C                                   i2l4073 1BEA  
                                 i2l4209 2746                                   i2l4401 2508  
                                 i2l4251 20B4                                   i2l4243 207C  
                                 i2l4235 2050                                   i2l4227 201A  
                                 i2l4067 1802                                   i2l4059 17D8  
                                 i2l4219 281E                                   i2l3531 26BE  
                                 i2l3523 2670                                   i2l3611 1F80  
                                 i2l3603 1F66                                   i2l4091 1C28  
                                 i2l4083 1C0E                                   i2l4075 1BF2  
                                 i2l4411 2572                                   i2l4403 2526  
                                 i2l4261 20FC                                   i2l4253 20C4  
                                 i2l4245 2092                                   i2l4237 2060  
                                 i2l4229 202C                                   i2l3533 26C8  
                                 i2l3525 267A                                   i2l3541 29A0  
                                 i2l3621 1FBA                                   i2l3613 1F8A  
                                 i2l3605 1F70                                   i2l3701 1160  
                                 i2l4093 1C36                                   i2l4085 1C12  
                                 i2l4077 1BFA                                   i2l4069 1BCA  
                                 i2l4181 294C                                   i2l4405 254E  
                                 i2l4263 211C                                   i2l4255 20D4  
                                 i2l4247 2096                                   i2l4239 2068  
                                 i2l3527 268A                                   i2l3519 262E  
                                 i2l3543 29AA                                   i2l3535 297A  
                                 i2l3551 1ABA                                   i2l3623 1FC2  
                                 i2l3615 1F98                                   i2l3607 1F78  
                                 i2l3703 116C                                   i2l4095 1C38  
                                 i2l4087 1C18                                   i2l4079 1C02  
                                 i2l4191 26FC                                   i2l4183 2958  
                                 i2l4175 2928                                   i2l4407 2556  
                                 i2l4351 2A30                                   i2l4343 2A06  
                                 i2l4265 211E                                   i2l4257 20E0  
                                 i2l4249 20A8                                   i2l3529 26A6  
                                 i2l3545 29B6                                   i2l3537 2988  
                                 i2l3561 1B14                                   i2l3553 1AD2  
                                 i2l3617 1FAA                                   i2l3609 1F7A  
                                 i2l3721 128E                                   i2l3713 1214  
                                 i2l3801 2382                                   i2l4097 1C3C  
                                 i2l4089 1C20                                   i2l4193 2708  
                                 i2l4177 293C                                   i2l4185 295C  
                                 i2l4409 255E                                   i2l4361 2AE0  
                                 i2l4353 2A32                                   i2l4345 2A0C  
                                 i2l4521 1586                                   i2l4601 0C2E  
                                 i2l4259 20F0                                   i2l3731 223C  
                                 i2l3539 2992                                   i2l3571 1B86  
                                 i2l3563 1B20                                   i2l3555 1AE4  
                                 i2l3547 1A8E                                   i2l3619 1FB0  
                                 i2l3627 1FD6                                   i2l3643 277C  
                                 i2l3635 2768                                   i2l3723 129A  
                                 i2l3715 1240                                   i2l3707 11A2  
                                 i2l3811 23C2                                   i2l3803 2392  
                                 i2l4099 1C46                                   i2l4195 2714  
                                 i2l4187 26D8                                   i2l4179 2948  
                                 i2l4371 2A54                                   i2l4363 2AE2  
                                 i2l4355 2A40                                   i2l4347 2A28  
                                 i2l4523 15A2                                   i2l4611 0C56  
                                 i2l4603 0C34                                   i2l3661 1D20  
                                 i2l3653 1CF0                                   i2l3741 2284  
                                 i2l3733 2250                                   i2l3573 1BC0  
                                 i2l3565 1B2C                                   i2l3549 1A9E  
                                 i2l3581 2890                                   i2l3637 276C  
                                 i2l3901 08F4                                   i2l3725 12A0  
                                 i2l3709 11FA                                   i2l3821 2402  
                                 i2l3813 23CA                                   i2l3805 23AE  
                                 i2l4197 271E                                   i2l4189 26F0  
                                 i2l4373 2A66                                   i2l4381 28D6  
                                 i2l4365 2AE8                                   i2l4357 2ADC  
                                 i2l4349 2A2A                                   i2l4541 15DE  
                                 i2l4525 15A6                                   i2l4517 1578  
                                 i2l4621 0C8C                                   i2l4613 0C64  
                                 i2l4605 0C42                                   i2l3671 1D54  
                                 i2l3663 1D28                                   i2l3655 1CF4  
                                 i2l3751 22CC                                   i2l3743 2294  
                                 i2l3735 2254                                   i2l3567 1B38  
                                 i2l3559 1AF0                                   i2l3583 289A  
                                 i2l3639 2774                                   i2l3911 0958  
                                 i2l3903 0908                                   i2l3831 12EC  
                                 i2l3823 12B8                                   i2l3727 12A4  
                                 i2l3719 125A                                   i2l3815 23CE  
                                 i2l3807 23B0                                   i2l4199 272A  
                                 i2l4391 24C0                                   i2l4375 2A68  
                                 i2l4383 28F0                                   i2l4367 2AEC  
                                 i2l4359 2ADE                                   i2l4551 15EE  
                                 i2l4543 15E2                                   i2l4535 15B2  
                                 i2l4527 15AA                                   i2l4519 157A  
                                 i2l4631 0CB2                                   i2l4623 0C90  
                                 i2l4615 0C78                                   i2l4607 0C50  
                                 i2l3681 1D9E                                   i2l3673 1D5C  
                                 i2l3665 1D38                                   i2l3657 1D0C  
                                 i2l3761 230C                                   i2l3753 22D8  
                                 i2l3745 22A4                                   i2l3737 2266  
                                 i2l3729 222C                                   i2l3569 1B48  
                                 i2l3585 28B8                                   i2l3577 2864  
                                 i2l3593 1F28                                   i2l3921 09DC  
                                 i2l3913 096C                                   i2l3905 091C  
                                 i2l3841 1388                                   i2l3833 12FC  
                                 i2l3825 12CC                                   i2l3817 23DE  
                                 i2l3809 23BA                                   i2l4393 24C4  
                                 i2l4377 2A78                                   i2l4369 2A48  
                                 i2l4385 290A                                   i2l4553 15F2  
                                 i2l4545 15E4                                   i2l4537 15CA  
                                 i2l4529 15AE                                   i2l4641 0CF0  
                                 i2l4633 0CC0                                   i2l4617 0C86  
                                 i2l4625 0C92                                   i2l4609 0C52  
                                 i2l3691 1DE8                                   i2l3683 1DA2  
                                 i2l3659 1D10                                   i2l3667 1D3C  
                                 i2l3755 22E4                                   i2l3747 22A8  
                                 i2l3739 2278                                   i2l3587 28C2  
                                 i2l3579 2886                                   i2l3931 0A34  
                                 i2l3923 09EA                                   i2l3915 098A  
                                 i2l3907 0930                                   i2l3843 1398  
                                 i2l3835 1318                                   i2l3827 12D6  
                                 i2l3819 23E6                                   i2l3771 25C2  
                                 i2l3763 2578                                   i2l4395 24DA  
                                 i2l4387 2916                                   i2l4379 28C8  
                                 i2l4571 1672                                   i2l4563 1620  
                                 i2l4555 15FA                                   i2l4547 15E6  
                                 i2l4539 15CC                                   i2l4651 0D24  
                                 i2l4643 0D00                                   i2l4635 0CCE  
                                 i2l4627 0CA0                                   i2l4619 0C8A  
                                 i2l3693 1DEC                                   i2l3677 1D6E  
                                 i2l3685 1DA4                                   i2l3669 1D44  
                                 i2l3757 22E8                                   i2l3749 22B8  
                                 i2l3597 1F42                                   i2l3589 1F0E  
                                 i2l3941 0AA4                                   i2l3933 0A52  
                                 i2l3925 09FA                                   i2l3917 09A6  
                                 i2l3909 0946                                   i2l3845 13B4  
                                 i2l3837 134A                                   i2l3829 12E0  
                                 i2l3853 13F6                                   i2l3781 2612  
                                 i2l3773 25D2                                   i2l3765 2580  
                                 i2l4397 24F6                                   i2l4389 2922  
                                 i2l4581 169E                                   i2l4573 1682  
                                 i2l4565 1650                                   i2l4557 1608  
                                 i2l4549 15E8                                   i2l4661 0D6C  
                                 i2l4653 0D32                                   i2l4645 0D02  
                                 i2l4637 0CEA                                   i2l4629 0CAE  
                                 i2l3687 1DB8                                   i2l3679 1D98  
                                 i2l3695 1DEE                                   i2l3759 22F8  
                                 i2l3599 1F52                                   i2l3951 0B10  
                                 i2l3935 0A64                                   i2l3943 0AD8  
                                 i2l3927 0A04                                   i2l3919 09C4  
                                 i2l3847 13E2                                   i2l3839 137E  
                                 i2l3871 1E86                                   i2l3863 1E12  
                                 i2l3791 235C                                   i2l3783 261E  
                                 i2l3775 25F0                                   i2l3767 2592  
                                 i2l4399 24FE                                   i2l4591 16BE  
                                 i2l4583 16A2                                   i2l4575 168C  
                                 i2l4567 1660                                   i2l4663 0D70  
                                 i2l4655 0D36                                   i2l4647 0D12  
                                 i2l4639 0CEC                                   i2l3689 1DE2  
                                 i2l3961 0B7A                                   i2l3953 0B30  
                                 i2l3945 0AE2                                   i2l3937 0A7A  
                                 i2l3929 0A12                                   i2l3849 13EC  
                                 i2l3881 1EFE                                   i2l3873 1E9C  
                                 i2l3865 1E22                                   i2l3697 1142  
                                 i2l3785 231E                                   i2l3777 25F8  
                                 i2l3769 25B6                                   i2l4585 16A4  
                                 i2l4577 1690                                   i2l4569 1670  
                                 i2l4681 0DC4                                   i2l4673 0DA6  
                                 i2l4665 0D80                                   i2l4657 0D44  
                                 i2l4649 0D16                                   i2l4593 0C0A  
                                 i2l5571 279A                                   i2l3971 0BE6  
                                 i2l3963 0B96                                   i2l3955 0B3C  
                                 i2l3947 0AF8                                   i2l3939 0A88  
                                 i2l3891 08AE                                   i2l3883 1F06  
                                 i2l3875 1EB2                                   i2l3867 1E46  
                                 i2l3859 1E00                                   i2l3787 2322  
                                 i2l3779 25FC                                   i2l4587 16A8  
                                 i2l4579 169A                                   i2l4691 0E1C  
                                 i2l4683 0DD8                                   i2l4675 0DAA  
                                 i2l4667 0D94                                   i2l4659 0D52  
                                 i2l4595 0C1A                                   i2l4851 003A  
                                 i2l5573 27E0                                   i2l3973 0BFC  
                                 i2l3965 0BAE                                   i2l3957 0B46  
                                 i2l3949 0B04                                   i2l3893 08C0  
                                 i2l3885 1F08                                   i2l3869 1E68  
                                 i2l3797 2360                                   i2l3789 235A  
                                 i2l5565 1C90                                   i2l3981 197E  
                                 i2l4589 16B8                                   i2l4693 0E1E  
                                 i2l4685 0DE8                                   i2l4677 0DB4  
                                 i2l4597 0C28                                   i2l4853 0048  
                                 i2l5575 1FEA                                   i2l3967 0BBA  
                                 i2l3959 0B54                                   i2l3895 08D4  
                                 i2l5567 1ED0                                   i2l3879 1EBA  
                                 i2l3799 2380                                   i2l3991 19BE  
                                 i2l3983 1982                                   i2l3975 194A  
                                 i2l4687 0DF8                                   i2l4679 0DB6  
                                 i2l4599 0C2C                                   i2l4855 0056  
                                 i2l3969 0BDA                                   i2l3897 08D8  
                                 i2l5569 140C                                   i2l3993 19D6  
                                 i2l3985 1986                                   i2l3977 195C  
                                 i2l4689 0E00                                   i2l4857 0064  
                                 i2l3899 08EC                                   i2l3995 19F6  
                                 i2l3979 196A                                   i2l3987 198E  
                                 i2l3997 1A0A                                   i2l3989 19B2  
                                 _TABLAT 000FF5                                   i2l3999 1A0E  
                                 _OSCCON 000FD3                                   _PLLRDY 007E97  
                          CDCTxService@i 00F3                         ?_CCP2_Initialize 0001  
               i2USBTransferOnePacket@ep 0009                        ??i2_USBDeviceInit 000D  
                      _shortPacketStatus 004D                          USBDeviceTasks@i 001F  
            USBStdFeatureReqHandler@pUEP 0017                 USBTransferOnePacket@data 00E9  
             USBCtrlTrfInHandler@lastDTS 0002                          ??_USBDeviceInit 00F4  
                           ?_putUSBUSART 00E8                     __end_of_getsUSBUSART 24C0  
                      _USBEnableEndpoint 2978                                   _memcpy 2928  
                       ?_TMR0_Initialize 0001                                   _memset 0FCA  
                                 clear_0 2A82                                   clear_1 2A8E  
                                 clear_2 2A9A                                   isa$std 000001  
                     ?_USBEnableEndpoint 0009                             _CDCTxService 0E32  
                           __mediumconst 0000                                   tblptrh 000FF7  
                                 tblptrl 000FF6                                   tblptru 000FF8  
                    ??_USBEnableEndpoint 000A                              _CtrlTrfData 000438  
                   _controlTransferState 004C                         ?_TMR1_Initialize 0001  
                      _SYSTEM_Initialize 2AAE                               __accesstop 0060  
                __end_of__initialization 2AA0                       ?_SYSTEM_Initialize 0001  
                          ___rparam_used 000001                           __pcstackCOMRAM 0001  
              __end_of_USBEnableEndpoint 29C4                            __end_of_sd000 08AC  
                          __end_of_sd001 0880                            __end_of_sd002 0896  
                    ??_SYSTEM_Initialize 00F5              __end_of_USBCtrlTrfInHandler 2124  
                       ?_TMR2_Initialize 0001                   i2_USBTransferOnePacket 1A8C  
                  _MCC_USB_CDC_DemoTasks 2124                               _cdc_notice 0060  
                              ?i2_memset 0001                               _cdc_rx_len 0096  
                             _cdc_tx_len 0095                 ??_USBCtrlTrfSetupHandler 001E  
                _USBTicksSinceSuspendEnd 0097                         ?_USBDeviceAttach 0001  
              __end_of_SYSTEM_Initialize 2ADC                   _USBStdGetStatusHandler 1E00  
                             __pbssBANK0 0060                               __pbssBANK1 0100  
                       ?_TMR3_Initialize 0001                              _pBDTEntryIn 0078  
       __end_of_USBCtrlEPServiceComplete 1A8C                     USBCtrlTrfRxService@i 0001  
                                _CCP2CON 000F97                                  ?_memcpy 0001  
                                ?_memset 00E8                               _device_dsc 0896  
                       _USBCtrlEPService 24C0                               _ep_data_in 008D  
            __end_of_USBCtrlTrfRxService 1808                       _USBCheckStdRequest 1BCA  
                      _configDescriptor1 0809                               ??i2_memset 0007  
            __end_of_USBCtrlTrfTxService 1E00                      _USBStdSetCfgHandler 231E  
                                _OSCCON2 000FD2                                  _TBLPTRH 000FF7  
                                _TBLPTRL 000FF6                                  _TBLPTRU 000FF8  
                                _OSCTUNE 000F9B                      ?_USBCheckStdRequest 0001  
                                _UIEbits 000F64                                  _UIRbits 000F65  
                          _cdc_trf_state 0042                                  _pCDCDst 0084  
                                _pCDCSrc 0087                     _ADC_InterruptHandler 0034  
                                __Hparam 0000          ??_USBIncrement1msInternalTimers 0001  
                   ?_USBStdSetCfgHandler 0001                                _CDCInitEP 2864  
                                __Lparam 0000                               _readBuffer 0099  
                   ??_USBCheckStdRequest 001C                         ??_USBDeviceTasks 001F  
                      ??_USBStallHandler 0001                             __psmallconst 0800  
                                __pcinit 2A7C                       getsUSBUSART@buffer 00F3  
                 ?_MCC_USB_CDC_DemoTasks 0001                __end_of_configDescriptor1 084C  
                                __ramtop 0800                                  __ptext0 2BCE  
                                __ptext1 2AAE                                  __ptext2 142C  
                                __ptext3 0FCA                                  __ptext4 29C4  
                                __ptext5 2B80                                  __ptext6 2C06  
                                __ptext7 2B9C                                  __ptext8 2BE2  
                                __ptext9 2B36                             i2memset@dest 0001  
                                _inPipes 0072              _USBDeferOUTDataStagePackets 0043  
                              _T0CONbits 000FD5                                _T1CONbits 000FCD  
                  _OSCILLATOR_Initialize 2B60                             ??_USBSuspend 0015  
                              _T2CONbits 000FBA                                _T3CONbits 000FB1  
               ??_PIN_MANAGER_Initialize 00E8                          i2_USBDeviceInit 1578  
                       i2USBDeviceInit@i 000D                   MCC_USB_CDC_DemoTasks@i 00FA  
                     __end_of_USB_CD_Ptr 0809                     end_of_initialization 2AA0  
                           _getsUSBUSART 2408                       __end_of_USB_SD_Ptr 0807  
                                memcpy@d 0007                                  memcpy@n 0005  
                                memcpy@s 0009                      _pBDTEntryEP0OutNext 003C  
                                memset@c 00EA                                  memset@k 00F0  
                                memset@n 00EC                                  memset@s 00F2  
                          __Lmediumconst 0000                          _USB1msTickCount 0030  
        _dummy_encapsulated_cmd_response 00D9                 ?_USBStdFeatureReqHandler 0001  
                  ??_USBStdSetCfgHandler 0015                               ?_CDCInitEP 0001  
                     __end_of_USBSuspend 2B0A                  _USBCtrlEPAllowDataStage 2578  
                                postdec2 000FDD                                  postinc0 000FEE  
                                postinc2 000FDE                 _USBCtrlEPServiceComplete 194A  
             _USBStatusStageEnabledFlag1 0046               _USBStatusStageEnabledFlag2 0045  
                     USBEnableEndpoint@p 000A                       _BothEP0OutUOWNsSet 0049  
              USBConfigureEndpoint@EPNum 0006               ?_USBCtrlEPAllowStatusStage 0001  
    USER_USB_CALLBACK_EVENT_HANDLER@size 0011                                _USTATcopy 0051  
           __end_of_USBTransferOnePacket 194A                        putUSBUSART@length 00EA  
                 _USBCtrlTrfSetupHandler 26D8             __end_of_INTERRUPT_Initialize 2C18  
                ?i2_USBTransferOnePacket 0001                    __end_of_USBDeviceInit 1578  
  __end_of_USBIncrement1msInternalTimers 2A7C            _USBIncrement1msInternalTimers 2A48  
                __end_ofi2_USBDeviceInit 16C4                           _ADC_Initialize 2BB8  
                              i2memset@c 0003                                i2memset@k 0009  
                              i2memset@n 0005                                i2memset@s 000B  
                         __end_of_memcpy 2978                   ?_OSCILLATOR_Initialize 0001  
                         __end_of_memset 1142                        _USBBusIsSuspended 0098  
                    start_initialization 2A7C                  ?_USBStdGetStatusHandler 0001  
          USBCtrlTrfRxService@byteToRead 0002                              _cdc_data_rx 000540  
                            _cdc_data_tx 000500             __end_of_USBConfigureEndpoint 26D8  
        __end_of_USBStdFeatureReqHandler 0C0A        __end_of_USBCtrlEPAllowStatusStage 231E  
               __end_of_USBCtrlEPService 2578                ??_USBCtrlEPAllowDataStage 0002  
                            ??_CDCInitEP 000D                           USBDeviceInit@i 00F4  
                 _pBDTEntryEP0OutCurrent 003E                  USBTransferOnePacket@dir 00E8  
                USBTransferOnePacket@len 00EB           __end_ofi2_USBTransferOnePacket 1BCA  
                    _USBStdGetDscHandler 12B8                              _CCPTMRSbits 000F59  
                 __end_of_ADC_Initialize 2BCE                                 ??_memcpy 0007  
                               ??_memset 00EE                               memset@dest 00E8  
                 _USBActiveConfiguration 0052           __end_of_USBStdGetStatusHandler 1F0E  
                            __pbssCOMRAM 002C                            __pcstackBANK0 00E8  
                   ?_USBStdGetDscHandler 0001               __end_of_USBWakeFromSuspend 2A48  
                        _USBStallHandler 28C8                             _pBDTEntryOut 007E  
             __end_of_USBCheckCDCRequest 201A                   _PIN_MANAGER_Initialize 2B36  
                              __pintcode 0008                  ??_MCC_USB_CDC_DemoTasks 00F7  
                        ?_ADC_Initialize 0001             ??_INTERRUPT_InterruptManager 0020  
                       ?i2_USBDeviceInit 0001                     _USBTransferOnePacket 1808  
                            __smallconst 0800                        ??_CCP2_Initialize 00E8  
           __end_of_USBCtrlTrfOutHandler 2864                    ??_USBStdGetDscHandler 0001  
                            _ep_data_out 008A            USBConfigureEndpoint@direction 0001  
                   _INTERRUPT_Initialize 2C14                        ??_TMR0_Initialize 00E8  
             ??_USBCtrlEPServiceComplete 0002                                 _IPR3bits 000FA5  
                               _PIE3bits 000FA3                                 i2u200_40 1D96  
                               i2u200_47 1D8C                                 i2u201_40 1DB4  
                               i2u201_41 1DB0                                 i2u202_40 1DE0  
                               i2u210_40 2250                                 i2u210_41 224C  
                               i2u202_47 1DD6                                 i2u203_40 1DFE  
                               i2u211_40 2266                                 i2u203_41 1DFA  
                               i2u211_41 2262                                 i2u212_40 22A4  
                               i2u220_40 1376                                 i2u204_40 115C  
                               i2u212_41 22A0                                 i2u204_41 1158  
                               i2u220_47 136C                                 i2u221_40 1398  
                               i2u205_40 119E                                 i2u213_40 2592  
                               i2u221_41 1394                                 i2u205_41 119A  
                               i2u213_41 258E                                 i2u230_40 08EC  
                               i2u222_40 13D4                                 i2u206_40 1210  
                               i2u214_40 25F0                                 i2u310_40 0C42  
                               i2u230_41 08E8                                 i2u206_41 120C  
                               i2u214_41 25EC                                 i2u310_41 0C3E  
                               i2u222_47 13CA                                 i2u231_40 0908  
                               i2u223_40 1E22                                 i2u207_40 1256  
                               i2u215_40 2392                                 i2u311_40 0C50  
                               i2u231_41 0904                                 i2u223_41 1E1E  
                               i2u207_41 1252                                 i2u215_41 238E  
                               i2u311_41 0C4C                                 i2u240_40 0A7A  
                               i2u232_40 091C                                 i2u224_40 1E46  
                               i2u208_40 12B6                                 i2u216_40 23DE  
                               i2u320_40 0D12                                 i2u312_40 0C64  
                               i2u240_41 0A76                                 i2u232_41 0918  
                               i2u224_41 1E42                                 i2u208_41 12B2  
                               i2u216_41 23DA                                 i2u320_41 0D0E  
                               i2u312_41 0C60                                 i2u209_40 223C  
                               i2u241_40 0A88                                 i2u233_40 0930  
                               i2u217_40 12CC                                 i2u225_40 1E9C  
                               i2u305_40 15DC                                 i2u321_40 0D24  
                               i2u313_40 0C78                                 i2u209_41 2238  
                               i2u241_41 0A84                                 i2u233_41 092C  
                               i2u217_41 12C8                                 i2u225_41 1E98  
                               i2u305_41 15D8                                 i2u321_41 0D20  
                               i2u313_41 0C74                                 i2u242_40 0AF8  
                               i2u234_40 0946                                 i2u218_40 12FC  
                               i2u226_40 1EB2                                 i2u250_40 1A0A  
                               i2u306_40 1608                                 i2u330_40 0E2E  
                               i2u322_40 0D32                                 i2u314_40 0C86  
                               i2u242_41 0AF4                                 i2u234_41 0942  
                               i2u218_41 12F8                                 i2u226_41 1EAE  
                               i2u250_41 1A06                                 i2u306_41 1604  
                               i2u330_41 0E2A                                 i2u322_41 0D2E  
                               i2u314_41 0C82                                 i2u243_40 0B54  
                               i2u235_40 0958                                 i2u219_40 1346  
                               i2u227_40 1EFE                                 i2u251_40 1A26  
                               i2u307_40 1682                                 i2u323_40 0D44  
                               i2u315_40 0CA0                                 i2u243_41 0B50  
                               i2u235_41 0954                                 i2u227_41 1EFA  
                               i2u251_41 1A22                                 i2u307_41 167E  
                               i2u323_41 0D40                                 i2u315_41 0C9C  
                               i2u219_47 133C                                 i2u244_40 0B6A  
                               i2u236_40 096C                                 i2u228_40 08C0  
                               i2u252_40 1A86                                 i2u324_40 0D52  
                               i2u316_40 0CAE                                 i2u308_40 0C1A  
                               i2u244_41 0B66                                 i2u236_41 0968  
                               i2u228_41 08BC                                 i2u252_41 1A82  
                               i2u324_41 0D4E                                 i2u316_41 0CAA  
                               i2u308_41 0C16                                 i2u253_40 16EC  
                               i2u245_40 0B7A                                 i2u237_40 09EA  
                               i2u229_40 08D4                                 i2u325_40 0D80  
                               i2u317_40 0CC0                                 i2u309_40 0C28  
                               i2u253_41 16E8                                 i2u245_41 0B76  
                               i2u237_41 09E6                                 i2u229_41 08D0  
                               i2u325_41 0D7C                                 i2u317_41 0CBC  
                               i2u309_41 0C24                                 i2u270_40 2048  
                               i2u254_40 1730                                 i2u190_40 1AE4  
                               i2u238_40 0A12                                 i2u246_40 195C  
                               i2u326_40 0D94                                 i2u318_40 0CCE  
                               i2u270_41 2044                                 i2u254_41 172C  
                               i2u190_41 1AE0                                 i2u238_41 0A0E  
                               i2u246_41 1958                                 i2u326_41 0D90  
                               i2u318_41 0CCA                                 i2u271_40 2060  
                               i2u255_40 1742                                 i2u191_40 1B48  
                               i2u239_40 0A64                                 i2u247_40 196A  
                               i2u327_40 0DA6                                 i2u319_40 0D00  
                               i2u271_41 205C                                 i2u255_41 173E  
                               i2u191_41 1B44                                 i2u239_41 0A60  
                               i2u247_41 1966                                 i2u327_41 0DA2  
                               i2u319_41 0CFC                                 i2u272_40 207C  
                               i2u256_40 177C                                 i2u192_40 1F24  
                               i2u248_40 197E                                 i2u280_40 2A66  
                               i2u328_40 0DC4                                 i2u272_41 2078  
                               i2u256_41 1778                                 i2u192_41 1F20  
                               i2u248_41 197A                                 i2u280_41 2A62  
                               i2u328_41 0DC0                                 i2u273_40 20A8  
                               i2u257_40 1802                                 i2u193_40 1F3E  
                               i2u249_40 19F6                                 i2u281_40 2A78  
                               i2u329_40 0DF8                                 i2u273_41 20A4  
                               i2u257_41 17FE                                 i2u193_41 1F3A  
                               i2u249_41 19F2                                 i2u281_41 2A74  
                               i2u329_41 0DF4                                 _PIR1bits 000F9E  
                               i2u274_40 20D4                                 i2u186_40 268A  
                               i2u194_40 1F52                                 i2u258_40 1BE2  
                               i2u282_40 28D6                                 i2u346_40 0048  
                               i2u274_41 20D0                                 i2u186_41 2686  
                               i2u194_41 1F4E                                 i2u258_41 1BDE  
                               i2u282_41 28D2                                 i2u346_41 0044  
                               i2u275_40 211C                                 i2u187_40 2988  
                               i2u195_40 1F62                                 i2u267_40 2976  
                               i2u283_40 28F0                                 i2u347_40 0056  
                               i2u275_41 2118                                 i2u187_41 2984  
                               i2u195_41 1F5E                                 i2u267_41 2972  
                               i2u283_41 28EC                                 i2u347_41 0052  
                               _PIR2bits 000FA1                                 i2u196_40 1D0C  
                               i2u268_40 2802                                 i2u188_40 29A0  
                               i2u284_40 290A                                 i2u348_40 0064  
                               i2u196_41 1D08                                 i2u268_41 27FE  
                               i2u188_41 299C                                 i2u284_41 2906  
                               i2u348_41 0060                                 i2u197_40 1D20  
                               i2u269_40 281E                                 i2u189_40 1A9E  
                               i2u285_40 24DA                                 i2u197_41 1D1C  
                               i2u269_41 281A                                 i2u189_41 1A9A  
                               i2u285_41 24D6                                 _PIR3bits 000FA4  
                               i2u198_40 1D38                                 i2u286_40 2526  
                               i2u198_41 1D34                                 i2u286_41 2522  
                               i2u199_40 1D6A                                 i2u287_40 2572  
                               i2u279_40 2A40                                 i2u199_41 1D66  
                               i2u287_41 256E                                 i2u279_41 2A3C  
                               _RCONbits 000FD0                            ??_putUSBUSART 00EB  
                               _UEP0bits 000F6A               _USBDeferINDataStagePackets 0044  
                               _UCONbits 000F60                     _USBConfigureEndpoint 262C  
                      ??_TMR1_Initialize 00E8                               _ADCON0bits 000FC2  
                  ?_USBTransferOnePacket 00E8                            ?_CDCTxService 0001  
                           _RemoteWakeup 004B                                 i2_memset 1142  
                __end_of_USBStallHandler 2928                              _INTCON2bits 000FF1  
                  ?_INTERRUPT_Initialize 0001              ??_USBCtrlEPAllowStatusStage 0001  
            __end_of_USBStdSetCfgHandler 2408                        ??_TMR2_Initialize 00E8  
                     __end_of_device_dsc 08A8                               _EECON1bits 000FA6  
                ?_USBCtrlTrfSetupHandler 0001                  USBStdGetStatusHandler@p 0003  
                               __Hrparam 0000                                memcpy@tmp 000B  
                               __Lrparam 0000                   USBTransferOnePacket@ep 00F0  
                               _SetupPkt 000430                  ??_OSCILLATOR_Initialize 00E8  
                  ?_USBConfigureEndpoint 0001                        ??_USBDeviceAttach 00E8  
                      ??_TMR3_Initialize 00E8                      __end_of_putUSBUSART 2B36  
                            _line_coding 00E1                           ??_CDCTxService 00F3  
                               __ptext10 2B60                                 __ptext11 2C14  
                               __ptext20 0C0A                                 __ptext12 2BF4  
                               __ptext21 1578                                 __ptext13 2BB8  
                             _T1GCONbits 000FCC                                 __ptext30 2578  
                               __ptext22 2A06                                 __ptext14 2124  
                               __ptext31 1BCA                                 __ptext23 2ADC  
                               __ptext15 2B0A                                 __ptext40 1A8C  
                               __ptext32 231E                                 __ptext24 28C8  
                               __ptext16 2408                                 __ptext41 2978  
                               __ptext33 1142                                 __ptext25 2A48  
                               __ptext17 0E32                                 __ptext42 262C  
                               __ptext34 1E00                                 __ptext26 24C0  
                               __ptext18 1808                                 __ptext43 27F0  
                               __ptext35 12B8                                 __ptext27 2928  
                               __ptext44 16C4                                 __ptext36 08AE  
                               __ptext28 26D8                                 __ptext45 222C  
                               __ptext37 2768                                 __ptext29 194A  
                               __ptext46 201A                                 __ptext38 1F0E  
                               __ptext47 1CF0                                 __ptext39 2864  
                             _T3GCONbits 000FB4           __end_of_USBCtrlTrfSetupHandler 2768  
                      ?_USBCtrlEPService 0001                       ??_USBCtrlEPService 001E  
                    _USBCtrlTrfInHandler 201A                                 isa$xinst 000000  
                               _outPipes 006A                     _USBCtrlTrfOutHandler 27F0  
                               int$flags 0053                _USBCtrlEPAllowStatusStage 222C  
     __end_of_INTERRUPT_InterruptManager 009C               _INTERRUPT_InterruptManager 0008  
                 ??_USBTransferOnePacket 00EC                _USBDeferStatusStagePacket 0047  
               CDCTxService@byte_to_send 00F4                               _INTCONbits 000FF2  
                   ?_USBCtrlTrfInHandler 0001                                 memcpy@d1 0001  
                               memcpy@s1 0003            USBCtrlTrfTxService@byteToSend 0001  
                 ??_INTERRUPT_Initialize 00E8                         ?_USBStallHandler 0001  
               USBStdFeatureReqHandler@p 001A                                 intlevel2 0000  
__end_of_USER_USB_CALLBACK_EVENT_HANDLER 27F0        ??_USER_USB_CALLBACK_EVENT_HANDLER 0013  
       ?_USER_USB_CALLBACK_EVENT_HANDLER 000D          _USER_USB_CALLBACK_EVENT_HANDLER 2768  
           i2USBTransferOnePacket@handle 000A                  ?_PIN_MANAGER_Initialize 0001  
                       ??_ADC_Initialize 00E8               i2USBTransferOnePacket@data 0002  
                        _CCP2_Initialize 2BF4                   ??_USBConfigureEndpoint 0002  
                  ?_USBCtrlTrfOutHandler 0001                              _putUSBUSART 2B0A  
                    _USBCtrlTrfRxService 16C4                       _USBWakeFromSuspend 2A06  
                _USBStdFeatureReqHandler 08AE            __end_of_MCC_USB_CDC_DemoTasks 222C  
                     _USBCheckCDCRequest 1F0E                      _USBCtrlTrfTxService 1CF0  
                    ?_USBWakeFromSuspend 0001                          _TMR0_Initialize 2BE2  
                  ??_USBCtrlTrfInHandler 0002                    _USBAlternateInterface 004F  
                    ?_USBCheckCDCRequest 0001                i2USBTransferOnePacket@dir 0001  
              i2USBTransferOnePacket@len 0004                      USBEnableEndpoint@ep 000C  
                        _endpoint_number 004A                     ?_USBCtrlTrfRxService 0001  
                          ?_getsUSBUSART 00F3           __end_of_PIN_MANAGER_Initialize 2B60  
               ?_USBCtrlEPAllowDataStage 0001                     ?_USBCtrlTrfTxService 0001  
           _USBStatusStageTimeoutCounter 0048                     ??_USBWakeFromSuspend 0015  
             USBTransferOnePacket@handle 00F1                     __end_of_CDCTxService 0FCA  
                        _TMR1_Initialize 2B9C                     ??_USBCheckCDCRequest 0001  
                             _USB_CD_Ptr 0807  
