

Microchip MPLAB XC8 Assembler V2.36 build 20220127204148 
                                                                                               Sun Aug 28 15:52:52 2022

Microchip MPLAB XC8 C Compiler v2.36 (Free license) build 20220127204148 Og1 
     1                           	processor	18F25K50
     2                           	fnconf	rparam,??,?,0
     3                           	pagewidth 120
     4                           	opt	flic
     5                           	psect	smallconst,global,reloc=2,class=SMALLCONST,delta=1,noexec
     6                           	psect	cinit,global,reloc=2,class=CODE,delta=1
     7                           	psect	bssCOMRAM,global,class=COMRAM,space=1,delta=1,lowdata,noexec
     8                           	psect	bssBANK0,global,class=BANK0,space=1,delta=1,lowdata,noexec
     9                           	psect	bssBANK1,global,class=BANK1,space=1,delta=1,lowdata,noexec
    10                           	psect	cstackBANK0,global,class=BANK0,space=1,delta=1,lowdata,noexec
    11                           	psect	cstackCOMRAM,global,class=COMRAM,space=1,delta=1,lowdata,noexec
    12                           	psect	text0,global,reloc=2,class=CODE,delta=1
    13                           	psect	text1,global,reloc=2,class=CODE,delta=1,group=2
    14                           	psect	text2,global,reloc=2,class=CODE,delta=1
    15                           	psect	text3,global,reloc=2,class=CODE,delta=1
    16                           	psect	text4,global,reloc=2,class=CODE,delta=1,group=2
    17                           	psect	text5,global,reloc=2,class=CODE,delta=1
    18                           	psect	text6,global,reloc=2,class=CODE,delta=1
    19                           	psect	text7,global,reloc=2,class=CODE,delta=1
    20                           	psect	text8,global,reloc=2,class=CODE,delta=1
    21                           	psect	text9,global,reloc=2,class=CODE,delta=1
    22                           	psect	text10,global,reloc=2,class=CODE,delta=1
    23                           	psect	text11,global,reloc=2,class=CODE,delta=1
    24                           	psect	text12,global,reloc=2,class=CODE,delta=1
    25                           	psect	text13,global,reloc=2,class=CODE,delta=1
    26                           	psect	text14,global,reloc=2,class=CODE,delta=1
    27                           	psect	text15,global,reloc=2,class=CODE,delta=1
    28                           	psect	text16,global,reloc=2,class=CODE,delta=1
    29                           	psect	text17,global,reloc=2,class=CODE,delta=1
    30                           	psect	text18,global,reloc=2,class=CODE,delta=1
    31                           	psect	text19,global,reloc=2,class=CODE,delta=1
    32                           	psect	text20,global,reloc=2,class=CODE,delta=1
    33                           	psect	text21,global,reloc=2,class=CODE,delta=1,group=2
    34                           	psect	text22,global,reloc=2,class=CODE,delta=1,group=2
    35                           	psect	text23,global,reloc=2,class=CODE,delta=1,group=2
    36                           	psect	text24,global,reloc=2,class=CODE,delta=1,group=2
    37                           	psect	text25,global,reloc=2,class=CODE,delta=1
    38                           	psect	text26,global,reloc=2,class=CODE,delta=1,group=2
    39                           	psect	intcode,global,reloc=2,class=CODE,delta=1
    40                           	psect	text28,global,reloc=2,class=CODE,delta=1
    41                           	psect	text29,global,reloc=2,class=CODE,delta=1
    42                           	psect	text30,global,reloc=2,class=CODE,delta=1
    43                           	psect	text31,global,reloc=2,class=CODE,delta=1
    44                           	psect	text32,global,reloc=2,class=CODE,delta=1
    45                           	psect	text33,global,reloc=2,class=CODE,delta=1
    46                           	psect	text34,global,reloc=2,class=CODE,delta=1
    47                           	psect	text35,global,reloc=2,class=CODE,delta=1,group=2
    48                           	psect	text36,global,reloc=2,class=CODE,delta=1
    49                           	psect	text37,global,reloc=2,class=CODE,delta=1
    50                           	psect	text38,global,reloc=2,class=CODE,delta=1
    51                           	psect	text39,global,reloc=2,class=CODE,delta=1
    52                           	psect	text40,global,reloc=2,class=CODE,delta=1
    53                           	psect	text41,global,reloc=2,class=CODE,delta=1
    54                           	psect	text42,global,reloc=2,class=CODE,delta=1
    55                           	psect	text43,global,reloc=2,class=CODE,delta=1
    56                           	psect	text44,global,reloc=2,class=CODE,delta=1
    57                           	psect	text45,global,reloc=2,class=CODE,delta=1
    58                           	psect	text46,global,reloc=2,class=CODE,delta=1
    59                           	psect	text47,global,reloc=2,class=CODE,delta=1
    60                           	psect	text48,global,reloc=2,class=CODE,delta=1
    61                           	psect	text49,global,reloc=2,class=CODE,delta=1
    62                           	psect	text50,global,reloc=2,class=CODE,delta=1
    63                           	psect	text51,global,reloc=2,class=CODE,delta=1
    64                           	psect	text52,global,reloc=2,class=CODE,delta=1
    65                           	psect	text53,global,reloc=2,class=CODE,delta=1
    66                           	psect	text54,global,reloc=2,class=CODE,delta=1
    67                           	psect	text55,global,reloc=2,class=CODE,delta=1
    68                           	psect	intsave_regs,global,class=BIGRAM,space=1,delta=1,noexec
    69                           	psect	rparam,global,class=COMRAM,space=1,delta=1,noexec
    70                           	psect	temp,global,ovrld,common,class=COMRAM,space=1,delta=1
    71                           	psect	idloc,global,abs,ovrld,class=IDLOC,space=5,delta=1,noexec
    72                           	psect	config,global,abs,ovrld,class=CONFIG,space=4,delta=1,noexec
    73                           	dabs	1,0x400,48,_BDT
    74                           	dabs	1,0x500,64,_cdc_data_tx
    75                           	dabs	1,0x438,8,_CtrlTrfData
    76                           	dabs	1,0x430,8,_SetupPkt
    77                           	dabs	1,0x540,64,_cdc_data_rx
    78  0000                     
    79                           ; Version 2.35
    80                           ; Generated 05/05/2021 GMT
    81                           ; 
    82                           ; Copyright © 2021, Microchip Technology Inc. and its subsidiaries ("Microchip")
    83                           ; All rights reserved.
    84                           ; 
    85                           ; This software is developed by Microchip Technology Inc. and its subsidiaries ("Microch
      +                          ip").
    86                           ; 
    87                           ; Redistribution and use in source and binary forms, with or without modification, are
    88                           ; permitted provided that the following conditions are met:
    89                           ; 
    90                           ;     1. Redistributions of source code must retain the above copyright notice, this lis
      +                          t of
    91                           ;        conditions and the following disclaimer.
    92                           ; 
    93                           ;     2. Redistributions in binary form must reproduce the above copyright notice, this 
      +                          list
    94                           ;        of conditions and the following disclaimer in the documentation and/or other
    95                           ;        materials provided with the distribution. Publication is not required when
    96                           ;        this file is used in an embedded application.
    97                           ; 
    98                           ;     3. Microchip's name may not be used to endorse or promote products derived from th
      +                          is
    99                           ;        software without specific prior written permission.
   100                           ; 
   101                           ; THIS SOFTWARE IS PROVIDED BY MICROCHIP "AS IS" AND ANY EXPRESS OR IMPLIED WARRANTIES,
   102                           ; INCLUDING, BUT NOT LIMITED TO, THE IMPLIED WARRANTIES OF MERCHANTABILITY AND FITNESS F
      +                          OR
   103                           ; PURPOSE ARE DISCLAIMED.  IN NO EVENT SHALL MICROCHIP BE LIABLE FOR ANY DIRECT, INDIREC
      +                          T,
   104                           ; INCIDENTAL, SPECIAL, EXEMPLARY, OR CONSEQUENTIAL DAMAGES (INCLUDING BUT NOT LIMITED TO
   105                           ; PROCUREMENT OF SUBSTITUTE GOODS OR SERVICES; LOSS OF USE, DATA OR PROFITS; OR BUSINESS
   106                           ; INTERRUPTION) HOWSOEVER CAUSED AND ON ANY THEORY OF LIABILITY, WHETHER IN CONTRACT, ST
      +                          RICT
   107                           ; LIABILITY, OR TORT (INCLUDING NEGLIGENCE OR OTHERWISE) ARISING IN ANY WAY OUT OF THE U
      +                          SE OF
   108                           ; THIS SOFTWARE, EVEN IF ADVISED OF THE POSSIBILITY OF SUCH DAMAGE.
   109                           ; 
   110                           ; 
   111                           ; Code-generator required, PIC18F25K50 Definitions
   112                           ; 
   113                           ; SFR Addresses
   114  0000                     
   115                           	psect	smallconst
   116  000800                     __psmallconst:
   117                           	callstack 0
   118  000800  00                 	db	0
   119  000801                     _USB_SD_Ptr:
   120                           	callstack 0
   121  000801  A8                 	db	low _sd000
   122  000802  08                 	db	high _sd000
   123  000803  4C                 	db	low _sd001
   124  000804  08                 	db	high _sd001
   125  000805  80                 	db	low _sd002
   126  000806  08                 	db	high _sd002
   127  000807                     __end_of_USB_SD_Ptr:
   128                           	callstack 0
   129  000807                     _USB_CD_Ptr:
   130                           	callstack 0
   131  000807  09                 	db	low _configDescriptor1
   132  000808  08                 	db	high _configDescriptor1
   133  000809                     __end_of_USB_CD_Ptr:
   134                           	callstack 0
   135  000809                     _configDescriptor1:
   136                           	callstack 0
   137  000809  09                 	db	9
   138  00080A  02                 	db	2
   139  00080B  43                 	db	67
   140  00080C  00                 	db	0
   141  00080D  02                 	db	2
   142  00080E  01                 	db	1
   143  00080F  00                 	db	0
   144  000810  C0                 	db	192
   145  000811  32                 	db	50
   146  000812  09                 	db	9
   147  000813  04                 	db	4
   148  000814  00                 	db	0
   149  000815  00                 	db	0
   150  000816  01                 	db	1
   151  000817  02                 	db	2
   152  000818  02                 	db	2
   153  000819  01                 	db	1
   154  00081A  00                 	db	0
   155  00081B  05                 	db	5
   156  00081C  24                 	db	36
   157  00081D  00                 	db	0
   158  00081E  10                 	db	16
   159  00081F  01                 	db	1
   160  000820  04                 	db	4
   161  000821  24                 	db	36
   162  000822  02                 	db	2
   163  000823  02                 	db	2
   164  000824  05                 	db	5
   165  000825  24                 	db	36
   166  000826  06                 	db	6
   167  000827  00                 	db	0
   168  000828  01                 	db	1
   169  000829  05                 	db	5
   170  00082A  24                 	db	36
   171  00082B  01                 	db	1
   172  00082C  00                 	db	0
   173  00082D  01                 	db	1
   174  00082E  07                 	db	7
   175  00082F  05                 	db	5
   176  000830  81                 	db	129
   177  000831  03                 	db	3
   178  000832  0A                 	db	10
   179  000833  00                 	db	0
   180  000834  02                 	db	2
   181  000835  09                 	db	9
   182  000836  04                 	db	4
   183  000837  01                 	db	1
   184  000838  00                 	db	0
   185  000839  02                 	db	2
   186  00083A  0A                 	db	10
   187  00083B  00                 	db	0
   188  00083C  00                 	db	0
   189  00083D  00                 	db	0
   190  00083E  07                 	db	7
   191  00083F  05                 	db	5
   192  000840  02                 	db	2
   193  000841  02                 	db	2
   194  000842  40                 	db	64
   195  000843  00                 	db	0
   196  000844  00                 	db	0
   197  000845  07                 	db	7
   198  000846  05                 	db	5
   199  000847  82                 	db	130
   200  000848  02                 	db	2
   201  000849  40                 	db	64
   202  00084A  00                 	db	0
   203  00084B  00                 	db	0
   204  00084C                     __end_of_configDescriptor1:
   205                           	callstack 0
   206  00084C                     _sd001:
   207                           	callstack 0
   208  00084C  34                 	db	52
   209  00084D  03                 	db	3
   210  00084E  004D               	dw	77
   211  000850  0069               	dw	105
   212  000852  0063               	dw	99
   213  000854  0072               	dw	114
   214  000856  006F               	dw	111
   215  000858  0063               	dw	99
   216  00085A  0068               	dw	104
   217  00085C  0069               	dw	105
   218  00085E  0070               	dw	112
   219  000860  0020               	dw	32
   220  000862  0054               	dw	84
   221  000864  0065               	dw	101
   222  000866  0063               	dw	99
   223  000868  0068               	dw	104
   224  00086A  006E               	dw	110
   225  00086C  006F               	dw	111
   226  00086E  006C               	dw	108
   227  000870  006F               	dw	111
   228  000872  0067               	dw	103
   229  000874  0079               	dw	121
   230  000876  0020               	dw	32
   231  000878  0049               	dw	73
   232  00087A  006E               	dw	110
   233  00087C  0063               	dw	99
   234  00087E  002E               	dw	46
   235  000880                     __end_of_sd001:
   236                           	callstack 0
   237  000880                     _sd002:
   238                           	callstack 0
   239  000880  16                 	db	22
   240  000881  03                 	db	3
   241  000882  0042               	dw	66
   242  000884  006F               	dw	111
   243  000886  0062               	dw	98
   244  000888  0069               	dw	105
   245  00088A  006E               	dw	110
   246  00088C  0061               	dw	97
   247  00088E  0064               	dw	100
   248  000890  006F               	dw	111
   249  000892  0072               	dw	114
   250  000894  0061               	dw	97
   251  000896                     __end_of_sd002:
   252                           	callstack 0
   253  000896                     _device_dsc:
   254                           	callstack 0
   255  000896  12                 	db	18
   256  000897  01                 	db	1
   257  000898  0200               	dw	512
   258  00089A  02                 	db	2
   259  00089B  00                 	db	0
   260  00089C  00                 	db	0
   261  00089D  08                 	db	8
   262  00089E  04D8               	dw	1240
   263  0008A0  000A               	dw	10
   264  0008A2  0100               	dw	256
   265  0008A4  01                 	db	1
   266  0008A5  02                 	db	2
   267  0008A6  00                 	db	0
   268  0008A7  01                 	db	1
   269  0008A8                     __end_of_device_dsc:
   270                           	callstack 0
   271  0008A8                     _sd000:
   272                           	callstack 0
   273  0008A8  04                 	db	4
   274  0008A9  03                 	db	3
   275  0008AA  0409               	dw	1033
   276  0008AC                     __end_of_sd000:
   277                           	callstack 0
   278  0000                     _CCPR2H	set	3985
   279  0000                     _EEDATA	set	4008
   280  0000                     _EEADR	set	4009
   281  0000                     _EECON2	set	4007
   282  0000                     _EECON1bits	set	4006
   283  0000                     _ADCON0	set	4034
   284  0000                     _ADRESL	set	4035
   285  0000                     _T1CON	set	4045
   286  0000                     _TMR1L	set	4046
   287  0000                     _TMR1H	set	4047
   288  0000                     _T3CON	set	4017
   289  0000                     _TMR3L	set	4018
   290  0000                     _TMR3H	set	4019
   291  0000                     _T3GCON	set	4020
   292  0000                     _ACTCON	set	4021
   293  0000                     _RCONbits	set	4048
   294  0000                     _IPR3bits	set	4005
   295  0000                     _USTAT	set	3937
   296  0000                     _PIR3bits	set	4004
   297  0000                     _UADDR	set	3939
   298  0000                     _UIE	set	3940
   299  0000                     _UEIE	set	3942
   300  0000                     _TMR1	set	4046
   301  0000                     _TMR3	set	4018
   302  0000                     _ADCON0bits	set	4034
   303  0000                     _T0CONbits	set	4053
   304  0000                     _T1GCONbits	set	4044
   305  0000                     _T1CONbits	set	4045
   306  0000                     _T2CONbits	set	4026
   307  0000                     _T3GCONbits	set	4020
   308  0000                     _T3CONbits	set	4017
   309  0000                     _UEP0bits	set	3946
   310  0000                     _UCON	set	3936
   311  0000                     _UIEbits	set	3940
   312  0000                     _UIRbits	set	3941
   313  0000                     _CCPTMRSbits	set	3929
   314  0000                     _ANSELA	set	3931
   315  0000                     _ANSELB	set	3932
   316  0000                     _ANSELC	set	3933
   317  0000                     _UCONbits	set	3936
   318  0000                     _UCFG	set	3938
   319  0000                     _UIR	set	3941
   320  0000                     _UEIR	set	3943
   321  0000                     _PIE3bits	set	4003
   322  0000                     _UEP0	set	3946
   323  0000                     _WPUB	set	3973
   324  0000                     _LATA	set	3977
   325  0000                     _OSCTUNE	set	3995
   326  0000                     _UEP1	set	3947
   327  0000                     _OSCCON2	set	4050
   328  0000                     _OSCCON	set	4051
   329  0000                     _INTCONbits	set	4082
   330  0000                     _TABLAT	set	4085
   331  0000                     _TBLPTRL	set	4086
   332  0000                     _TBLPTRH	set	4087
   333  0000                     _TBLPTRU	set	4088
   334  0000                     _T0CON	set	4053
   335  0000                     _TMR0L	set	4054
   336  0000                     _TMR0H	set	4055
   337  0000                     _PIR1bits	set	3998
   338  0000                     _PIR2bits	set	4001
   339  0000                     _T2CON	set	4026
   340  0000                     _PR2	set	4027
   341  0000                     _ADCON2	set	4032
   342  0000                     _ADCON1	set	4033
   343  0000                     _T1GCON	set	4044
   344  0000                     _TMR2	set	4028
   345  0000                     _INTCON2bits	set	4081
   346  0000                     _ADRESH	set	4036
   347  0000                     _CCPR2L	set	3984
   348  0000                     _TRISA	set	3986
   349  0000                     _LATC	set	3979
   350  0000                     _LATB	set	3978
   351  0000                     _CCP2CON	set	3991
   352  0000                     _TRISC	set	3988
   353  0000                     _TRISB	set	3987
   354  0008AC                     STR_1:
   355                           
   356                           ; BSR set to: 0
   357  0008AC  61                 	db	97	;'a'
   358  0008AD  20                 	db	32
   359  0008AE  63                 	db	99	;'c'
   360  0008AF  61                 	db	97	;'a'
   361  0008B0  73                 	db	115	;'s'
   362  0008B1  61                 	db	97	;'a'
   363  0008B2  00                 	db	0
   364  0008B3  00                 	db	0	; dummy byte at the end
   365  0000                     
   366                           ; #config settings
   367                           
   368                           	psect	cinit
   369  00324A                     __pcinit:
   370                           	callstack 0
   371  00324A                     start_initialization:
   372                           	callstack 0
   373  00324A                     __initialization:
   374                           	callstack 0
   375                           
   376                           ; Clear objects allocated to BANK1 (256 bytes)
   377  00324A  EE01  F000         	lfsr	0,__pbssBANK1
   378  00324E  EE11 F000          	lfsr	1,256
   379  003252                     clear_0:
   380  003252  6AEE               	clrf	postinc0,c
   381  003254  50E5               	movf	postdec1,w,c
   382  003256  50E1               	movf	fsr1l,w,c
   383  003258  E1FC               	bnz	clear_0
   384  00325A  50E2               	movf	fsr1h,w,c
   385  00325C  E1FA               	bnz	clear_0
   386                           
   387                           ; Clear objects allocated to BANK0 (85 bytes)
   388  00325E  EE00  F060         	lfsr	0,__pbssBANK0
   389  003262  0E55               	movlw	85
   390  003264                     clear_1:
   391  003264  6AEE               	clrf	postinc0,c
   392  003266  06E8               	decf	wreg,f,c
   393  003268  E1FD               	bnz	clear_1
   394                           
   395                           ; Clear objects allocated to COMRAM (41 bytes)
   396  00326A  EE00  F02C         	lfsr	0,__pbssCOMRAM
   397  00326E  0E29               	movlw	41
   398  003270                     clear_2:
   399  003270  6AEE               	clrf	postinc0,c
   400  003272  06E8               	decf	wreg,f,c
   401  003274  E1FD               	bnz	clear_2
   402  003276                     end_of_initialization:
   403                           	callstack 0
   404  003276                     __end_of__initialization:
   405                           	callstack 0
   406  003276  9055               	bcf	int$flags,0,c	;clear compiler interrupt flag (level 1)
   407  003278  9255               	bcf	int$flags,1,c	;clear compiler interrupt flag (level 2)
   408  00327A  0E00               	movlw	low (__Lmediumconst shr (0+16))
   409  00327C  6EF8               	movwf	tblptru,c
   410  00327E  0100               	movlb	0
   411  003280  EFB9  F016         	goto	_main	;jump to C main() function
   412                           
   413                           	psect	bssCOMRAM
   414  00002C                     __pbssCOMRAM:
   415                           	callstack 0
   416  00002C                     _USB1msTickCount:
   417                           	callstack 0
   418  00002C                     	ds	4
   419  000030                     _brkp:
   420                           	callstack 0
   421  000030                     	ds	2
   422  000032                     malloc@cur:
   423                           	callstack 0
   424  000032                     	ds	2
   425  000034                     ___freelist:
   426                           	callstack 0
   427  000034                     	ds	2
   428  000036                     _timer3ReloadVal:
   429                           	callstack 0
   430  000036                     	ds	2
   431  000038                     _CDCDataOutHandle:
   432                           	callstack 0
   433  000038                     	ds	2
   434  00003A                     _pDst:
   435                           	callstack 0
   436  00003A                     	ds	2
   437  00003C                     _pBDTEntryEP0OutNext:
   438                           	callstack 0
   439  00003C                     	ds	2
   440  00003E                     _pBDTEntryEP0OutCurrent:
   441                           	callstack 0
   442  00003E                     	ds	2
   443  000040                     _numBytesRead:
   444                           	callstack 0
   445  000040                     	ds	1
   446  000041                     _timer0ReloadVal:
   447                           	callstack 0
   448  000041                     	ds	1
   449  000042                     _control_signal_bitmap:
   450                           	callstack 0
   451  000042                     	ds	1
   452  000043                     _cdc_trf_state:
   453                           	callstack 0
   454  000043                     	ds	1
   455  000044                     _cdc_rx_len:
   456                           	callstack 0
   457  000044                     	ds	1
   458  000045                     _USBDeferOUTDataStagePackets:
   459                           	callstack 0
   460  000045                     	ds	1
   461  000046                     _USBDeferINDataStagePackets:
   462                           	callstack 0
   463  000046                     	ds	1
   464  000047                     _USBStatusStageEnabledFlag2:
   465                           	callstack 0
   466  000047                     	ds	1
   467  000048                     _USBStatusStageEnabledFlag1:
   468                           	callstack 0
   469  000048                     	ds	1
   470  000049                     _USBDeferStatusStagePacket:
   471                           	callstack 0
   472  000049                     	ds	1
   473  00004A                     _USBStatusStageTimeoutCounter:
   474                           	callstack 0
   475  00004A                     	ds	1
   476  00004B                     _BothEP0OutUOWNsSet:
   477                           	callstack 0
   478  00004B                     	ds	1
   479  00004C                     _endpoint_number:
   480                           	callstack 0
   481  00004C                     	ds	1
   482  00004D                     _RemoteWakeup:
   483                           	callstack 0
   484  00004D                     	ds	1
   485  00004E                     _controlTransferState:
   486                           	callstack 0
   487  00004E                     	ds	1
   488  00004F                     _shortPacketStatus:
   489                           	callstack 0
   490  00004F                     	ds	1
   491  000050                     _USBDeviceState:
   492                           	callstack 0
   493  000050                     	ds	1
   494  000051                     _USBAlternateInterface:
   495                           	callstack 0
   496  000051                     	ds	2
   497  000053                     _USTATcopy:
   498                           	callstack 0
   499  000053                     	ds	1
   500  000054                     _USBActiveConfiguration:
   501                           	callstack 0
   502  000054                     	ds	1
   503                           
   504                           	psect	bssBANK0
   505  000060                     __pbssBANK0:
   506                           	callstack 0
   507  000060                     _cdc_notice:
   508                           	callstack 0
   509  000060                     	ds	10
   510  00006A                     _outPipes:
   511                           	callstack 0
   512  00006A                     	ds	8
   513  000072                     _inPipes:
   514                           	callstack 0
   515  000072                     	ds	6
   516  000078                     _pBDTEntryIn:
   517                           	callstack 0
   518  000078                     	ds	6
   519  00007E                     _pBDTEntryOut:
   520                           	callstack 0
   521  00007E                     	ds	6
   522  000084                     malloc@lock:
   523                           	callstack 0
   524  000084                     	ds	4
   525  000088                     _BaudRateGen:
   526                           	callstack 0
   527  000088                     	ds	4
   528  00008C                     _pCDCDst:
   529                           	callstack 0
   530  00008C                     	ds	3
   531  00008F                     _pCDCSrc:
   532                           	callstack 0
   533  00008F                     	ds	3
   534  000092                     _ep_data_out:
   535                           	callstack 0
   536  000092                     	ds	3
   537  000095                     _ep_data_in:
   538                           	callstack 0
   539  000095                     	ds	3
   540  000098                     _errno:
   541                           	callstack 0
   542  000098                     	ds	2
   543  00009A                     malloc@end:
   544                           	callstack 0
   545  00009A                     	ds	2
   546  00009C                     _ADC_InterruptHandler:
   547                           	callstack 0
   548  00009C                     	ds	2
   549  00009E                     _timer1ReloadVal:
   550                           	callstack 0
   551  00009E                     	ds	2
   552  0000A0                     _CDCDataInHandle:
   553                           	callstack 0
   554  0000A0                     	ds	2
   555  0000A2                     _cdc_mem_type:
   556                           	callstack 0
   557  0000A2                     	ds	1
   558  0000A3                     _cdc_tx_len:
   559                           	callstack 0
   560  0000A3                     	ds	1
   561  0000A4                     _USBTicksSinceSuspendEnd:
   562                           	callstack 0
   563  0000A4                     	ds	1
   564  0000A5                     _USBBusIsSuspended:
   565                           	callstack 0
   566  0000A5                     	ds	1
   567  0000A6                     _dummy_encapsulated_cmd_response:
   568                           	callstack 0
   569  0000A6                     	ds	8
   570  0000AE                     _line_coding:
   571                           	callstack 0
   572  0000AE                     	ds	7
   573                           
   574                           	psect	bssBANK1
   575  000100                     __pbssBANK1:
   576                           	callstack 0
   577  000100                     _writeBuffer@main$F3497:
   578                           	callstack 0
   579  000100                     	ds	64
   580  000140                     _readBuffer@main$F3496:
   581                           	callstack 0
   582  000140                     	ds	64
   583  000180                     _writeBuffer:
   584                           	callstack 0
   585  000180                     	ds	64
   586  0001C0                     _readBuffer:
   587                           	callstack 0
   588  0001C0                     	ds	64
   589                           
   590                           	psect	cstackBANK0
   591  0000B5                     __pcstackBANK0:
   592                           	callstack 0
   593  0000B5                     ?_USBTransferOnePacket:
   594                           	callstack 0
   595  0000B5                     ?_strlen:
   596                           	callstack 0
   597  0000B5                     ?___simple_search_fl:
   598                           	callstack 0
   599  0000B5                     ?___expand_heap:
   600                           	callstack 0
   601  0000B5                     USBTransferOnePacket@dir:
   602                           	callstack 0
   603  0000B5                     putUSBUSART@data:
   604                           	callstack 0
   605  0000B5                     Fila_Init@fila:
   606                           	callstack 0
   607  0000B5                     ___simple_search_fl@n:
   608                           	callstack 0
   609  0000B5                     free@ptr:
   610                           	callstack 0
   611  0000B5                     ___expand_heap@pn:
   612                           	callstack 0
   613  0000B5                     memset@dest:
   614                           	callstack 0
   615  0000B5                     strcpy@dest:
   616                           	callstack 0
   617  0000B5                     strlen@s:
   618                           	callstack 0
   619                           
   620                           ; 2 bytes @ 0x0
   621  0000B5                     	ds	1
   622  0000B6                     USBTransferOnePacket@data:
   623                           	callstack 0
   624                           
   625                           ; 2 bytes @ 0x1
   626  0000B6                     	ds	1
   627  0000B7                     ??_free:
   628  0000B7                     ??___simple_search_fl:
   629  0000B7                     ??___expand_heap:
   630  0000B7                     putUSBUSART@length:
   631                           	callstack 0
   632  0000B7                     memset@c:
   633                           	callstack 0
   634  0000B7                     strcpy@src:
   635                           	callstack 0
   636  0000B7                     strlen@a:
   637                           	callstack 0
   638                           
   639                           ; 2 bytes @ 0x2
   640  0000B7                     	ds	1
   641  0000B8                     USBTransferOnePacket@len:
   642                           	callstack 0
   643                           
   644                           ; 1 bytes @ 0x3
   645  0000B8                     	ds	1
   646  0000B9                     ??_USBTransferOnePacket:
   647  0000B9                     ___expand_heap@n:
   648                           	callstack 0
   649  0000B9                     memset@n:
   650                           	callstack 0
   651  0000B9                     strcpy@s:
   652                           	callstack 0
   653                           
   654                           ; 2 bytes @ 0x4
   655  0000B9                     	ds	2
   656  0000BB                     ??_memset:
   657  0000BB                     ___simple_search_fl@remaining_size:
   658                           	callstack 0
   659  0000BB                     free@cptr:
   660                           	callstack 0
   661  0000BB                     ___expand_heap@new_brkp:
   662                           	callstack 0
   663  0000BB                     strcpy@d:
   664                           	callstack 0
   665                           
   666                           ; 2 bytes @ 0x6
   667  0000BB                     	ds	2
   668  0000BD                     USBTransferOnePacket@ep:
   669                           	callstack 0
   670  0000BD                     ___simple_search_fl@best_last:
   671                           	callstack 0
   672  0000BD                     free@c:
   673                           	callstack 0
   674  0000BD                     memset@k:
   675                           	callstack 0
   676                           
   677                           ; 2 bytes @ 0x8
   678  0000BD                     	ds	1
   679  0000BE                     USBTransferOnePacket@handle:
   680                           	callstack 0
   681                           
   682                           ; 2 bytes @ 0x9
   683  0000BE                     	ds	1
   684  0000BF                     ?_FilaPop:
   685                           	callstack 0
   686  0000BF                     FilaPop@fila:
   687                           	callstack 0
   688  0000BF                     ___simple_search_fl@split:
   689                           	callstack 0
   690  0000BF                     memset@s:
   691                           	callstack 0
   692                           
   693                           ; 2 bytes @ 0xA
   694  0000BF                     	ds	1
   695  0000C0                     CDCTxService@i:
   696                           	callstack 0
   697                           
   698                           ; 1 bytes @ 0xB
   699  0000C0                     	ds	1
   700  0000C1                     ??_FilaPop:
   701  0000C1                     USBDeviceInit@i:
   702                           	callstack 0
   703  0000C1                     CDCTxService@byte_to_send:
   704                           	callstack 0
   705  0000C1                     ___simple_search_fl@last:
   706                           	callstack 0
   707                           
   708                           ; 2 bytes @ 0xC
   709  0000C1                     	ds	1
   710  0000C2                     MCC_USB_WRITE@str:
   711                           	callstack 0
   712                           
   713                           ; 2 bytes @ 0xD
   714  0000C2                     	ds	1
   715  0000C3                     ___simple_search_fl@next:
   716                           	callstack 0
   717                           
   718                           ; 2 bytes @ 0xE
   719  0000C3                     	ds	1
   720  0000C4                     MCC_USB_WRITE@nBytes:
   721                           	callstack 0
   722                           
   723                           ; 2 bytes @ 0xF
   724  0000C4                     	ds	1
   725  0000C5                     FilaPop@r:
   726                           	callstack 0
   727  0000C5                     ___simple_search_fl@c:
   728                           	callstack 0
   729                           
   730                           ; 2 bytes @ 0x10
   731  0000C5                     	ds	1
   732  0000C6                     
   733                           ; 1 bytes @ 0x11
   734  0000C6                     	ds	1
   735  0000C7                     FilaPop@viejo:
   736                           	callstack 0
   737  0000C7                     ___simple_search_fl@best:
   738                           	callstack 0
   739                           
   740                           ; 2 bytes @ 0x12
   741  0000C7                     	ds	2
   742  0000C9                     ?_malloc:
   743                           	callstack 0
   744  0000C9                     malloc@n:
   745                           	callstack 0
   746                           
   747                           ; 2 bytes @ 0x14
   748  0000C9                     	ds	2
   749  0000CB                     ??_malloc:
   750                           
   751                           ; 1 bytes @ 0x16
   752  0000CB                     	ds	2
   753  0000CD                     malloc@m:
   754                           	callstack 0
   755                           
   756                           ; 2 bytes @ 0x18
   757  0000CD                     	ds	2
   758  0000CF                     malloc@sz:
   759                           	callstack 0
   760                           
   761                           ; 2 bytes @ 0x1A
   762  0000CF                     	ds	2
   763  0000D1                     malloc@p:
   764                           	callstack 0
   765                           
   766                           ; 2 bytes @ 0x1C
   767  0000D1                     	ds	2
   768  0000D3                     malloc@new:
   769                           	callstack 0
   770                           
   771                           ; 2 bytes @ 0x1E
   772  0000D3                     	ds	2
   773  0000D5                     Fila_Agregar@fila:
   774                           	callstack 0
   775                           
   776                           ; 2 bytes @ 0x20
   777  0000D5                     	ds	2
   778  0000D7                     Fila_Agregar@comando:
   779                           	callstack 0
   780                           
   781                           ; 2 bytes @ 0x22
   782  0000D7                     	ds	2
   783  0000D9                     Fila_Agregar@nBytes:
   784                           	callstack 0
   785                           
   786                           ; 2 bytes @ 0x24
   787  0000D9                     	ds	2
   788  0000DB                     
   789                           ; 1 bytes @ 0x26
   790  0000DB                     	ds	2
   791  0000DD                     Fila_Agregar@nuevo:
   792                           	callstack 0
   793                           
   794                           ; 2 bytes @ 0x28
   795  0000DD                     	ds	2
   796  0000DF                     ??_main:
   797                           
   798                           ; 1 bytes @ 0x2A
   799  0000DF                     	ds	2
   800  0000E1                     main@send:
   801                           	callstack 0
   802                           
   803                           ; 2 bytes @ 0x2C
   804  0000E1                     	ds	2
   805  0000E3                     main@CommandList:
   806                           	callstack 0
   807                           
   808                           ; 6 bytes @ 0x2E
   809  0000E3                     	ds	6
   810                           
   811                           	psect	cstackCOMRAM
   812  000001                     __pcstackCOMRAM:
   813                           	callstack 0
   814  000001                     ??_USBCheckCDCRequest:
   815  000001                     ??_USBStdGetDscHandler:
   816  000001                     ??_USBStdGetStatusHandler:
   817  000001                     ?i2_USBTransferOnePacket:
   818                           	callstack 0
   819  000001                     USBConfigureEndpoint@direction:
   820                           	callstack 0
   821  000001                     USBCtrlTrfTxService@byteToSend:
   822                           	callstack 0
   823  000001                     USBCtrlTrfRxService@i:
   824                           	callstack 0
   825  000001                     i2USBTransferOnePacket@dir:
   826                           	callstack 0
   827  000001                     memcpy@d1:
   828                           	callstack 0
   829  000001                     i2memset@dest:
   830                           	callstack 0
   831                           
   832                           ; 2 bytes @ 0x0
   833  000001                     	ds	1
   834  000002                     ??_USBConfigureEndpoint:
   835  000002                     USBCtrlTrfRxService@byteToRead:
   836                           	callstack 0
   837  000002                     USBCtrlTrfInHandler@lastDTS:
   838                           	callstack 0
   839  000002                     i2USBTransferOnePacket@data:
   840                           	callstack 0
   841                           
   842                           ; 2 bytes @ 0x1
   843  000002                     	ds	1
   844  000003                     USBStdGetStatusHandler@p:
   845                           	callstack 0
   846  000003                     memcpy@s1:
   847                           	callstack 0
   848  000003                     i2memset@c:
   849                           	callstack 0
   850                           
   851                           ; 2 bytes @ 0x2
   852  000003                     	ds	1
   853  000004                     i2USBTransferOnePacket@len:
   854                           	callstack 0
   855                           
   856                           ; 1 bytes @ 0x3
   857  000004                     	ds	1
   858  000005                     ??i2_USBTransferOnePacket:
   859  000005                     memcpy@n:
   860                           	callstack 0
   861  000005                     i2memset@n:
   862                           	callstack 0
   863                           
   864                           ; 2 bytes @ 0x4
   865  000005                     	ds	1
   866  000006                     USBConfigureEndpoint@EPNum:
   867                           	callstack 0
   868                           
   869                           ; 1 bytes @ 0x5
   870  000006                     	ds	1
   871  000007                     ??i2_memset:
   872  000007                     USBConfigureEndpoint@handle:
   873                           	callstack 0
   874  000007                     memcpy@d:
   875                           	callstack 0
   876                           
   877                           ; 2 bytes @ 0x6
   878  000007                     	ds	2
   879  000009                     USBEnableEndpoint@options:
   880                           	callstack 0
   881  000009                     i2USBTransferOnePacket@ep:
   882                           	callstack 0
   883  000009                     memcpy@s:
   884                           	callstack 0
   885  000009                     i2memset@k:
   886                           	callstack 0
   887                           
   888                           ; 2 bytes @ 0x8
   889  000009                     	ds	1
   890  00000A                     USBEnableEndpoint@p:
   891                           	callstack 0
   892  00000A                     i2USBTransferOnePacket@handle:
   893                           	callstack 0
   894                           
   895                           ; 2 bytes @ 0x9
   896  00000A                     	ds	1
   897  00000B                     memcpy@tmp:
   898                           	callstack 0
   899  00000B                     i2memset@s:
   900                           	callstack 0
   901                           
   902                           ; 2 bytes @ 0xA
   903  00000B                     	ds	1
   904  00000C                     USBEnableEndpoint@ep:
   905                           	callstack 0
   906                           
   907                           ; 1 bytes @ 0xB
   908  00000C                     	ds	1
   909  00000D                     i2USBDeviceInit@i:
   910                           	callstack 0
   911  00000D                     USER_USB_CALLBACK_EVENT_HANDLER@event:
   912                           	callstack 0
   913                           
   914                           ; 2 bytes @ 0xC
   915  00000D                     	ds	2
   916  00000F                     USER_USB_CALLBACK_EVENT_HANDLER@pdata:
   917                           	callstack 0
   918                           
   919                           ; 2 bytes @ 0xE
   920  00000F                     	ds	2
   921  000011                     USER_USB_CALLBACK_EVENT_HANDLER@size:
   922                           	callstack 0
   923                           
   924                           ; 2 bytes @ 0x10
   925  000011                     	ds	2
   926  000013                     ??_USER_USB_CALLBACK_EVENT_HANDLER:
   927                           
   928                           ; 1 bytes @ 0x12
   929  000013                     	ds	2
   930  000015                     ??_USBStdFeatureReqHandler:
   931  000015                     USBStdSetCfgHandler@i:
   932                           	callstack 0
   933                           
   934                           ; 1 bytes @ 0x14
   935  000015                     	ds	2
   936  000017                     USBStdFeatureReqHandler@pUEP:
   937                           	callstack 0
   938                           
   939                           ; 2 bytes @ 0x16
   940  000017                     	ds	2
   941  000019                     USBStdFeatureReqHandler@current_ep_data:
   942                           	callstack 0
   943                           
   944                           ; 1 bytes @ 0x18
   945  000019                     	ds	1
   946  00001A                     USBStdFeatureReqHandler@p:
   947                           	callstack 0
   948                           
   949                           ; 2 bytes @ 0x19
   950  00001A                     	ds	2
   951  00001C                     ??_USBCheckStdRequest:
   952                           
   953                           ; 1 bytes @ 0x1B
   954  00001C                     	ds	2
   955  00001E                     ??_USBCtrlEPService:
   956  00001E                     
   957                           ; 1 bytes @ 0x1D
   958  00001E                     	ds	1
   959  00001F                     USBDeviceTasks@i:
   960                           	callstack 0
   961                           
   962                           ; 1 bytes @ 0x1E
   963  00001F                     	ds	1
   964  000020                     ??_INTERRUPT_InterruptManager:
   965                           
   966                           ; 1 bytes @ 0x1F
   967  000020                     	ds	12
   968                           
   969 ;;
   970 ;;Main: autosize = 0, tempsize = 2, incstack = 0, save=0
   971 ;;
   972 ;; *************** function _main *****************
   973 ;; Defined at:
   974 ;;		line 34 in file "main.c"
   975 ;; Parameters:    Size  Location     Type
   976 ;;		None
   977 ;; Auto vars:     Size  Location     Type
   978 ;;  CommandList     6   46[BANK0 ] struct Fila_T
   979 ;;  send            2   44[BANK0 ] PTR unsigned char 
   980 ;;		 -> __heap_hi(0), RAM(2047), NULL(0), 
   981 ;; Return value:  Size  Location     Type
   982 ;;                  1    wreg      void 
   983 ;; Registers used:
   984 ;;		wreg, fsr0l, fsr0h, fsr1l, fsr1h, fsr2l, fsr2h, status,2, status,0, tblptrl, tblptrh, tblptru, prodl, prodh, cstack
   985 ;; Tracked objects:
   986 ;;		On entry : 0/0
   987 ;;		On exit  : 0/0
   988 ;;		Unchanged: 0/0
   989 ;; Data sizes:     COMRAM   BANK0   BANK1   BANK2   BANK3   BANK4   BANK5   BANK6   BANK7
   990 ;;      Params:         0       0       0       0       0       0       0       0       0
   991 ;;      Locals:         0       8       0       0       0       0       0       0       0
   992 ;;      Temps:          0       2       0       0       0       0       0       0       0
   993 ;;      Totals:         0      10       0       0       0       0       0       0       0
   994 ;;Total ram usage:       10 bytes
   995 ;; Hardware stack levels required when called: 13
   996 ;; This function calls:
   997 ;;		_FilaPop
   998 ;;		_Fila_Agregar
   999 ;;		_Fila_Init
  1000 ;;		_MCC_USB_WRITE
  1001 ;;		_SYSTEM_Initialize
  1002 ;;		_strlen
  1003 ;; This function is called by:
  1004 ;;		Startup code after reset
  1005 ;; This function uses a non-reentrant model
  1006 ;;
  1007                           
  1008                           	psect	text0
  1009  002D72                     __ptext0:
  1010                           	callstack 0
  1011  002D72                     _main:
  1012                           	callstack 18
  1013  002D72                     
  1014                           ;main.c: 37:     SYSTEM_Initialize();
  1015  002D72  EC5C  F019         	call	_SYSTEM_Initialize	;wreg free
  1016  002D76                     
  1017                           ;main.c: 44:     (INTCONbits.GIE = 1);
  1018  002D76  8EF2               	bsf	242,7,c	;volatile
  1019  002D78                     
  1020                           ;main.c: 50:     (INTCONbits.PEIE = 1);
  1021  002D78  8CF2               	bsf	242,6,c	;volatile
  1022  002D7A                     
  1023                           ;main.c: 54:     char* send;;main.c: 55:     Fila_T CommandList;;main.c: 56:     Fila_In
      +                          it(&CommandList);
  1024  002D7A  0EE3               	movlw	low main@CommandList
  1025  002D7C  0100               	movlb	0	; () banked
  1026  002D7E  6FB5               	movwf	Fila_Init@fila& (0+255),b
  1027  002D80  0E00               	movlw	high main@CommandList
  1028  002D82  6FB6               	movwf	(Fila_Init@fila+1)& (0+255),b
  1029  002D84  EC07  F019         	call	_Fila_Init	;wreg free
  1030  002D88                     l6350:
  1031                           
  1032                           ;main.c: 58:     {;main.c: 60:        Fila_Agregar(&CommandList,"a casa",strlen("a casa"
      +                          ));
  1033  002D88  0EE3               	movlw	low main@CommandList
  1034  002D8A  0100               	movlb	0	; () banked
  1035  002D8C  6FD5               	movwf	Fila_Agregar@fila& (0+255),b
  1036  002D8E  0E00               	movlw	high main@CommandList
  1037  002D90  6FD6               	movwf	(Fila_Agregar@fila+1)& (0+255),b
  1038  002D92  0EAC               	movlw	low STR_1
  1039  002D94  6FD7               	movwf	Fila_Agregar@comando& (0+255),b
  1040  002D96  0E08               	movlw	high STR_1
  1041  002D98  6FD8               	movwf	(Fila_Agregar@comando+1)& (0+255),b
  1042  002D9A  0EAC               	movlw	low STR_1
  1043  002D9C  6FB5               	movwf	strlen@s& (0+255),b
  1044  002D9E  0E08               	movlw	high STR_1
  1045  002DA0  6FB6               	movwf	(strlen@s+1)& (0+255),b
  1046  002DA2  EC2D  F018         	call	_strlen	;wreg free
  1047  002DA6  C0B5  F0D9         	movff	?_strlen,Fila_Agregar@nBytes
  1048  002DAA  C0B6  F0DA         	movff	?_strlen+1,Fila_Agregar@nBytes+1
  1049  002DAE  EC21  F011         	call	_Fila_Agregar	;wreg free
  1050  002DB2                     
  1051                           ;main.c: 61:        send=FilaPop(&CommandList);
  1052  002DB2  0EE3               	movlw	low main@CommandList
  1053  002DB4  0100               	movlb	0	; () banked
  1054  002DB6  6FBF               	movwf	FilaPop@fila& (0+255),b
  1055  002DB8  0E00               	movlw	high main@CommandList
  1056  002DBA  6FC0               	movwf	(FilaPop@fila+1)& (0+255),b
  1057  002DBC  ECFC  F00D         	call	_FilaPop	;wreg free
  1058  002DC0  C0BF  F0E1         	movff	?_FilaPop,main@send
  1059  002DC4  C0C0  F0E2         	movff	?_FilaPop+1,main@send+1
  1060  002DC8                     
  1061                           ;main.c: 63:        MCC_USB_WRITE(send,strlen(send));
  1062  002DC8  C0E1  F0C2         	movff	main@send,MCC_USB_WRITE@str
  1063  002DCC  C0E2  F0C3         	movff	main@send+1,MCC_USB_WRITE@str+1
  1064  002DD0  C0E1  F0B5         	movff	main@send,strlen@s
  1065  002DD4  C0E2  F0B6         	movff	main@send+1,strlen@s+1
  1066  002DD8  EC2D  F018         	call	_strlen	;wreg free
  1067  002DDC  C0B5  F0C4         	movff	?_strlen,MCC_USB_WRITE@nBytes
  1068  002DE0  C0B6  F0C5         	movff	?_strlen+1,MCC_USB_WRITE@nBytes+1
  1069  002DE4  ECDC  F019         	call	_MCC_USB_WRITE	;wreg free
  1070  002DE8                     
  1071                           ;main.c: 64:        _delay((unsigned long)((500)*(48000000/4000.0)));
  1072  002DE8  0E1F               	movlw	31
  1073  002DEA  0100               	movlb	0	; () banked
  1074  002DEC  6FE0               	movwf	(??_main+1)& (0+255),b
  1075  002DEE  0E71               	movlw	113
  1076  002DF0  6FDF               	movwf	??_main& (0+255),b
  1077  002DF2  0E1E               	movlw	30
  1078  002DF4                     u4997:
  1079  002DF4  2EE8               	decfsz	wreg,f,c
  1080  002DF6  D7FE               	bra	u4997
  1081  002DF8  2FDF               	decfsz	??_main& (0+255),f,b
  1082  002DFA  D7FC               	bra	u4997
  1083  002DFC  2FE0               	decfsz	(??_main+1)& (0+255),f,b
  1084  002DFE  D7FA               	bra	u4997
  1085  002E00  F000               	nop	
  1086  002E02  EFC4  F016         	goto	l6350
  1087  002E06  EF4E  F000         	goto	start
  1088  002E0A                     __end_of_main:
  1089                           	callstack 0
  1090                           
  1091 ;; *************** function _strlen *****************
  1092 ;; Defined at:
  1093 ;;		line 5 in file "/Applications/microchip/xc8/v2.36/pic/sources/c99/common/strlen.c"
  1094 ;; Parameters:    Size  Location     Type
  1095 ;;  s               2    0[BANK0 ] PTR const unsigned char 
  1096 ;;		 -> __heap_hi(0), STR_2(7), RAM(2047), NULL(0), 
  1097 ;; Auto vars:     Size  Location     Type
  1098 ;;  a               2    2[BANK0 ] PTR const unsigned char 
  1099 ;;		 -> __heap_hi(0), STR_2(7), RAM(2047), NULL(0), 
  1100 ;; Return value:  Size  Location     Type
  1101 ;;                  2    0[BANK0 ] unsigned int 
  1102 ;; Registers used:
  1103 ;;		wreg, fsr0l, fsr0h, status,2, status,0, tblptrl, tblptrh, tblptru
  1104 ;; Tracked objects:
  1105 ;;		On entry : 0/0
  1106 ;;		On exit  : 0/0
  1107 ;;		Unchanged: 0/0
  1108 ;; Data sizes:     COMRAM   BANK0   BANK1   BANK2   BANK3   BANK4   BANK5   BANK6   BANK7
  1109 ;;      Params:         0       2       0       0       0       0       0       0       0
  1110 ;;      Locals:         0       2       0       0       0       0       0       0       0
  1111 ;;      Temps:          0       0       0       0       0       0       0       0       0
  1112 ;;      Totals:         0       4       0       0       0       0       0       0       0
  1113 ;;Total ram usage:        4 bytes
  1114 ;; Hardware stack levels used: 1
  1115 ;; Hardware stack levels required when called: 10
  1116 ;; This function calls:
  1117 ;;		Nothing
  1118 ;; This function is called by:
  1119 ;;		_main
  1120 ;; This function uses a non-reentrant model
  1121 ;;
  1122                           
  1123                           	psect	text1
  1124  00305A                     __ptext1:
  1125                           	callstack 0
  1126  00305A                     _strlen:
  1127                           	callstack 20
  1128  00305A  C0B5  F0B7         	movff	strlen@s,strlen@a
  1129  00305E  C0B6  F0B8         	movff	strlen@s+1,strlen@a+1
  1130  003062  EF36  F018         	goto	l6226
  1131  003066                     l6224:
  1132  003066  0100               	movlb	0	; () banked
  1133  003068  4BB5               	infsnz	strlen@s& (0+255),f,b
  1134  00306A  2BB6               	incf	(strlen@s+1)& (0+255),f,b
  1135  00306C                     l6226:
  1136  00306C  C0B5  FFF6         	movff	strlen@s,tblptrl
  1137  003070  C0B6  FFF7         	movff	strlen@s+1,tblptrh
  1138  003074  6AF8               	clrf	tblptru,c
  1139  003076  0E07               	movlw	(high __ramtop+-1)
  1140  003078  64F7               	cpfsgt	tblptrh,c
  1141  00307A  D003               	bra	u4807
  1142  00307C  0008               	tblrd		*
  1143  00307E  50F5               	movf	tablat,w,c
  1144  003080  D005               	bra	u4800
  1145  003082                     u4807:
  1146  003082  CFF6 FFE9          	movff	tblptrl,fsr0l
  1147  003086  CFF7 FFEA          	movff	tblptrh,fsr0h
  1148  00308A  50EF               	movf	indf0,w,c
  1149  00308C                     u4800:
  1150  00308C  0900               	iorlw	0
  1151  00308E  A4D8               	btfss	status,2,c
  1152  003090  EF4C  F018         	goto	u4811
  1153  003094  EF4E  F018         	goto	u4810
  1154  003098                     u4811:
  1155  003098  EF33  F018         	goto	l6224
  1156  00309C                     u4810:
  1157  00309C  0100               	movlb	0	; () banked
  1158  00309E  51B7               	movf	strlen@a& (0+255),w,b
  1159  0030A0  5DB5               	subwf	strlen@s& (0+255),w,b
  1160  0030A2  6FB5               	movwf	?_strlen& (0+255),b
  1161  0030A4  51B8               	movf	(strlen@a+1)& (0+255),w,b
  1162  0030A6  59B6               	subwfb	(strlen@s+1)& (0+255),w,b
  1163  0030A8  6FB6               	movwf	(?_strlen+1)& (0+255),b
  1164  0030AA                     
  1165                           ; BSR set to: 0
  1166  0030AA  0012               	return		;funcret
  1167  0030AC                     __end_of_strlen:
  1168                           	callstack 0
  1169                           
  1170 ;; *************** function _SYSTEM_Initialize *****************
  1171 ;; Defined at:
  1172 ;;		line 50 in file "mcc_generated_files/mcc.c"
  1173 ;; Parameters:    Size  Location     Type
  1174 ;;		None
  1175 ;; Auto vars:     Size  Location     Type
  1176 ;;		None
  1177 ;; Return value:  Size  Location     Type
  1178 ;;                  1    wreg      void 
  1179 ;; Registers used:
  1180 ;;		wreg, fsr2l, fsr2h, status,2, status,0, prodl, prodh, cstack
  1181 ;; Tracked objects:
  1182 ;;		On entry : 0/0
  1183 ;;		On exit  : 0/0
  1184 ;;		Unchanged: 0/0
  1185 ;; Data sizes:     COMRAM   BANK0   BANK1   BANK2   BANK3   BANK4   BANK5   BANK6   BANK7
  1186 ;;      Params:         0       0       0       0       0       0       0       0       0
  1187 ;;      Locals:         0       0       0       0       0       0       0       0       0
  1188 ;;      Temps:          0       0       0       0       0       0       0       0       0
  1189 ;;      Totals:         0       0       0       0       0       0       0       0       0
  1190 ;;Total ram usage:        0 bytes
  1191 ;; Hardware stack levels used: 1
  1192 ;; Hardware stack levels required when called: 12
  1193 ;; This function calls:
  1194 ;;		_ADC_Initialize
  1195 ;;		_CCP2_Initialize
  1196 ;;		_INTERRUPT_Initialize
  1197 ;;		_OSCILLATOR_Initialize
  1198 ;;		_PIN_MANAGER_Initialize
  1199 ;;		_TMR0_Initialize
  1200 ;;		_TMR1_Initialize
  1201 ;;		_TMR2_Initialize
  1202 ;;		_TMR3_Initialize
  1203 ;;		_USBDeviceAttach
  1204 ;;		_USBDeviceInit
  1205 ;; This function is called by:
  1206 ;;		_main
  1207 ;; This function uses a non-reentrant model
  1208 ;;
  1209                           
  1210                           	psect	text2
  1211  0032B8                     __ptext2:
  1212                           	callstack 0
  1213  0032B8                     _SYSTEM_Initialize:
  1214                           	callstack 18
  1215  0032B8                     
  1216                           ;mcc_generated_files/mcc.c: 53:     INTERRUPT_Initialize();
  1217  0032B8  EC09  F01A         	call	_INTERRUPT_Initialize	;wreg free
  1218  0032BC                     
  1219                           ;mcc_generated_files/mcc.c: 54:     PIN_MANAGER_Initialize();
  1220  0032BC  ECA0  F019         	call	_PIN_MANAGER_Initialize	;wreg free
  1221  0032C0                     
  1222                           ;mcc_generated_files/mcc.c: 55:     OSCILLATOR_Initialize();
  1223  0032C0  ECF0  F019         	call	_OSCILLATOR_Initialize	;wreg free
  1224  0032C4                     
  1225                           ;mcc_generated_files/mcc.c: 56:     CCP2_Initialize();
  1226  0032C4  ECF9  F019         	call	_CCP2_Initialize	;wreg free
  1227  0032C8                     
  1228                           ;mcc_generated_files/mcc.c: 57:     USBDeviceInit();
  1229  0032C8  EC0B  F00C         	call	_USBDeviceInit	;wreg free
  1230  0032CC                     
  1231                           ;mcc_generated_files/mcc.c: 58:     ADC_Initialize();
  1232  0032CC  ECD1  F019         	call	_ADC_Initialize	;wreg free
  1233  0032D0                     
  1234                           ;mcc_generated_files/mcc.c: 59:     TMR3_Initialize();
  1235  0032D0  ECB5  F019         	call	_TMR3_Initialize	;wreg free
  1236  0032D4                     
  1237                           ;mcc_generated_files/mcc.c: 60:     TMR2_Initialize();
  1238  0032D4  EC02  F01A         	call	_TMR2_Initialize	;wreg free
  1239  0032D8                     
  1240                           ;mcc_generated_files/mcc.c: 61:     TMR1_Initialize();
  1241  0032D8  ECC3  F019         	call	_TMR1_Initialize	;wreg free
  1242  0032DC                     
  1243                           ;mcc_generated_files/mcc.c: 62:     TMR0_Initialize();
  1244  0032DC  ECE7  F019         	call	_TMR0_Initialize	;wreg free
  1245  0032E0                     
  1246                           ;mcc_generated_files/mcc.c: 63:     USBDeviceAttach();
  1247  0032E0  ECA4  F018         	call	_USBDeviceAttach	;wreg free
  1248  0032E4  0012               	return		;funcret
  1249  0032E6                     __end_of_SYSTEM_Initialize:
  1250                           	callstack 0
  1251                           
  1252 ;; *************** function _USBDeviceInit *****************
  1253 ;; Defined at:
  1254 ;;		line 281 in file "mcc_generated_files/usb/usb_device.c"
  1255 ;; Parameters:    Size  Location     Type
  1256 ;;		None
  1257 ;; Auto vars:     Size  Location     Type
  1258 ;;  i               1   12[BANK0 ] unsigned char 
  1259 ;; Return value:  Size  Location     Type
  1260 ;;                  1    wreg      void 
  1261 ;; Registers used:
  1262 ;;		wreg, fsr2l, fsr2h, status,2, status,0, prodl, prodh, cstack
  1263 ;; Tracked objects:
  1264 ;;		On entry : 0/0
  1265 ;;		On exit  : 0/0
  1266 ;;		Unchanged: 0/0
  1267 ;; Data sizes:     COMRAM   BANK0   BANK1   BANK2   BANK3   BANK4   BANK5   BANK6   BANK7
  1268 ;;      Params:         0       0       0       0       0       0       0       0       0
  1269 ;;      Locals:         0       1       0       0       0       0       0       0       0
  1270 ;;      Temps:          0       0       0       0       0       0       0       0       0
  1271 ;;      Totals:         0       1       0       0       0       0       0       0       0
  1272 ;;Total ram usage:        1 bytes
  1273 ;; Hardware stack levels used: 1
  1274 ;; Hardware stack levels required when called: 11
  1275 ;; This function calls:
  1276 ;;		_memset
  1277 ;; This function is called by:
  1278 ;;		_SYSTEM_Initialize
  1279 ;; This function uses a non-reentrant model
  1280 ;;
  1281                           
  1282                           	psect	text3
  1283  001816                     __ptext3:
  1284                           	callstack 0
  1285  001816                     _USBDeviceInit:
  1286                           	callstack 18
  1287  001816                     
  1288                           ;mcc_generated_files/usb/usb_device.c: 283:     uint8_t i;;mcc_generated_files/usb/usb_d
      +                          evice.c: 285:     {PIE3bits.USBIE = 0;};
  1289  001816  94A3               	bcf	163,2,c	;volatile
  1290  001818                     
  1291                           ;mcc_generated_files/usb/usb_device.c: 292:     {UEIR = 0;};
  1292  001818  0E00               	movlw	0
  1293  00181A  6E67               	movwf	103,c	;volatile
  1294                           
  1295                           ;mcc_generated_files/usb/usb_device.c: 295:     {UIR = 0;};
  1296  00181C  0E00               	movlw	0
  1297  00181E  6E65               	movwf	101,c	;volatile
  1298                           
  1299                           ;mcc_generated_files/usb/usb_device.c: 298:     UEP0 = 0;
  1300  001820  0E00               	movlw	0
  1301  001822  6E6A               	movwf	106,c	;volatile
  1302  001824                     
  1303                           ;mcc_generated_files/usb/usb_device.c: 300:     memset((void*)&UEP1,0x00,(2));;
  1304  001824  0E6B               	movlw	107
  1305  001826  0100               	movlb	0	; () banked
  1306  001828  6FB5               	movwf	memset@dest& (0+255),b
  1307  00182A  0E0F               	movlw	15
  1308  00182C  6FB6               	movwf	(memset@dest+1)& (0+255),b
  1309  00182E  0E00               	movlw	0
  1310  001830  6FB8               	movwf	(memset@c+1)& (0+255),b
  1311  001832  0E00               	movlw	0
  1312  001834  6FB7               	movwf	memset@c& (0+255),b
  1313  001836  0E00               	movlw	0
  1314  001838  6FBA               	movwf	(memset@n+1)& (0+255),b
  1315  00183A  0E02               	movlw	2
  1316  00183C  6FB9               	movwf	memset@n& (0+255),b
  1317  00183E  EC26  F009         	call	_memset	;wreg free
  1318  001842                     
  1319                           ;mcc_generated_files/usb/usb_device.c: 302:     { UCFG = 0x10 | 0x00 | 0x04 | 0x02; UEIE
      +                           = 0x9F; UIE = 0x39 | 0x40 | 0x02; };
  1320  001842  0E16               	movlw	22
  1321  001844  6E62               	movwf	98,c	;volatile
  1322  001846  0E9F               	movlw	159
  1323  001848  6E66               	movwf	102,c	;volatile
  1324  00184A  0E7B               	movlw	123
  1325  00184C  6E64               	movwf	100,c	;volatile
  1326  00184E                     
  1327                           ;mcc_generated_files/usb/usb_device.c: 311:     for(i = 0; i < (sizeof(BDT)/sizeof(BDT_E
      +                          NTRY)); i++)
  1328  00184E  0E00               	movlw	0
  1329  001850  0100               	movlb	0	; () banked
  1330  001852  6FC1               	movwf	USBDeviceInit@i& (0+255),b
  1331  001854                     l5896:
  1332                           
  1333                           ; BSR set to: 0
  1334                           ;mcc_generated_files/usb/usb_device.c: 312:     {;mcc_generated_files/usb/usb_device.c: 
      +                          313:         BDT[i].Val = 0x00;
  1335  001854  51C1               	movf	USBDeviceInit@i& (0+255),w,b
  1336  001856  0D04               	mullw	4
  1337  001858  0E00               	movlw	0
  1338  00185A  24F3               	addwf	243,w,c
  1339  00185C  6ED9               	movwf	fsr2l,c
  1340  00185E  0E04               	movlw	4
  1341  001860  20F4               	addwfc	prodh,w,c
  1342  001862  6EDA               	movwf	fsr2h,c
  1343  001864  6ADE               	clrf	postinc2,c
  1344  001866  6ADE               	clrf	postinc2,c
  1345  001868  6ADE               	clrf	postinc2,c
  1346  00186A  6ADD               	clrf	postdec2,c
  1347  00186C                     
  1348                           ; BSR set to: 0
  1349                           ;mcc_generated_files/usb/usb_device.c: 314:     }
  1350  00186C  2BC1               	incf	USBDeviceInit@i& (0+255),f,b
  1351  00186E                     
  1352                           ; BSR set to: 0
  1353  00186E  0E0B               	movlw	11
  1354  001870  65C1               	cpfsgt	USBDeviceInit@i& (0+255),b
  1355  001872  EF3D  F00C         	goto	u4471
  1356  001876  EF3F  F00C         	goto	u4470
  1357  00187A                     u4471:
  1358  00187A  EF2A  F00C         	goto	l5896
  1359  00187E                     u4470:
  1360  00187E                     
  1361                           ; BSR set to: 0
  1362                           ;mcc_generated_files/usb/usb_device.c: 317:     UCONbits.PPBRST = 1;
  1363  00187E  8C60               	bsf	96,6,c	;volatile
  1364  001880                     
  1365                           ; BSR set to: 0
  1366                           ;mcc_generated_files/usb/usb_device.c: 320:     UADDR = 0x00;
  1367  001880  0E00               	movlw	0
  1368  001882  6E63               	movwf	99,c	;volatile
  1369  001884                     
  1370                           ; BSR set to: 0
  1371                           ;mcc_generated_files/usb/usb_device.c: 323:     UCONbits.PKTDIS = 0;
  1372  001884  9860               	bcf	96,4,c	;volatile
  1373  001886                     
  1374                           ; BSR set to: 0
  1375                           ;mcc_generated_files/usb/usb_device.c: 326:     UCONbits.PPBRST = 0;
  1376  001886  9C60               	bcf	96,6,c	;volatile
  1377  001888                     l5908:
  1378                           
  1379                           ; BSR set to: 0
  1380                           ;mcc_generated_files/usb/usb_device.c: 330:     {;mcc_generated_files/usb/usb_device.c: 
      +                          331:         (UIR &= 0xF7);
  1381  001888  9665               	bcf	101,3,c	;volatile
  1382  00188A                     
  1383                           ; BSR set to: 0
  1384                           ;mcc_generated_files/usb/usb_device.c: 333:         inPipes[0].info.Val = 0;
  1385  00188A  0E00               	movlw	0
  1386  00188C  6F75               	movwf	(_inPipes+3)& (0+255),b	;volatile
  1387  00188E                     
  1388                           ; BSR set to: 0
  1389                           ;mcc_generated_files/usb/usb_device.c: 334:         outPipes[0].info.Val = 0;
  1390  00188E  0E00               	movlw	0
  1391  001890  6F6D               	movwf	(_outPipes+3)& (0+255),b	;volatile
  1392  001892                     
  1393                           ; BSR set to: 0
  1394                           ;mcc_generated_files/usb/usb_device.c: 335:         outPipes[0].wCount.Val = 0;
  1395  001892  0E00               	movlw	0
  1396  001894  6F6F               	movwf	(_outPipes+5)& (0+255),b	;volatile
  1397  001896  0E00               	movlw	0
  1398  001898  6F6E               	movwf	(_outPipes+4)& (0+255),b	;volatile
  1399  00189A                     
  1400                           ; BSR set to: 0
  1401                           ;mcc_generated_files/usb/usb_device.c: 336:     }while(UIRbits.TRNIF == 1);
  1402  00189A  B665               	btfsc	101,3,c	;volatile
  1403  00189C  EF52  F00C         	goto	u4481
  1404  0018A0  EF54  F00C         	goto	u4480
  1405  0018A4                     u4481:
  1406  0018A4  EF44  F00C         	goto	l5908
  1407  0018A8                     u4480:
  1408  0018A8                     
  1409                           ; BSR set to: 0
  1410                           ;mcc_generated_files/usb/usb_device.c: 340:     USBStatusStageEnabledFlag1 = 1;
  1411  0018A8  0E01               	movlw	1
  1412  0018AA  6E48               	movwf	_USBStatusStageEnabledFlag1^0,c	;volatile
  1413                           
  1414                           ;mcc_generated_files/usb/usb_device.c: 341:     USBStatusStageEnabledFlag2 = 1;
  1415  0018AC  0E01               	movlw	1
  1416  0018AE  6E47               	movwf	_USBStatusStageEnabledFlag2^0,c	;volatile
  1417                           
  1418                           ;mcc_generated_files/usb/usb_device.c: 343:     USBDeferINDataStagePackets = 0;
  1419  0018B0  0E00               	movlw	0
  1420  0018B2  6E46               	movwf	_USBDeferINDataStagePackets^0,c	;volatile
  1421                           
  1422                           ;mcc_generated_files/usb/usb_device.c: 344:     USBDeferOUTDataStagePackets = 0;
  1423  0018B4  0E00               	movlw	0
  1424  0018B6  6E45               	movwf	_USBDeferOUTDataStagePackets^0,c	;volatile
  1425                           
  1426                           ;mcc_generated_files/usb/usb_device.c: 345:     USBBusIsSuspended = 0;
  1427  0018B8  0E00               	movlw	0
  1428  0018BA  6FA5               	movwf	_USBBusIsSuspended& (0+255),b	;volatile
  1429                           
  1430                           ;mcc_generated_files/usb/usb_device.c: 349:     for(i = 0; i < (uint8_t)(2 +1u); i++)
  1431  0018BC  0E00               	movlw	0
  1432  0018BE  6FC1               	movwf	USBDeviceInit@i& (0+255),b
  1433  0018C0                     l5924:
  1434                           
  1435                           ; BSR set to: 0
  1436                           ;mcc_generated_files/usb/usb_device.c: 350:     {;mcc_generated_files/usb/usb_device.c: 
      +                          351:         pBDTEntryIn[i] = 0u;
  1437  0018C0  51C1               	movf	USBDeviceInit@i& (0+255),w,b
  1438  0018C2  0D02               	mullw	2
  1439  0018C4  0E78               	movlw	low _pBDTEntryIn
  1440  0018C6  24F3               	addwf	243,w,c
  1441  0018C8  6ED9               	movwf	fsr2l,c
  1442  0018CA  0E00               	movlw	high _pBDTEntryIn
  1443  0018CC  20F4               	addwfc	prodh,w,c
  1444  0018CE  6EDA               	movwf	fsr2h,c
  1445  0018D0  0E00               	movlw	0
  1446  0018D2  6EDE               	movwf	postinc2,c
  1447  0018D4  0E00               	movlw	0
  1448  0018D6  6EDD               	movwf	postdec2,c
  1449                           
  1450                           ;mcc_generated_files/usb/usb_device.c: 352:         pBDTEntryOut[i] = 0u;
  1451  0018D8  51C1               	movf	USBDeviceInit@i& (0+255),w,b
  1452  0018DA  0D02               	mullw	2
  1453  0018DC  0E7E               	movlw	low _pBDTEntryOut
  1454  0018DE  24F3               	addwf	243,w,c
  1455  0018E0  6ED9               	movwf	fsr2l,c
  1456  0018E2  0E00               	movlw	high _pBDTEntryOut
  1457  0018E4  20F4               	addwfc	prodh,w,c
  1458  0018E6  6EDA               	movwf	fsr2h,c
  1459  0018E8  0E00               	movlw	0
  1460  0018EA  6EDE               	movwf	postinc2,c
  1461  0018EC  0E00               	movlw	0
  1462  0018EE  6EDD               	movwf	postdec2,c
  1463  0018F0                     
  1464                           ; BSR set to: 0
  1465                           ;mcc_generated_files/usb/usb_device.c: 353:         ep_data_in[i].Val = 0u;
  1466  0018F0  0E95               	movlw	low _ep_data_in
  1467  0018F2  25C1               	addwf	USBDeviceInit@i& (0+255),w,b
  1468  0018F4  6ED9               	movwf	fsr2l,c
  1469  0018F6  6ADA               	clrf	fsr2h,c
  1470  0018F8  0E00               	movlw	high _ep_data_in
  1471  0018FA  22DA               	addwfc	fsr2h,f,c
  1472  0018FC  0E00               	movlw	0
  1473  0018FE  6EDF               	movwf	indf2,c
  1474  001900                     
  1475                           ; BSR set to: 0
  1476                           ;mcc_generated_files/usb/usb_device.c: 354:         ep_data_out[i].Val = 0u;
  1477  001900  0E92               	movlw	low _ep_data_out
  1478  001902  25C1               	addwf	USBDeviceInit@i& (0+255),w,b
  1479  001904  6ED9               	movwf	fsr2l,c
  1480  001906  6ADA               	clrf	fsr2h,c
  1481  001908  0E00               	movlw	high _ep_data_out
  1482  00190A  22DA               	addwfc	fsr2h,f,c
  1483  00190C  0E00               	movlw	0
  1484  00190E  6EDF               	movwf	indf2,c
  1485  001910                     
  1486                           ; BSR set to: 0
  1487                           ;mcc_generated_files/usb/usb_device.c: 355:     }
  1488  001910  2BC1               	incf	USBDeviceInit@i& (0+255),f,b
  1489  001912                     
  1490                           ; BSR set to: 0
  1491  001912  0E02               	movlw	2
  1492  001914  65C1               	cpfsgt	USBDeviceInit@i& (0+255),b
  1493  001916  EF8F  F00C         	goto	u4491
  1494  00191A  EF91  F00C         	goto	u4490
  1495  00191E                     u4491:
  1496  00191E  EF60  F00C         	goto	l5924
  1497  001922                     u4490:
  1498  001922                     
  1499                           ; BSR set to: 0
  1500                           ;mcc_generated_files/usb/usb_device.c: 358:     pBDTEntryIn[0] = (volatile BDT_ENTRY*)&B
      +                          DT[2];
  1501  001922  0E08               	movlw	8
  1502  001924  6F78               	movwf	_pBDTEntryIn& (0+255),b
  1503  001926  0E04               	movlw	4
  1504  001928  6F79               	movwf	(_pBDTEntryIn+1)& (0+255),b
  1505  00192A                     
  1506                           ; BSR set to: 0
  1507                           ;mcc_generated_files/usb/usb_device.c: 360:     UEP0 = 0x06|0x10;
  1508  00192A  0E16               	movlw	22
  1509  00192C  6E6A               	movwf	106,c	;volatile
  1510  00192E                     
  1511                           ; BSR set to: 0
  1512                           ;mcc_generated_files/usb/usb_device.c: 362:     BDT[0].ADR = ((uint16_t)(&SetupPkt));
  1513  00192E  0E04               	movlw	4
  1514  001930  0104               	movlb	4	; () banked
  1515  001932  6F03               	movwf	3,b	;volatile
  1516  001934  0E30               	movlw	48
  1517  001936  6F02               	movwf	2,b	;volatile
  1518  001938                     
  1519                           ; BSR set to: 4
  1520                           ;mcc_generated_files/usb/usb_device.c: 363:     BDT[0].CNT = 8;
  1521  001938  0E08               	movlw	8
  1522  00193A  6F01               	movwf	1,b	;volatile
  1523  00193C                     
  1524                           ; BSR set to: 4
  1525                           ;mcc_generated_files/usb/usb_device.c: 364:     BDT[0].STAT.Val = 0x00|0x04;
  1526  00193C  0E04               	movlw	4
  1527  00193E  6F00               	movwf	0,b	;volatile
  1528  001940                     
  1529                           ; BSR set to: 4
  1530                           ;mcc_generated_files/usb/usb_device.c: 365:     BDT[0].STAT.Val |= 0x80;
  1531  001940  8F00               	bsf	0,7,b	;volatile
  1532  001942                     
  1533                           ; BSR set to: 4
  1534                           ;mcc_generated_files/usb/usb_device.c: 368:     USBActiveConfiguration = 0;
  1535  001942  0E00               	movlw	0
  1536  001944  6E54               	movwf	_USBActiveConfiguration^0,c	;volatile
  1537  001946                     
  1538                           ; BSR set to: 4
  1539                           ;mcc_generated_files/usb/usb_device.c: 370:     USB1msTickCount = 0;
  1540  001946  0E00               	movlw	0
  1541  001948  6E2C               	movwf	_USB1msTickCount^0,c	;volatile
  1542  00194A  0E00               	movlw	0
  1543  00194C  6E2D               	movwf	(_USB1msTickCount+1)^0,c	;volatile
  1544  00194E  0E00               	movlw	0
  1545  001950  6E2E               	movwf	(_USB1msTickCount+2)^0,c	;volatile
  1546  001952  0E00               	movlw	0
  1547  001954  6E2F               	movwf	(_USB1msTickCount+3)^0,c	;volatile
  1548  001956                     
  1549                           ; BSR set to: 4
  1550                           ;mcc_generated_files/usb/usb_device.c: 371:     USBTicksSinceSuspendEnd = 0;
  1551  001956  0E00               	movlw	0
  1552  001958  0100               	movlb	0	; () banked
  1553  00195A  6FA4               	movwf	_USBTicksSinceSuspendEnd& (0+255),b	;volatile
  1554  00195C                     
  1555                           ; BSR set to: 0
  1556                           ;mcc_generated_files/usb/usb_device.c: 374:     USBDeviceState = DETACHED_STATE;
  1557  00195C  0E00               	movlw	0
  1558  00195E  6E50               	movwf	_USBDeviceState^0,c	;volatile
  1559  001960                     
  1560                           ; BSR set to: 0
  1561  001960  0012               	return		;funcret
  1562  001962                     __end_of_USBDeviceInit:
  1563                           	callstack 0
  1564                           
  1565 ;; *************** function _memset *****************
  1566 ;; Defined at:
  1567 ;;		line 4 in file "/Applications/microchip/xc8/v2.36/pic/sources/c99/common/memset.c"
  1568 ;; Parameters:    Size  Location     Type
  1569 ;;  dest            2    0[BANK0 ] PTR void 
  1570 ;;		 -> USBAlternateInterface(2), BDT(48), UEP1(1), 
  1571 ;;  c               2    2[BANK0 ] int 
  1572 ;;  n               2    4[BANK0 ] unsigned int 
  1573 ;; Auto vars:     Size  Location     Type
  1574 ;;  s               2   10[BANK0 ] PTR unsigned char 
  1575 ;;		 -> USBAlternateInterface(2), BDT(48), UEP1(1), 
  1576 ;;  k               2    8[BANK0 ] unsigned int 
  1577 ;; Return value:  Size  Location     Type
  1578 ;;                  2    0[BANK0 ] PTR void 
  1579 ;; Registers used:
  1580 ;;		wreg, fsr2l, fsr2h, status,2, status,0
  1581 ;; Tracked objects:
  1582 ;;		On entry : 0/0
  1583 ;;		On exit  : 0/0
  1584 ;;		Unchanged: 0/0
  1585 ;; Data sizes:     COMRAM   BANK0   BANK1   BANK2   BANK3   BANK4   BANK5   BANK6   BANK7
  1586 ;;      Params:         0       6       0       0       0       0       0       0       0
  1587 ;;      Locals:         0       4       0       0       0       0       0       0       0
  1588 ;;      Temps:          0       2       0       0       0       0       0       0       0
  1589 ;;      Totals:         0      12       0       0       0       0       0       0       0
  1590 ;;Total ram usage:       12 bytes
  1591 ;; Hardware stack levels used: 1
  1592 ;; Hardware stack levels required when called: 10
  1593 ;; This function calls:
  1594 ;;		Nothing
  1595 ;; This function is called by:
  1596 ;;		_USBDeviceInit
  1597 ;; This function uses a non-reentrant model
  1598 ;;
  1599                           
  1600                           	psect	text4
  1601  00124C                     __ptext4:
  1602                           	callstack 0
  1603  00124C                     _memset:
  1604                           	callstack 18
  1605  00124C  C0B5  F0BF         	movff	memset@dest,memset@s
  1606  001250  C0B6  F0C0         	movff	memset@dest+1,memset@s+1
  1607  001254  0100               	movlb	0	; () banked
  1608  001256  51B9               	movf	memset@n& (0+255),w,b
  1609  001258  11BA               	iorwf	(memset@n+1)& (0+255),w,b
  1610  00125A  A4D8               	btfss	status,2,c
  1611  00125C  EF32  F009         	goto	u4251
  1612  001260  EF34  F009         	goto	u4250
  1613  001264                     u4251:
  1614  001264  EF36  F009         	goto	l5738
  1615  001268                     u4250:
  1616  001268  EFE1  F009         	goto	l1778
  1617  00126C                     l5738:
  1618                           
  1619                           ; BSR set to: 0
  1620  00126C  C0BF  FFD9         	movff	memset@s,fsr2l
  1621  001270  C0C0  FFDA         	movff	memset@s+1,fsr2h
  1622  001274  C0B7  FFDF         	movff	memset@c,indf2
  1623  001278                     
  1624                           ; BSR set to: 0
  1625  001278  51B9               	movf	memset@n& (0+255),w,b
  1626  00127A  25BF               	addwf	memset@s& (0+255),w,b
  1627  00127C  6FBB               	movwf	??_memset& (0+255),b
  1628  00127E  51BA               	movf	(memset@n+1)& (0+255),w,b
  1629  001280  21C0               	addwfc	(memset@s+1)& (0+255),w,b
  1630  001282  6FBC               	movwf	(??_memset+1)& (0+255),b
  1631  001284  0EFF               	movlw	255
  1632  001286  25BB               	addwf	??_memset& (0+255),w,b
  1633  001288  6ED9               	movwf	fsr2l,c
  1634  00128A  0EFF               	movlw	255
  1635  00128C  21BC               	addwfc	(??_memset+1)& (0+255),w,b
  1636  00128E  6EDA               	movwf	fsr2h,c
  1637  001290  C0B7  FFDF         	movff	memset@c,indf2
  1638  001294  51BA               	movf	(memset@n+1)& (0+255),w,b
  1639  001296  E107               	bnz	u4261
  1640  001298  0E03               	movlw	3
  1641  00129A  5DB9               	subwf	memset@n& (0+255),w,b
  1642  00129C  B0D8               	btfsc	status,0,c
  1643  00129E  EF53  F009         	goto	u4261
  1644  0012A2  EF55  F009         	goto	u4260
  1645  0012A6                     u4261:
  1646  0012A6  EF57  F009         	goto	l5744
  1647  0012AA                     u4260:
  1648  0012AA  EFE1  F009         	goto	l1778
  1649  0012AE                     l5744:
  1650                           
  1651                           ; BSR set to: 0
  1652  0012AE  EE20 F001          	lfsr	2,1
  1653  0012B2  51BF               	movf	memset@s& (0+255),w,b
  1654  0012B4  26D9               	addwf	fsr2l,f,c
  1655  0012B6  51C0               	movf	(memset@s+1)& (0+255),w,b
  1656  0012B8  22DA               	addwfc	fsr2h,f,c
  1657  0012BA  C0B7  FFDF         	movff	memset@c,indf2
  1658  0012BE  EE20 F002          	lfsr	2,2
  1659  0012C2  51BF               	movf	memset@s& (0+255),w,b
  1660  0012C4  26D9               	addwf	fsr2l,f,c
  1661  0012C6  51C0               	movf	(memset@s+1)& (0+255),w,b
  1662  0012C8  22DA               	addwfc	fsr2h,f,c
  1663  0012CA  C0B7  FFDF         	movff	memset@c,indf2
  1664  0012CE  51B9               	movf	memset@n& (0+255),w,b
  1665  0012D0  25BF               	addwf	memset@s& (0+255),w,b
  1666  0012D2  6FBB               	movwf	??_memset& (0+255),b
  1667  0012D4  51BA               	movf	(memset@n+1)& (0+255),w,b
  1668  0012D6  21C0               	addwfc	(memset@s+1)& (0+255),w,b
  1669  0012D8  6FBC               	movwf	(??_memset+1)& (0+255),b
  1670  0012DA  0EFE               	movlw	254
  1671  0012DC  25BB               	addwf	??_memset& (0+255),w,b
  1672  0012DE  6ED9               	movwf	fsr2l,c
  1673  0012E0  0EFF               	movlw	255
  1674  0012E2  21BC               	addwfc	(??_memset+1)& (0+255),w,b
  1675  0012E4  6EDA               	movwf	fsr2h,c
  1676  0012E6  C0B7  FFDF         	movff	memset@c,indf2
  1677  0012EA  51B9               	movf	memset@n& (0+255),w,b
  1678  0012EC  25BF               	addwf	memset@s& (0+255),w,b
  1679  0012EE  6FBB               	movwf	??_memset& (0+255),b
  1680  0012F0  51BA               	movf	(memset@n+1)& (0+255),w,b
  1681  0012F2  21C0               	addwfc	(memset@s+1)& (0+255),w,b
  1682  0012F4  6FBC               	movwf	(??_memset+1)& (0+255),b
  1683  0012F6  0EFD               	movlw	253
  1684  0012F8  25BB               	addwf	??_memset& (0+255),w,b
  1685  0012FA  6ED9               	movwf	fsr2l,c
  1686  0012FC  0EFF               	movlw	255
  1687  0012FE  21BC               	addwfc	(??_memset+1)& (0+255),w,b
  1688  001300  6EDA               	movwf	fsr2h,c
  1689  001302  C0B7  FFDF         	movff	memset@c,indf2
  1690  001306                     
  1691                           ; BSR set to: 0
  1692  001306  51BA               	movf	(memset@n+1)& (0+255),w,b
  1693  001308  E107               	bnz	u4271
  1694  00130A  0E07               	movlw	7
  1695  00130C  5DB9               	subwf	memset@n& (0+255),w,b
  1696  00130E  B0D8               	btfsc	status,0,c
  1697  001310  EF8C  F009         	goto	u4271
  1698  001314  EF8E  F009         	goto	u4270
  1699  001318                     u4271:
  1700  001318  EF90  F009         	goto	l5750
  1701  00131C                     u4270:
  1702  00131C  EFE1  F009         	goto	l1778
  1703  001320                     l5750:
  1704                           
  1705                           ; BSR set to: 0
  1706  001320  EE20 F003          	lfsr	2,3
  1707  001324  51BF               	movf	memset@s& (0+255),w,b
  1708  001326  26D9               	addwf	fsr2l,f,c
  1709  001328  51C0               	movf	(memset@s+1)& (0+255),w,b
  1710  00132A  22DA               	addwfc	fsr2h,f,c
  1711  00132C  C0B7  FFDF         	movff	memset@c,indf2
  1712  001330  51B9               	movf	memset@n& (0+255),w,b
  1713  001332  25BF               	addwf	memset@s& (0+255),w,b
  1714  001334  6FBB               	movwf	??_memset& (0+255),b
  1715  001336  51BA               	movf	(memset@n+1)& (0+255),w,b
  1716  001338  21C0               	addwfc	(memset@s+1)& (0+255),w,b
  1717  00133A  6FBC               	movwf	(??_memset+1)& (0+255),b
  1718  00133C  0EFC               	movlw	252
  1719  00133E  25BB               	addwf	??_memset& (0+255),w,b
  1720  001340  6ED9               	movwf	fsr2l,c
  1721  001342  0EFF               	movlw	255
  1722  001344  21BC               	addwfc	(??_memset+1)& (0+255),w,b
  1723  001346  6EDA               	movwf	fsr2h,c
  1724  001348  C0B7  FFDF         	movff	memset@c,indf2
  1725  00134C                     
  1726                           ; BSR set to: 0
  1727  00134C  51BA               	movf	(memset@n+1)& (0+255),w,b
  1728  00134E  E107               	bnz	u4281
  1729  001350  0E09               	movlw	9
  1730  001352  5DB9               	subwf	memset@n& (0+255),w,b
  1731  001354  B0D8               	btfsc	status,0,c
  1732  001356  EFAF  F009         	goto	u4281
  1733  00135A  EFB1  F009         	goto	u4280
  1734  00135E                     u4281:
  1735  00135E  EFB3  F009         	goto	l5756
  1736  001362                     u4280:
  1737  001362  EFE1  F009         	goto	l1778
  1738  001366                     l5756:
  1739                           
  1740                           ; BSR set to: 0
  1741  001366  C0BF  F0BB         	movff	memset@s,??_memset
  1742  00136A  C0C0  F0BC         	movff	memset@s+1,??_memset+1
  1743  00136E  1FBB               	comf	??_memset& (0+255),f,b
  1744  001370  1FBC               	comf	(??_memset+1)& (0+255),f,b
  1745  001372  4BBB               	infsnz	??_memset& (0+255),f,b
  1746  001374  2BBC               	incf	(??_memset+1)& (0+255),f,b
  1747  001376  0E03               	movlw	3
  1748  001378  15BB               	andwf	??_memset& (0+255),w,b
  1749  00137A  6FBD               	movwf	memset@k& (0+255),b
  1750  00137C  6BBE               	clrf	(memset@k+1)& (0+255),b
  1751  00137E  51BD               	movf	memset@k& (0+255),w,b
  1752  001380  27BF               	addwf	memset@s& (0+255),f,b
  1753  001382  51BE               	movf	(memset@k+1)& (0+255),w,b
  1754  001384  23C0               	addwfc	(memset@s+1)& (0+255),f,b
  1755  001386  51BD               	movf	memset@k& (0+255),w,b
  1756  001388  5FB9               	subwf	memset@n& (0+255),f,b
  1757  00138A  51BE               	movf	(memset@k+1)& (0+255),w,b
  1758  00138C  5BBA               	subwfb	(memset@n+1)& (0+255),f,b
  1759  00138E  0EFC               	movlw	252
  1760  001390  17B9               	andwf	memset@n& (0+255),f,b
  1761  001392  0EFF               	movlw	255
  1762  001394  17BA               	andwf	(memset@n+1)& (0+255),f,b
  1763  001396  EFD8  F009         	goto	l5764
  1764  00139A                     l5758:
  1765                           
  1766                           ; BSR set to: 0
  1767  00139A  C0BF  FFD9         	movff	memset@s,fsr2l
  1768  00139E  C0C0  FFDA         	movff	memset@s+1,fsr2h
  1769  0013A2  C0B7  FFDF         	movff	memset@c,indf2
  1770  0013A6                     
  1771                           ; BSR set to: 0
  1772  0013A6  07B9               	decf	memset@n& (0+255),f,b
  1773  0013A8  A0D8               	btfss	status,0,c
  1774  0013AA  07BA               	decf	(memset@n+1)& (0+255),f,b
  1775  0013AC                     
  1776                           ; BSR set to: 0
  1777  0013AC  4BBF               	infsnz	memset@s& (0+255),f,b
  1778  0013AE  2BC0               	incf	(memset@s+1)& (0+255),f,b
  1779  0013B0                     l5764:
  1780                           
  1781                           ; BSR set to: 0
  1782  0013B0  51B9               	movf	memset@n& (0+255),w,b
  1783  0013B2  11BA               	iorwf	(memset@n+1)& (0+255),w,b
  1784  0013B4  A4D8               	btfss	status,2,c
  1785  0013B6  EFDF  F009         	goto	u4291
  1786  0013BA  EFE1  F009         	goto	u4290
  1787  0013BE                     u4291:
  1788  0013BE  EFCD  F009         	goto	l5758
  1789  0013C2                     u4290:
  1790  0013C2                     l1778:
  1791                           
  1792                           ; BSR set to: 0
  1793  0013C2  0012               	return		;funcret
  1794  0013C4                     __end_of_memset:
  1795                           	callstack 0
  1796                           
  1797 ;; *************** function _USBDeviceAttach *****************
  1798 ;; Defined at:
  1799 ;;		line 1356 in file "mcc_generated_files/usb/usb_device.c"
  1800 ;; Parameters:    Size  Location     Type
  1801 ;;		None
  1802 ;; Auto vars:     Size  Location     Type
  1803 ;;		None
  1804 ;; Return value:  Size  Location     Type
  1805 ;;                  1    wreg      void 
  1806 ;; Registers used:
  1807 ;;		wreg, status,2
  1808 ;; Tracked objects:
  1809 ;;		On entry : 0/0
  1810 ;;		On exit  : 0/0
  1811 ;;		Unchanged: 0/0
  1812 ;; Data sizes:     COMRAM   BANK0   BANK1   BANK2   BANK3   BANK4   BANK5   BANK6   BANK7
  1813 ;;      Params:         0       0       0       0       0       0       0       0       0
  1814 ;;      Locals:         0       0       0       0       0       0       0       0       0
  1815 ;;      Temps:          0       0       0       0       0       0       0       0       0
  1816 ;;      Totals:         0       0       0       0       0       0       0       0       0
  1817 ;;Total ram usage:        0 bytes
  1818 ;; Hardware stack levels used: 1
  1819 ;; Hardware stack levels required when called: 10
  1820 ;; This function calls:
  1821 ;;		Nothing
  1822 ;; This function is called by:
  1823 ;;		_SYSTEM_Initialize
  1824 ;; This function uses a non-reentrant model
  1825 ;;
  1826                           
  1827                           	psect	text5
  1828  003148                     __ptext5:
  1829                           	callstack 0
  1830  003148                     _USBDeviceAttach:
  1831                           	callstack 19
  1832  003148                     
  1833                           ;mcc_generated_files/usb/usb_device.c: 1360:     {;mcc_generated_files/usb/usb_device.c:
      +                           1361:         if(1 == 1)
  1834  003148  5050               	movf	_USBDeviceState^0,w,c	;volatile
  1835  00314A  A4D8               	btfss	status,2,c
  1836  00314C  EFAA  F018         	goto	u4501
  1837  003150  EFAC  F018         	goto	u4500
  1838  003154                     u4501:
  1839  003154  EFC4  F018         	goto	l199
  1840  003158                     u4500:
  1841  003158                     
  1842                           ;mcc_generated_files/usb/usb_device.c: 1362:         {;mcc_generated_files/usb/usb_devic
      +                          e.c: 1364:             UCON = 0;
  1843  003158  0E00               	movlw	0
  1844  00315A  6E60               	movwf	96,c	;volatile
  1845                           
  1846                           ;mcc_generated_files/usb/usb_device.c: 1367:             UIE = 0;
  1847  00315C  0E00               	movlw	0
  1848  00315E  6E64               	movwf	100,c	;volatile
  1849                           
  1850                           ;mcc_generated_files/usb/usb_device.c: 1371:             { UCFG = 0x10 | 0x00 | 0x04 | 0
      +                          x02; UEIE = 0x9F; UIE = 0x39 | 0x40 | 0x02; };
  1851  003160  0E16               	movlw	22
  1852  003162  6E62               	movwf	98,c	;volatile
  1853  003164  0E9F               	movlw	159
  1854  003166  6E66               	movwf	102,c	;volatile
  1855  003168  0E7B               	movlw	123
  1856  00316A  6E64               	movwf	100,c	;volatile
  1857  00316C                     
  1858                           ;mcc_generated_files/usb/usb_device.c: 1373:             {IPR3bits.USBIP = 1;PIE3bits.US
      +                          BIE = 1;};
  1859  00316C  84A5               	bsf	165,2,c	;volatile
  1860  00316E  84A3               	bsf	163,2,c	;volatile
  1861                           
  1862                           ;mcc_generated_files/usb/usb_device.c: 1376:             while(!UCONbits.USBEN){UCONbits
      +                          .USBEN = 1;}
  1863  003170  EFBB  F018         	goto	l196
  1864  003174                     l197:
  1865  003174  8660               	bsf	96,3,c	;volatile
  1866  003176                     l196:
  1867  003176  A660               	btfss	96,3,c	;volatile
  1868  003178  EFC0  F018         	goto	u4511
  1869  00317C  EFC2  F018         	goto	u4510
  1870  003180                     u4511:
  1871  003180  EFBA  F018         	goto	l197
  1872  003184                     u4510:
  1873  003184                     
  1874                           ;mcc_generated_files/usb/usb_device.c: 1379:             USBDeviceState = ATTACHED_STATE
      +                          ;
  1875  003184  0E01               	movlw	1
  1876  003186  6E50               	movwf	_USBDeviceState^0,c	;volatile
  1877  003188                     l199:
  1878  003188  0012               	return		;funcret
  1879  00318A                     __end_of_USBDeviceAttach:
  1880                           	callstack 0
  1881                           
  1882 ;; *************** function _TMR3_Initialize *****************
  1883 ;; Defined at:
  1884 ;;		line 63 in file "mcc_generated_files/tmr3.c"
  1885 ;; Parameters:    Size  Location     Type
  1886 ;;		None
  1887 ;; Auto vars:     Size  Location     Type
  1888 ;;		None
  1889 ;; Return value:  Size  Location     Type
  1890 ;;                  1    wreg      void 
  1891 ;; Registers used:
  1892 ;;		wreg, status,2
  1893 ;; Tracked objects:
  1894 ;;		On entry : 0/0
  1895 ;;		On exit  : 0/0
  1896 ;;		Unchanged: 0/0
  1897 ;; Data sizes:     COMRAM   BANK0   BANK1   BANK2   BANK3   BANK4   BANK5   BANK6   BANK7
  1898 ;;      Params:         0       0       0       0       0       0       0       0       0
  1899 ;;      Locals:         0       0       0       0       0       0       0       0       0
  1900 ;;      Temps:          0       0       0       0       0       0       0       0       0
  1901 ;;      Totals:         0       0       0       0       0       0       0       0       0
  1902 ;;Total ram usage:        0 bytes
  1903 ;; Hardware stack levels used: 1
  1904 ;; Hardware stack levels required when called: 10
  1905 ;; This function calls:
  1906 ;;		Nothing
  1907 ;; This function is called by:
  1908 ;;		_SYSTEM_Initialize
  1909 ;; This function uses a non-reentrant model
  1910 ;;
  1911                           
  1912                           	psect	text6
  1913  00336A                     __ptext6:
  1914                           	callstack 0
  1915  00336A                     _TMR3_Initialize:
  1916                           	callstack 19
  1917  00336A                     
  1918                           ;mcc_generated_files/tmr3.c: 68:     T3GCON = 0x00;
  1919  00336A  0E00               	movlw	0
  1920  00336C  6EB4               	movwf	180,c	;volatile
  1921                           
  1922                           ;mcc_generated_files/tmr3.c: 71:     TMR3H = 0x00;
  1923  00336E  0E00               	movlw	0
  1924  003370  6EB3               	movwf	179,c	;volatile
  1925                           
  1926                           ;mcc_generated_files/tmr3.c: 74:     TMR3L = 0x00;
  1927  003372  0E00               	movlw	0
  1928  003374  6EB2               	movwf	178,c	;volatile
  1929  003376                     
  1930                           ;mcc_generated_files/tmr3.c: 77:     timer3ReloadVal=TMR3;
  1931  003376  CFB2 F036          	movff	4018,_timer3ReloadVal	;volatile
  1932  00337A  CFB3 F037          	movff	4019,_timer3ReloadVal+1	;volatile
  1933  00337E                     
  1934                           ;mcc_generated_files/tmr3.c: 80:     PIR2bits.TMR3IF = 0;
  1935  00337E  92A1               	bcf	161,1,c	;volatile
  1936                           
  1937                           ;mcc_generated_files/tmr3.c: 83:     T3CON = 0x01;
  1938  003380  0E01               	movlw	1
  1939  003382  6EB1               	movwf	177,c	;volatile
  1940  003384  0012               	return		;funcret
  1941  003386                     __end_of_TMR3_Initialize:
  1942                           	callstack 0
  1943                           
  1944 ;; *************** function _TMR2_Initialize *****************
  1945 ;; Defined at:
  1946 ;;		line 62 in file "mcc_generated_files/tmr2.c"
  1947 ;; Parameters:    Size  Location     Type
  1948 ;;		None
  1949 ;; Auto vars:     Size  Location     Type
  1950 ;;		None
  1951 ;; Return value:  Size  Location     Type
  1952 ;;                  1    wreg      void 
  1953 ;; Registers used:
  1954 ;;		wreg, status,2
  1955 ;; Tracked objects:
  1956 ;;		On entry : 0/0
  1957 ;;		On exit  : 0/0
  1958 ;;		Unchanged: 0/0
  1959 ;; Data sizes:     COMRAM   BANK0   BANK1   BANK2   BANK3   BANK4   BANK5   BANK6   BANK7
  1960 ;;      Params:         0       0       0       0       0       0       0       0       0
  1961 ;;      Locals:         0       0       0       0       0       0       0       0       0
  1962 ;;      Temps:          0       0       0       0       0       0       0       0       0
  1963 ;;      Totals:         0       0       0       0       0       0       0       0       0
  1964 ;;Total ram usage:        0 bytes
  1965 ;; Hardware stack levels used: 1
  1966 ;; Hardware stack levels required when called: 10
  1967 ;; This function calls:
  1968 ;;		Nothing
  1969 ;; This function is called by:
  1970 ;;		_SYSTEM_Initialize
  1971 ;; This function uses a non-reentrant model
  1972 ;;
  1973                           
  1974                           	psect	text7
  1975  003404                     __ptext7:
  1976                           	callstack 0
  1977  003404                     _TMR2_Initialize:
  1978                           	callstack 19
  1979  003404                     
  1980                           ;mcc_generated_files/tmr2.c: 67:     PR2 = 0xFF;
  1981  003404  68BB               	setf	187,c	;volatile
  1982  003406                     
  1983                           ;mcc_generated_files/tmr2.c: 70:     TMR2 = 0x00;
  1984  003406  0E00               	movlw	0
  1985  003408  6EBC               	movwf	188,c	;volatile
  1986  00340A                     
  1987                           ;mcc_generated_files/tmr2.c: 73:     PIR1bits.TMR2IF = 0;
  1988  00340A  929E               	bcf	158,1,c	;volatile
  1989                           
  1990                           ;mcc_generated_files/tmr2.c: 76:     T2CON = 0x04;
  1991  00340C  0E04               	movlw	4
  1992  00340E  6EBA               	movwf	186,c	;volatile
  1993  003410  0012               	return		;funcret
  1994  003412                     __end_of_TMR2_Initialize:
  1995                           	callstack 0
  1996                           
  1997 ;; *************** function _TMR1_Initialize *****************
  1998 ;; Defined at:
  1999 ;;		line 63 in file "mcc_generated_files/tmr1.c"
  2000 ;; Parameters:    Size  Location     Type
  2001 ;;		None
  2002 ;; Auto vars:     Size  Location     Type
  2003 ;;		None
  2004 ;; Return value:  Size  Location     Type
  2005 ;;                  1    wreg      void 
  2006 ;; Registers used:
  2007 ;;		wreg, status,2
  2008 ;; Tracked objects:
  2009 ;;		On entry : 0/0
  2010 ;;		On exit  : 0/0
  2011 ;;		Unchanged: 0/0
  2012 ;; Data sizes:     COMRAM   BANK0   BANK1   BANK2   BANK3   BANK4   BANK5   BANK6   BANK7
  2013 ;;      Params:         0       0       0       0       0       0       0       0       0
  2014 ;;      Locals:         0       0       0       0       0       0       0       0       0
  2015 ;;      Temps:          0       0       0       0       0       0       0       0       0
  2016 ;;      Totals:         0       0       0       0       0       0       0       0       0
  2017 ;;Total ram usage:        0 bytes
  2018 ;; Hardware stack levels used: 1
  2019 ;; Hardware stack levels required when called: 10
  2020 ;; This function calls:
  2021 ;;		Nothing
  2022 ;; This function is called by:
  2023 ;;		_SYSTEM_Initialize
  2024 ;; This function uses a non-reentrant model
  2025 ;;
  2026                           
  2027                           	psect	text8
  2028  003386                     __ptext8:
  2029                           	callstack 0
  2030  003386                     _TMR1_Initialize:
  2031                           	callstack 19
  2032  003386                     
  2033                           ;mcc_generated_files/tmr1.c: 68:     T1GCON = 0x00;
  2034  003386  0E00               	movlw	0
  2035  003388  6ECC               	movwf	204,c	;volatile
  2036                           
  2037                           ;mcc_generated_files/tmr1.c: 71:     TMR1H = 0x00;
  2038  00338A  0E00               	movlw	0
  2039  00338C  6ECF               	movwf	207,c	;volatile
  2040                           
  2041                           ;mcc_generated_files/tmr1.c: 74:     TMR1L = 0x00;
  2042  00338E  0E00               	movlw	0
  2043  003390  6ECE               	movwf	206,c	;volatile
  2044  003392                     
  2045                           ;mcc_generated_files/tmr1.c: 77:     timer1ReloadVal=TMR1;
  2046  003392  CFCE F09E          	movff	4046,_timer1ReloadVal	;volatile
  2047  003396  CFCF F09F          	movff	4047,_timer1ReloadVal+1	;volatile
  2048  00339A                     
  2049                           ;mcc_generated_files/tmr1.c: 80:     PIR1bits.TMR1IF = 0;
  2050  00339A  909E               	bcf	158,0,c	;volatile
  2051                           
  2052                           ;mcc_generated_files/tmr1.c: 83:     T1CON = 0x01;
  2053  00339C  0E01               	movlw	1
  2054  00339E  6ECD               	movwf	205,c	;volatile
  2055  0033A0  0012               	return		;funcret
  2056  0033A2                     __end_of_TMR1_Initialize:
  2057                           	callstack 0
  2058                           
  2059 ;; *************** function _TMR0_Initialize *****************
  2060 ;; Defined at:
  2061 ;;		line 66 in file "mcc_generated_files/tmr0.c"
  2062 ;; Parameters:    Size  Location     Type
  2063 ;;		None
  2064 ;; Auto vars:     Size  Location     Type
  2065 ;;		None
  2066 ;; Return value:  Size  Location     Type
  2067 ;;                  1    wreg      void 
  2068 ;; Registers used:
  2069 ;;		wreg, status,2
  2070 ;; Tracked objects:
  2071 ;;		On entry : 0/0
  2072 ;;		On exit  : 0/0
  2073 ;;		Unchanged: 0/0
  2074 ;; Data sizes:     COMRAM   BANK0   BANK1   BANK2   BANK3   BANK4   BANK5   BANK6   BANK7
  2075 ;;      Params:         0       0       0       0       0       0       0       0       0
  2076 ;;      Locals:         0       0       0       0       0       0       0       0       0
  2077 ;;      Temps:          0       0       0       0       0       0       0       0       0
  2078 ;;      Totals:         0       0       0       0       0       0       0       0       0
  2079 ;;Total ram usage:        0 bytes
  2080 ;; Hardware stack levels used: 1
  2081 ;; Hardware stack levels required when called: 10
  2082 ;; This function calls:
  2083 ;;		Nothing
  2084 ;; This function is called by:
  2085 ;;		_SYSTEM_Initialize
  2086 ;; This function uses a non-reentrant model
  2087 ;;
  2088                           
  2089                           	psect	text9
  2090  0033CE                     __ptext9:
  2091                           	callstack 0
  2092  0033CE                     _TMR0_Initialize:
  2093                           	callstack 19
  2094  0033CE                     
  2095                           ;mcc_generated_files/tmr0.c: 71:     TMR0H = 0x00;
  2096  0033CE  0E00               	movlw	0
  2097  0033D0  6ED7               	movwf	215,c	;volatile
  2098                           
  2099                           ;mcc_generated_files/tmr0.c: 74:     TMR0L = 0x00;
  2100  0033D2  0E00               	movlw	0
  2101  0033D4  6ED6               	movwf	214,c	;volatile
  2102                           
  2103                           ;mcc_generated_files/tmr0.c: 78:     timer0ReloadVal = 0;
  2104  0033D6  0E00               	movlw	0
  2105  0033D8  6E41               	movwf	_timer0ReloadVal^0,c	;volatile
  2106  0033DA                     
  2107                           ;mcc_generated_files/tmr0.c: 81:     INTCONbits.TMR0IF = 0;
  2108  0033DA  94F2               	bcf	242,2,c	;volatile
  2109  0033DC                     
  2110                           ;mcc_generated_files/tmr0.c: 84:     T0CON = 0xFF;
  2111  0033DC  68D5               	setf	213,c	;volatile
  2112  0033DE  0012               	return		;funcret
  2113  0033E0                     __end_of_TMR0_Initialize:
  2114                           	callstack 0
  2115                           
  2116 ;; *************** function _PIN_MANAGER_Initialize *****************
  2117 ;; Defined at:
  2118 ;;		line 55 in file "mcc_generated_files/pin_manager.c"
  2119 ;; Parameters:    Size  Location     Type
  2120 ;;		None
  2121 ;; Auto vars:     Size  Location     Type
  2122 ;;		None
  2123 ;; Return value:  Size  Location     Type
  2124 ;;                  1    wreg      void 
  2125 ;; Registers used:
  2126 ;;		wreg, status,2
  2127 ;; Tracked objects:
  2128 ;;		On entry : 0/0
  2129 ;;		On exit  : 0/0
  2130 ;;		Unchanged: 0/0
  2131 ;; Data sizes:     COMRAM   BANK0   BANK1   BANK2   BANK3   BANK4   BANK5   BANK6   BANK7
  2132 ;;      Params:         0       0       0       0       0       0       0       0       0
  2133 ;;      Locals:         0       0       0       0       0       0       0       0       0
  2134 ;;      Temps:          0       0       0       0       0       0       0       0       0
  2135 ;;      Totals:         0       0       0       0       0       0       0       0       0
  2136 ;;Total ram usage:        0 bytes
  2137 ;; Hardware stack levels used: 1
  2138 ;; Hardware stack levels required when called: 10
  2139 ;; This function calls:
  2140 ;;		Nothing
  2141 ;; This function is called by:
  2142 ;;		_SYSTEM_Initialize
  2143 ;; This function uses a non-reentrant model
  2144 ;;
  2145                           
  2146                           	psect	text10
  2147  003340                     __ptext10:
  2148                           	callstack 0
  2149  003340                     _PIN_MANAGER_Initialize:
  2150                           	callstack 19
  2151  003340                     
  2152                           ;mcc_generated_files/pin_manager.c: 60:     LATA = 0x00;
  2153  003340  0E00               	movlw	0
  2154  003342  6E89               	movwf	137,c	;volatile
  2155                           
  2156                           ;mcc_generated_files/pin_manager.c: 61:     LATB = 0x00;
  2157  003344  0E00               	movlw	0
  2158  003346  6E8A               	movwf	138,c	;volatile
  2159                           
  2160                           ;mcc_generated_files/pin_manager.c: 62:     LATC = 0x00;
  2161  003348  0E00               	movlw	0
  2162  00334A  6E8B               	movwf	139,c	;volatile
  2163  00334C                     
  2164                           ;mcc_generated_files/pin_manager.c: 67:     TRISA = 0xFF;
  2165  00334C  6892               	setf	146,c	;volatile
  2166  00334E                     
  2167                           ;mcc_generated_files/pin_manager.c: 68:     TRISB = 0xFF;
  2168  00334E  6893               	setf	147,c	;volatile
  2169                           
  2170                           ;mcc_generated_files/pin_manager.c: 69:     TRISC = 0xC7;
  2171  003350  0EC7               	movlw	199
  2172  003352  6E94               	movwf	148,c	;volatile
  2173                           
  2174                           ;mcc_generated_files/pin_manager.c: 74:     ANSELC = 0xC4;
  2175  003354  0EC4               	movlw	196
  2176  003356  010F               	movlb	15	; () banked
  2177  003358  6F5D               	movwf	93,b	;volatile
  2178                           
  2179                           ;mcc_generated_files/pin_manager.c: 75:     ANSELB = 0x3F;
  2180  00335A  0E3F               	movlw	63
  2181  00335C  6F5C               	movwf	92,b	;volatile
  2182                           
  2183                           ;mcc_generated_files/pin_manager.c: 76:     ANSELA = 0x2F;
  2184  00335E  0E2F               	movlw	47
  2185  003360  6F5B               	movwf	91,b	;volatile
  2186                           
  2187                           ;mcc_generated_files/pin_manager.c: 81:     WPUB = 0x00;
  2188  003362  0E00               	movlw	0
  2189  003364  6E85               	movwf	133,c	;volatile
  2190  003366                     
  2191                           ; BSR set to: 15
  2192                           ;mcc_generated_files/pin_manager.c: 82:     INTCON2bits.nRBPU = 1;
  2193  003366  8EF1               	bsf	241,7,c	;volatile
  2194  003368                     
  2195                           ; BSR set to: 15
  2196  003368  0012               	return		;funcret
  2197  00336A                     __end_of_PIN_MANAGER_Initialize:
  2198                           	callstack 0
  2199                           
  2200 ;; *************** function _OSCILLATOR_Initialize *****************
  2201 ;; Defined at:
  2202 ;;		line 66 in file "mcc_generated_files/mcc.c"
  2203 ;; Parameters:    Size  Location     Type
  2204 ;;		None
  2205 ;; Auto vars:     Size  Location     Type
  2206 ;;		None
  2207 ;; Return value:  Size  Location     Type
  2208 ;;                  1    wreg      void 
  2209 ;; Registers used:
  2210 ;;		wreg, status,2
  2211 ;; Tracked objects:
  2212 ;;		On entry : 0/0
  2213 ;;		On exit  : 0/0
  2214 ;;		Unchanged: 0/0
  2215 ;; Data sizes:     COMRAM   BANK0   BANK1   BANK2   BANK3   BANK4   BANK5   BANK6   BANK7
  2216 ;;      Params:         0       0       0       0       0       0       0       0       0
  2217 ;;      Locals:         0       0       0       0       0       0       0       0       0
  2218 ;;      Temps:          0       0       0       0       0       0       0       0       0
  2219 ;;      Totals:         0       0       0       0       0       0       0       0       0
  2220 ;;Total ram usage:        0 bytes
  2221 ;; Hardware stack levels used: 1
  2222 ;; Hardware stack levels required when called: 10
  2223 ;; This function calls:
  2224 ;;		Nothing
  2225 ;; This function is called by:
  2226 ;;		_SYSTEM_Initialize
  2227 ;; This function uses a non-reentrant model
  2228 ;;
  2229                           
  2230                           	psect	text11
  2231  0033E0                     __ptext11:
  2232                           	callstack 0
  2233  0033E0                     _OSCILLATOR_Initialize:
  2234                           	callstack 19
  2235  0033E0                     
  2236                           ;mcc_generated_files/mcc.c: 69:     OSCCON = 0x70;
  2237  0033E0  0E70               	movlw	112
  2238  0033E2  6ED3               	movwf	211,c	;volatile
  2239                           
  2240                           ;mcc_generated_files/mcc.c: 71:     OSCCON2 = 0x00;
  2241  0033E4  0E00               	movlw	0
  2242  0033E6  6ED2               	movwf	210,c	;volatile
  2243                           
  2244                           ;mcc_generated_files/mcc.c: 73:     OSCTUNE = 0x80;
  2245  0033E8  0E80               	movlw	128
  2246  0033EA  6E9B               	movwf	155,c	;volatile
  2247                           
  2248                           ;mcc_generated_files/mcc.c: 75:     ACTCON = 0x00;
  2249  0033EC  0E00               	movlw	0
  2250  0033EE  6EB5               	movwf	181,c	;volatile
  2251  0033F0  0012               	return		;funcret
  2252  0033F2                     __end_of_OSCILLATOR_Initialize:
  2253                           	callstack 0
  2254                           
  2255 ;; *************** function _INTERRUPT_Initialize *****************
  2256 ;; Defined at:
  2257 ;;		line 52 in file "mcc_generated_files/interrupt_manager.c"
  2258 ;; Parameters:    Size  Location     Type
  2259 ;;		None
  2260 ;; Auto vars:     Size  Location     Type
  2261 ;;		None
  2262 ;; Return value:  Size  Location     Type
  2263 ;;                  1    wreg      void 
  2264 ;; Registers used:
  2265 ;;		None
  2266 ;; Tracked objects:
  2267 ;;		On entry : 0/0
  2268 ;;		On exit  : 0/0
  2269 ;;		Unchanged: 0/0
  2270 ;; Data sizes:     COMRAM   BANK0   BANK1   BANK2   BANK3   BANK4   BANK5   BANK6   BANK7
  2271 ;;      Params:         0       0       0       0       0       0       0       0       0
  2272 ;;      Locals:         0       0       0       0       0       0       0       0       0
  2273 ;;      Temps:          0       0       0       0       0       0       0       0       0
  2274 ;;      Totals:         0       0       0       0       0       0       0       0       0
  2275 ;;Total ram usage:        0 bytes
  2276 ;; Hardware stack levels used: 1
  2277 ;; Hardware stack levels required when called: 10
  2278 ;; This function calls:
  2279 ;;		Nothing
  2280 ;; This function is called by:
  2281 ;;		_SYSTEM_Initialize
  2282 ;; This function uses a non-reentrant model
  2283 ;;
  2284                           
  2285                           	psect	text12
  2286  003412                     __ptext12:
  2287                           	callstack 0
  2288  003412                     _INTERRUPT_Initialize:
  2289                           	callstack 19
  2290  003412                     
  2291                           ;mcc_generated_files/interrupt_manager.c: 55:     RCONbits.IPEN = 0;
  2292  003412  9ED0               	bcf	208,7,c	;volatile
  2293  003414  0012               	return		;funcret
  2294  003416                     __end_of_INTERRUPT_Initialize:
  2295                           	callstack 0
  2296                           
  2297 ;; *************** function _CCP2_Initialize *****************
  2298 ;; Defined at:
  2299 ;;		line 60 in file "mcc_generated_files/ccp2.c"
  2300 ;; Parameters:    Size  Location     Type
  2301 ;;		None
  2302 ;; Auto vars:     Size  Location     Type
  2303 ;;		None
  2304 ;; Return value:  Size  Location     Type
  2305 ;;                  1    wreg      void 
  2306 ;; Registers used:
  2307 ;;		wreg, status,2
  2308 ;; Tracked objects:
  2309 ;;		On entry : 0/0
  2310 ;;		On exit  : 0/0
  2311 ;;		Unchanged: 0/0
  2312 ;; Data sizes:     COMRAM   BANK0   BANK1   BANK2   BANK3   BANK4   BANK5   BANK6   BANK7
  2313 ;;      Params:         0       0       0       0       0       0       0       0       0
  2314 ;;      Locals:         0       0       0       0       0       0       0       0       0
  2315 ;;      Temps:          0       0       0       0       0       0       0       0       0
  2316 ;;      Totals:         0       0       0       0       0       0       0       0       0
  2317 ;;Total ram usage:        0 bytes
  2318 ;; Hardware stack levels used: 1
  2319 ;; Hardware stack levels required when called: 10
  2320 ;; This function calls:
  2321 ;;		Nothing
  2322 ;; This function is called by:
  2323 ;;		_SYSTEM_Initialize
  2324 ;; This function uses a non-reentrant model
  2325 ;;
  2326                           
  2327                           	psect	text13
  2328  0033F2                     __ptext13:
  2329                           	callstack 0
  2330  0033F2                     _CCP2_Initialize:
  2331                           	callstack 19
  2332  0033F2                     
  2333                           ;mcc_generated_files/ccp2.c: 65:  CCP2CON = 0x04;
  2334  0033F2  0E04               	movlw	4
  2335  0033F4  6E97               	movwf	151,c	;volatile
  2336                           
  2337                           ;mcc_generated_files/ccp2.c: 68:  CCPR2L = 0x00;
  2338  0033F6  0E00               	movlw	0
  2339  0033F8  6E90               	movwf	144,c	;volatile
  2340                           
  2341                           ;mcc_generated_files/ccp2.c: 71:  CCPR2H = 0x00;
  2342  0033FA  0E00               	movlw	0
  2343  0033FC  6E91               	movwf	145,c	;volatile
  2344  0033FE                     
  2345                           ;mcc_generated_files/ccp2.c: 75:  CCPTMRSbits.C2TSEL = 0x0;
  2346  0033FE  010F               	movlb	15	; () banked
  2347  003400  9759               	bcf	89,3,b	;volatile
  2348  003402                     
  2349                           ; BSR set to: 15
  2350  003402  0012               	return		;funcret
  2351  003404                     __end_of_CCP2_Initialize:
  2352                           	callstack 0
  2353                           
  2354 ;; *************** function _ADC_Initialize *****************
  2355 ;; Defined at:
  2356 ;;		line 62 in file "mcc_generated_files/adc.c"
  2357 ;; Parameters:    Size  Location     Type
  2358 ;;		None
  2359 ;; Auto vars:     Size  Location     Type
  2360 ;;		None
  2361 ;; Return value:  Size  Location     Type
  2362 ;;                  1    wreg      void 
  2363 ;; Registers used:
  2364 ;;		wreg, status,2
  2365 ;; Tracked objects:
  2366 ;;		On entry : 0/0
  2367 ;;		On exit  : 0/0
  2368 ;;		Unchanged: 0/0
  2369 ;; Data sizes:     COMRAM   BANK0   BANK1   BANK2   BANK3   BANK4   BANK5   BANK6   BANK7
  2370 ;;      Params:         0       0       0       0       0       0       0       0       0
  2371 ;;      Locals:         0       0       0       0       0       0       0       0       0
  2372 ;;      Temps:          0       0       0       0       0       0       0       0       0
  2373 ;;      Totals:         0       0       0       0       0       0       0       0       0
  2374 ;;Total ram usage:        0 bytes
  2375 ;; Hardware stack levels used: 1
  2376 ;; Hardware stack levels required when called: 10
  2377 ;; This function calls:
  2378 ;;		Nothing
  2379 ;; This function is called by:
  2380 ;;		_SYSTEM_Initialize
  2381 ;; This function uses a non-reentrant model
  2382 ;;
  2383                           
  2384                           	psect	text14
  2385  0033A2                     __ptext14:
  2386                           	callstack 0
  2387  0033A2                     _ADC_Initialize:
  2388                           	callstack 19
  2389  0033A2                     
  2390                           ;mcc_generated_files/adc.c: 67:     ADCON1 = 0x00;
  2391  0033A2  0E00               	movlw	0
  2392  0033A4  6EC1               	movwf	193,c	;volatile
  2393                           
  2394                           ;mcc_generated_files/adc.c: 70:     ADCON2 = 0x06;
  2395  0033A6  0E06               	movlw	6
  2396  0033A8  6EC0               	movwf	192,c	;volatile
  2397                           
  2398                           ;mcc_generated_files/adc.c: 73:     ADRESL = 0x00;
  2399  0033AA  0E00               	movlw	0
  2400  0033AC  6EC3               	movwf	195,c	;volatile
  2401                           
  2402                           ;mcc_generated_files/adc.c: 76:     ADRESH = 0x00;
  2403  0033AE  0E00               	movlw	0
  2404  0033B0  6EC4               	movwf	196,c	;volatile
  2405                           
  2406                           ;mcc_generated_files/adc.c: 79:     ADCON0 = 0x01;
  2407  0033B2  0E01               	movlw	1
  2408  0033B4  6EC2               	movwf	194,c	;volatile
  2409  0033B6  0012               	return		;funcret
  2410  0033B8                     __end_of_ADC_Initialize:
  2411                           	callstack 0
  2412                           
  2413 ;; *************** function _MCC_USB_WRITE *****************
  2414 ;; Defined at:
  2415 ;;		line 71 in file "main.c"
  2416 ;; Parameters:    Size  Location     Type
  2417 ;;  str             2   13[BANK0 ] PTR unsigned char 
  2418 ;;		 -> __heap_hi(0), RAM(2047), NULL(0), 
  2419 ;;  nBytes          2   15[BANK0 ] int 
  2420 ;; Auto vars:     Size  Location     Type
  2421 ;;		None
  2422 ;; Return value:  Size  Location     Type
  2423 ;;                  1    wreg      void 
  2424 ;; Registers used:
  2425 ;;		wreg, fsr1l, fsr1h, fsr2l, fsr2h, status,2, status,0, prodl, prodh, cstack
  2426 ;; Tracked objects:
  2427 ;;		On entry : 0/0
  2428 ;;		On exit  : 0/0
  2429 ;;		Unchanged: 0/0
  2430 ;; Data sizes:     COMRAM   BANK0   BANK1   BANK2   BANK3   BANK4   BANK5   BANK6   BANK7
  2431 ;;      Params:         0       4       0       0       0       0       0       0       0
  2432 ;;      Locals:         0       0       0       0       0       0       0       0       0
  2433 ;;      Temps:          0       0       0       0       0       0       0       0       0
  2434 ;;      Totals:         0       4       0       0       0       0       0       0       0
  2435 ;;Total ram usage:        4 bytes
  2436 ;; Hardware stack levels used: 1
  2437 ;; Hardware stack levels required when called: 12
  2438 ;; This function calls:
  2439 ;;		_CDCTxService
  2440 ;;		_putUSBUSART
  2441 ;; This function is called by:
  2442 ;;		_main
  2443 ;; This function uses a non-reentrant model
  2444 ;;
  2445                           
  2446                           	psect	text15
  2447  0033B8                     __ptext15:
  2448                           	callstack 0
  2449  0033B8                     _MCC_USB_WRITE:
  2450                           	callstack 18
  2451  0033B8                     
  2452                           ;main.c: 72:    putUSBUSART(str,nBytes);
  2453  0033B8  C0C2  F0B5         	movff	MCC_USB_WRITE@str,putUSBUSART@data
  2454  0033BC  C0C3  F0B6         	movff	MCC_USB_WRITE@str+1,putUSBUSART@data+1
  2455  0033C0  C0C4  F0B7         	movff	MCC_USB_WRITE@nBytes,putUSBUSART@length
  2456  0033C4  EC8A  F019         	call	_putUSBUSART	;wreg free
  2457  0033C8                     
  2458                           ;main.c: 73:    CDCTxService();
  2459  0033C8  EC5A  F008         	call	_CDCTxService	;wreg free
  2460  0033CC  0012               	return		;funcret
  2461  0033CE                     __end_of_MCC_USB_WRITE:
  2462                           	callstack 0
  2463                           
  2464 ;; *************** function _putUSBUSART *****************
  2465 ;; Defined at:
  2466 ;;		line 574 in file "mcc_generated_files/usb/usb_device_cdc.c"
  2467 ;; Parameters:    Size  Location     Type
  2468 ;;  data            2    0[BANK0 ] PTR unsigned char 
  2469 ;;		 -> __heap_hi(0), writeBuffer(64), RAM(2047), NULL(0), 
  2470 ;;  length          1    2[BANK0 ] unsigned char 
  2471 ;; Auto vars:     Size  Location     Type
  2472 ;;		None
  2473 ;; Return value:  Size  Location     Type
  2474 ;;                  1    wreg      void 
  2475 ;; Registers used:
  2476 ;;		wreg, status,2, status,0
  2477 ;; Tracked objects:
  2478 ;;		On entry : 0/0
  2479 ;;		On exit  : 0/0
  2480 ;;		Unchanged: 0/0
  2481 ;; Data sizes:     COMRAM   BANK0   BANK1   BANK2   BANK3   BANK4   BANK5   BANK6   BANK7
  2482 ;;      Params:         0       3       0       0       0       0       0       0       0
  2483 ;;      Locals:         0       0       0       0       0       0       0       0       0
  2484 ;;      Temps:          0       0       0       0       0       0       0       0       0
  2485 ;;      Totals:         0       3       0       0       0       0       0       0       0
  2486 ;;Total ram usage:        3 bytes
  2487 ;; Hardware stack levels used: 1
  2488 ;; Hardware stack levels required when called: 10
  2489 ;; This function calls:
  2490 ;;		Nothing
  2491 ;; This function is called by:
  2492 ;;		_MCC_USB_WRITE
  2493 ;;		_MCC_USB_CDC_DemoTasks
  2494 ;; This function uses a non-reentrant model
  2495 ;;
  2496                           
  2497                           	psect	text16
  2498  003314                     __ptext16:
  2499                           	callstack 0
  2500  003314                     _putUSBUSART:
  2501                           	callstack 19
  2502  003314                     
  2503                           ;mcc_generated_files/usb/usb_device_cdc.c: 574: void putUSBUSART(uint8_t *data, uint8_t 
      +                          length);mcc_generated_files/usb/usb_device_cdc.c: 575: {;mcc_generated_files/usb/usb_dev
      +                          ice_cdc.c: 599:     {PIE3bits.USBIE = 0;};
  2504  003314  94A3               	bcf	163,2,c	;volatile
  2505  003316                     
  2506                           ;mcc_generated_files/usb/usb_device_cdc.c: 600:     if(cdc_trf_state == 0)
  2507  003316  5043               	movf	_cdc_trf_state^0,w,c
  2508  003318  A4D8               	btfss	status,2,c
  2509  00331A  EF91  F019         	goto	u4521
  2510  00331E  EF93  F019         	goto	u4520
  2511  003322                     u4521:
  2512  003322  EF9E  F019         	goto	l5976
  2513  003326                     u4520:
  2514  003326                     
  2515                           ;mcc_generated_files/usb/usb_device_cdc.c: 601:     {;mcc_generated_files/usb/usb_device
      +                          _cdc.c: 602:         { pCDCSrc.bRam = (uint8_t*)data; cdc_tx_len = length; cdc_mem_type 
      +                          = 0x01; cdc_trf_state = 1; };
  2516  003326  C0B5  F08F         	movff	putUSBUSART@data,_pCDCSrc
  2517  00332A  C0B6  F090         	movff	putUSBUSART@data+1,_pCDCSrc+1
  2518  00332E  C0B7  F0A3         	movff	putUSBUSART@length,_cdc_tx_len
  2519  003332  0E01               	movlw	1
  2520  003334  0100               	movlb	0	; () banked
  2521  003336  6FA2               	movwf	_cdc_mem_type& (0+255),b
  2522  003338                     
  2523                           ; BSR set to: 0
  2524  003338  0E01               	movlw	1
  2525  00333A  6E43               	movwf	_cdc_trf_state^0,c
  2526  00333C                     l5976:
  2527                           
  2528                           ;mcc_generated_files/usb/usb_device_cdc.c: 604:     {PIE3bits.USBIE = 1;};
  2529  00333C  84A3               	bsf	163,2,c	;volatile
  2530  00333E  0012               	return		;funcret
  2531  003340                     __end_of_putUSBUSART:
  2532                           	callstack 0
  2533                           
  2534 ;; *************** function _CDCTxService *****************
  2535 ;; Defined at:
  2536 ;;		line 854 in file "mcc_generated_files/usb/usb_device_cdc.c"
  2537 ;; Parameters:    Size  Location     Type
  2538 ;;		None
  2539 ;; Auto vars:     Size  Location     Type
  2540 ;;  byte_to_send    1   12[BANK0 ] unsigned char 
  2541 ;;  i               1   11[BANK0 ] unsigned char 
  2542 ;; Return value:  Size  Location     Type
  2543 ;;                  1    wreg      void 
  2544 ;; Registers used:
  2545 ;;		wreg, fsr1l, fsr1h, fsr2l, fsr2h, status,2, status,0, prodl, prodh, cstack
  2546 ;; Tracked objects:
  2547 ;;		On entry : 0/0
  2548 ;;		On exit  : 0/0
  2549 ;;		Unchanged: 0/0
  2550 ;; Data sizes:     COMRAM   BANK0   BANK1   BANK2   BANK3   BANK4   BANK5   BANK6   BANK7
  2551 ;;      Params:         0       0       0       0       0       0       0       0       0
  2552 ;;      Locals:         0       2       0       0       0       0       0       0       0
  2553 ;;      Temps:          0       0       0       0       0       0       0       0       0
  2554 ;;      Totals:         0       2       0       0       0       0       0       0       0
  2555 ;;Total ram usage:        2 bytes
  2556 ;; Hardware stack levels used: 1
  2557 ;; Hardware stack levels required when called: 11
  2558 ;; This function calls:
  2559 ;;		_USBTransferOnePacket
  2560 ;; This function is called by:
  2561 ;;		_MCC_USB_WRITE
  2562 ;;		_MCC_USB_CDC_DemoTasks
  2563 ;;		_MCC_USB_READ
  2564 ;; This function uses a non-reentrant model
  2565 ;;
  2566                           
  2567                           	psect	text17
  2568  0010B4                     __ptext17:
  2569                           	callstack 0
  2570  0010B4                     _CDCTxService:
  2571                           	callstack 18
  2572  0010B4                     
  2573                           ;mcc_generated_files/usb/usb_device_cdc.c: 856:     uint8_t byte_to_send;;mcc_generated_
      +                          files/usb/usb_device_cdc.c: 857:     uint8_t i;;mcc_generated_files/usb/usb_device_cdc.c
      +                          : 859:     {PIE3bits.USBIE = 0;};
  2574  0010B4  94A3               	bcf	163,2,c	;volatile
  2575  0010B6                     
  2576                           ;mcc_generated_files/usb/usb_device_cdc.c: 861:     {};;mcc_generated_files/usb/usb_devi
      +                          ce_cdc.c: 863:     if(((CDCDataInHandle != 0x0000) && ((*(volatile uint8_t*)CDCDataInHan
      +                          dle & 0x80) != 0x00)))
  2577  0010B6  0100               	movlb	0	; () banked
  2578  0010B8  51A0               	movf	_CDCDataInHandle& (0+255),w,b
  2579  0010BA  11A1               	iorwf	(_CDCDataInHandle+1)& (0+255),w,b
  2580  0010BC  B4D8               	btfsc	status,2,c
  2581  0010BE  EF63  F008         	goto	u4531
  2582  0010C2  EF65  F008         	goto	u4530
  2583  0010C6                     u4531:
  2584  0010C6  EF73  F008         	goto	l5986
  2585  0010CA                     u4530:
  2586  0010CA                     
  2587                           ; BSR set to: 0
  2588  0010CA  C0A0  FFD9         	movff	_CDCDataInHandle,fsr2l
  2589  0010CE  C0A1  FFDA         	movff	_CDCDataInHandle+1,fsr2h
  2590  0010D2  AEDF               	btfss	indf2,7,c
  2591  0010D4  EF6E  F008         	goto	u4541
  2592  0010D8  EF70  F008         	goto	u4540
  2593  0010DC                     u4541:
  2594  0010DC  EF73  F008         	goto	l5986
  2595  0010E0                     u4540:
  2596  0010E0                     
  2597                           ; BSR set to: 0
  2598                           ;mcc_generated_files/usb/usb_device_cdc.c: 864:     {;mcc_generated_files/usb/usb_device
      +                          _cdc.c: 865:         {PIE3bits.USBIE = 1;};
  2599  0010E0  84A3               	bsf	163,2,c	;volatile
  2600                           
  2601                           ;mcc_generated_files/usb/usb_device_cdc.c: 866:         return;
  2602  0010E2  EF25  F009         	goto	l527
  2603  0010E6                     l5986:
  2604                           
  2605                           ; BSR set to: 0
  2606                           ;mcc_generated_files/usb/usb_device_cdc.c: 874:     if(cdc_trf_state == 3)
  2607  0010E6  0E03               	movlw	3
  2608  0010E8  1843               	xorwf	_cdc_trf_state^0,w,c
  2609  0010EA  A4D8               	btfss	status,2,c
  2610  0010EC  EF7A  F008         	goto	u4551
  2611  0010F0  EF7C  F008         	goto	u4550
  2612  0010F4                     u4551:
  2613  0010F4  EF7E  F008         	goto	l528
  2614  0010F8                     u4550:
  2615  0010F8                     
  2616                           ; BSR set to: 0
  2617                           ;mcc_generated_files/usb/usb_device_cdc.c: 875:         cdc_trf_state = 0;
  2618  0010F8  0E00               	movlw	0
  2619  0010FA  6E43               	movwf	_cdc_trf_state^0,c
  2620  0010FC                     l528:
  2621                           
  2622                           ; BSR set to: 0
  2623                           ;mcc_generated_files/usb/usb_device_cdc.c: 880:     if(cdc_trf_state == 0)
  2624  0010FC  5043               	movf	_cdc_trf_state^0,w,c
  2625  0010FE  A4D8               	btfss	status,2,c
  2626  001100  EF84  F008         	goto	u4561
  2627  001104  EF86  F008         	goto	u4560
  2628  001108                     u4561:
  2629  001108  EF89  F008         	goto	l5992
  2630  00110C                     u4560:
  2631  00110C                     
  2632                           ; BSR set to: 0
  2633                           ;mcc_generated_files/usb/usb_device_cdc.c: 881:     {;mcc_generated_files/usb/usb_device
      +                          _cdc.c: 882:         {PIE3bits.USBIE = 1;};
  2634  00110C  84A3               	bsf	163,2,c	;volatile
  2635                           
  2636                           ;mcc_generated_files/usb/usb_device_cdc.c: 883:         return;
  2637  00110E  EF25  F009         	goto	l527
  2638  001112                     l5992:
  2639                           
  2640                           ; BSR set to: 0
  2641                           ;mcc_generated_files/usb/usb_device_cdc.c: 889:     if(cdc_trf_state == 2)
  2642  001112  0E02               	movlw	2
  2643  001114  1843               	xorwf	_cdc_trf_state^0,w,c
  2644  001116  A4D8               	btfss	status,2,c
  2645  001118  EF90  F008         	goto	u4571
  2646  00111C  EF92  F008         	goto	u4570
  2647  001120                     u4571:
  2648  001120  EFA5  F008         	goto	l5998
  2649  001124                     u4570:
  2650  001124                     
  2651                           ; BSR set to: 0
  2652                           ;mcc_generated_files/usb/usb_device_cdc.c: 890:     {;mcc_generated_files/usb/usb_device
      +                          _cdc.c: 891:         CDCDataInHandle = USBTransferOnePacket(2,1,((void*)0),0);
  2653  001124  0E01               	movlw	1
  2654  001126  6FB5               	movwf	USBTransferOnePacket@dir& (0+255),b
  2655  001128  0E00               	movlw	0
  2656  00112A  6FB6               	movwf	USBTransferOnePacket@data& (0+255),b
  2657  00112C  0E00               	movlw	0
  2658  00112E  6FB7               	movwf	(USBTransferOnePacket@data+1)& (0+255),b
  2659  001130  0E00               	movlw	0
  2660  001132  6FB8               	movwf	USBTransferOnePacket@len& (0+255),b
  2661  001134  0E02               	movlw	2
  2662  001136  EC40  F00F         	call	_USBTransferOnePacket
  2663  00113A  C0B5  F0A0         	movff	?_USBTransferOnePacket,_CDCDataInHandle
  2664  00113E  C0B6  F0A1         	movff	?_USBTransferOnePacket+1,_CDCDataInHandle+1
  2665  001142                     
  2666                           ;mcc_generated_files/usb/usb_device_cdc.c: 893:         cdc_trf_state = 3;
  2667  001142  0E03               	movlw	3
  2668  001144  6E43               	movwf	_cdc_trf_state^0,c
  2669                           
  2670                           ;mcc_generated_files/usb/usb_device_cdc.c: 894:     }
  2671  001146  EF24  F009         	goto	l6042
  2672  00114A                     l5998:
  2673                           
  2674                           ; BSR set to: 0
  2675  00114A  0443               	decf	_cdc_trf_state^0,w,c
  2676  00114C  A4D8               	btfss	status,2,c
  2677  00114E  EFAB  F008         	goto	u4581
  2678  001152  EFAD  F008         	goto	u4580
  2679  001156                     u4581:
  2680  001156  EF24  F009         	goto	l6042
  2681  00115A                     u4580:
  2682  00115A                     
  2683                           ; BSR set to: 0
  2684                           ;mcc_generated_files/usb/usb_device_cdc.c: 896:     {;mcc_generated_files/usb/usb_device
      +                          _cdc.c: 900:      if(cdc_tx_len > sizeof(cdc_data_tx))
  2685  00115A  0E40               	movlw	64
  2686  00115C  65A3               	cpfsgt	_cdc_tx_len& (0+255),b
  2687  00115E  EFB3  F008         	goto	u4591
  2688  001162  EFB5  F008         	goto	u4590
  2689  001166                     u4591:
  2690  001166  EFB9  F008         	goto	l533
  2691  00116A                     u4590:
  2692  00116A                     
  2693                           ; BSR set to: 0
  2694                           ;mcc_generated_files/usb/usb_device_cdc.c: 901:          byte_to_send = sizeof(cdc_data_
      +                          tx);
  2695  00116A  0E40               	movlw	64
  2696  00116C  6FC1               	movwf	CDCTxService@byte_to_send& (0+255),b
  2697  00116E  EFBB  F008         	goto	l6004
  2698  001172                     l533:
  2699                           
  2700                           ; BSR set to: 0
  2701                           ;mcc_generated_files/usb/usb_device_cdc.c: 903:          byte_to_send = cdc_tx_len;
  2702  001172  C0A3  F0C1         	movff	_cdc_tx_len,CDCTxService@byte_to_send
  2703  001176                     l6004:
  2704                           
  2705                           ; BSR set to: 0
  2706                           ;mcc_generated_files/usb/usb_device_cdc.c: 908:      cdc_tx_len = cdc_tx_len - byte_to_s
      +                          end;
  2707  001176  51C1               	movf	CDCTxService@byte_to_send& (0+255),w,b
  2708  001178  5DA3               	subwf	_cdc_tx_len& (0+255),w,b
  2709  00117A  6FA3               	movwf	_cdc_tx_len& (0+255),b
  2710                           
  2711                           ;mcc_generated_files/usb/usb_device_cdc.c: 910:         pCDCDst.bRam = (uint8_t*)&cdc_da
      +                          ta_tx;
  2712  00117C  0E00               	movlw	0
  2713  00117E  6F8C               	movwf	_pCDCDst& (0+255),b
  2714  001180  0E05               	movlw	5
  2715  001182  6F8D               	movwf	(_pCDCDst+1)& (0+255),b
  2716  001184                     
  2717                           ; BSR set to: 0
  2718                           ;mcc_generated_files/usb/usb_device_cdc.c: 912:         i = byte_to_send;
  2719  001184  C0C1  F0C0         	movff	CDCTxService@byte_to_send,CDCTxService@i
  2720  001188                     
  2721                           ; BSR set to: 0
  2722                           ;mcc_generated_files/usb/usb_device_cdc.c: 913:         if(cdc_mem_type == 0x00)
  2723  001188  51A2               	movf	_cdc_mem_type& (0+255),w,b
  2724  00118A  A4D8               	btfss	status,2,c
  2725  00118C  EFCA  F008         	goto	u4601
  2726  001190  EFCC  F008         	goto	u4600
  2727  001194                     u4601:
  2728  001194  EFF6  F008         	goto	l6030
  2729  001198                     u4600:
  2730  001198  EFDD  F008         	goto	l6020
  2731  00119C                     l6012:
  2732                           
  2733                           ; BSR set to: 0
  2734                           ;mcc_generated_files/usb/usb_device_cdc.c: 916:             {;mcc_generated_files/usb/us
      +                          b_device_cdc.c: 917:                 *pCDCDst.bRam = *pCDCSrc.bRom;
  2735  00119C  C08F  FFD9         	movff	_pCDCSrc,fsr2l
  2736  0011A0  C090  FFDA         	movff	_pCDCSrc+1,fsr2h
  2737  0011A4  C08C  FFE1         	movff	_pCDCDst,fsr1l
  2738  0011A8  C08D  FFE2         	movff	_pCDCDst+1,fsr1h
  2739  0011AC  CFDF FFE7          	movff	indf2,indf1
  2740  0011B0                     
  2741                           ; BSR set to: 0
  2742                           ;mcc_generated_files/usb/usb_device_cdc.c: 918:                 pCDCDst.bRam++;
  2743  0011B0  4B8C               	infsnz	_pCDCDst& (0+255),f,b
  2744  0011B2  2B8D               	incf	(_pCDCDst+1)& (0+255),f,b
  2745  0011B4                     
  2746                           ; BSR set to: 0
  2747                           ;mcc_generated_files/usb/usb_device_cdc.c: 919:                 pCDCSrc.bRom++;
  2748  0011B4  4B8F               	infsnz	_pCDCSrc& (0+255),f,b
  2749  0011B6  2B90               	incf	(_pCDCSrc+1)& (0+255),f,b
  2750  0011B8                     
  2751                           ; BSR set to: 0
  2752                           ;mcc_generated_files/usb/usb_device_cdc.c: 920:                 i--;
  2753  0011B8  07C0               	decf	CDCTxService@i& (0+255),f,b
  2754  0011BA                     l6020:
  2755                           
  2756                           ; BSR set to: 0
  2757                           ;mcc_generated_files/usb/usb_device_cdc.c: 915:             while(i)
  2758  0011BA  51C0               	movf	CDCTxService@i& (0+255),w,b
  2759  0011BC  A4D8               	btfss	status,2,c
  2760  0011BE  EFE3  F008         	goto	u4611
  2761  0011C2  EFE5  F008         	goto	u4610
  2762  0011C6                     u4611:
  2763  0011C6  EFCE  F008         	goto	l6012
  2764  0011CA                     u4610:
  2765  0011CA  EFFE  F008         	goto	l6032
  2766  0011CE                     l6022:
  2767                           
  2768                           ; BSR set to: 0
  2769                           ;mcc_generated_files/usb/usb_device_cdc.c: 926:             {;mcc_generated_files/usb/us
      +                          b_device_cdc.c: 927:                 *pCDCDst.bRam = *pCDCSrc.bRam;
  2770  0011CE  C08F  FFD9         	movff	_pCDCSrc,fsr2l
  2771  0011D2  C090  FFDA         	movff	_pCDCSrc+1,fsr2h
  2772  0011D6  C08C  FFE1         	movff	_pCDCDst,fsr1l
  2773  0011DA  C08D  FFE2         	movff	_pCDCDst+1,fsr1h
  2774  0011DE  CFDF FFE7          	movff	indf2,indf1
  2775  0011E2                     
  2776                           ; BSR set to: 0
  2777                           ;mcc_generated_files/usb/usb_device_cdc.c: 928:                 pCDCDst.bRam++;
  2778  0011E2  4B8C               	infsnz	_pCDCDst& (0+255),f,b
  2779  0011E4  2B8D               	incf	(_pCDCDst+1)& (0+255),f,b
  2780  0011E6                     
  2781                           ; BSR set to: 0
  2782                           ;mcc_generated_files/usb/usb_device_cdc.c: 929:                 pCDCSrc.bRam++;
  2783  0011E6  4B8F               	infsnz	_pCDCSrc& (0+255),f,b
  2784  0011E8  2B90               	incf	(_pCDCSrc+1)& (0+255),f,b
  2785  0011EA                     
  2786                           ; BSR set to: 0
  2787                           ;mcc_generated_files/usb/usb_device_cdc.c: 930:                 i--;
  2788  0011EA  07C0               	decf	CDCTxService@i& (0+255),f,b
  2789  0011EC                     l6030:
  2790                           
  2791                           ; BSR set to: 0
  2792                           ;mcc_generated_files/usb/usb_device_cdc.c: 925:             while(i)
  2793  0011EC  51C0               	movf	CDCTxService@i& (0+255),w,b
  2794  0011EE  A4D8               	btfss	status,2,c
  2795  0011F0  EFFC  F008         	goto	u4621
  2796  0011F4  EFFE  F008         	goto	u4620
  2797  0011F8                     u4621:
  2798  0011F8  EFE7  F008         	goto	l6022
  2799  0011FC                     u4620:
  2800  0011FC                     l6032:
  2801                           
  2802                           ; BSR set to: 0
  2803                           ;mcc_generated_files/usb/usb_device_cdc.c: 938:         if(cdc_tx_len == 0)
  2804  0011FC  51A3               	movf	_cdc_tx_len& (0+255),w,b
  2805  0011FE  A4D8               	btfss	status,2,c
  2806  001200  EF04  F009         	goto	u4631
  2807  001204  EF06  F009         	goto	u4630
  2808  001208                     u4631:
  2809  001208  EF15  F009         	goto	l6040
  2810  00120C                     u4630:
  2811  00120C                     
  2812                           ; BSR set to: 0
  2813                           ;mcc_generated_files/usb/usb_device_cdc.c: 939:         {;mcc_generated_files/usb/usb_de
      +                          vice_cdc.c: 940:             if(byte_to_send == 64)
  2814  00120C  0E40               	movlw	64
  2815  00120E  19C1               	xorwf	CDCTxService@byte_to_send& (0+255),w,b
  2816  001210  A4D8               	btfss	status,2,c
  2817  001212  EF0D  F009         	goto	u4641
  2818  001216  EF0F  F009         	goto	u4640
  2819  00121A                     u4641:
  2820  00121A  EF13  F009         	goto	l6038
  2821  00121E                     u4640:
  2822  00121E                     
  2823                           ; BSR set to: 0
  2824                           ;mcc_generated_files/usb/usb_device_cdc.c: 941:                 cdc_trf_state = 2;
  2825  00121E  0E02               	movlw	2
  2826  001220  6E43               	movwf	_cdc_trf_state^0,c
  2827  001222  EF15  F009         	goto	l6040
  2828  001226                     l6038:
  2829                           
  2830                           ; BSR set to: 0
  2831                           ;mcc_generated_files/usb/usb_device_cdc.c: 943:                 cdc_trf_state = 3;
  2832  001226  0E03               	movlw	3
  2833  001228  6E43               	movwf	_cdc_trf_state^0,c
  2834  00122A                     l6040:
  2835                           
  2836                           ; BSR set to: 0
  2837                           ;mcc_generated_files/usb/usb_device_cdc.c: 945:         CDCDataInHandle = USBTransferOne
      +                          Packet(2,1,(uint8_t*)&cdc_data_tx,byte_to_send);
  2838  00122A  0E01               	movlw	1
  2839  00122C  6FB5               	movwf	USBTransferOnePacket@dir& (0+255),b
  2840  00122E  0E00               	movlw	0
  2841  001230  6FB6               	movwf	USBTransferOnePacket@data& (0+255),b
  2842  001232  0E05               	movlw	5
  2843  001234  6FB7               	movwf	(USBTransferOnePacket@data+1)& (0+255),b
  2844  001236  C0C1  F0B8         	movff	CDCTxService@byte_to_send,USBTransferOnePacket@len
  2845  00123A  0E02               	movlw	2
  2846  00123C  EC40  F00F         	call	_USBTransferOnePacket
  2847  001240  C0B5  F0A0         	movff	?_USBTransferOnePacket,_CDCDataInHandle
  2848  001244  C0B6  F0A1         	movff	?_USBTransferOnePacket+1,_CDCDataInHandle+1
  2849  001248                     l6042:
  2850                           
  2851                           ;mcc_generated_files/usb/usb_device_cdc.c: 949:     {PIE3bits.USBIE = 1;};
  2852  001248  84A3               	bsf	163,2,c	;volatile
  2853  00124A                     l527:
  2854  00124A  0012               	return		;funcret
  2855  00124C                     __end_of_CDCTxService:
  2856                           	callstack 0
  2857                           
  2858 ;; *************** function _USBTransferOnePacket *****************
  2859 ;; Defined at:
  2860 ;;		line 999 in file "mcc_generated_files/usb/usb_device.c"
  2861 ;; Parameters:    Size  Location     Type
  2862 ;;  ep              1    wreg     unsigned char 
  2863 ;;  dir             1    0[BANK0 ] unsigned char 
  2864 ;;  data            2    1[BANK0 ] PTR unsigned char 
  2865 ;;		 -> cdc_data_tx(64), cdc_data_rx(64), NULL(0), 
  2866 ;;  len             1    3[BANK0 ] unsigned char 
  2867 ;; Auto vars:     Size  Location     Type
  2868 ;;  ep              1    8[BANK0 ] unsigned char 
  2869 ;;  handle          2    9[BANK0 ] PTR volatile struct __BD
  2870 ;;		 -> RAM(2047), NULL(0), BDT(48), 
  2871 ;; Return value:  Size  Location     Type
  2872 ;;                  2    0[BANK0 ] PTR void 
  2873 ;; Registers used:
  2874 ;;		wreg, fsr2l, fsr2h, status,2, status,0, prodl, prodh
  2875 ;; Tracked objects:
  2876 ;;		On entry : 0/0
  2877 ;;		On exit  : 0/0
  2878 ;;		Unchanged: 0/0
  2879 ;; Data sizes:     COMRAM   BANK0   BANK1   BANK2   BANK3   BANK4   BANK5   BANK6   BANK7
  2880 ;;      Params:         0       4       0       0       0       0       0       0       0
  2881 ;;      Locals:         0       3       0       0       0       0       0       0       0
  2882 ;;      Temps:          0       4       0       0       0       0       0       0       0
  2883 ;;      Totals:         0      11       0       0       0       0       0       0       0
  2884 ;;Total ram usage:       11 bytes
  2885 ;; Hardware stack levels used: 1
  2886 ;; Hardware stack levels required when called: 10
  2887 ;; This function calls:
  2888 ;;		Nothing
  2889 ;; This function is called by:
  2890 ;;		_CDCTxService
  2891 ;;		_USBCDCEventHandler
  2892 ;;		_getsUSBUSART
  2893 ;; This function uses a non-reentrant model
  2894 ;;
  2895                           
  2896                           	psect	text18
  2897  001E80                     __ptext18:
  2898                           	callstack 0
  2899  001E80                     _USBTransferOnePacket:
  2900                           	callstack 18
  2901                           
  2902                           ;incstack = 0
  2903                           ;USBTransferOnePacket@ep stored from wreg
  2904  001E80  0100               	movlb	0	; () banked
  2905  001E82  6FBD               	movwf	USBTransferOnePacket@ep& (0+255),b
  2906  001E84                     
  2907                           ;mcc_generated_files/usb/usb_device.c: 999: void* USBTransferOnePacket(uint8_t ep,uint8_
      +                          t dir,uint8_t* data,uint8_t len);mcc_generated_files/usb/usb_device.c: 1000: {;mcc_gener
      +                          ated_files/usb/usb_device.c: 1001:     volatile BDT_ENTRY* handle;;mcc_generated_files/u
      +                          sb/usb_device.c: 1004:     if(dir != 0)
  2908  001E84  0100               	movlb	0	; () banked
  2909  001E86  51B5               	movf	USBTransferOnePacket@dir& (0+255),w,b
  2910  001E88  B4D8               	btfsc	status,2,c
  2911  001E8A  EF49  F00F         	goto	u4301
  2912  001E8E  EF4B  F00F         	goto	u4300
  2913  001E92                     u4301:
  2914  001E92  EF59  F00F         	goto	l5770
  2915  001E96                     u4300:
  2916  001E96                     
  2917                           ; BSR set to: 0
  2918                           ;mcc_generated_files/usb/usb_device.c: 1005:     {;mcc_generated_files/usb/usb_device.c:
      +                           1007:         handle = pBDTEntryIn[ep];
  2919  001E96  51BD               	movf	USBTransferOnePacket@ep& (0+255),w,b
  2920  001E98  0D02               	mullw	2
  2921  001E9A  0E78               	movlw	low _pBDTEntryIn
  2922  001E9C  24F3               	addwf	243,w,c
  2923  001E9E  6ED9               	movwf	fsr2l,c
  2924  001EA0  0E00               	movlw	high _pBDTEntryIn
  2925  001EA2  20F4               	addwfc	prodh,w,c
  2926  001EA4  6EDA               	movwf	fsr2h,c
  2927  001EA6  CFDE F0BE          	movff	postinc2,USBTransferOnePacket@handle
  2928  001EAA  CFDD F0BF          	movff	postdec2,USBTransferOnePacket@handle+1
  2929                           
  2930                           ;mcc_generated_files/usb/usb_device.c: 1008:     }
  2931  001EAE  EF65  F00F         	goto	l5772
  2932  001EB2                     l5770:
  2933                           
  2934                           ; BSR set to: 0
  2935                           ;mcc_generated_files/usb/usb_device.c: 1010:     {;mcc_generated_files/usb/usb_device.c:
      +                           1012:         handle = pBDTEntryOut[ep];
  2936  001EB2  51BD               	movf	USBTransferOnePacket@ep& (0+255),w,b
  2937  001EB4  0D02               	mullw	2
  2938  001EB6  0E7E               	movlw	low _pBDTEntryOut
  2939  001EB8  24F3               	addwf	243,w,c
  2940  001EBA  6ED9               	movwf	fsr2l,c
  2941  001EBC  0E00               	movlw	high _pBDTEntryOut
  2942  001EBE  20F4               	addwfc	prodh,w,c
  2943  001EC0  6EDA               	movwf	fsr2h,c
  2944  001EC2  CFDE F0BE          	movff	postinc2,USBTransferOnePacket@handle
  2945  001EC6  CFDD F0BF          	movff	postdec2,USBTransferOnePacket@handle+1
  2946  001ECA                     l5772:
  2947                           
  2948                           ; BSR set to: 0
  2949                           ;mcc_generated_files/usb/usb_device.c: 1017:     if(handle == 0)
  2950  001ECA  51BE               	movf	USBTransferOnePacket@handle& (0+255),w,b
  2951  001ECC  11BF               	iorwf	(USBTransferOnePacket@handle+1)& (0+255),w,b
  2952  001ECE  A4D8               	btfss	status,2,c
  2953  001ED0  EF6C  F00F         	goto	u4311
  2954  001ED4  EF6E  F00F         	goto	u4310
  2955  001ED8                     u4311:
  2956  001ED8  EF74  F00F         	goto	l5778
  2957  001EDC                     u4310:
  2958  001EDC                     
  2959                           ; BSR set to: 0
  2960                           ;mcc_generated_files/usb/usb_device.c: 1018:     {;mcc_generated_files/usb/usb_device.c:
      +                           1019:         return 0;
  2961  001EDC  0E00               	movlw	0
  2962  001EDE  6FB5               	movwf	?_USBTransferOnePacket& (0+255),b
  2963  001EE0  0E00               	movlw	0
  2964  001EE2  6FB6               	movwf	(?_USBTransferOnePacket+1)& (0+255),b
  2965  001EE4  EFE0  F00F         	goto	l177
  2966  001EE8                     l5778:
  2967                           
  2968                           ; BSR set to: 0
  2969                           ;mcc_generated_files/usb/usb_device.c: 1033:     handle->ADR = ((uint16_t)(data));
  2970  001EE8  EE20 F002          	lfsr	2,2
  2971  001EEC  51BE               	movf	USBTransferOnePacket@handle& (0+255),w,b
  2972  001EEE  26D9               	addwf	fsr2l,f,c
  2973  001EF0  51BF               	movf	(USBTransferOnePacket@handle+1)& (0+255),w,b
  2974  001EF2  22DA               	addwfc	fsr2h,f,c
  2975  001EF4  C0B6  FFDE         	movff	USBTransferOnePacket@data,postinc2
  2976  001EF8  C0B7  FFDD         	movff	USBTransferOnePacket@data+1,postdec2
  2977                           
  2978                           ;mcc_generated_files/usb/usb_device.c: 1034:     handle->CNT = len;
  2979  001EFC  EE20 F001          	lfsr	2,1
  2980  001F00  51BE               	movf	USBTransferOnePacket@handle& (0+255),w,b
  2981  001F02  26D9               	addwf	fsr2l,f,c
  2982  001F04  51BF               	movf	(USBTransferOnePacket@handle+1)& (0+255),w,b
  2983  001F06  22DA               	addwfc	fsr2h,f,c
  2984  001F08  C0B8  FFDF         	movff	USBTransferOnePacket@len,indf2
  2985  001F0C                     
  2986                           ; BSR set to: 0
  2987                           ;mcc_generated_files/usb/usb_device.c: 1035:     handle->STAT.Val &= 0x40;
  2988  001F0C  C0BE  FFD9         	movff	USBTransferOnePacket@handle,fsr2l
  2989  001F10  C0BF  FFDA         	movff	USBTransferOnePacket@handle+1,fsr2h
  2990  001F14  0E40               	movlw	64
  2991  001F16  16DF               	andwf	indf2,f,c
  2992  001F18                     
  2993                           ; BSR set to: 0
  2994                           ;mcc_generated_files/usb/usb_device.c: 1036:     handle->STAT.Val |= (0x08 & 0x08);
  2995  001F18  C0BE  FFD9         	movff	USBTransferOnePacket@handle,fsr2l
  2996  001F1C  C0BF  FFDA         	movff	USBTransferOnePacket@handle+1,fsr2h
  2997  001F20  0E00               	movlw	0
  2998  001F22  86DB               	bsf	plusw2,3,c
  2999  001F24                     
  3000                           ; BSR set to: 0
  3001                           ;mcc_generated_files/usb/usb_device.c: 1037:     handle->STAT.Val |= 0x80;
  3002  001F24  C0BE  FFD9         	movff	USBTransferOnePacket@handle,fsr2l
  3003  001F28  C0BF  FFDA         	movff	USBTransferOnePacket@handle+1,fsr2h
  3004  001F2C  0E00               	movlw	0
  3005  001F2E  8EDB               	bsf	plusw2,7,c
  3006  001F30                     
  3007                           ; BSR set to: 0
  3008                           ;mcc_generated_files/usb/usb_device.c: 1040:     if(dir != 0)
  3009  001F30  51B5               	movf	USBTransferOnePacket@dir& (0+255),w,b
  3010  001F32  B4D8               	btfsc	status,2,c
  3011  001F34  EF9E  F00F         	goto	u4321
  3012  001F38  EFA0  F00F         	goto	u4320
  3013  001F3C                     u4321:
  3014  001F3C  EFBF  F00F         	goto	l5790
  3015  001F40                     u4320:
  3016  001F40                     
  3017                           ; BSR set to: 0
  3018                           ;mcc_generated_files/usb/usb_device.c: 1041:     {;mcc_generated_files/usb/usb_device.c:
      +                           1043:         pBDTEntryIn[ep] = (BDT_ENTRY*)(((uint16_t)pBDTEntryIn[ep]) ^ 0x0004);
  3019  001F40  51BD               	movf	USBTransferOnePacket@ep& (0+255),w,b
  3020  001F42  0D02               	mullw	2
  3021  001F44  0E78               	movlw	low _pBDTEntryIn
  3022  001F46  24F3               	addwf	243,w,c
  3023  001F48  6ED9               	movwf	fsr2l,c
  3024  001F4A  0E00               	movlw	high _pBDTEntryIn
  3025  001F4C  20F4               	addwfc	prodh,w,c
  3026  001F4E  6EDA               	movwf	fsr2h,c
  3027  001F50  CFDE F0B9          	movff	postinc2,??_USBTransferOnePacket
  3028  001F54  CFDD F0BA          	movff	postdec2,??_USBTransferOnePacket+1
  3029  001F58  0E04               	movlw	4
  3030  001F5A  19B9               	xorwf	??_USBTransferOnePacket& (0+255),w,b
  3031  001F5C  6FBB               	movwf	(??_USBTransferOnePacket+2)& (0+255),b
  3032  001F5E  51BA               	movf	(??_USBTransferOnePacket+1)& (0+255),w,b
  3033  001F60  6FBC               	movwf	(??_USBTransferOnePacket+3)& (0+255),b
  3034  001F62  51BD               	movf	USBTransferOnePacket@ep& (0+255),w,b
  3035  001F64  0D02               	mullw	2
  3036  001F66  0E78               	movlw	low _pBDTEntryIn
  3037  001F68  24F3               	addwf	243,w,c
  3038  001F6A  6ED9               	movwf	fsr2l,c
  3039  001F6C  0E00               	movlw	high _pBDTEntryIn
  3040  001F6E  20F4               	addwfc	prodh,w,c
  3041  001F70  6EDA               	movwf	fsr2h,c
  3042  001F72  C0BB  FFDE         	movff	??_USBTransferOnePacket+2,postinc2
  3043  001F76  C0BC  FFDD         	movff	??_USBTransferOnePacket+3,postdec2
  3044                           
  3045                           ;mcc_generated_files/usb/usb_device.c: 1044:     }
  3046  001F7A  EFDC  F00F         	goto	l5792
  3047  001F7E                     l5790:
  3048                           
  3049                           ; BSR set to: 0
  3050                           ;mcc_generated_files/usb/usb_device.c: 1046:     {;mcc_generated_files/usb/usb_device.c:
      +                           1048:         pBDTEntryOut[ep] = (BDT_ENTRY*)(((uint16_t)pBDTEntryOut[ep]) ^ 0x0004);
  3051  001F7E  51BD               	movf	USBTransferOnePacket@ep& (0+255),w,b
  3052  001F80  0D02               	mullw	2
  3053  001F82  0E7E               	movlw	low _pBDTEntryOut
  3054  001F84  24F3               	addwf	243,w,c
  3055  001F86  6ED9               	movwf	fsr2l,c
  3056  001F88  0E00               	movlw	high _pBDTEntryOut
  3057  001F8A  20F4               	addwfc	prodh,w,c
  3058  001F8C  6EDA               	movwf	fsr2h,c
  3059  001F8E  CFDE F0B9          	movff	postinc2,??_USBTransferOnePacket
  3060  001F92  CFDD F0BA          	movff	postdec2,??_USBTransferOnePacket+1
  3061  001F96  0E04               	movlw	4
  3062  001F98  19B9               	xorwf	??_USBTransferOnePacket& (0+255),w,b
  3063  001F9A  6FBB               	movwf	(??_USBTransferOnePacket+2)& (0+255),b
  3064  001F9C  51BA               	movf	(??_USBTransferOnePacket+1)& (0+255),w,b
  3065  001F9E  6FBC               	movwf	(??_USBTransferOnePacket+3)& (0+255),b
  3066  001FA0  51BD               	movf	USBTransferOnePacket@ep& (0+255),w,b
  3067  001FA2  0D02               	mullw	2
  3068  001FA4  0E7E               	movlw	low _pBDTEntryOut
  3069  001FA6  24F3               	addwf	243,w,c
  3070  001FA8  6ED9               	movwf	fsr2l,c
  3071  001FAA  0E00               	movlw	high _pBDTEntryOut
  3072  001FAC  20F4               	addwfc	prodh,w,c
  3073  001FAE  6EDA               	movwf	fsr2h,c
  3074  001FB0  C0BB  FFDE         	movff	??_USBTransferOnePacket+2,postinc2
  3075  001FB4  C0BC  FFDD         	movff	??_USBTransferOnePacket+3,postdec2
  3076  001FB8                     l5792:
  3077                           
  3078                           ; BSR set to: 0
  3079                           ;mcc_generated_files/usb/usb_device.c: 1050:     return (void*)handle;
  3080  001FB8  C0BE  F0B5         	movff	USBTransferOnePacket@handle,?_USBTransferOnePacket
  3081  001FBC  C0BF  F0B6         	movff	USBTransferOnePacket@handle+1,?_USBTransferOnePacket+1
  3082  001FC0                     l177:
  3083                           
  3084                           ; BSR set to: 0
  3085  001FC0  0012               	return		;funcret
  3086  001FC2                     __end_of_USBTransferOnePacket:
  3087                           	callstack 0
  3088                           
  3089 ;; *************** function _Fila_Init *****************
  3090 ;; Defined at:
  3091 ;;		line 6 in file "fila.c"
  3092 ;; Parameters:    Size  Location     Type
  3093 ;;  fila            2    0[BANK0 ] PTR struct Fila_T
  3094 ;;		 -> main@CommandList(6), 
  3095 ;; Auto vars:     Size  Location     Type
  3096 ;;		None
  3097 ;; Return value:  Size  Location     Type
  3098 ;;                  1    wreg      void 
  3099 ;; Registers used:
  3100 ;;		wreg, fsr2l, fsr2h, status,2, status,0
  3101 ;; Tracked objects:
  3102 ;;		On entry : 0/0
  3103 ;;		On exit  : 0/0
  3104 ;;		Unchanged: 0/0
  3105 ;; Data sizes:     COMRAM   BANK0   BANK1   BANK2   BANK3   BANK4   BANK5   BANK6   BANK7
  3106 ;;      Params:         0       2       0       0       0       0       0       0       0
  3107 ;;      Locals:         0       0       0       0       0       0       0       0       0
  3108 ;;      Temps:          0       0       0       0       0       0       0       0       0
  3109 ;;      Totals:         0       2       0       0       0       0       0       0       0
  3110 ;;Total ram usage:        2 bytes
  3111 ;; Hardware stack levels used: 1
  3112 ;; Hardware stack levels required when called: 10
  3113 ;; This function calls:
  3114 ;;		Nothing
  3115 ;; This function is called by:
  3116 ;;		_main
  3117 ;; This function uses a non-reentrant model
  3118 ;;
  3119                           
  3120                           	psect	text19
  3121  00320E                     __ptext19:
  3122                           	callstack 0
  3123  00320E                     _Fila_Init:
  3124                           	callstack 20
  3125  00320E                     
  3126                           ;fila.c: 7:    fila->cabeza=0;
  3127  00320E  C0B5  FFD9         	movff	Fila_Init@fila,fsr2l
  3128  003212  C0B6  FFDA         	movff	Fila_Init@fila+1,fsr2h
  3129  003216  0E00               	movlw	0
  3130  003218  6EDE               	movwf	postinc2,c
  3131  00321A  0E00               	movlw	0
  3132  00321C  6EDD               	movwf	postdec2,c
  3133  00321E                     
  3134                           ;fila.c: 8:    fila->cola=0;
  3135  00321E  0100               	movlb	0	; () banked
  3136  003220  EE20 F002          	lfsr	2,2
  3137  003224  51B5               	movf	Fila_Init@fila& (0+255),w,b
  3138  003226  26D9               	addwf	fsr2l,f,c
  3139  003228  51B6               	movf	(Fila_Init@fila+1)& (0+255),w,b
  3140  00322A  22DA               	addwfc	fsr2h,f,c
  3141  00322C  0E00               	movlw	0
  3142  00322E  6EDE               	movwf	postinc2,c
  3143  003230  0E00               	movlw	0
  3144  003232  6EDD               	movwf	postdec2,c
  3145  003234                     
  3146                           ; BSR set to: 0
  3147                           ;fila.c: 9:    fila->size=0;
  3148  003234  EE20 F004          	lfsr	2,4
  3149  003238  51B5               	movf	Fila_Init@fila& (0+255),w,b
  3150  00323A  26D9               	addwf	fsr2l,f,c
  3151  00323C  51B6               	movf	(Fila_Init@fila+1)& (0+255),w,b
  3152  00323E  22DA               	addwfc	fsr2h,f,c
  3153  003240  0E00               	movlw	0
  3154  003242  6EDE               	movwf	postinc2,c
  3155  003244  0E00               	movlw	0
  3156  003246  6EDD               	movwf	postdec2,c
  3157  003248                     
  3158                           ; BSR set to: 0
  3159  003248  0012               	return		;funcret
  3160  00324A                     __end_of_Fila_Init:
  3161                           	callstack 0
  3162                           
  3163 ;; *************** function _Fila_Agregar *****************
  3164 ;; Defined at:
  3165 ;;		line 12 in file "fila.c"
  3166 ;; Parameters:    Size  Location     Type
  3167 ;;  fila            2   32[BANK0 ] PTR struct Fila_T
  3168 ;;		 -> main@CommandList(6), 
  3169 ;;  comando         2   34[BANK0 ] PTR unsigned char 
  3170 ;;		 -> STR_1(7), 
  3171 ;;  nBytes          2   36[BANK0 ] int 
  3172 ;; Auto vars:     Size  Location     Type
  3173 ;;  nuevo           2   40[BANK0 ] PTR struct NodoComando_T
  3174 ;;		 -> __heap_hi..(3), __heap_hi(0), RAM(2047), NULL(0), 
  3175 ;; Return value:  Size  Location     Type
  3176 ;;                  2   32[BANK0 ] int 
  3177 ;; Registers used:
  3178 ;;		wreg, fsr1l, fsr1h, fsr2l, fsr2h, status,2, status,0, tblptrl, tblptrh, tblptru, cstack
  3179 ;; Tracked objects:
  3180 ;;		On entry : 0/0
  3181 ;;		On exit  : 0/0
  3182 ;;		Unchanged: 0/0
  3183 ;; Data sizes:     COMRAM   BANK0   BANK1   BANK2   BANK3   BANK4   BANK5   BANK6   BANK7
  3184 ;;      Params:         0       6       0       0       0       0       0       0       0
  3185 ;;      Locals:         0       2       0       0       0       0       0       0       0
  3186 ;;      Temps:          0       2       0       0       0       0       0       0       0
  3187 ;;      Totals:         0      10       0       0       0       0       0       0       0
  3188 ;;Total ram usage:       10 bytes
  3189 ;; Hardware stack levels used: 1
  3190 ;; Hardware stack levels required when called: 12
  3191 ;; This function calls:
  3192 ;;		_malloc
  3193 ;;		_strcpy
  3194 ;; This function is called by:
  3195 ;;		_main
  3196 ;; This function uses a non-reentrant model
  3197 ;;
  3198                           
  3199                           	psect	text20
  3200  002242                     __ptext20:
  3201                           	callstack 0
  3202  002242                     _Fila_Agregar:
  3203                           	callstack 18
  3204  002242                     
  3205                           ;fila.c: 14:    if(comando==((void*)0))return 1;
  3206  002242  0100               	movlb	0	; () banked
  3207  002244  51D7               	movf	Fila_Agregar@comando& (0+255),w,b
  3208  002246  11D8               	iorwf	(Fila_Agregar@comando+1)& (0+255),w,b
  3209  002248  A4D8               	btfss	status,2,c
  3210  00224A  EF29  F011         	goto	u4821
  3211  00224E  EF2B  F011         	goto	u4820
  3212  002252                     u4821:
  3213  002252  EF2D  F011         	goto	l6236
  3214  002256                     u4820:
  3215  002256  EFB9  F011         	goto	l1014
  3216  00225A                     l6236:
  3217                           
  3218                           ; BSR set to: 0
  3219                           ;fila.c: 16:    NodoComando_T* nuevo;;fila.c: 17:    nuevo = (NodoComando_T*)malloc(size
      +                          of(NodoComando_T));
  3220  00225A  0E00               	movlw	0
  3221  00225C  6FCA               	movwf	(malloc@n+1)& (0+255),b
  3222  00225E  0E04               	movlw	4
  3223  002260  6FC9               	movwf	malloc@n& (0+255),b
  3224  002262  EC57  F00D         	call	_malloc	;wreg free
  3225  002266  C0C9  F0DD         	movff	?_malloc,Fila_Agregar@nuevo
  3226  00226A  C0CA  F0DE         	movff	?_malloc+1,Fila_Agregar@nuevo+1
  3227                           
  3228                           ;fila.c: 18:    nuevo->comando=(char*)malloc(sizeof(char)*nBytes);
  3229  00226E  C0D9  F0C9         	movff	Fila_Agregar@nBytes,malloc@n
  3230  002272  C0DA  F0CA         	movff	Fila_Agregar@nBytes+1,malloc@n+1
  3231  002276  EC57  F00D         	call	_malloc	;wreg free
  3232  00227A  C0DD  FFD9         	movff	Fila_Agregar@nuevo,fsr2l
  3233  00227E  C0DE  FFDA         	movff	Fila_Agregar@nuevo+1,fsr2h
  3234  002282  0100               	movlb	0	; () banked
  3235  002284  C0C9  FFDE         	movff	?_malloc,postinc2
  3236  002288  C0CA  FFDD         	movff	?_malloc+1,postdec2
  3237  00228C                     
  3238                           ; BSR set to: 0
  3239                           ;fila.c: 21:    if(nuevo==((void*)0)||nuevo->comando==((void*)0)) return 1;
  3240  00228C  51DD               	movf	Fila_Agregar@nuevo& (0+255),w,b
  3241  00228E  11DE               	iorwf	(Fila_Agregar@nuevo+1)& (0+255),w,b
  3242  002290  B4D8               	btfsc	status,2,c
  3243  002292  EF4D  F011         	goto	u4831
  3244  002296  EF4F  F011         	goto	u4830
  3245  00229A                     u4831:
  3246  00229A  EFB9  F011         	goto	l1014
  3247  00229E                     u4830:
  3248  00229E                     
  3249                           ; BSR set to: 0
  3250  00229E  C0DD  FFD9         	movff	Fila_Agregar@nuevo,fsr2l
  3251  0022A2  C0DE  FFDA         	movff	Fila_Agregar@nuevo+1,fsr2h
  3252  0022A6  50DE               	movf	postinc2,w,c
  3253  0022A8  10DE               	iorwf	postinc2,w,c
  3254  0022AA  A4D8               	btfss	status,2,c
  3255  0022AC  EF5A  F011         	goto	u4841
  3256  0022B0  EF5C  F011         	goto	u4840
  3257  0022B4                     u4841:
  3258  0022B4  EF5E  F011         	goto	l6242
  3259  0022B8                     u4840:
  3260  0022B8  EFB9  F011         	goto	l1014
  3261  0022BC                     l6242:
  3262                           
  3263                           ; BSR set to: 0
  3264                           ;fila.c: 23:    strcpy(nuevo->comando,comando);
  3265  0022BC  C0DD  FFD9         	movff	Fila_Agregar@nuevo,fsr2l
  3266  0022C0  C0DE  FFDA         	movff	Fila_Agregar@nuevo+1,fsr2h
  3267  0022C4  CFDE F0B5          	movff	postinc2,strcpy@dest
  3268  0022C8  CFDD F0B6          	movff	postdec2,strcpy@dest+1
  3269  0022CC  C0D7  F0B7         	movff	Fila_Agregar@comando,strcpy@src
  3270  0022D0  C0D8  F0B8         	movff	Fila_Agregar@comando+1,strcpy@src+1
  3271  0022D4  ECC5  F018         	call	_strcpy	;wreg free
  3272  0022D8                     
  3273                           ;fila.c: 25:    if(fila->size>0){
  3274  0022D8  0100               	movlb	0	; () banked
  3275  0022DA  EE20 F004          	lfsr	2,4
  3276  0022DE  51D5               	movf	Fila_Agregar@fila& (0+255),w,b
  3277  0022E0  26D9               	addwf	fsr2l,f,c
  3278  0022E2  51D6               	movf	(Fila_Agregar@fila+1)& (0+255),w,b
  3279  0022E4  22DA               	addwfc	fsr2h,f,c
  3280  0022E6  0E01               	movlw	1
  3281  0022E8  BEDB               	btfsc	plusw2,7,c
  3282  0022EA  EF80  F011         	goto	u4851
  3283  0022EE  0E01               	movlw	1
  3284  0022F0  50DB               	movf	plusw2,w,c
  3285  0022F2  E108               	bnz	u4850
  3286  0022F4  04DE               	decf	postinc2,w,c
  3287  0022F6  A0D8               	btfss	status,0,c
  3288  0022F8  EF80  F011         	goto	u4851
  3289  0022FC  EF82  F011         	goto	u4850
  3290  002300                     u4851:
  3291  002300  EF9E  F011         	goto	l6250
  3292  002304                     u4850:
  3293  002304                     
  3294                           ; BSR set to: 0
  3295                           ;fila.c: 26:       fila->cola->next = nuevo;
  3296  002304  EE20 F002          	lfsr	2,2
  3297  002308  51D5               	movf	Fila_Agregar@fila& (0+255),w,b
  3298  00230A  26D9               	addwf	fsr2l,f,c
  3299  00230C  51D6               	movf	(Fila_Agregar@fila+1)& (0+255),w,b
  3300  00230E  22DA               	addwfc	fsr2h,f,c
  3301  002310  EE10 F002          	lfsr	1,2
  3302  002314  50DE               	movf	postinc2,w,c
  3303  002316  26E1               	addwf	fsr1l,f,c
  3304  002318  50DD               	movf	postdec2,w,c
  3305  00231A  22E2               	addwfc	fsr1h,f,c
  3306  00231C  C0DD  FFE6         	movff	Fila_Agregar@nuevo,postinc1
  3307  002320  C0DE  FFE5         	movff	Fila_Agregar@nuevo+1,postdec1
  3308  002324                     
  3309                           ; BSR set to: 0
  3310                           ;fila.c: 27:       fila->cola= nuevo;
  3311  002324  EE20 F002          	lfsr	2,2
  3312  002328  51D5               	movf	Fila_Agregar@fila& (0+255),w,b
  3313  00232A  26D9               	addwf	fsr2l,f,c
  3314  00232C  51D6               	movf	(Fila_Agregar@fila+1)& (0+255),w,b
  3315  00232E  22DA               	addwfc	fsr2h,f,c
  3316  002330  C0DD  FFDE         	movff	Fila_Agregar@nuevo,postinc2
  3317  002334  C0DE  FFDD         	movff	Fila_Agregar@nuevo+1,postdec2
  3318                           
  3319                           ;fila.c: 28:    }
  3320  002338  EFB0  F011         	goto	l6254
  3321  00233C                     l6250:
  3322                           
  3323                           ; BSR set to: 0
  3324                           ;fila.c: 30:       fila->cola= nuevo;
  3325  00233C  EE20 F002          	lfsr	2,2
  3326  002340  51D5               	movf	Fila_Agregar@fila& (0+255),w,b
  3327  002342  26D9               	addwf	fsr2l,f,c
  3328  002344  51D6               	movf	(Fila_Agregar@fila+1)& (0+255),w,b
  3329  002346  22DA               	addwfc	fsr2h,f,c
  3330  002348  C0DD  FFDE         	movff	Fila_Agregar@nuevo,postinc2
  3331  00234C  C0DE  FFDD         	movff	Fila_Agregar@nuevo+1,postdec2
  3332  002350                     
  3333                           ; BSR set to: 0
  3334                           ;fila.c: 31:       fila->cabeza=nuevo;
  3335  002350  C0D5  FFD9         	movff	Fila_Agregar@fila,fsr2l
  3336  002354  C0D6  FFDA         	movff	Fila_Agregar@fila+1,fsr2h
  3337  002358  C0DD  FFDE         	movff	Fila_Agregar@nuevo,postinc2
  3338  00235C  C0DE  FFDD         	movff	Fila_Agregar@nuevo+1,postdec2
  3339  002360                     l6254:
  3340                           
  3341                           ; BSR set to: 0
  3342                           ;fila.c: 33:    fila->size+=1;
  3343  002360  EE20 F004          	lfsr	2,4
  3344  002364  51D5               	movf	Fila_Agregar@fila& (0+255),w,b
  3345  002366  26D9               	addwf	fsr2l,f,c
  3346  002368  51D6               	movf	(Fila_Agregar@fila+1)& (0+255),w,b
  3347  00236A  22DA               	addwfc	fsr2h,f,c
  3348  00236C  2ADE               	incf	postinc2,f,c
  3349  00236E  0E00               	movlw	0
  3350  002370  22DD               	addwfc	postdec2,f,c
  3351  002372                     l1014:
  3352                           
  3353                           ; BSR set to: 0
  3354  002372  0012               	return		;funcret
  3355  002374                     __end_of_Fila_Agregar:
  3356                           	callstack 0
  3357                           
  3358 ;; *************** function _strcpy *****************
  3359 ;; Defined at:
  3360 ;;		line 3 in file "/Applications/microchip/xc8/v2.36/pic/sources/c99/common/strcpy.c"
  3361 ;; Parameters:    Size  Location     Type
  3362 ;;  dest            2    0[BANK0 ] PTR unsigned char 
  3363 ;;		 -> __heap_hi..(3), __heap_hi(0), RAM(2047), NULL(0), 
  3364 ;;  src             2    2[BANK0 ] PTR const unsigned char 
  3365 ;;		 -> STR_1(7), 
  3366 ;; Auto vars:     Size  Location     Type
  3367 ;;  d               2    6[BANK0 ] PTR unsigned char 
  3368 ;;		 -> __heap_hi..(3), __heap_hi(0), RAM(2047), NULL(0), 
  3369 ;;  s               2    4[BANK0 ] PTR const unsigned char 
  3370 ;;		 -> STR_1(7), 
  3371 ;; Return value:  Size  Location     Type
  3372 ;;                  2    0[BANK0 ] PTR unsigned char 
  3373 ;; Registers used:
  3374 ;;		wreg, fsr2l, fsr2h, status,2, status,0, tblptrl, tblptrh, tblptru
  3375 ;; Tracked objects:
  3376 ;;		On entry : 0/0
  3377 ;;		On exit  : 0/0
  3378 ;;		Unchanged: 0/0
  3379 ;; Data sizes:     COMRAM   BANK0   BANK1   BANK2   BANK3   BANK4   BANK5   BANK6   BANK7
  3380 ;;      Params:         0       4       0       0       0       0       0       0       0
  3381 ;;      Locals:         0       4       0       0       0       0       0       0       0
  3382 ;;      Temps:          0       0       0       0       0       0       0       0       0
  3383 ;;      Totals:         0       8       0       0       0       0       0       0       0
  3384 ;;Total ram usage:        8 bytes
  3385 ;; Hardware stack levels used: 1
  3386 ;; Hardware stack levels required when called: 10
  3387 ;; This function calls:
  3388 ;;		Nothing
  3389 ;; This function is called by:
  3390 ;;		_Fila_Agregar
  3391 ;; This function uses a non-reentrant model
  3392 ;;
  3393                           
  3394                           	psect	text21
  3395  00318A                     __ptext21:
  3396                           	callstack 0
  3397  00318A                     _strcpy:
  3398                           	callstack 19
  3399  00318A  C0B7  F0B9         	movff	strcpy@src,strcpy@s
  3400  00318E  C0B8  F0BA         	movff	strcpy@src+1,strcpy@s+1
  3401  003192  C0B5  F0BB         	movff	strcpy@dest,strcpy@d
  3402  003196  C0B6  F0BC         	movff	strcpy@dest+1,strcpy@d+1
  3403  00319A                     l6138:
  3404  00319A  C0B9  FFF6         	movff	strcpy@s,tblptrl
  3405  00319E  C0BA  FFF7         	movff	strcpy@s+1,tblptrh
  3406  0031A2  0100               	movlb	0	; () banked
  3407  0031A4  4BB9               	infsnz	strcpy@s& (0+255),f,b
  3408  0031A6  2BBA               	incf	(strcpy@s+1)& (0+255),f,b
  3409  0031A8                     	if	0	;tblptru may be non-zero
  3410  0031A8                     	endif
  3411  0031A8                     	if	0	;tblptru may be non-zero
  3412  0031A8                     	endif
  3413  0031A8  C0BB  FFD9         	movff	strcpy@d,fsr2l
  3414  0031AC  C0BC  FFDA         	movff	strcpy@d+1,fsr2h
  3415  0031B0  4BBB               	infsnz	strcpy@d& (0+255),f,b
  3416  0031B2  2BBC               	incf	(strcpy@d+1)& (0+255),f,b
  3417  0031B4  0008               	tblrd		*
  3418  0031B6  CFF5 FFDF          	movff	tablat,indf2
  3419  0031BA  50DF               	movf	indf2,w,c
  3420  0031BC  A4D8               	btfss	status,2,c
  3421  0031BE  EFE3  F018         	goto	u4711
  3422  0031C2  EFE5  F018         	goto	u4710
  3423  0031C6                     u4711:
  3424  0031C6  EFCD  F018         	goto	l6138
  3425  0031CA                     u4710:
  3426  0031CA                     
  3427                           ; BSR set to: 0
  3428  0031CA  0012               	return		;funcret
  3429  0031CC                     __end_of_strcpy:
  3430                           	callstack 0
  3431                           
  3432 ;; *************** function _malloc *****************
  3433 ;; Defined at:
  3434 ;;		line 16 in file "/Applications/microchip/xc8/v2.36/pic/sources/c99/common/lite_malloc.c"
  3435 ;; Parameters:    Size  Location     Type
  3436 ;;  n               2   20[BANK0 ] unsigned int 
  3437 ;; Auto vars:     Size  Location     Type
  3438 ;;  sz              2   26[BANK0 ] PTR unsigned int 
  3439 ;;		 -> __heap_hi..(3), __heap_hi(0), RAM(2047), NULL(0), 
  3440 ;;  new             2   30[BANK0 ] PTR unsigned char 
  3441 ;;		 -> __heap_hi(0), RAM(2047), NULL(0), 
  3442 ;;  m               2   24[BANK0 ] unsigned int 
  3443 ;;  p               2   28[BANK0 ] PTR void 
  3444 ;;		 -> __heap_hi..(3), __heap_hi(0), RAM(2047), NULL(0), 
  3445 ;;  size            2    0        unsigned int 
  3446 ;; Return value:  Size  Location     Type
  3447 ;;                  2   20[BANK0 ] PTR void 
  3448 ;; Registers used:
  3449 ;;		wreg, fsr1l, fsr1h, fsr2l, fsr2h, status,2, status,0, cstack
  3450 ;; Tracked objects:
  3451 ;;		On entry : 0/0
  3452 ;;		On exit  : 0/0
  3453 ;;		Unchanged: 0/0
  3454 ;; Data sizes:     COMRAM   BANK0   BANK1   BANK2   BANK3   BANK4   BANK5   BANK6   BANK7
  3455 ;;      Params:         0       2       0       0       0       0       0       0       0
  3456 ;;      Locals:         0       8       0       0       0       0       0       0       0
  3457 ;;      Temps:          0       2       0       0       0       0       0       0       0
  3458 ;;      Totals:         0      12       0       0       0       0       0       0       0
  3459 ;;Total ram usage:       12 bytes
  3460 ;; Hardware stack levels used: 1
  3461 ;; Hardware stack levels required when called: 11
  3462 ;; This function calls:
  3463 ;;		___expand_heap
  3464 ;;		___simple_search_fl
  3465 ;; This function is called by:
  3466 ;;		_Fila_Agregar
  3467 ;; This function uses a non-reentrant model
  3468 ;;
  3469                           
  3470                           	psect	text22
  3471  001AAE                     __ptext22:
  3472                           	callstack 0
  3473  001AAE                     _malloc:
  3474                           	callstack 18
  3475  001AAE  0100               	movlb	0	; () banked
  3476  001AB0  51C9               	movf	malloc@n& (0+255),w,b
  3477  001AB2  11CA               	iorwf	(malloc@n+1)& (0+255),w,b
  3478  001AB4  A4D8               	btfss	status,2,c
  3479  001AB6  EF5F  F00D         	goto	u4651
  3480  001ABA  EF61  F00D         	goto	u4650
  3481  001ABE                     u4651:
  3482  001ABE  EF63  F00D         	goto	l6094
  3483  001AC2                     u4650:
  3484  001AC2                     
  3485                           ; BSR set to: 0
  3486  001AC2  4BC9               	infsnz	malloc@n& (0+255),f,b
  3487  001AC4  2BCA               	incf	(malloc@n+1)& (0+255),f,b
  3488  001AC6                     l6094:
  3489                           
  3490                           ; BSR set to: 0
  3491  001AC6  C032  F032         	movff	malloc@cur,malloc@cur
  3492  001ACA  C033  F033         	movff	malloc@cur+1,malloc@cur+1
  3493  001ACE                     
  3494                           ; BSR set to: 0
  3495  001ACE  51CA               	movf	(malloc@n+1)& (0+255),w,b
  3496  001AD0  E107               	bnz	u4661
  3497  001AD2  0E04               	movlw	4
  3498  001AD4  5DC9               	subwf	malloc@n& (0+255),w,b
  3499  001AD6  B0D8               	btfsc	status,0,c
  3500  001AD8  EF70  F00D         	goto	u4661
  3501  001ADC  EF72  F00D         	goto	u4660
  3502  001AE0                     u4661:
  3503  001AE0  EF76  F00D         	goto	l6102
  3504  001AE4                     u4660:
  3505  001AE4                     
  3506                           ; BSR set to: 0
  3507  001AE4  0E00               	movlw	0
  3508  001AE6  6FCA               	movwf	(malloc@n+1)& (0+255),b
  3509  001AE8  0E04               	movlw	4
  3510  001AEA  6FC9               	movwf	malloc@n& (0+255),b
  3511  001AEC                     l6102:
  3512                           
  3513                           ; BSR set to: 0
  3514  001AEC  C0C9  F0B5         	movff	malloc@n,___simple_search_fl@n
  3515  001AF0  C0CA  F0B6         	movff	malloc@n+1,___simple_search_fl@n+1
  3516  001AF4  EC08  F006         	call	___simple_search_fl	;wreg free
  3517  001AF8  C0B5  F0D1         	movff	?___simple_search_fl,malloc@p
  3518  001AFC  C0B6  F0D2         	movff	?___simple_search_fl+1,malloc@p+1
  3519  001B00  0100               	movlb	0	; () banked
  3520  001B02  51D1               	movf	malloc@p& (0+255),w,b
  3521  001B04  11D2               	iorwf	(malloc@p+1)& (0+255),w,b
  3522  001B06  A4D8               	btfss	status,2,c
  3523  001B08  EF88  F00D         	goto	u4671
  3524  001B0C  EF8A  F00D         	goto	u4670
  3525  001B10                     u4671:
  3526  001B10  EFF7  F00D         	goto	l6132
  3527  001B14                     u4670:
  3528  001B14                     
  3529                           ; BSR set to: 0
  3530  001B14  5032               	movf	malloc@cur^0,w,c
  3531  001B16  5D9A               	subwf	malloc@end& (0+255),w,b
  3532  001B18  6FCB               	movwf	??_malloc& (0+255),b
  3533  001B1A  5033               	movf	(malloc@cur+1)^0,w,c
  3534  001B1C  599B               	subwfb	(malloc@end+1)& (0+255),w,b
  3535  001B1E  6FCC               	movwf	(??_malloc+1)& (0+255),b
  3536  001B20  51C9               	movf	malloc@n& (0+255),w,b
  3537  001B22  5DCB               	subwf	??_malloc& (0+255),w,b
  3538  001B24  51CA               	movf	(malloc@n+1)& (0+255),w,b
  3539  001B26  59CC               	subwfb	(??_malloc+1)& (0+255),w,b
  3540  001B28  B0D8               	btfsc	status,0,c
  3541  001B2A  EF99  F00D         	goto	u4681
  3542  001B2E  EF9B  F00D         	goto	u4680
  3543  001B32                     u4681:
  3544  001B32  EFD5  F00D         	goto	l1746
  3545  001B36                     u4680:
  3546  001B36                     
  3547                           ; BSR set to: 0
  3548  001B36  0E02               	movlw	2
  3549  001B38  25C9               	addwf	malloc@n& (0+255),w,b
  3550  001B3A  6FCD               	movwf	malloc@m& (0+255),b
  3551  001B3C  0E00               	movlw	0
  3552  001B3E  21CA               	addwfc	(malloc@n+1)& (0+255),w,b
  3553  001B40  6FCE               	movwf	(malloc@m+1)& (0+255),b
  3554  001B42                     
  3555                           ; BSR set to: 0
  3556  001B42  0ECD               	movlw	low malloc@m
  3557  001B44  6FB5               	movwf	___expand_heap@pn& (0+255),b
  3558  001B46  0E00               	movlw	high malloc@m
  3559  001B48  6FB6               	movwf	(___expand_heap@pn+1)& (0+255),b
  3560  001B4A  EC0B  F016         	call	___expand_heap	;wreg free
  3561  001B4E  C0B5  F0D3         	movff	?___expand_heap,malloc@new
  3562  001B52  C0B6  F0D4         	movff	?___expand_heap+1,malloc@new+1
  3563  001B56  0100               	movlb	0	; () banked
  3564  001B58  51D3               	movf	malloc@new& (0+255),w,b
  3565  001B5A  11D4               	iorwf	(malloc@new+1)& (0+255),w,b
  3566  001B5C  A4D8               	btfss	status,2,c
  3567  001B5E  EFB3  F00D         	goto	u4691
  3568  001B62  EFB5  F00D         	goto	u4690
  3569  001B66                     u4691:
  3570  001B66  EFBB  F00D         	goto	l6118
  3571  001B6A                     u4690:
  3572  001B6A                     
  3573                           ; BSR set to: 0
  3574  001B6A  0E00               	movlw	0
  3575  001B6C  6FC9               	movwf	?_malloc& (0+255),b
  3576  001B6E  0E00               	movlw	0
  3577  001B70  6FCA               	movwf	(?_malloc+1)& (0+255),b
  3578  001B72  EFFB  F00D         	goto	l1748
  3579  001B76                     l6118:
  3580                           
  3581                           ; BSR set to: 0
  3582  001B76  C0D3  F0D3         	movff	malloc@new,malloc@new
  3583  001B7A  C0D4  F0D4         	movff	malloc@new+1,malloc@new+1
  3584  001B7E  519A               	movf	malloc@end& (0+255),w,b
  3585  001B80  19D3               	xorwf	malloc@new& (0+255),w,b
  3586  001B82  E109               	bnz	u4700
  3587  001B84  519B               	movf	(malloc@end+1)& (0+255),w,b
  3588  001B86  19D4               	xorwf	(malloc@new+1)& (0+255),w,b
  3589  001B88  B4D8               	btfsc	status,2,c
  3590  001B8A  EFC9  F00D         	goto	u4701
  3591  001B8E  EFCB  F00D         	goto	u4700
  3592  001B92                     u4701:
  3593  001B92  EFCF  F00D         	goto	l1749
  3594  001B96                     u4700:
  3595  001B96                     
  3596                           ; BSR set to: 0
  3597  001B96  C0D3  F032         	movff	malloc@new,malloc@cur
  3598  001B9A  C0D4  F033         	movff	malloc@new+1,malloc@cur+1
  3599  001B9E                     l1749:
  3600                           
  3601                           ; BSR set to: 0
  3602  001B9E  51CD               	movf	malloc@m& (0+255),w,b
  3603  001BA0  25D3               	addwf	malloc@new& (0+255),w,b
  3604  001BA2  6F9A               	movwf	malloc@end& (0+255),b
  3605  001BA4  51CE               	movf	(malloc@m+1)& (0+255),w,b
  3606  001BA6  21D4               	addwfc	(malloc@new+1)& (0+255),w,b
  3607  001BA8  6F9B               	movwf	(malloc@end+1)& (0+255),b
  3608  001BAA                     l1746:
  3609                           
  3610                           ; BSR set to: 0
  3611  001BAA  C032  F0D1         	movff	malloc@cur,malloc@p
  3612  001BAE  C033  F0D2         	movff	malloc@cur+1,malloc@p+1
  3613  001BB2                     
  3614                           ; BSR set to: 0
  3615  001BB2  C0D1  F0CF         	movff	malloc@p,malloc@sz
  3616  001BB6  C0D2  F0D0         	movff	malloc@p+1,malloc@sz+1
  3617  001BBA                     
  3618                           ; BSR set to: 0
  3619  001BBA  C0CF  FFD9         	movff	malloc@sz,fsr2l
  3620  001BBE  C0D0  FFDA         	movff	malloc@sz+1,fsr2h
  3621  001BC2  C0C9  FFDE         	movff	malloc@n,postinc2
  3622  001BC6  C0CA  FFDD         	movff	malloc@n+1,postdec2
  3623  001BCA                     
  3624                           ; BSR set to: 0
  3625  001BCA  0E02               	movlw	2
  3626  001BCC  27CF               	addwf	malloc@sz& (0+255),f,b
  3627  001BCE  0E00               	movlw	0
  3628  001BD0  23D0               	addwfc	(malloc@sz+1)& (0+255),f,b
  3629  001BD2                     
  3630                           ; BSR set to: 0
  3631  001BD2  C0CF  F0D1         	movff	malloc@sz,malloc@p
  3632  001BD6  C0D0  F0D2         	movff	malloc@sz+1,malloc@p+1
  3633  001BDA                     
  3634                           ; BSR set to: 0
  3635  001BDA  0E02               	movlw	2
  3636  001BDC  25C9               	addwf	malloc@n& (0+255),w,b
  3637  001BDE  6FCB               	movwf	??_malloc& (0+255),b
  3638  001BE0  0E00               	movlw	0
  3639  001BE2  21CA               	addwfc	(malloc@n+1)& (0+255),w,b
  3640  001BE4  6FCC               	movwf	(??_malloc+1)& (0+255),b
  3641  001BE6  51CB               	movf	??_malloc& (0+255),w,b
  3642  001BE8  2632               	addwf	malloc@cur^0,f,c
  3643  001BEA  51CC               	movf	(??_malloc+1)& (0+255),w,b
  3644  001BEC  2233               	addwfc	(malloc@cur+1)^0,f,c
  3645  001BEE                     l6132:
  3646                           
  3647                           ; BSR set to: 0
  3648  001BEE  C0D1  F0C9         	movff	malloc@p,?_malloc
  3649  001BF2  C0D2  F0CA         	movff	malloc@p+1,?_malloc+1
  3650  001BF6                     l1748:
  3651                           
  3652                           ; BSR set to: 0
  3653  001BF6  0012               	return		;funcret
  3654  001BF8                     __end_of_malloc:
  3655                           	callstack 0
  3656                           
  3657 ;; *************** function ___simple_search_fl *****************
  3658 ;; Defined at:
  3659 ;;		line 19 in file "/Applications/microchip/xc8/v2.36/pic/sources/c99/common/lite_free.c"
  3660 ;; Parameters:    Size  Location     Type
  3661 ;;  n               2    0[BANK0 ] unsigned int 
  3662 ;; Auto vars:     Size  Location     Type
  3663 ;;  split           2   10[BANK0 ] PTR struct chunk
  3664 ;;		 -> __heap_hi..(3), __heap_hi(0), RAM(2047), NULL(0), 
  3665 ;;  remaining_si    2    6[BANK0 ] unsigned int 
  3666 ;;  next            2   14[BANK0 ] PTR struct chunk
  3667 ;;		 -> __heap_hi..(3), __heap_hi(0), RAM(2047), NULL(0), 
  3668 ;;  best            2   18[BANK0 ] PTR struct chunk
  3669 ;;		 -> __heap_hi..(3), __heap_hi(0), RAM(2047), NULL(0), 
  3670 ;;  c               2   16[BANK0 ] PTR struct chunk
  3671 ;;		 -> __heap_hi..(3), __heap_hi(0), RAM(2047), NULL(0), 
  3672 ;;  last            2   12[BANK0 ] PTR struct chunk
  3673 ;;		 -> __heap_hi..(3), __heap_hi(0), RAM(2047), NULL(0), 
  3674 ;;  best_last       2    8[BANK0 ] PTR struct chunk
  3675 ;;		 -> __heap_hi..(3), __heap_hi(0), RAM(2047), NULL(0), 
  3676 ;; Return value:  Size  Location     Type
  3677 ;;                  2    0[BANK0 ] PTR void 
  3678 ;; Registers used:
  3679 ;;		wreg, fsr1l, fsr1h, fsr2l, fsr2h, status,2, status,0
  3680 ;; Tracked objects:
  3681 ;;		On entry : 0/0
  3682 ;;		On exit  : 0/0
  3683 ;;		Unchanged: 0/0
  3684 ;; Data sizes:     COMRAM   BANK0   BANK1   BANK2   BANK3   BANK4   BANK5   BANK6   BANK7
  3685 ;;      Params:         0       2       0       0       0       0       0       0       0
  3686 ;;      Locals:         0      14       0       0       0       0       0       0       0
  3687 ;;      Temps:          0       4       0       0       0       0       0       0       0
  3688 ;;      Totals:         0      20       0       0       0       0       0       0       0
  3689 ;;Total ram usage:       20 bytes
  3690 ;; Hardware stack levels used: 1
  3691 ;; Hardware stack levels required when called: 10
  3692 ;; This function calls:
  3693 ;;		Nothing
  3694 ;; This function is called by:
  3695 ;;		_malloc
  3696 ;; This function uses a non-reentrant model
  3697 ;;
  3698                           
  3699                           	psect	text23
  3700  000C10                     __ptext23:
  3701                           	callstack 0
  3702  000C10                     ___simple_search_fl:
  3703                           	callstack 18
  3704  000C10  0E00               	movlw	0
  3705  000C12  0100               	movlb	0	; () banked
  3706  000C14  6FC7               	movwf	___simple_search_fl@best& (0+255),b
  3707  000C16  0E00               	movlw	0
  3708  000C18  6FC8               	movwf	(___simple_search_fl@best+1)& (0+255),b
  3709  000C1A  0E00               	movlw	0
  3710  000C1C  6FBD               	movwf	___simple_search_fl@best_last& (0+255),b
  3711  000C1E  0E00               	movlw	0
  3712  000C20  6FBE               	movwf	(___simple_search_fl@best_last+1)& (0+255),b
  3713  000C22  0E00               	movlw	0
  3714  000C24  6FC1               	movwf	___simple_search_fl@last& (0+255),b
  3715  000C26  0E00               	movlw	0
  3716  000C28  6FC2               	movwf	(___simple_search_fl@last+1)& (0+255),b
  3717  000C2A  5034               	movf	___freelist^0,w,c
  3718  000C2C  1035               	iorwf	(___freelist+1)^0,w,c
  3719  000C2E  A4D8               	btfss	status,2,c
  3720  000C30  EF1C  F006         	goto	u4331
  3721  000C34  EF1E  F006         	goto	u4330
  3722  000C38                     u4331:
  3723  000C38  EF24  F006         	goto	l5802
  3724  000C3C                     u4330:
  3725  000C3C                     l5798:
  3726                           
  3727                           ; BSR set to: 0
  3728  000C3C  0E00               	movlw	0
  3729  000C3E  6FB5               	movwf	?___simple_search_fl& (0+255),b
  3730  000C40  0E00               	movlw	0
  3731  000C42  6FB6               	movwf	(?___simple_search_fl+1)& (0+255),b
  3732  000C44  EF45  F007         	goto	l1705
  3733  000C48                     l5802:
  3734                           
  3735                           ; BSR set to: 0
  3736  000C48  C034  F0C5         	movff	___freelist,___simple_search_fl@c
  3737  000C4C  C035  F0C6         	movff	___freelist+1,___simple_search_fl@c+1
  3738  000C50  EFAA  F006         	goto	l5828
  3739  000C54                     l5804:
  3740                           
  3741                           ; BSR set to: 0
  3742  000C54  C0C5  FFD9         	movff	___simple_search_fl@c,fsr2l
  3743  000C58  C0C6  FFDA         	movff	___simple_search_fl@c+1,fsr2h
  3744  000C5C  51B5               	movf	___simple_search_fl@n& (0+255),w,b
  3745  000C5E  18DE               	xorwf	postinc2,w,c
  3746  000C60  E107               	bnz	u4341
  3747  000C62  51B6               	movf	(___simple_search_fl@n+1)& (0+255),w,b
  3748  000C64  18DE               	xorwf	postinc2,w,c
  3749  000C66  A4D8               	btfss	status,2,c
  3750  000C68  EF38  F006         	goto	u4341
  3751  000C6C  EF3A  F006         	goto	u4340
  3752  000C70                     u4341:
  3753  000C70  EF67  F006         	goto	l5816
  3754  000C74                     u4340:
  3755  000C74                     
  3756                           ; BSR set to: 0
  3757  000C74  51C1               	movf	___simple_search_fl@last& (0+255),w,b
  3758  000C76  11C2               	iorwf	(___simple_search_fl@last+1)& (0+255),w,b
  3759  000C78  B4D8               	btfsc	status,2,c
  3760  000C7A  EF41  F006         	goto	u4351
  3761  000C7E  EF43  F006         	goto	u4350
  3762  000C82                     u4351:
  3763  000C82  EF55  F006         	goto	l5810
  3764  000C86                     u4350:
  3765  000C86                     
  3766                           ; BSR set to: 0
  3767  000C86  EE20 F002          	lfsr	2,2
  3768  000C8A  51C5               	movf	___simple_search_fl@c& (0+255),w,b
  3769  000C8C  26D9               	addwf	fsr2l,f,c
  3770  000C8E  51C6               	movf	(___simple_search_fl@c+1)& (0+255),w,b
  3771  000C90  22DA               	addwfc	fsr2h,f,c
  3772  000C92  EE10 F002          	lfsr	1,2
  3773  000C96  51C1               	movf	___simple_search_fl@last& (0+255),w,b
  3774  000C98  26E1               	addwf	fsr1l,f,c
  3775  000C9A  51C2               	movf	(___simple_search_fl@last+1)& (0+255),w,b
  3776  000C9C  22E2               	addwfc	fsr1h,f,c
  3777  000C9E  CFDE FFE6          	movff	postinc2,postinc1
  3778  000CA2  CFDD FFE5          	movff	postdec2,postdec1
  3779  000CA6  EF5F  F006         	goto	l5812
  3780  000CAA                     l5810:
  3781                           
  3782                           ; BSR set to: 0
  3783  000CAA  EE20 F002          	lfsr	2,2
  3784  000CAE  51C5               	movf	___simple_search_fl@c& (0+255),w,b
  3785  000CB0  26D9               	addwf	fsr2l,f,c
  3786  000CB2  51C6               	movf	(___simple_search_fl@c+1)& (0+255),w,b
  3787  000CB4  22DA               	addwfc	fsr2h,f,c
  3788  000CB6  CFDE F034          	movff	postinc2,___freelist
  3789  000CBA  CFDD F035          	movff	postdec2,___freelist+1
  3790  000CBE                     l5812:
  3791                           
  3792                           ; BSR set to: 0
  3793  000CBE  0E02               	movlw	2
  3794  000CC0  25C5               	addwf	___simple_search_fl@c& (0+255),w,b
  3795  000CC2  6FB5               	movwf	?___simple_search_fl& (0+255),b
  3796  000CC4  0E00               	movlw	0
  3797  000CC6  21C6               	addwfc	(___simple_search_fl@c+1)& (0+255),w,b
  3798  000CC8  6FB6               	movwf	(?___simple_search_fl+1)& (0+255),b
  3799  000CCA  EF45  F007         	goto	l1705
  3800  000CCE                     l5816:
  3801                           
  3802                           ; BSR set to: 0
  3803  000CCE  C0C5  FFD9         	movff	___simple_search_fl@c,fsr2l
  3804  000CD2  C0C6  FFDA         	movff	___simple_search_fl@c+1,fsr2h
  3805  000CD6  50DE               	movf	postinc2,w,c
  3806  000CD8  5DB5               	subwf	___simple_search_fl@n& (0+255),w,b
  3807  000CDA  50DE               	movf	postinc2,w,c
  3808  000CDC  59B6               	subwfb	(___simple_search_fl@n+1)& (0+255),w,b
  3809  000CDE  B0D8               	btfsc	status,0,c
  3810  000CE0  EF74  F006         	goto	u4361
  3811  000CE4  EF76  F006         	goto	u4360
  3812  000CE8                     u4361:
  3813  000CE8  EF9C  F006         	goto	l1713
  3814  000CEC                     u4360:
  3815  000CEC                     
  3816                           ; BSR set to: 0
  3817  000CEC  51C7               	movf	___simple_search_fl@best& (0+255),w,b
  3818  000CEE  11C8               	iorwf	(___simple_search_fl@best+1)& (0+255),w,b
  3819  000CF0  B4D8               	btfsc	status,2,c
  3820  000CF2  EF7D  F006         	goto	u4371
  3821  000CF6  EF7F  F006         	goto	u4370
  3822  000CFA                     u4371:
  3823  000CFA  EF94  F006         	goto	l5824
  3824  000CFE                     u4370:
  3825  000CFE                     
  3826                           ; BSR set to: 0
  3827  000CFE  C0C7  FFD9         	movff	___simple_search_fl@best,fsr2l
  3828  000D02  C0C8  FFDA         	movff	___simple_search_fl@best+1,fsr2h
  3829  000D06  C0C5  FFE1         	movff	___simple_search_fl@c,fsr1l
  3830  000D0A  C0C6  FFE2         	movff	___simple_search_fl@c+1,fsr1h
  3831  000D0E  50DE               	movf	postinc2,w,c
  3832  000D10  5CE6               	subwf	postinc1,w,c
  3833  000D12  50DE               	movf	postinc2,w,c
  3834  000D14  58E6               	subwfb	postinc1,w,c
  3835  000D16  A0D8               	btfss	status,0,c
  3836  000D18  EF90  F006         	goto	u4381
  3837  000D1C  EF92  F006         	goto	u4380
  3838  000D20                     u4381:
  3839  000D20  EF94  F006         	goto	l5824
  3840  000D24                     u4380:
  3841  000D24  EF9C  F006         	goto	l1713
  3842  000D28                     l5824:
  3843                           
  3844                           ; BSR set to: 0
  3845  000D28  C0C5  F0C7         	movff	___simple_search_fl@c,___simple_search_fl@best
  3846  000D2C  C0C6  F0C8         	movff	___simple_search_fl@c+1,___simple_search_fl@best+1
  3847  000D30  C0C1  F0BD         	movff	___simple_search_fl@last,___simple_search_fl@best_last
  3848  000D34  C0C2  F0BE         	movff	___simple_search_fl@last+1,___simple_search_fl@best_last+1
  3849  000D38                     l1713:
  3850                           
  3851                           ; BSR set to: 0
  3852  000D38  C0C5  F0C1         	movff	___simple_search_fl@c,___simple_search_fl@last
  3853  000D3C  C0C6  F0C2         	movff	___simple_search_fl@c+1,___simple_search_fl@last+1
  3854  000D40                     
  3855                           ; BSR set to: 0
  3856  000D40  EE20 F002          	lfsr	2,2
  3857  000D44  51C5               	movf	___simple_search_fl@c& (0+255),w,b
  3858  000D46  26D9               	addwf	fsr2l,f,c
  3859  000D48  51C6               	movf	(___simple_search_fl@c+1)& (0+255),w,b
  3860  000D4A  22DA               	addwfc	fsr2h,f,c
  3861  000D4C  CFDE F0C5          	movff	postinc2,___simple_search_fl@c
  3862  000D50  CFDD F0C6          	movff	postdec2,___simple_search_fl@c+1
  3863  000D54                     l5828:
  3864                           
  3865                           ; BSR set to: 0
  3866  000D54  51C5               	movf	___simple_search_fl@c& (0+255),w,b
  3867  000D56  11C6               	iorwf	(___simple_search_fl@c+1)& (0+255),w,b
  3868  000D58  A4D8               	btfss	status,2,c
  3869  000D5A  EFB1  F006         	goto	u4391
  3870  000D5E  EFB3  F006         	goto	u4390
  3871  000D62                     u4391:
  3872  000D62  EF2A  F006         	goto	l5804
  3873  000D66                     u4390:
  3874  000D66                     
  3875                           ; BSR set to: 0
  3876  000D66  51C7               	movf	___simple_search_fl@best& (0+255),w,b
  3877  000D68  11C8               	iorwf	(___simple_search_fl@best+1)& (0+255),w,b
  3878  000D6A  B4D8               	btfsc	status,2,c
  3879  000D6C  EFBA  F006         	goto	u4401
  3880  000D70  EFBC  F006         	goto	u4400
  3881  000D74                     u4401:
  3882  000D74  EF1E  F006         	goto	l5798
  3883  000D78                     u4400:
  3884  000D78                     
  3885                           ; BSR set to: 0
  3886  000D78  EE20 F002          	lfsr	2,2
  3887  000D7C  51C7               	movf	___simple_search_fl@best& (0+255),w,b
  3888  000D7E  26D9               	addwf	fsr2l,f,c
  3889  000D80  51C8               	movf	(___simple_search_fl@best+1)& (0+255),w,b
  3890  000D82  22DA               	addwfc	fsr2h,f,c
  3891  000D84  CFDE F0C3          	movff	postinc2,___simple_search_fl@next
  3892  000D88  CFDD F0C4          	movff	postdec2,___simple_search_fl@next+1
  3893  000D8C  C0C7  FFD9         	movff	___simple_search_fl@best,fsr2l
  3894  000D90  C0C8  FFDA         	movff	___simple_search_fl@best+1,fsr2h
  3895  000D94  CFDE F0B7          	movff	postinc2,??___simple_search_fl
  3896  000D98  CFDD F0B8          	movff	postdec2,??___simple_search_fl+1
  3897  000D9C  51B5               	movf	___simple_search_fl@n& (0+255),w,b
  3898  000D9E  5FB7               	subwf	??___simple_search_fl& (0+255),f,b
  3899  000DA0  51B6               	movf	(___simple_search_fl@n+1)& (0+255),w,b
  3900  000DA2  5BB8               	subwfb	(??___simple_search_fl+1)& (0+255),f,b
  3901  000DA4  51B8               	movf	(??___simple_search_fl+1)& (0+255),w,b
  3902  000DA6  E109               	bnz	u4410
  3903  000DA8  0E05               	movlw	5
  3904  000DAA  5DB7               	subwf	??___simple_search_fl& (0+255),w,b
  3905  000DAC  A0D8               	btfss	status,0,c
  3906  000DAE  EFDB  F006         	goto	u4411
  3907  000DB2  EFDD  F006         	goto	u4410
  3908  000DB6                     u4411:
  3909  000DB6  EF23  F007         	goto	l1716
  3910  000DBA                     u4410:
  3911  000DBA                     
  3912                           ; BSR set to: 0
  3913  000DBA  C0C7  FFD9         	movff	___simple_search_fl@best,fsr2l
  3914  000DBE  C0C8  FFDA         	movff	___simple_search_fl@best+1,fsr2h
  3915  000DC2  CFDE F0B7          	movff	postinc2,??___simple_search_fl
  3916  000DC6  CFDD F0B8          	movff	postdec2,??___simple_search_fl+1
  3917  000DCA  51B5               	movf	___simple_search_fl@n& (0+255),w,b
  3918  000DCC  5FB7               	subwf	??___simple_search_fl& (0+255),f,b
  3919  000DCE  51B6               	movf	(___simple_search_fl@n+1)& (0+255),w,b
  3920  000DD0  5BB8               	subwfb	(??___simple_search_fl+1)& (0+255),f,b
  3921  000DD2  0EFE               	movlw	254
  3922  000DD4  25B7               	addwf	??___simple_search_fl& (0+255),w,b
  3923  000DD6  6FBB               	movwf	___simple_search_fl@remaining_size& (0+255),b
  3924  000DD8  0EFF               	movlw	255
  3925  000DDA  21B8               	addwfc	(??___simple_search_fl+1)& (0+255),w,b
  3926  000DDC  6FBC               	movwf	(___simple_search_fl@remaining_size+1)& (0+255),b
  3927  000DDE                     
  3928                           ; BSR set to: 0
  3929  000DDE  C0C7  FFD9         	movff	___simple_search_fl@best,fsr2l
  3930  000DE2  C0C8  FFDA         	movff	___simple_search_fl@best+1,fsr2h
  3931  000DE6  C0B5  FFDE         	movff	___simple_search_fl@n,postinc2
  3932  000DEA  C0B6  FFDD         	movff	___simple_search_fl@n+1,postdec2
  3933  000DEE                     
  3934                           ; BSR set to: 0
  3935  000DEE  C0C7  FFD9         	movff	___simple_search_fl@best,fsr2l
  3936  000DF2  C0C8  FFDA         	movff	___simple_search_fl@best+1,fsr2h
  3937  000DF6  CFDE F0B7          	movff	postinc2,??___simple_search_fl
  3938  000DFA  CFDD F0B8          	movff	postdec2,??___simple_search_fl+1
  3939  000DFE  C0C7  F0B9         	movff	___simple_search_fl@best,??___simple_search_fl+2
  3940  000E02  C0C8  F0BA         	movff	___simple_search_fl@best+1,??___simple_search_fl+3
  3941  000E06  51B7               	movf	??___simple_search_fl& (0+255),w,b
  3942  000E08  27B9               	addwf	(??___simple_search_fl+2)& (0+255),f,b
  3943  000E0A  51B8               	movf	(??___simple_search_fl+1)& (0+255),w,b
  3944  000E0C  23BA               	addwfc	(??___simple_search_fl+3)& (0+255),f,b
  3945  000E0E  0E02               	movlw	2
  3946  000E10  25B9               	addwf	(??___simple_search_fl+2)& (0+255),w,b
  3947  000E12  6FBF               	movwf	___simple_search_fl@split& (0+255),b
  3948  000E14  0E00               	movlw	0
  3949  000E16  21BA               	addwfc	(??___simple_search_fl+3)& (0+255),w,b
  3950  000E18  6FC0               	movwf	(___simple_search_fl@split+1)& (0+255),b
  3951  000E1A  C0BF  FFD9         	movff	___simple_search_fl@split,fsr2l
  3952  000E1E  C0C0  FFDA         	movff	___simple_search_fl@split+1,fsr2h
  3953  000E22  C0BB  FFDE         	movff	___simple_search_fl@remaining_size,postinc2
  3954  000E26  C0BC  FFDD         	movff	___simple_search_fl@remaining_size+1,postdec2
  3955  000E2A                     
  3956                           ; BSR set to: 0
  3957  000E2A  EE20 F002          	lfsr	2,2
  3958  000E2E  51BF               	movf	___simple_search_fl@split& (0+255),w,b
  3959  000E30  26D9               	addwf	fsr2l,f,c
  3960  000E32  51C0               	movf	(___simple_search_fl@split+1)& (0+255),w,b
  3961  000E34  22DA               	addwfc	fsr2h,f,c
  3962  000E36  C0C3  FFDE         	movff	___simple_search_fl@next,postinc2
  3963  000E3A  C0C4  FFDD         	movff	___simple_search_fl@next+1,postdec2
  3964  000E3E  C0BF  F0C3         	movff	___simple_search_fl@split,___simple_search_fl@next
  3965  000E42  C0C0  F0C4         	movff	___simple_search_fl@split+1,___simple_search_fl@next+1
  3966  000E46                     l1716:
  3967                           
  3968                           ; BSR set to: 0
  3969  000E46  51C7               	movf	___simple_search_fl@best& (0+255),w,b
  3970  000E48  1834               	xorwf	___freelist^0,w,c
  3971  000E4A  E107               	bnz	u4421
  3972  000E4C  51C8               	movf	(___simple_search_fl@best+1)& (0+255),w,b
  3973  000E4E  1835               	xorwf	(___freelist+1)^0,w,c
  3974  000E50  A4D8               	btfss	status,2,c
  3975  000E52  EF2D  F007         	goto	u4421
  3976  000E56  EF2F  F007         	goto	u4420
  3977  000E5A                     u4421:
  3978  000E5A  EF35  F007         	goto	l5844
  3979  000E5E                     u4420:
  3980  000E5E                     
  3981                           ; BSR set to: 0
  3982  000E5E  C0C3  F034         	movff	___simple_search_fl@next,___freelist
  3983  000E62  C0C4  F035         	movff	___simple_search_fl@next+1,___freelist+1
  3984  000E66  EF3F  F007         	goto	l5846
  3985  000E6A                     l5844:
  3986                           
  3987                           ; BSR set to: 0
  3988  000E6A  EE20 F002          	lfsr	2,2
  3989  000E6E  51BD               	movf	___simple_search_fl@best_last& (0+255),w,b
  3990  000E70  26D9               	addwf	fsr2l,f,c
  3991  000E72  51BE               	movf	(___simple_search_fl@best_last+1)& (0+255),w,b
  3992  000E74  22DA               	addwfc	fsr2h,f,c
  3993  000E76  C0C3  FFDE         	movff	___simple_search_fl@next,postinc2
  3994  000E7A  C0C4  FFDD         	movff	___simple_search_fl@next+1,postdec2
  3995  000E7E                     l5846:
  3996                           
  3997                           ; BSR set to: 0
  3998  000E7E  0E02               	movlw	2
  3999  000E80  25C7               	addwf	___simple_search_fl@best& (0+255),w,b
  4000  000E82  6FB5               	movwf	?___simple_search_fl& (0+255),b
  4001  000E84  0E00               	movlw	0
  4002  000E86  21C8               	addwfc	(___simple_search_fl@best+1)& (0+255),w,b
  4003  000E88  6FB6               	movwf	(?___simple_search_fl+1)& (0+255),b
  4004  000E8A                     l1705:
  4005                           
  4006                           ; BSR set to: 0
  4007  000E8A  0012               	return		;funcret
  4008  000E8C                     __end_of___simple_search_fl:
  4009                           	callstack 0
  4010                           
  4011 ;; *************** function ___expand_heap *****************
  4012 ;; Defined at:
  4013 ;;		line 14 in file "/Applications/microchip/xc8/v2.36/pic/sources/c99/common/expand_heap.c"
  4014 ;; Parameters:    Size  Location     Type
  4015 ;;  pn              2    0[BANK0 ] PTR unsigned int 
  4016 ;;		 -> malloc@m(2), 
  4017 ;; Auto vars:     Size  Location     Type
  4018 ;;  new_brkp        2    6[BANK0 ] PTR unsigned char 
  4019 ;;		 -> __heap_hi(0), NULL(0), 
  4020 ;;  n               2    4[BANK0 ] unsigned int 
  4021 ;; Return value:  Size  Location     Type
  4022 ;;                  2    0[BANK0 ] PTR void 
  4023 ;; Registers used:
  4024 ;;		wreg, fsr2l, fsr2h, status,2, status,0
  4025 ;; Tracked objects:
  4026 ;;		On entry : 0/0
  4027 ;;		On exit  : 0/0
  4028 ;;		Unchanged: 0/0
  4029 ;; Data sizes:     COMRAM   BANK0   BANK1   BANK2   BANK3   BANK4   BANK5   BANK6   BANK7
  4030 ;;      Params:         0       2       0       0       0       0       0       0       0
  4031 ;;      Locals:         0       4       0       0       0       0       0       0       0
  4032 ;;      Temps:          0       2       0       0       0       0       0       0       0
  4033 ;;      Totals:         0       8       0       0       0       0       0       0       0
  4034 ;;Total ram usage:        8 bytes
  4035 ;; Hardware stack levels used: 1
  4036 ;; Hardware stack levels required when called: 10
  4037 ;; This function calls:
  4038 ;;		Nothing
  4039 ;; This function is called by:
  4040 ;;		_malloc
  4041 ;; This function uses a non-reentrant model
  4042 ;;
  4043                           
  4044                           	psect	text24
  4045  002C16                     __ptext24:
  4046                           	callstack 0
  4047  002C16                     ___expand_heap:
  4048                           	callstack 18
  4049  002C16  C0B5  FFD9         	movff	___expand_heap@pn,fsr2l
  4050  002C1A  C0B6  FFDA         	movff	___expand_heap@pn+1,fsr2h
  4051  002C1E  CFDE F0B9          	movff	postinc2,___expand_heap@n
  4052  002C22  CFDD F0BA          	movff	postdec2,___expand_heap@n+1
  4053  002C26  5030               	movf	_brkp^0,w,c
  4054  002C28  1031               	iorwf	(_brkp+1)^0,w,c
  4055  002C2A  A4D8               	btfss	status,2,c
  4056  002C2C  EF1A  F016         	goto	u4431
  4057  002C30  EF1C  F016         	goto	u4430
  4058  002C34                     u4431:
  4059  002C34  EF20  F016         	goto	l1761
  4060  002C38                     u4430:
  4061  002C38  0E00               	movlw	low ___heap_hi
  4062  002C3A  6E30               	movwf	_brkp^0,c
  4063  002C3C  0E08               	movlw	high ___heap_hi
  4064  002C3E  6E31               	movwf	(_brkp+1)^0,c
  4065  002C40                     l1761:
  4066  002C40  0100               	movlb	0	; () banked
  4067  002C42  51BA               	movf	(___expand_heap@n+1)& (0+255),w,b
  4068  002C44  E107               	bnz	u4441
  4069  002C46  0E06               	movlw	6
  4070  002C48  5DB9               	subwf	___expand_heap@n& (0+255),w,b
  4071  002C4A  B0D8               	btfsc	status,0,c
  4072  002C4C  EF2A  F016         	goto	u4441
  4073  002C50  EF2C  F016         	goto	u4440
  4074  002C54                     u4441:
  4075  002C54  EF30  F016         	goto	l5862
  4076  002C58                     u4440:
  4077  002C58                     
  4078                           ; BSR set to: 0
  4079  002C58  0E00               	movlw	0
  4080  002C5A  6FBA               	movwf	(___expand_heap@n+1)& (0+255),b
  4081  002C5C  0E06               	movlw	6
  4082  002C5E  6FB9               	movwf	___expand_heap@n& (0+255),b
  4083  002C60                     l5862:
  4084                           
  4085                           ; BSR set to: 0
  4086  002C60  51B9               	movf	___expand_heap@n& (0+255),w,b
  4087  002C62  5C30               	subwf	_brkp^0,w,c
  4088  002C64  6FBB               	movwf	___expand_heap@new_brkp& (0+255),b
  4089  002C66  51BA               	movf	(___expand_heap@n+1)& (0+255),w,b
  4090  002C68  5831               	subwfb	(_brkp+1)^0,w,c
  4091  002C6A  6FBC               	movwf	(___expand_heap@new_brkp+1)& (0+255),b
  4092  002C6C                     
  4093                           ; BSR set to: 0
  4094  002C6C  0E80               	movlw	low ___heap_lo
  4095  002C6E  6FB7               	movwf	??___expand_heap& (0+255),b
  4096  002C70  0E05               	movlw	high ___heap_lo
  4097  002C72  6FB8               	movwf	(??___expand_heap+1)& (0+255),b
  4098  002C74  51B7               	movf	??___expand_heap& (0+255),w,b
  4099  002C76  5DBB               	subwf	___expand_heap@new_brkp& (0+255),w,b
  4100  002C78  51B8               	movf	(??___expand_heap+1)& (0+255),w,b
  4101  002C7A  59BC               	subwfb	(___expand_heap@new_brkp+1)& (0+255),w,b
  4102  002C7C  A0D8               	btfss	status,0,c
  4103  002C7E  EF43  F016         	goto	u4451
  4104  002C82  EF45  F016         	goto	u4450
  4105  002C86                     u4451:
  4106  002C86  EF50  F016         	goto	l5868
  4107  002C8A                     u4450:
  4108  002C8A                     
  4109                           ; BSR set to: 0
  4110  002C8A  5030               	movf	_brkp^0,w,c
  4111  002C8C  5DBB               	subwf	___expand_heap@new_brkp& (0+255),w,b
  4112  002C8E  5031               	movf	(_brkp+1)^0,w,c
  4113  002C90  59BC               	subwfb	(___expand_heap@new_brkp+1)& (0+255),w,b
  4114  002C92  A0D8               	btfss	status,0,c
  4115  002C94  EF4E  F016         	goto	u4461
  4116  002C98  EF50  F016         	goto	u4460
  4117  002C9C                     u4461:
  4118  002C9C  EF5A  F016         	goto	l5874
  4119  002CA0                     u4460:
  4120  002CA0                     l5868:
  4121                           
  4122                           ; BSR set to: 0
  4123  002CA0  0E00               	movlw	0
  4124  002CA2  6F99               	movwf	(_errno+1)& (0+255),b
  4125  002CA4  0E0C               	movlw	12
  4126  002CA6  6F98               	movwf	_errno& (0+255),b
  4127  002CA8                     
  4128                           ; BSR set to: 0
  4129  002CA8  0E00               	movlw	0
  4130  002CAA  6FB5               	movwf	?___expand_heap& (0+255),b
  4131  002CAC  0E00               	movlw	0
  4132  002CAE  6FB6               	movwf	(?___expand_heap+1)& (0+255),b
  4133  002CB0  EF62  F016         	goto	l1766
  4134  002CB4                     l5874:
  4135                           
  4136                           ; BSR set to: 0
  4137  002CB4  C0BB  F030         	movff	___expand_heap@new_brkp,_brkp
  4138  002CB8  C0BC  F031         	movff	___expand_heap@new_brkp+1,_brkp+1
  4139  002CBC  C030  F0B5         	movff	_brkp,?___expand_heap
  4140  002CC0  C031  F0B6         	movff	_brkp+1,?___expand_heap+1
  4141  002CC4                     l1766:
  4142                           
  4143                           ; BSR set to: 0
  4144  002CC4  0012               	return		;funcret
  4145  002CC6                     __end_of___expand_heap:
  4146                           	callstack 0
  4147                           
  4148 ;; *************** function _FilaPop *****************
  4149 ;; Defined at:
  4150 ;;		line 37 in file "fila.c"
  4151 ;; Parameters:    Size  Location     Type
  4152 ;;  fila            2   10[BANK0 ] PTR struct Fila_T
  4153 ;;		 -> main@CommandList(6), 
  4154 ;; Auto vars:     Size  Location     Type
  4155 ;;  viejo           2   18[BANK0 ] PTR struct NodoComando_T
  4156 ;;		 -> __heap_hi(0), RAM(2047), NULL(0), 
  4157 ;;  r               2   16[BANK0 ] PTR unsigned char 
  4158 ;;		 -> __heap_hi(0), RAM(2047), NULL(0), 
  4159 ;; Return value:  Size  Location     Type
  4160 ;;                  2   10[BANK0 ] PTR unsigned char 
  4161 ;; Registers used:
  4162 ;;		wreg, fsr1l, fsr1h, fsr2l, fsr2h, status,2, status,0, cstack
  4163 ;; Tracked objects:
  4164 ;;		On entry : 0/0
  4165 ;;		On exit  : 0/0
  4166 ;;		Unchanged: 0/0
  4167 ;; Data sizes:     COMRAM   BANK0   BANK1   BANK2   BANK3   BANK4   BANK5   BANK6   BANK7
  4168 ;;      Params:         0       2       0       0       0       0       0       0       0
  4169 ;;      Locals:         0       4       0       0       0       0       0       0       0
  4170 ;;      Temps:          0       4       0       0       0       0       0       0       0
  4171 ;;      Totals:         0      10       0       0       0       0       0       0       0
  4172 ;;Total ram usage:       10 bytes
  4173 ;; Hardware stack levels used: 1
  4174 ;; Hardware stack levels required when called: 11
  4175 ;; This function calls:
  4176 ;;		_free
  4177 ;; This function is called by:
  4178 ;;		_main
  4179 ;; This function uses a non-reentrant model
  4180 ;;
  4181                           
  4182                           	psect	text25
  4183  001BF8                     __ptext25:
  4184                           	callstack 0
  4185  001BF8                     _FilaPop:
  4186                           	callstack 19
  4187  001BF8                     
  4188                           ;fila.c: 38:    char* r;;fila.c: 39:    NodoComando_T* viejo;;fila.c: 40:    if(fila->si
      +                          ze>0){
  4189  001BF8  0100               	movlb	0	; () banked
  4190  001BFA  EE20 F004          	lfsr	2,4
  4191  001BFE  51BF               	movf	FilaPop@fila& (0+255),w,b
  4192  001C00  26D9               	addwf	fsr2l,f,c
  4193  001C02  51C0               	movf	(FilaPop@fila+1)& (0+255),w,b
  4194  001C04  22DA               	addwfc	fsr2h,f,c
  4195  001C06  0E01               	movlw	1
  4196  001C08  BEDB               	btfsc	plusw2,7,c
  4197  001C0A  EF10  F00E         	goto	u4861
  4198  001C0E  0E01               	movlw	1
  4199  001C10  50DB               	movf	plusw2,w,c
  4200  001C12  E108               	bnz	u4860
  4201  001C14  04DE               	decf	postinc2,w,c
  4202  001C16  A0D8               	btfss	status,0,c
  4203  001C18  EF10  F00E         	goto	u4861
  4204  001C1C  EF12  F00E         	goto	u4860
  4205  001C20                     u4861:
  4206  001C20  EF99  F00E         	goto	l6282
  4207  001C24                     u4860:
  4208  001C24                     
  4209                           ; BSR set to: 0
  4210                           ;fila.c: 41:       fila->size=fila->size-1;
  4211  001C24  0EFF               	movlw	255
  4212  001C26  6FC1               	movwf	??_FilaPop& (0+255),b
  4213  001C28  0EFF               	movlw	255
  4214  001C2A  6FC2               	movwf	(??_FilaPop+1)& (0+255),b
  4215  001C2C  EE20 F004          	lfsr	2,4
  4216  001C30  51BF               	movf	FilaPop@fila& (0+255),w,b
  4217  001C32  26D9               	addwf	fsr2l,f,c
  4218  001C34  51C0               	movf	(FilaPop@fila+1)& (0+255),w,b
  4219  001C36  22DA               	addwfc	fsr2h,f,c
  4220  001C38  CFDE F0C3          	movff	postinc2,??_FilaPop+2
  4221  001C3C  CFDD F0C4          	movff	postdec2,??_FilaPop+3
  4222  001C40  51C1               	movf	??_FilaPop& (0+255),w,b
  4223  001C42  27C3               	addwf	(??_FilaPop+2)& (0+255),f,b
  4224  001C44  51C2               	movf	(??_FilaPop+1)& (0+255),w,b
  4225  001C46  23C4               	addwfc	(??_FilaPop+3)& (0+255),f,b
  4226  001C48  EE20 F004          	lfsr	2,4
  4227  001C4C  51BF               	movf	FilaPop@fila& (0+255),w,b
  4228  001C4E  26D9               	addwf	fsr2l,f,c
  4229  001C50  51C0               	movf	(FilaPop@fila+1)& (0+255),w,b
  4230  001C52  22DA               	addwfc	fsr2h,f,c
  4231  001C54  C0C3  FFDE         	movff	??_FilaPop+2,postinc2
  4232  001C58  C0C4  FFDD         	movff	??_FilaPop+3,postdec2
  4233  001C5C                     
  4234                           ; BSR set to: 0
  4235                           ;fila.c: 42:       r=fila->cabeza->comando;
  4236  001C5C  C0BF  FFD9         	movff	FilaPop@fila,fsr2l
  4237  001C60  C0C0  FFDA         	movff	FilaPop@fila+1,fsr2h
  4238  001C64  CFDE F0C1          	movff	postinc2,??_FilaPop
  4239  001C68  CFDD F0C2          	movff	postdec2,??_FilaPop+1
  4240  001C6C  C0C1  FFD9         	movff	??_FilaPop,fsr2l
  4241  001C70  C0C2  FFDA         	movff	??_FilaPop+1,fsr2h
  4242  001C74  CFDE F0C5          	movff	postinc2,FilaPop@r
  4243  001C78  CFDD F0C6          	movff	postdec2,FilaPop@r+1
  4244  001C7C                     
  4245                           ; BSR set to: 0
  4246                           ;fila.c: 43:       viejo=fila->cabeza;
  4247  001C7C  C0BF  FFD9         	movff	FilaPop@fila,fsr2l
  4248  001C80  C0C0  FFDA         	movff	FilaPop@fila+1,fsr2h
  4249  001C84  CFDE F0C7          	movff	postinc2,FilaPop@viejo
  4250  001C88  CFDD F0C8          	movff	postdec2,FilaPop@viejo+1
  4251  001C8C                     
  4252                           ; BSR set to: 0
  4253                           ;fila.c: 44:       fila->cabeza=fila->cabeza->next;
  4254  001C8C  C0BF  FFD9         	movff	FilaPop@fila,fsr2l
  4255  001C90  C0C0  FFDA         	movff	FilaPop@fila+1,fsr2h
  4256  001C94  EE10 F002          	lfsr	1,2
  4257  001C98  50DE               	movf	postinc2,w,c
  4258  001C9A  26E1               	addwf	fsr1l,f,c
  4259  001C9C  50DD               	movf	postdec2,w,c
  4260  001C9E  22E2               	addwfc	fsr1h,f,c
  4261  001CA0  C0BF  FFD9         	movff	FilaPop@fila,fsr2l
  4262  001CA4  C0C0  FFDA         	movff	FilaPop@fila+1,fsr2h
  4263  001CA8  CFE6 FFDE          	movff	postinc1,postinc2
  4264  001CAC  CFE5 FFDD          	movff	postdec1,postdec2
  4265  001CB0                     
  4266                           ; BSR set to: 0
  4267                           ;fila.c: 45:       if(fila->size==0){
  4268  001CB0  EE20 F004          	lfsr	2,4
  4269  001CB4  51BF               	movf	FilaPop@fila& (0+255),w,b
  4270  001CB6  26D9               	addwf	fsr2l,f,c
  4271  001CB8  51C0               	movf	(FilaPop@fila+1)& (0+255),w,b
  4272  001CBA  22DA               	addwfc	fsr2h,f,c
  4273  001CBC  50DE               	movf	postinc2,w,c
  4274  001CBE  10DE               	iorwf	postinc2,w,c
  4275  001CC0  A4D8               	btfss	status,2,c
  4276  001CC2  EF65  F00E         	goto	u4871
  4277  001CC6  EF67  F00E         	goto	u4870
  4278  001CCA                     u4871:
  4279  001CCA  EF7B  F00E         	goto	l6274
  4280  001CCE                     u4870:
  4281  001CCE                     
  4282                           ; BSR set to: 0
  4283                           ;fila.c: 46:          fila->cola=((void*)0);
  4284  001CCE  EE20 F002          	lfsr	2,2
  4285  001CD2  51BF               	movf	FilaPop@fila& (0+255),w,b
  4286  001CD4  26D9               	addwf	fsr2l,f,c
  4287  001CD6  51C0               	movf	(FilaPop@fila+1)& (0+255),w,b
  4288  001CD8  22DA               	addwfc	fsr2h,f,c
  4289  001CDA  0E00               	movlw	0
  4290  001CDC  6EDE               	movwf	postinc2,c
  4291  001CDE  0E00               	movlw	0
  4292  001CE0  6EDD               	movwf	postdec2,c
  4293  001CE2                     
  4294                           ; BSR set to: 0
  4295                           ;fila.c: 47:          fila->cabeza=((void*)0);
  4296  001CE2  C0BF  FFD9         	movff	FilaPop@fila,fsr2l
  4297  001CE6  C0C0  FFDA         	movff	FilaPop@fila+1,fsr2h
  4298  001CEA  0E00               	movlw	0
  4299  001CEC  6EDE               	movwf	postinc2,c
  4300  001CEE  0E00               	movlw	0
  4301  001CF0  6EDD               	movwf	postdec2,c
  4302                           
  4303                           ;fila.c: 48:       }
  4304  001CF2  EF8D  F00E         	goto	l6276
  4305  001CF6                     l6274:
  4306                           
  4307                           ; BSR set to: 0
  4308                           ;fila.c: 50:          fila->cabeza=fila->cabeza->next;
  4309  001CF6  C0BF  FFD9         	movff	FilaPop@fila,fsr2l
  4310  001CFA  C0C0  FFDA         	movff	FilaPop@fila+1,fsr2h
  4311  001CFE  EE10 F002          	lfsr	1,2
  4312  001D02  50DE               	movf	postinc2,w,c
  4313  001D04  26E1               	addwf	fsr1l,f,c
  4314  001D06  50DD               	movf	postdec2,w,c
  4315  001D08  22E2               	addwfc	fsr1h,f,c
  4316  001D0A  C0BF  FFD9         	movff	FilaPop@fila,fsr2l
  4317  001D0E  C0C0  FFDA         	movff	FilaPop@fila+1,fsr2h
  4318  001D12  CFE6 FFDE          	movff	postinc1,postinc2
  4319  001D16  CFE5 FFDD          	movff	postdec1,postdec2
  4320  001D1A                     l6276:
  4321                           
  4322                           ; BSR set to: 0
  4323                           ;fila.c: 52:       free(viejo);
  4324  001D1A  C0C7  F0B5         	movff	FilaPop@viejo,free@ptr
  4325  001D1E  C0C8  F0B6         	movff	FilaPop@viejo+1,free@ptr+1
  4326  001D22  EC57  F00B         	call	_free	;wreg free
  4327  001D26                     
  4328                           ;fila.c: 53:       return r;
  4329  001D26  C0C5  F0BF         	movff	FilaPop@r,?_FilaPop
  4330  001D2A  C0C6  F0C0         	movff	FilaPop@r+1,?_FilaPop+1
  4331  001D2E  EF9D  F00E         	goto	l1025
  4332  001D32                     l6282:
  4333                           
  4334                           ; BSR set to: 0
  4335                           ;fila.c: 55:    return 0;
  4336  001D32  0E00               	movlw	0
  4337  001D34  6FBF               	movwf	?_FilaPop& (0+255),b
  4338  001D36  0E00               	movlw	0
  4339  001D38  6FC0               	movwf	(?_FilaPop+1)& (0+255),b
  4340  001D3A                     l1025:
  4341  001D3A  0012               	return		;funcret
  4342  001D3C                     __end_of_FilaPop:
  4343                           	callstack 0
  4344                           
  4345 ;; *************** function _free *****************
  4346 ;; Defined at:
  4347 ;;		line 67 in file "/Applications/microchip/xc8/v2.36/pic/sources/c99/common/lite_free.c"
  4348 ;; Parameters:    Size  Location     Type
  4349 ;;  ptr             2    0[BANK0 ] PTR void 
  4350 ;;		 -> __heap_hi(0), RAM(2047), NULL(0), 
  4351 ;; Auto vars:     Size  Location     Type
  4352 ;;  c               2    8[BANK0 ] PTR struct chunk
  4353 ;;		 -> __heap_hi(0), RAM(2047), NULL(0), 
  4354 ;;  cptr            2    6[BANK0 ] PTR unsigned char 
  4355 ;;		 -> __heap_hi(0), RAM(2047), NULL(0), 
  4356 ;; Return value:  Size  Location     Type
  4357 ;;                  1    wreg      void 
  4358 ;; Registers used:
  4359 ;;		wreg, fsr1l, fsr1h, fsr2l, fsr2h, status,2, status,0
  4360 ;; Tracked objects:
  4361 ;;		On entry : 0/0
  4362 ;;		On exit  : 0/0
  4363 ;;		Unchanged: 0/0
  4364 ;; Data sizes:     COMRAM   BANK0   BANK1   BANK2   BANK3   BANK4   BANK5   BANK6   BANK7
  4365 ;;      Params:         0       2       0       0       0       0       0       0       0
  4366 ;;      Locals:         0       4       0       0       0       0       0       0       0
  4367 ;;      Temps:          0       4       0       0       0       0       0       0       0
  4368 ;;      Totals:         0      10       0       0       0       0       0       0       0
  4369 ;;Total ram usage:       10 bytes
  4370 ;; Hardware stack levels used: 1
  4371 ;; Hardware stack levels required when called: 10
  4372 ;; This function calls:
  4373 ;;		Nothing
  4374 ;; This function is called by:
  4375 ;;		_FilaPop
  4376 ;; This function uses a non-reentrant model
  4377 ;;
  4378                           
  4379                           	psect	text26
  4380  0016AE                     __ptext26:
  4381                           	callstack 0
  4382  0016AE                     _free:
  4383                           	callstack 19
  4384  0016AE  C0B5  F0BB         	movff	free@ptr,free@cptr
  4385  0016B2  C0B6  F0BC         	movff	free@ptr+1,free@cptr+1
  4386  0016B6  0100               	movlb	0	; () banked
  4387  0016B8  51B5               	movf	free@ptr& (0+255),w,b
  4388  0016BA  11B6               	iorwf	(free@ptr+1)& (0+255),w,b
  4389  0016BC  A4D8               	btfss	status,2,c
  4390  0016BE  EF63  F00B         	goto	u4721
  4391  0016C2  EF65  F00B         	goto	u4720
  4392  0016C6                     u4721:
  4393  0016C6  EF67  F00B         	goto	l6144
  4394  0016CA                     u4720:
  4395  0016CA  EF0A  F00C         	goto	l1722
  4396  0016CE                     l6144:
  4397                           
  4398                           ; BSR set to: 0
  4399  0016CE  0EFE               	movlw	254
  4400  0016D0  25BB               	addwf	free@cptr& (0+255),w,b
  4401  0016D2  6FBD               	movwf	free@c& (0+255),b
  4402  0016D4  0EFF               	movlw	255
  4403  0016D6  21BC               	addwfc	(free@cptr+1)& (0+255),w,b
  4404  0016D8  6FBE               	movwf	(free@c+1)& (0+255),b
  4405  0016DA  5034               	movf	___freelist^0,w,c
  4406  0016DC  1035               	iorwf	(___freelist+1)^0,w,c
  4407  0016DE  B4D8               	btfsc	status,2,c
  4408  0016E0  EF74  F00B         	goto	u4731
  4409  0016E4  EF76  F00B         	goto	u4730
  4410  0016E8                     u4731:
  4411  0016E8  EFFE  F00B         	goto	l6166
  4412  0016EC                     u4730:
  4413  0016EC                     
  4414                           ; BSR set to: 0
  4415  0016EC  C0BD  FFD9         	movff	free@c,fsr2l
  4416  0016F0  C0BE  FFDA         	movff	free@c+1,fsr2h
  4417  0016F4  CFDE F0B7          	movff	postinc2,??_free
  4418  0016F8  CFDD F0B8          	movff	postdec2,??_free+1
  4419  0016FC  C0BB  F0B9         	movff	free@cptr,??_free+2
  4420  001700  C0BC  F0BA         	movff	free@cptr+1,??_free+3
  4421  001704  51B7               	movf	??_free& (0+255),w,b
  4422  001706  27B9               	addwf	(??_free+2)& (0+255),f,b
  4423  001708  51B8               	movf	(??_free+1)& (0+255),w,b
  4424  00170A  23BA               	addwfc	(??_free+3)& (0+255),f,b
  4425  00170C  5034               	movf	___freelist^0,w,c
  4426  00170E  19B9               	xorwf	(??_free+2)& (0+255),w,b
  4427  001710  E107               	bnz	u4741
  4428  001712  5035               	movf	(___freelist+1)^0,w,c
  4429  001714  19BA               	xorwf	(??_free+3)& (0+255),w,b
  4430  001716  A4D8               	btfss	status,2,c
  4431  001718  EF90  F00B         	goto	u4741
  4432  00171C  EF92  F00B         	goto	u4740
  4433  001720                     u4741:
  4434  001720  EFBC  F00B         	goto	l6158
  4435  001724                     u4740:
  4436  001724                     
  4437                           ; BSR set to: 0
  4438  001724  EE20 F002          	lfsr	2,2
  4439  001728  5034               	movf	___freelist^0,w,c
  4440  00172A  26D9               	addwf	fsr2l,f,c
  4441  00172C  5035               	movf	(___freelist+1)^0,w,c
  4442  00172E  22DA               	addwfc	fsr2h,f,c
  4443  001730  EE10 F002          	lfsr	1,2
  4444  001734  51BD               	movf	free@c& (0+255),w,b
  4445  001736  26E1               	addwf	fsr1l,f,c
  4446  001738  51BE               	movf	(free@c+1)& (0+255),w,b
  4447  00173A  22E2               	addwfc	fsr1h,f,c
  4448  00173C  CFDE FFE6          	movff	postinc2,postinc1
  4449  001740  CFDD FFE5          	movff	postdec2,postdec1
  4450  001744                     
  4451                           ; BSR set to: 0
  4452  001744  C034  FFD9         	movff	___freelist,fsr2l
  4453  001748  C035  FFDA         	movff	___freelist+1,fsr2h
  4454  00174C  CFDE F0B7          	movff	postinc2,??_free
  4455  001750  CFDD F0B8          	movff	postdec2,??_free+1
  4456  001754  0E02               	movlw	2
  4457  001756  27B7               	addwf	??_free& (0+255),f,b
  4458  001758  0E00               	movlw	0
  4459  00175A  23B8               	addwfc	(??_free+1)& (0+255),f,b
  4460  00175C  C0BD  FFD9         	movff	free@c,fsr2l
  4461  001760  C0BE  FFDA         	movff	free@c+1,fsr2h
  4462  001764  51B7               	movf	??_free& (0+255),w,b
  4463  001766  26DE               	addwf	postinc2,f,c
  4464  001768  51B8               	movf	(??_free+1)& (0+255),w,b
  4465  00176A  22DD               	addwfc	postdec2,f,c
  4466  00176C                     l6152:
  4467                           
  4468                           ; BSR set to: 0
  4469  00176C  C0BD  F034         	movff	free@c,___freelist
  4470  001770  C0BE  F035         	movff	free@c+1,___freelist+1
  4471  001774  EF0A  F00C         	goto	l1722
  4472  001778                     l6158:
  4473                           
  4474                           ; BSR set to: 0
  4475  001778  C034  FFD9         	movff	___freelist,fsr2l
  4476  00177C  C035  FFDA         	movff	___freelist+1,fsr2h
  4477  001780  CFDE F0B7          	movff	postinc2,??_free
  4478  001784  CFDD F0B8          	movff	postdec2,??_free+1
  4479  001788  C034  F0B9         	movff	___freelist,??_free+2
  4480  00178C  C035  F0BA         	movff	___freelist+1,??_free+3
  4481  001790  51B7               	movf	??_free& (0+255),w,b
  4482  001792  27B9               	addwf	(??_free+2)& (0+255),f,b
  4483  001794  51B8               	movf	(??_free+1)& (0+255),w,b
  4484  001796  23BA               	addwfc	(??_free+3)& (0+255),f,b
  4485  001798  0E02               	movlw	2
  4486  00179A  27B9               	addwf	(??_free+2)& (0+255),f,b
  4487  00179C  0E00               	movlw	0
  4488  00179E  23BA               	addwfc	(??_free+3)& (0+255),f,b
  4489  0017A0  51BD               	movf	free@c& (0+255),w,b
  4490  0017A2  19B9               	xorwf	(??_free+2)& (0+255),w,b
  4491  0017A4  E107               	bnz	u4751
  4492  0017A6  51BE               	movf	(free@c+1)& (0+255),w,b
  4493  0017A8  19BA               	xorwf	(??_free+3)& (0+255),w,b
  4494  0017AA  A4D8               	btfss	status,2,c
  4495  0017AC  EFDA  F00B         	goto	u4751
  4496  0017B0  EFDC  F00B         	goto	u4750
  4497  0017B4                     u4751:
  4498  0017B4  EFF2  F00B         	goto	l6164
  4499  0017B8                     u4750:
  4500  0017B8                     
  4501                           ; BSR set to: 0
  4502  0017B8  C0BD  FFD9         	movff	free@c,fsr2l
  4503  0017BC  C0BE  FFDA         	movff	free@c+1,fsr2h
  4504  0017C0  CFDE F0B7          	movff	postinc2,??_free
  4505  0017C4  CFDD F0B8          	movff	postdec2,??_free+1
  4506  0017C8  0E02               	movlw	2
  4507  0017CA  27B7               	addwf	??_free& (0+255),f,b
  4508  0017CC  0E00               	movlw	0
  4509  0017CE  23B8               	addwfc	(??_free+1)& (0+255),f,b
  4510  0017D0  C034  FFD9         	movff	___freelist,fsr2l
  4511  0017D4  C035  FFDA         	movff	___freelist+1,fsr2h
  4512  0017D8  51B7               	movf	??_free& (0+255),w,b
  4513  0017DA  26DE               	addwf	postinc2,f,c
  4514  0017DC  51B8               	movf	(??_free+1)& (0+255),w,b
  4515  0017DE  22DD               	addwfc	postdec2,f,c
  4516  0017E0  EF0A  F00C         	goto	l1722
  4517  0017E4                     l6164:
  4518                           
  4519                           ; BSR set to: 0
  4520  0017E4  EE20 F002          	lfsr	2,2
  4521  0017E8  51BD               	movf	free@c& (0+255),w,b
  4522  0017EA  26D9               	addwf	fsr2l,f,c
  4523  0017EC  51BE               	movf	(free@c+1)& (0+255),w,b
  4524  0017EE  22DA               	addwfc	fsr2h,f,c
  4525  0017F0  C034  FFDE         	movff	___freelist,postinc2
  4526  0017F4  C035  FFDD         	movff	___freelist+1,postdec2
  4527  0017F8  EFB6  F00B         	goto	l6152
  4528  0017FC                     l6166:
  4529                           
  4530                           ; BSR set to: 0
  4531  0017FC  EE20 F002          	lfsr	2,2
  4532  001800  51BD               	movf	free@c& (0+255),w,b
  4533  001802  26D9               	addwf	fsr2l,f,c
  4534  001804  51BE               	movf	(free@c+1)& (0+255),w,b
  4535  001806  22DA               	addwfc	fsr2h,f,c
  4536  001808  0E00               	movlw	0
  4537  00180A  6EDE               	movwf	postinc2,c
  4538  00180C  0E00               	movlw	0
  4539  00180E  6EDD               	movwf	postdec2,c
  4540  001810  EFB6  F00B         	goto	l6152
  4541  001814                     l1722:
  4542                           
  4543                           ; BSR set to: 0
  4544  001814  0012               	return		;funcret
  4545  001816                     __end_of_free:
  4546                           	callstack 0
  4547                           
  4548 ;; *************** function _INTERRUPT_InterruptManager *****************
  4549 ;; Defined at:
  4550 ;;		line 58 in file "mcc_generated_files/interrupt_manager.c"
  4551 ;; Parameters:    Size  Location     Type
  4552 ;;		None
  4553 ;; Auto vars:     Size  Location     Type
  4554 ;;		None
  4555 ;; Return value:  Size  Location     Type
  4556 ;;                  1    wreg      void 
  4557 ;; Registers used:
  4558 ;;		wreg, fsr0l, fsr0h, fsr1l, fsr1h, fsr2l, fsr2h, status,2, status,0, tblptrl, tblptrh, tblptru, prodl, prodh, cstack
  4559 ;; Tracked objects:
  4560 ;;		On entry : 0/0
  4561 ;;		On exit  : 0/0
  4562 ;;		Unchanged: 0/0
  4563 ;; Data sizes:     COMRAM   BANK0   BANK1   BANK2   BANK3   BANK4   BANK5   BANK6   BANK7
  4564 ;;      Params:         0       0       0       0       0       0       0       0       0
  4565 ;;      Locals:         0       0       0       0       0       0       0       0       0
  4566 ;;      Temps:         12       0       0       0       0       0       0       0       0
  4567 ;;      Totals:        12       0       0       0       0       0       0       0       0
  4568 ;;Total ram usage:       12 bytes
  4569 ;; Hardware stack levels used: 1
  4570 ;; Hardware stack levels required when called: 9
  4571 ;; This function calls:
  4572 ;;		_USBDeviceTasks
  4573 ;; This function is called by:
  4574 ;;		Interrupt level 2
  4575 ;; This function uses a non-reentrant model
  4576 ;;
  4577                           
  4578                           	psect	intcode
  4579  000008                     __pintcode:
  4580                           	callstack 0
  4581  000008                     _INTERRUPT_InterruptManager:
  4582                           	callstack 18
  4583                           
  4584                           ; BSR set to: 0
  4585                           ;incstack = 0
  4586  000008  8255               	bsf	int$flags,1,c	;set compiler interrupt flag (level 2)
  4587  00000A  CFE9 F020          	movff	fsr0l,??_INTERRUPT_InterruptManager
  4588  00000E  CFEA F021          	movff	fsr0h,??_INTERRUPT_InterruptManager+1
  4589  000012  CFE1 F022          	movff	fsr1l,??_INTERRUPT_InterruptManager+2
  4590  000016  CFE2 F023          	movff	fsr1h,??_INTERRUPT_InterruptManager+3
  4591  00001A  CFD9 F024          	movff	fsr2l,??_INTERRUPT_InterruptManager+4
  4592  00001E  CFDA F025          	movff	fsr2h,??_INTERRUPT_InterruptManager+5
  4593  000022  CFF3 F026          	movff	prodl,??_INTERRUPT_InterruptManager+6
  4594  000026  CFF4 F027          	movff	prodh,??_INTERRUPT_InterruptManager+7
  4595  00002A  CFF6 F028          	movff	tblptrl,??_INTERRUPT_InterruptManager+8
  4596  00002E  CFF7 F029          	movff	tblptrh,??_INTERRUPT_InterruptManager+9
  4597  000032  CFF8 F02A          	movff	tblptru,??_INTERRUPT_InterruptManager+10
  4598  000036  CFF5 F02B          	movff	tablat,??_INTERRUPT_InterruptManager+11
  4599  00003A                     
  4600                           ;mcc_generated_files/interrupt_manager.c: 61:     if(INTCONbits.PEIE == 1)
  4601  00003A  ACF2               	btfss	242,6,c	;volatile
  4602  00003C  EF22  F000         	goto	i2u418_41
  4603  000040  EF24  F000         	goto	i2u418_40
  4604  000044                     i2u418_41:
  4605  000044  EF34  F000         	goto	i2l598
  4606  000048                     i2u418_40:
  4607  000048                     
  4608                           ;mcc_generated_files/interrupt_manager.c: 62:     {;mcc_generated_files/interrupt_manage
      +                          r.c: 63:         if(PIE3bits.USBIE == 1 && PIR3bits.USBIF == 1)
  4609  000048  A4A3               	btfss	163,2,c	;volatile
  4610  00004A  EF29  F000         	goto	i2u419_41
  4611  00004E  EF2B  F000         	goto	i2u419_40
  4612  000052                     i2u419_41:
  4613  000052  EF34  F000         	goto	i2l598
  4614  000056                     i2u419_40:
  4615  000056  A4A4               	btfss	164,2,c	;volatile
  4616  000058  EF30  F000         	goto	i2u420_41
  4617  00005C  EF32  F000         	goto	i2u420_40
  4618  000060                     i2u420_41:
  4619  000060  EF34  F000         	goto	i2l598
  4620  000064                     i2u420_40:
  4621  000064                     
  4622                           ;mcc_generated_files/interrupt_manager.c: 64:         {;mcc_generated_files/interrupt_ma
      +                          nager.c: 65:             USBDeviceTasks();
  4623  000064  EC46  F007         	call	_USBDeviceTasks	;wreg free
  4624  000068                     i2l598:
  4625  000068  C02B  FFF5         	movff	??_INTERRUPT_InterruptManager+11,tablat
  4626  00006C  C02A  FFF8         	movff	??_INTERRUPT_InterruptManager+10,tblptru
  4627  000070  C029  FFF7         	movff	??_INTERRUPT_InterruptManager+9,tblptrh
  4628  000074  C028  FFF6         	movff	??_INTERRUPT_InterruptManager+8,tblptrl
  4629  000078  C027  FFF4         	movff	??_INTERRUPT_InterruptManager+7,prodh
  4630  00007C  C026  FFF3         	movff	??_INTERRUPT_InterruptManager+6,prodl
  4631  000080  C025  FFDA         	movff	??_INTERRUPT_InterruptManager+5,fsr2h
  4632  000084  C024  FFD9         	movff	??_INTERRUPT_InterruptManager+4,fsr2l
  4633  000088  C023  FFE2         	movff	??_INTERRUPT_InterruptManager+3,fsr1h
  4634  00008C  C022  FFE1         	movff	??_INTERRUPT_InterruptManager+2,fsr1l
  4635  000090  C021  FFEA         	movff	??_INTERRUPT_InterruptManager+1,fsr0h
  4636  000094  C020  FFE9         	movff	??_INTERRUPT_InterruptManager,fsr0l
  4637  000098  9255               	bcf	int$flags,1,c	;clear compiler interrupt flag (level 2)
  4638  00009A  0011               	retfie		f
  4639  00009C                     __end_of_INTERRUPT_InterruptManager:
  4640                           	callstack 0
  4641                           
  4642 ;; *************** function _USBDeviceTasks *****************
  4643 ;; Defined at:
  4644 ;;		line 481 in file "mcc_generated_files/usb/usb_device.c"
  4645 ;; Parameters:    Size  Location     Type
  4646 ;;		None
  4647 ;; Auto vars:     Size  Location     Type
  4648 ;;  i               1   30[COMRAM] unsigned char 
  4649 ;; Return value:  Size  Location     Type
  4650 ;;                  1    wreg      void 
  4651 ;; Registers used:
  4652 ;;		wreg, fsr0l, fsr0h, fsr1l, fsr1h, fsr2l, fsr2h, status,2, status,0, tblptrl, tblptrh, tblptru, prodl, prodh, cstack
  4653 ;; Tracked objects:
  4654 ;;		On entry : 0/0
  4655 ;;		On exit  : 0/0
  4656 ;;		Unchanged: 0/0
  4657 ;; Data sizes:     COMRAM   BANK0   BANK1   BANK2   BANK3   BANK4   BANK5   BANK6   BANK7
  4658 ;;      Params:         0       0       0       0       0       0       0       0       0
  4659 ;;      Locals:         1       0       0       0       0       0       0       0       0
  4660 ;;      Temps:          0       0       0       0       0       0       0       0       0
  4661 ;;      Totals:         1       0       0       0       0       0       0       0       0
  4662 ;;Total ram usage:        1 bytes
  4663 ;; Hardware stack levels used: 1
  4664 ;; Hardware stack levels required when called: 8
  4665 ;; This function calls:
  4666 ;;		_USBCtrlEPAllowStatusStage
  4667 ;;		_USBCtrlEPService
  4668 ;;		_USBIncrement1msInternalTimers
  4669 ;;		_USBStallHandler
  4670 ;;		_USBSuspend
  4671 ;;		_USBWakeFromSuspend
  4672 ;;		_USER_USB_CALLBACK_EVENT_HANDLER
  4673 ;;		i2_USBDeviceInit
  4674 ;; This function is called by:
  4675 ;;		_INTERRUPT_InterruptManager
  4676 ;; This function uses a non-reentrant model
  4677 ;;
  4678                           
  4679                           	psect	text28
  4680  000E8C                     __ptext28:
  4681                           	callstack 0
  4682  000E8C                     _USBDeviceTasks:
  4683                           	callstack 18
  4684  000E8C                     
  4685                           ;mcc_generated_files/usb/usb_device.c: 483:     uint8_t i;;mcc_generated_files/usb/usb_d
      +                          evice.c: 594:     if(USBDeviceState == ATTACHED_STATE)
  4686  000E8C  0450               	decf	_USBDeviceState^0,w,c	;volatile
  4687  000E8E  A4D8               	btfss	status,2,c
  4688  000E90  EF4C  F007         	goto	i2u367_41
  4689  000E94  EF4E  F007         	goto	i2u367_40
  4690  000E98                     i2u367_41:
  4691  000E98  EF5B  F007         	goto	i2l5186
  4692  000E9C                     i2u367_40:
  4693  000E9C                     
  4694                           ;mcc_generated_files/usb/usb_device.c: 595:     {;mcc_generated_files/usb/usb_device.c: 
      +                          605:         if(!UCONbits.SE0)
  4695  000E9C  BA60               	btfsc	96,5,c	;volatile
  4696  000E9E  EF53  F007         	goto	i2u368_41
  4697  000EA2  EF55  F007         	goto	i2u368_40
  4698  000EA6                     i2u368_41:
  4699  000EA6  EF5B  F007         	goto	i2l5186
  4700  000EAA                     i2u368_40:
  4701  000EAA                     
  4702                           ;mcc_generated_files/usb/usb_device.c: 606:         {;mcc_generated_files/usb/usb_device
      +                          .c: 612:                 {UIR = 0;};
  4703  000EAA  0E00               	movlw	0
  4704  000EAC  6E65               	movwf	101,c	;volatile
  4705  000EAE                     
  4706                           ;mcc_generated_files/usb/usb_device.c: 618:             UIEbits.URSTIE = 1;
  4707  000EAE  8064               	bsf	100,0,c	;volatile
  4708  000EB0                     
  4709                           ;mcc_generated_files/usb/usb_device.c: 619:             UIEbits.IDLEIE = 1;
  4710  000EB0  8864               	bsf	100,4,c	;volatile
  4711                           
  4712                           ;mcc_generated_files/usb/usb_device.c: 620:             USBDeviceState = POWERED_STATE;
  4713  000EB2  0E02               	movlw	2
  4714  000EB4  6E50               	movwf	_USBDeviceState^0,c	;volatile
  4715  000EB6                     i2l5186:
  4716                           
  4717                           ;mcc_generated_files/usb/usb_device.c: 638:     if(UIRbits.ACTVIF && UIEbits.ACTVIE)
  4718  000EB6  A465               	btfss	101,2,c	;volatile
  4719  000EB8  EF60  F007         	goto	i2u369_41
  4720  000EBC  EF62  F007         	goto	i2u369_40
  4721  000EC0                     i2u369_41:
  4722  000EC0  EF6C  F007         	goto	i2l5194
  4723  000EC4                     i2u369_40:
  4724  000EC4  A464               	btfss	100,2,c	;volatile
  4725  000EC6  EF67  F007         	goto	i2u370_41
  4726  000ECA  EF69  F007         	goto	i2u370_40
  4727  000ECE                     i2u370_41:
  4728  000ECE  EF6C  F007         	goto	i2l5194
  4729  000ED2                     i2u370_40:
  4730  000ED2                     
  4731                           ;mcc_generated_files/usb/usb_device.c: 639:     {;mcc_generated_files/usb/usb_device.c: 
      +                          640:         (UIR &= 0xFB);
  4732  000ED2  9465               	bcf	101,2,c	;volatile
  4733  000ED4                     
  4734                           ;mcc_generated_files/usb/usb_device.c: 644:             USBWakeFromSuspend();
  4735  000ED4  ECE6  F018         	call	_USBWakeFromSuspend	;wreg free
  4736  000ED8                     i2l5194:
  4737                           
  4738                           ;mcc_generated_files/usb/usb_device.c: 651:     if(UCONbits.SUSPND==1)
  4739  000ED8  A260               	btfss	96,1,c	;volatile
  4740  000EDA  EF71  F007         	goto	i2u371_41
  4741  000EDE  EF73  F007         	goto	i2u371_40
  4742  000EE2                     i2u371_41:
  4743  000EE2  EF76  F007         	goto	i2l147
  4744  000EE6                     i2u371_40:
  4745  000EE6                     
  4746                           ;mcc_generated_files/usb/usb_device.c: 652:     {;mcc_generated_files/usb/usb_device.c: 
      +                          653:         PIR3bits.USBIF = 0;;
  4747  000EE6  94A4               	bcf	164,2,c	;volatile
  4748                           
  4749                           ;mcc_generated_files/usb/usb_device.c: 654:         return;
  4750  000EE8  EF59  F008         	goto	i2l148
  4751  000EEC                     i2l147:
  4752                           
  4753                           ;mcc_generated_files/usb/usb_device.c: 667:     if(UIRbits.URSTIF && UIEbits.URSTIE)
  4754  000EEC  A065               	btfss	101,0,c	;volatile
  4755  000EEE  EF7B  F007         	goto	i2u372_41
  4756  000EF2  EF7D  F007         	goto	i2u372_40
  4757  000EF6                     i2u372_41:
  4758  000EF6  EF8A  F007         	goto	i2l5208
  4759  000EFA                     i2u372_40:
  4760  000EFA  A064               	btfss	100,0,c	;volatile
  4761  000EFC  EF82  F007         	goto	i2u373_41
  4762  000F00  EF84  F007         	goto	i2u373_40
  4763  000F04                     i2u373_41:
  4764  000F04  EF8A  F007         	goto	i2l5208
  4765  000F08                     i2u373_40:
  4766  000F08                     
  4767                           ;mcc_generated_files/usb/usb_device.c: 668:     {;mcc_generated_files/usb/usb_device.c: 
      +                          669:         USBDeviceInit();
  4768  000F08  ECB1  F00C         	call	i2_USBDeviceInit	;wreg free
  4769  000F0C                     
  4770                           ;mcc_generated_files/usb/usb_device.c: 673:         {PIE3bits.USBIE = 1;};
  4771  000F0C  84A3               	bsf	163,2,c	;volatile
  4772  000F0E                     
  4773                           ;mcc_generated_files/usb/usb_device.c: 675:         USBDeviceState = DEFAULT_STATE;
  4774  000F0E  0E04               	movlw	4
  4775  000F10  6E50               	movwf	_USBDeviceState^0,c	;volatile
  4776  000F12                     
  4777                           ;mcc_generated_files/usb/usb_device.c: 685:         (UIR &= 0xFE);
  4778  000F12  9065               	bcf	101,0,c	;volatile
  4779  000F14                     i2l5208:
  4780                           
  4781                           ;mcc_generated_files/usb/usb_device.c: 691:     if(UIRbits.IDLEIF && UIEbits.IDLEIE)
  4782  000F14  A865               	btfss	101,4,c	;volatile
  4783  000F16  EF8F  F007         	goto	i2u374_41
  4784  000F1A  EF91  F007         	goto	i2u374_40
  4785  000F1E                     i2u374_41:
  4786  000F1E  EF9A  F007         	goto	i2l5214
  4787  000F22                     i2u374_40:
  4788  000F22  A864               	btfss	100,4,c	;volatile
  4789  000F24  EF96  F007         	goto	i2u375_41
  4790  000F28  EF98  F007         	goto	i2u375_40
  4791  000F2C                     i2u375_41:
  4792  000F2C  EF9A  F007         	goto	i2l5214
  4793  000F30                     i2u375_40:
  4794  000F30                     
  4795                           ;mcc_generated_files/usb/usb_device.c: 692:     {;mcc_generated_files/usb/usb_device.c: 
      +                          698:             USBSuspend();
  4796  000F30  EC73  F019         	call	_USBSuspend	;wreg free
  4797  000F34                     i2l5214:
  4798                           
  4799                           ;mcc_generated_files/usb/usb_device.c: 712:     if(UIRbits.SOFIF)
  4800  000F34  AC65               	btfss	101,6,c	;volatile
  4801  000F36  EF9F  F007         	goto	i2u376_41
  4802  000F3A  EFA1  F007         	goto	i2u376_40
  4803  000F3E                     i2u376_41:
  4804  000F3E  EFCC  F007         	goto	i2l5232
  4805  000F42                     i2u376_40:
  4806  000F42                     
  4807                           ;mcc_generated_files/usb/usb_device.c: 713:     {;mcc_generated_files/usb/usb_device.c: 
      +                          715:         if(UIEbits.SOFIE)
  4808  000F42  AC64               	btfss	100,6,c	;volatile
  4809  000F44  EFA6  F007         	goto	i2u377_41
  4810  000F48  EFA8  F007         	goto	i2u377_40
  4811  000F4C                     i2u377_41:
  4812  000F4C  EFB6  F007         	goto	i2l5220
  4813  000F50                     i2u377_40:
  4814  000F50                     
  4815                           ;mcc_generated_files/usb/usb_device.c: 716:         {;mcc_generated_files/usb/usb_device
      +                          .c: 717:             USER_USB_CALLBACK_EVENT_HANDLER((USB_EVENT)EVENT_SOF,0,1);
  4816  000F50  0E00               	movlw	0
  4817  000F52  6E0E               	movwf	(USER_USB_CALLBACK_EVENT_HANDLER@event+1)^0,c
  4818  000F54  0E73               	movlw	115
  4819  000F56  6E0D               	movwf	USER_USB_CALLBACK_EVENT_HANDLER@event^0,c
  4820  000F58  0E00               	movlw	0
  4821  000F5A  6E0F               	movwf	USER_USB_CALLBACK_EVENT_HANDLER@pdata^0,c
  4822  000F5C  0E00               	movlw	0
  4823  000F5E  6E10               	movwf	(USER_USB_CALLBACK_EVENT_HANDLER@pdata+1)^0,c
  4824  000F60  0E00               	movlw	0
  4825  000F62  6E12               	movwf	(USER_USB_CALLBACK_EVENT_HANDLER@size+1)^0,c
  4826  000F64  0E01               	movlw	1
  4827  000F66  6E11               	movwf	USER_USB_CALLBACK_EVENT_HANDLER@size^0,c
  4828  000F68  EC4D  F017         	call	_USER_USB_CALLBACK_EVENT_HANDLER	;wreg free
  4829  000F6C                     i2l5220:
  4830                           
  4831                           ;mcc_generated_files/usb/usb_device.c: 719:         (UIR &= 0xBF);
  4832  000F6C  9C65               	bcf	101,6,c	;volatile
  4833  000F6E                     
  4834                           ;mcc_generated_files/usb/usb_device.c: 722:             USBIncrement1msInternalTimers();
  4835  000F6E  EC42  F019         	call	_USBIncrement1msInternalTimers	;wreg free
  4836  000F72                     
  4837                           ;mcc_generated_files/usb/usb_device.c: 739:             if(USBStatusStageTimeoutCounter 
      +                          != 0u)
  4838  000F72  504A               	movf	_USBStatusStageTimeoutCounter^0,w,c	;volatile
  4839  000F74  B4D8               	btfsc	status,2,c
  4840  000F76  EFBF  F007         	goto	i2u378_41
  4841  000F7A  EFC1  F007         	goto	i2u378_40
  4842  000F7E                     i2u378_41:
  4843  000F7E  EFC2  F007         	goto	i2l5228
  4844  000F82                     i2u378_40:
  4845  000F82                     
  4846                           ;mcc_generated_files/usb/usb_device.c: 740:             {;mcc_generated_files/usb/usb_de
      +                          vice.c: 741:                 USBStatusStageTimeoutCounter--;
  4847  000F82  064A               	decf	_USBStatusStageTimeoutCounter^0,f,c	;volatile
  4848  000F84                     i2l5228:
  4849                           
  4850                           ;mcc_generated_files/usb/usb_device.c: 748:             if(USBStatusStageTimeoutCounter 
      +                          == 0)
  4851  000F84  504A               	movf	_USBStatusStageTimeoutCounter^0,w,c	;volatile
  4852  000F86  A4D8               	btfss	status,2,c
  4853  000F88  EFC8  F007         	goto	i2u379_41
  4854  000F8C  EFCA  F007         	goto	i2u379_40
  4855  000F90                     i2u379_41:
  4856  000F90  EFCC  F007         	goto	i2l5232
  4857  000F94                     i2u379_40:
  4858  000F94                     
  4859                           ;mcc_generated_files/usb/usb_device.c: 749:             {;mcc_generated_files/usb/usb_de
      +                          vice.c: 750:                 USBCtrlEPAllowStatusStage();
  4860  000F94  EC67  F014         	call	_USBCtrlEPAllowStatusStage	;wreg free
  4861  000F98                     i2l5232:
  4862                           
  4863                           ;mcc_generated_files/usb/usb_device.c: 755:     if(UIRbits.STALLIF && UIEbits.STALLIE)
  4864  000F98  AA65               	btfss	101,5,c	;volatile
  4865  000F9A  EFD1  F007         	goto	i2u380_41
  4866  000F9E  EFD3  F007         	goto	i2u380_40
  4867  000FA2                     i2u380_41:
  4868  000FA2  EFDC  F007         	goto	i2l5238
  4869  000FA6                     i2u380_40:
  4870  000FA6  AA64               	btfss	100,5,c	;volatile
  4871  000FA8  EFD8  F007         	goto	i2u381_41
  4872  000FAC  EFDA  F007         	goto	i2u381_40
  4873  000FB0                     i2u381_41:
  4874  000FB0  EFDC  F007         	goto	i2l5238
  4875  000FB4                     i2u381_40:
  4876  000FB4                     
  4877                           ;mcc_generated_files/usb/usb_device.c: 756:     {;mcc_generated_files/usb/usb_device.c: 
      +                          757:         USBStallHandler();
  4878  000FB4  ECFD  F017         	call	_USBStallHandler	;wreg free
  4879  000FB8                     i2l5238:
  4880                           
  4881                           ;mcc_generated_files/usb/usb_device.c: 760:     if(UIRbits.UERRIF && UIEbits.UERRIE)
  4882  000FB8  A265               	btfss	101,1,c	;volatile
  4883  000FBA  EFE1  F007         	goto	i2u382_41
  4884  000FBE  EFE3  F007         	goto	i2u382_40
  4885  000FC2                     i2u382_41:
  4886  000FC2  EFF9  F007         	goto	i2l5246
  4887  000FC6                     i2u382_40:
  4888  000FC6  A264               	btfss	100,1,c	;volatile
  4889  000FC8  EFE8  F007         	goto	i2u383_41
  4890  000FCC  EFEA  F007         	goto	i2u383_40
  4891  000FD0                     i2u383_41:
  4892  000FD0  EFF9  F007         	goto	i2l5246
  4893  000FD4                     i2u383_40:
  4894  000FD4                     
  4895                           ;mcc_generated_files/usb/usb_device.c: 761:     {;mcc_generated_files/usb/usb_device.c: 
      +                          762:         USER_USB_CALLBACK_EVENT_HANDLER((USB_EVENT)EVENT_BUS_ERROR,0,1);
  4896  000FD4  0E7F               	movlw	127
  4897  000FD6  6E0E               	movwf	(USER_USB_CALLBACK_EVENT_HANDLER@event+1)^0,c
  4898  000FD8  680D               	setf	USER_USB_CALLBACK_EVENT_HANDLER@event^0,c
  4899  000FDA  0E00               	movlw	0
  4900  000FDC  6E0F               	movwf	USER_USB_CALLBACK_EVENT_HANDLER@pdata^0,c
  4901  000FDE  0E00               	movlw	0
  4902  000FE0  6E10               	movwf	(USER_USB_CALLBACK_EVENT_HANDLER@pdata+1)^0,c
  4903  000FE2  0E00               	movlw	0
  4904  000FE4  6E12               	movwf	(USER_USB_CALLBACK_EVENT_HANDLER@size+1)^0,c
  4905  000FE6  0E01               	movlw	1
  4906  000FE8  6E11               	movwf	USER_USB_CALLBACK_EVENT_HANDLER@size^0,c
  4907  000FEA  EC4D  F017         	call	_USER_USB_CALLBACK_EVENT_HANDLER	;wreg free
  4908  000FEE                     
  4909                           ;mcc_generated_files/usb/usb_device.c: 763:         {UEIR = 0;};
  4910  000FEE  0E00               	movlw	0
  4911  000FF0  6E67               	movwf	103,c	;volatile
  4912  000FF2                     i2l5246:
  4913                           
  4914                           ;mcc_generated_files/usb/usb_device.c: 778:     if(USBDeviceState < DEFAULT_STATE)
  4915  000FF2  0E04               	movlw	4
  4916  000FF4  6050               	cpfslt	_USBDeviceState^0,c	;volatile
  4917  000FF6  EFFF  F007         	goto	i2u384_41
  4918  000FFA  EF01  F008         	goto	i2u384_40
  4919  000FFE                     i2u384_41:
  4920  000FFE  EF04  F008         	goto	i2l157
  4921  001002                     i2u384_40:
  4922  001002                     
  4923                           ;mcc_generated_files/usb/usb_device.c: 779:     {;mcc_generated_files/usb/usb_device.c: 
      +                          780:         PIR3bits.USBIF = 0;;
  4924  001002  94A4               	bcf	164,2,c	;volatile
  4925                           
  4926                           ;mcc_generated_files/usb/usb_device.c: 781:         return;
  4927  001004  EF59  F008         	goto	i2l148
  4928  001008                     i2l157:
  4929                           
  4930                           ;mcc_generated_files/usb/usb_device.c: 787:     if(UIEbits.TRNIE)
  4931  001008  A664               	btfss	100,3,c	;volatile
  4932  00100A  EF09  F008         	goto	i2u385_41
  4933  00100E  EF0B  F008         	goto	i2u385_40
  4934  001012                     i2u385_41:
  4935  001012  EF58  F008         	goto	i2l158
  4936  001016                     i2u385_40:
  4937  001016                     
  4938                           ;mcc_generated_files/usb/usb_device.c: 788:     {;mcc_generated_files/usb/usb_device.c: 
      +                          789:         for(i = 0; i < 4u; i++)
  4939  001016  0E00               	movlw	0
  4940  001018  6E1F               	movwf	USBDeviceTasks@i^0,c
  4941  00101A                     i2l159:
  4942                           
  4943                           ;mcc_generated_files/usb/usb_device.c: 790:         {;mcc_generated_files/usb/usb_device
      +                          .c: 791:             if(UIRbits.TRNIF)
  4944  00101A  A665               	btfss	101,3,c	;volatile
  4945  00101C  EF12  F008         	goto	i2u386_41
  4946  001020  EF14  F008         	goto	i2u386_40
  4947  001024                     i2u386_41:
  4948  001024  EF58  F008         	goto	i2l158
  4949  001028                     i2u386_40:
  4950  001028                     
  4951                           ;mcc_generated_files/usb/usb_device.c: 792:             {;mcc_generated_files/usb/usb_de
      +                          vice.c: 794:                 USTATcopy.Val = USTAT;
  4952  001028  CF61 F053          	movff	3937,_USTATcopy	;volatile
  4953  00102C                     
  4954                           ;mcc_generated_files/usb/usb_device.c: 795:                 endpoint_number = USTATcopy.
      +                          endpoint_number;
  4955  00102C  3053               	rrcf	_USTATcopy^0,w,c	;volatile
  4956  00102E  32E8               	rrcf	wreg,f,c
  4957  001030  32E8               	rrcf	wreg,f,c
  4958  001032  0B0F               	andlw	15
  4959  001034  6E4C               	movwf	_endpoint_number^0,c	;volatile
  4960  001036                     
  4961                           ;mcc_generated_files/usb/usb_device.c: 797:                 (UIR &= 0xF7);
  4962  001036  9665               	bcf	101,3,c	;volatile
  4963  001038                     
  4964                           ;mcc_generated_files/usb/usb_device.c: 802:                 if(USTATcopy.direction == 0)
  4965  001038  B453               	btfsc	_USTATcopy^0,2,c	;volatile
  4966  00103A  EF21  F008         	goto	i2u387_41
  4967  00103E  EF23  F008         	goto	i2u387_40
  4968  001042                     i2u387_41:
  4969  001042  EF2D  F008         	goto	i2l5266
  4970  001046                     i2u387_40:
  4971  001046                     
  4972                           ;mcc_generated_files/usb/usb_device.c: 803:                 {;mcc_generated_files/usb/us
      +                          b_device.c: 804:                     ep_data_out[endpoint_number].bits.ping_pong_state ^
      +                          = 1;
  4973  001046  0E92               	movlw	low _ep_data_out
  4974  001048  244C               	addwf	_endpoint_number^0,w,c	;volatile
  4975  00104A  6ED9               	movwf	fsr2l,c
  4976  00104C  6ADA               	clrf	fsr2h,c
  4977  00104E  0E00               	movlw	high _ep_data_out
  4978  001050  22DA               	addwfc	fsr2h,f,c
  4979  001052  0100               	movlb	0	; () banked
  4980  001054  70DF               	btg	indf2,0,c
  4981                           
  4982                           ;mcc_generated_files/usb/usb_device.c: 805:                 }
  4983  001056  EF35  F008         	goto	i2l5268
  4984  00105A                     i2l5266:
  4985                           
  4986                           ;mcc_generated_files/usb/usb_device.c: 807:                 {;mcc_generated_files/usb/us
      +                          b_device.c: 808:                     ep_data_in[endpoint_number].bits.ping_pong_state ^=
      +                           1;
  4987  00105A  0E95               	movlw	low _ep_data_in
  4988  00105C  244C               	addwf	_endpoint_number^0,w,c	;volatile
  4989  00105E  6ED9               	movwf	fsr2l,c
  4990  001060  6ADA               	clrf	fsr2h,c
  4991  001062  0E00               	movlw	high _ep_data_in
  4992  001064  22DA               	addwfc	fsr2h,f,c
  4993  001066  0100               	movlb	0	; () banked
  4994  001068  70DF               	btg	indf2,0,c
  4995  00106A                     i2l5268:
  4996                           
  4997                           ; BSR set to: 0
  4998                           ;mcc_generated_files/usb/usb_device.c: 814:                 if(endpoint_number == 0)
  4999  00106A  504C               	movf	_endpoint_number^0,w,c	;volatile
  5000  00106C  A4D8               	btfss	status,2,c
  5001  00106E  EF3B  F008         	goto	i2u388_41
  5002  001072  EF3D  F008         	goto	i2u388_40
  5003  001076                     i2u388_41:
  5004  001076  EF41  F008         	goto	i2l5272
  5005  00107A                     i2u388_40:
  5006  00107A                     
  5007                           ; BSR set to: 0
  5008                           ;mcc_generated_files/usb/usb_device.c: 815:                 {;mcc_generated_files/usb/us
      +                          b_device.c: 816:                     USBCtrlEPService();
  5009  00107A  EC55  F015         	call	_USBCtrlEPService	;wreg free
  5010                           
  5011                           ;mcc_generated_files/usb/usb_device.c: 817:                 }
  5012  00107E  EF4F  F008         	goto	i2l5274
  5013  001082                     i2l5272:
  5014                           
  5015                           ; BSR set to: 0
  5016                           ;mcc_generated_files/usb/usb_device.c: 819:                 {;mcc_generated_files/usb/us
      +                          b_device.c: 820:                     USER_USB_CALLBACK_EVENT_HANDLER((USB_EVENT)EVENT_TR
      +                          ANSFER,(uint8_t*)&USTATcopy.Val,0);
  5017  001082  0E00               	movlw	0
  5018  001084  6E0E               	movwf	(USER_USB_CALLBACK_EVENT_HANDLER@event+1)^0,c
  5019  001086  0E72               	movlw	114
  5020  001088  6E0D               	movwf	USER_USB_CALLBACK_EVENT_HANDLER@event^0,c
  5021  00108A  0E53               	movlw	low _USTATcopy
  5022  00108C  6E0F               	movwf	USER_USB_CALLBACK_EVENT_HANDLER@pdata^0,c
  5023  00108E  0E00               	movlw	high _USTATcopy
  5024  001090  6E10               	movwf	(USER_USB_CALLBACK_EVENT_HANDLER@pdata+1)^0,c
  5025  001092  0E00               	movlw	0
  5026  001094  6E12               	movwf	(USER_USB_CALLBACK_EVENT_HANDLER@size+1)^0,c
  5027  001096  0E00               	movlw	0
  5028  001098  6E11               	movwf	USER_USB_CALLBACK_EVENT_HANDLER@size^0,c
  5029  00109A  EC4D  F017         	call	_USER_USB_CALLBACK_EVENT_HANDLER	;wreg free
  5030  00109E                     i2l5274:
  5031                           
  5032                           ;mcc_generated_files/usb/usb_device.c: 827:         }
  5033  00109E  2A1F               	incf	USBDeviceTasks@i^0,f,c
  5034  0010A0  0E03               	movlw	3
  5035  0010A2  641F               	cpfsgt	USBDeviceTasks@i^0,c
  5036  0010A4  EF56  F008         	goto	i2u389_41
  5037  0010A8  EF58  F008         	goto	i2u389_40
  5038  0010AC                     i2u389_41:
  5039  0010AC  EF0D  F008         	goto	i2l159
  5040  0010B0                     i2u389_40:
  5041  0010B0                     i2l158:
  5042                           
  5043                           ;mcc_generated_files/usb/usb_device.c: 830:     PIR3bits.USBIF = 0;;
  5044  0010B0  94A4               	bcf	164,2,c	;volatile
  5045  0010B2                     i2l148:
  5046  0010B2  0012               	return		;funcret
  5047  0010B4                     __end_of_USBDeviceTasks:
  5048                           	callstack 0
  5049                           
  5050 ;; *************** function i2_USBDeviceInit *****************
  5051 ;; Defined at:
  5052 ;;		line 281 in file "mcc_generated_files/usb/usb_device.c"
  5053 ;; Parameters:    Size  Location     Type
  5054 ;;		None
  5055 ;; Auto vars:     Size  Location     Type
  5056 ;;  i               1   12[COMRAM] unsigned char 
  5057 ;; Return value:  Size  Location     Type
  5058 ;;                  1    wreg      void 
  5059 ;; Registers used:
  5060 ;;		wreg, fsr2l, fsr2h, status,2, status,0, prodl, prodh, cstack
  5061 ;; Tracked objects:
  5062 ;;		On entry : 0/0
  5063 ;;		On exit  : 0/0
  5064 ;;		Unchanged: 0/0
  5065 ;; Data sizes:     COMRAM   BANK0   BANK1   BANK2   BANK3   BANK4   BANK5   BANK6   BANK7
  5066 ;;      Params:         0       0       0       0       0       0       0       0       0
  5067 ;;      Locals:         1       0       0       0       0       0       0       0       0
  5068 ;;      Temps:          0       0       0       0       0       0       0       0       0
  5069 ;;      Totals:         1       0       0       0       0       0       0       0       0
  5070 ;;Total ram usage:        1 bytes
  5071 ;; Hardware stack levels used: 1
  5072 ;; Hardware stack levels required when called: 1
  5073 ;; This function calls:
  5074 ;;		i2_memset
  5075 ;; This function is called by:
  5076 ;;		_USBDeviceTasks
  5077 ;; This function uses a non-reentrant model
  5078 ;;
  5079                           
  5080                           	psect	text29
  5081  001962                     __ptext29:
  5082                           	callstack 0
  5083  001962                     i2_USBDeviceInit:
  5084                           	callstack 24
  5085  001962                     
  5086                           ;mcc_generated_files/usb/usb_device.c: 283:     uint8_t i;;mcc_generated_files/usb/usb_d
      +                          evice.c: 285:     {PIE3bits.USBIE = 0;};
  5087  001962  94A3               	bcf	163,2,c	;volatile
  5088  001964                     
  5089                           ;mcc_generated_files/usb/usb_device.c: 292:     {UEIR = 0;};
  5090  001964  0E00               	movlw	0
  5091  001966  6E67               	movwf	103,c	;volatile
  5092                           
  5093                           ;mcc_generated_files/usb/usb_device.c: 295:     {UIR = 0;};
  5094  001968  0E00               	movlw	0
  5095  00196A  6E65               	movwf	101,c	;volatile
  5096                           
  5097                           ;mcc_generated_files/usb/usb_device.c: 298:     UEP0 = 0;
  5098  00196C  0E00               	movlw	0
  5099  00196E  6E6A               	movwf	106,c	;volatile
  5100  001970                     
  5101                           ;mcc_generated_files/usb/usb_device.c: 300:     memset((void*)&UEP1,0x00,(2));;
  5102  001970  0E6B               	movlw	107
  5103  001972  6E01               	movwf	i2memset@dest^0,c
  5104  001974  0E0F               	movlw	15
  5105  001976  6E02               	movwf	(i2memset@dest+1)^0,c
  5106  001978  0E00               	movlw	0
  5107  00197A  6E04               	movwf	(i2memset@c+1)^0,c
  5108  00197C  0E00               	movlw	0
  5109  00197E  6E03               	movwf	i2memset@c^0,c
  5110  001980  0E00               	movlw	0
  5111  001982  6E06               	movwf	(i2memset@n+1)^0,c
  5112  001984  0E02               	movlw	2
  5113  001986  6E05               	movwf	i2memset@n^0,c
  5114  001988  ECE2  F009         	call	i2_memset	;wreg free
  5115  00198C                     
  5116                           ;mcc_generated_files/usb/usb_device.c: 302:     { UCFG = 0x10 | 0x00 | 0x04 | 0x02; UEIE
      +                           = 0x9F; UIE = 0x39 | 0x40 | 0x02; };
  5117  00198C  0E16               	movlw	22
  5118  00198E  6E62               	movwf	98,c	;volatile
  5119  001990  0E9F               	movlw	159
  5120  001992  6E66               	movwf	102,c	;volatile
  5121  001994  0E7B               	movlw	123
  5122  001996  6E64               	movwf	100,c	;volatile
  5123  001998                     
  5124                           ;mcc_generated_files/usb/usb_device.c: 311:     for(i = 0; i < (sizeof(BDT)/sizeof(BDT_E
      +                          NTRY)); i++)
  5125  001998  0E00               	movlw	0
  5126  00199A  6E0D               	movwf	i2USBDeviceInit@i^0,c
  5127  00199C                     i2l5118:
  5128                           
  5129                           ;mcc_generated_files/usb/usb_device.c: 312:     {;mcc_generated_files/usb/usb_device.c: 
      +                          313:         BDT[i].Val = 0x00;
  5130  00199C  500D               	movf	i2USBDeviceInit@i^0,w,c
  5131  00199E  0D04               	mullw	4
  5132  0019A0  0E00               	movlw	0
  5133  0019A2  24F3               	addwf	243,w,c
  5134  0019A4  6ED9               	movwf	fsr2l,c
  5135  0019A6  0E04               	movlw	4
  5136  0019A8  20F4               	addwfc	prodh,w,c
  5137  0019AA  6EDA               	movwf	fsr2h,c
  5138  0019AC  6ADE               	clrf	postinc2,c
  5139  0019AE  6ADE               	clrf	postinc2,c
  5140  0019B0  6ADE               	clrf	postinc2,c
  5141  0019B2  6ADD               	clrf	postdec2,c
  5142  0019B4                     
  5143                           ;mcc_generated_files/usb/usb_device.c: 314:     }
  5144  0019B4  2A0D               	incf	i2USBDeviceInit@i^0,f,c
  5145  0019B6  0E0B               	movlw	11
  5146  0019B8  640D               	cpfsgt	i2USBDeviceInit@i^0,c
  5147  0019BA  EFE1  F00C         	goto	i2u364_41
  5148  0019BE  EFE3  F00C         	goto	i2u364_40
  5149  0019C2                     i2u364_41:
  5150  0019C2  EFCE  F00C         	goto	i2l5118
  5151  0019C6                     i2u364_40:
  5152  0019C6                     
  5153                           ;mcc_generated_files/usb/usb_device.c: 317:     UCONbits.PPBRST = 1;
  5154  0019C6  8C60               	bsf	96,6,c	;volatile
  5155  0019C8                     
  5156                           ;mcc_generated_files/usb/usb_device.c: 320:     UADDR = 0x00;
  5157  0019C8  0E00               	movlw	0
  5158  0019CA  6E63               	movwf	99,c	;volatile
  5159  0019CC                     
  5160                           ;mcc_generated_files/usb/usb_device.c: 323:     UCONbits.PKTDIS = 0;
  5161  0019CC  9860               	bcf	96,4,c	;volatile
  5162  0019CE                     
  5163                           ;mcc_generated_files/usb/usb_device.c: 326:     UCONbits.PPBRST = 0;
  5164  0019CE  9C60               	bcf	96,6,c	;volatile
  5165  0019D0                     i2l5130:
  5166                           
  5167                           ;mcc_generated_files/usb/usb_device.c: 330:     {;mcc_generated_files/usb/usb_device.c: 
      +                          331:         (UIR &= 0xF7);
  5168  0019D0  9665               	bcf	101,3,c	;volatile
  5169  0019D2                     
  5170                           ;mcc_generated_files/usb/usb_device.c: 333:         inPipes[0].info.Val = 0;
  5171  0019D2  0E00               	movlw	0
  5172  0019D4  0100               	movlb	0	; () banked
  5173  0019D6  6F75               	movwf	(_inPipes+3)& (0+255),b	;volatile
  5174  0019D8                     
  5175                           ; BSR set to: 0
  5176                           ;mcc_generated_files/usb/usb_device.c: 334:         outPipes[0].info.Val = 0;
  5177  0019D8  0E00               	movlw	0
  5178  0019DA  6F6D               	movwf	(_outPipes+3)& (0+255),b	;volatile
  5179  0019DC                     
  5180                           ; BSR set to: 0
  5181                           ;mcc_generated_files/usb/usb_device.c: 335:         outPipes[0].wCount.Val = 0;
  5182  0019DC  0E00               	movlw	0
  5183  0019DE  6F6F               	movwf	(_outPipes+5)& (0+255),b	;volatile
  5184  0019E0  0E00               	movlw	0
  5185  0019E2  6F6E               	movwf	(_outPipes+4)& (0+255),b	;volatile
  5186  0019E4                     
  5187                           ; BSR set to: 0
  5188                           ;mcc_generated_files/usb/usb_device.c: 336:     }while(UIRbits.TRNIF == 1);
  5189  0019E4  B665               	btfsc	101,3,c	;volatile
  5190  0019E6  EFF7  F00C         	goto	i2u365_41
  5191  0019EA  EFF9  F00C         	goto	i2u365_40
  5192  0019EE                     i2u365_41:
  5193  0019EE  EFE8  F00C         	goto	i2l5130
  5194  0019F2                     i2u365_40:
  5195  0019F2                     
  5196                           ; BSR set to: 0
  5197                           ;mcc_generated_files/usb/usb_device.c: 340:     USBStatusStageEnabledFlag1 = 1;
  5198  0019F2  0E01               	movlw	1
  5199  0019F4  6E48               	movwf	_USBStatusStageEnabledFlag1^0,c	;volatile
  5200                           
  5201                           ;mcc_generated_files/usb/usb_device.c: 341:     USBStatusStageEnabledFlag2 = 1;
  5202  0019F6  0E01               	movlw	1
  5203  0019F8  6E47               	movwf	_USBStatusStageEnabledFlag2^0,c	;volatile
  5204                           
  5205                           ;mcc_generated_files/usb/usb_device.c: 343:     USBDeferINDataStagePackets = 0;
  5206  0019FA  0E00               	movlw	0
  5207  0019FC  6E46               	movwf	_USBDeferINDataStagePackets^0,c	;volatile
  5208                           
  5209                           ;mcc_generated_files/usb/usb_device.c: 344:     USBDeferOUTDataStagePackets = 0;
  5210  0019FE  0E00               	movlw	0
  5211  001A00  6E45               	movwf	_USBDeferOUTDataStagePackets^0,c	;volatile
  5212                           
  5213                           ;mcc_generated_files/usb/usb_device.c: 345:     USBBusIsSuspended = 0;
  5214  001A02  0E00               	movlw	0
  5215  001A04  6FA5               	movwf	_USBBusIsSuspended& (0+255),b	;volatile
  5216                           
  5217                           ;mcc_generated_files/usb/usb_device.c: 349:     for(i = 0; i < (uint8_t)(2 +1u); i++)
  5218  001A06  0E00               	movlw	0
  5219  001A08  6E0D               	movwf	i2USBDeviceInit@i^0,c
  5220  001A0A                     i2l5146:
  5221                           
  5222                           ;mcc_generated_files/usb/usb_device.c: 350:     {;mcc_generated_files/usb/usb_device.c: 
      +                          351:         pBDTEntryIn[i] = 0u;
  5223  001A0A  500D               	movf	i2USBDeviceInit@i^0,w,c
  5224  001A0C  0D02               	mullw	2
  5225  001A0E  0E78               	movlw	low _pBDTEntryIn
  5226  001A10  24F3               	addwf	243,w,c
  5227  001A12  6ED9               	movwf	fsr2l,c
  5228  001A14  0E00               	movlw	high _pBDTEntryIn
  5229  001A16  20F4               	addwfc	prodh,w,c
  5230  001A18  6EDA               	movwf	fsr2h,c
  5231  001A1A  0E00               	movlw	0
  5232  001A1C  6EDE               	movwf	postinc2,c
  5233  001A1E  0E00               	movlw	0
  5234  001A20  6EDD               	movwf	postdec2,c
  5235                           
  5236                           ;mcc_generated_files/usb/usb_device.c: 352:         pBDTEntryOut[i] = 0u;
  5237  001A22  500D               	movf	i2USBDeviceInit@i^0,w,c
  5238  001A24  0D02               	mullw	2
  5239  001A26  0E7E               	movlw	low _pBDTEntryOut
  5240  001A28  24F3               	addwf	243,w,c
  5241  001A2A  6ED9               	movwf	fsr2l,c
  5242  001A2C  0E00               	movlw	high _pBDTEntryOut
  5243  001A2E  20F4               	addwfc	prodh,w,c
  5244  001A30  6EDA               	movwf	fsr2h,c
  5245  001A32  0E00               	movlw	0
  5246  001A34  6EDE               	movwf	postinc2,c
  5247  001A36  0E00               	movlw	0
  5248  001A38  6EDD               	movwf	postdec2,c
  5249  001A3A                     
  5250                           ;mcc_generated_files/usb/usb_device.c: 353:         ep_data_in[i].Val = 0u;
  5251  001A3A  0E95               	movlw	low _ep_data_in
  5252  001A3C  240D               	addwf	i2USBDeviceInit@i^0,w,c
  5253  001A3E  6ED9               	movwf	fsr2l,c
  5254  001A40  6ADA               	clrf	fsr2h,c
  5255  001A42  0E00               	movlw	high _ep_data_in
  5256  001A44  22DA               	addwfc	fsr2h,f,c
  5257  001A46  0E00               	movlw	0
  5258  001A48  6EDF               	movwf	indf2,c
  5259  001A4A                     
  5260                           ;mcc_generated_files/usb/usb_device.c: 354:         ep_data_out[i].Val = 0u;
  5261  001A4A  0E92               	movlw	low _ep_data_out
  5262  001A4C  240D               	addwf	i2USBDeviceInit@i^0,w,c
  5263  001A4E  6ED9               	movwf	fsr2l,c
  5264  001A50  6ADA               	clrf	fsr2h,c
  5265  001A52  0E00               	movlw	high _ep_data_out
  5266  001A54  22DA               	addwfc	fsr2h,f,c
  5267  001A56  0E00               	movlw	0
  5268  001A58  6EDF               	movwf	indf2,c
  5269  001A5A                     
  5270                           ;mcc_generated_files/usb/usb_device.c: 355:     }
  5271  001A5A  2A0D               	incf	i2USBDeviceInit@i^0,f,c
  5272  001A5C  0E02               	movlw	2
  5273  001A5E  640D               	cpfsgt	i2USBDeviceInit@i^0,c
  5274  001A60  EF34  F00D         	goto	i2u366_41
  5275  001A64  EF36  F00D         	goto	i2u366_40
  5276  001A68                     i2u366_41:
  5277  001A68  EF05  F00D         	goto	i2l5146
  5278  001A6C                     i2u366_40:
  5279  001A6C                     
  5280                           ;mcc_generated_files/usb/usb_device.c: 358:     pBDTEntryIn[0] = (volatile BDT_ENTRY*)&B
      +                          DT[2];
  5281  001A6C  0E08               	movlw	8
  5282  001A6E  0100               	movlb	0	; () banked
  5283  001A70  6F78               	movwf	_pBDTEntryIn& (0+255),b
  5284  001A72  0E04               	movlw	4
  5285  001A74  6F79               	movwf	(_pBDTEntryIn+1)& (0+255),b
  5286  001A76                     
  5287                           ; BSR set to: 0
  5288                           ;mcc_generated_files/usb/usb_device.c: 360:     UEP0 = 0x06|0x10;
  5289  001A76  0E16               	movlw	22
  5290  001A78  6E6A               	movwf	106,c	;volatile
  5291  001A7A                     
  5292                           ; BSR set to: 0
  5293                           ;mcc_generated_files/usb/usb_device.c: 362:     BDT[0].ADR = ((uint16_t)(&SetupPkt));
  5294  001A7A  0E04               	movlw	4
  5295  001A7C  0104               	movlb	4	; () banked
  5296  001A7E  6F03               	movwf	3,b	;volatile
  5297  001A80  0E30               	movlw	48
  5298  001A82  6F02               	movwf	2,b	;volatile
  5299  001A84                     
  5300                           ; BSR set to: 4
  5301                           ;mcc_generated_files/usb/usb_device.c: 363:     BDT[0].CNT = 8;
  5302  001A84  0E08               	movlw	8
  5303  001A86  6F01               	movwf	1,b	;volatile
  5304  001A88                     
  5305                           ; BSR set to: 4
  5306                           ;mcc_generated_files/usb/usb_device.c: 364:     BDT[0].STAT.Val = 0x00|0x04;
  5307  001A88  0E04               	movlw	4
  5308  001A8A  6F00               	movwf	0,b	;volatile
  5309  001A8C                     
  5310                           ; BSR set to: 4
  5311                           ;mcc_generated_files/usb/usb_device.c: 365:     BDT[0].STAT.Val |= 0x80;
  5312  001A8C  8F00               	bsf	0,7,b	;volatile
  5313  001A8E                     
  5314                           ; BSR set to: 4
  5315                           ;mcc_generated_files/usb/usb_device.c: 368:     USBActiveConfiguration = 0;
  5316  001A8E  0E00               	movlw	0
  5317  001A90  6E54               	movwf	_USBActiveConfiguration^0,c	;volatile
  5318  001A92                     
  5319                           ; BSR set to: 4
  5320                           ;mcc_generated_files/usb/usb_device.c: 370:     USB1msTickCount = 0;
  5321  001A92  0E00               	movlw	0
  5322  001A94  6E2C               	movwf	_USB1msTickCount^0,c	;volatile
  5323  001A96  0E00               	movlw	0
  5324  001A98  6E2D               	movwf	(_USB1msTickCount+1)^0,c	;volatile
  5325  001A9A  0E00               	movlw	0
  5326  001A9C  6E2E               	movwf	(_USB1msTickCount+2)^0,c	;volatile
  5327  001A9E  0E00               	movlw	0
  5328  001AA0  6E2F               	movwf	(_USB1msTickCount+3)^0,c	;volatile
  5329  001AA2                     
  5330                           ; BSR set to: 4
  5331                           ;mcc_generated_files/usb/usb_device.c: 371:     USBTicksSinceSuspendEnd = 0;
  5332  001AA2  0E00               	movlw	0
  5333  001AA4  0100               	movlb	0	; () banked
  5334  001AA6  6FA4               	movwf	_USBTicksSinceSuspendEnd& (0+255),b	;volatile
  5335  001AA8                     
  5336                           ; BSR set to: 0
  5337                           ;mcc_generated_files/usb/usb_device.c: 374:     USBDeviceState = DETACHED_STATE;
  5338  001AA8  0E00               	movlw	0
  5339  001AAA  6E50               	movwf	_USBDeviceState^0,c	;volatile
  5340  001AAC                     
  5341                           ; BSR set to: 0
  5342  001AAC  0012               	return		;funcret
  5343  001AAE                     __end_ofi2_USBDeviceInit:
  5344                           	callstack 0
  5345                           
  5346 ;; *************** function _USBWakeFromSuspend *****************
  5347 ;; Defined at:
  5348 ;;		line 2307 in file "mcc_generated_files/usb/usb_device.c"
  5349 ;; Parameters:    Size  Location     Type
  5350 ;;		None
  5351 ;; Auto vars:     Size  Location     Type
  5352 ;;		None
  5353 ;; Return value:  Size  Location     Type
  5354 ;;                  1    wreg      void 
  5355 ;; Registers used:
  5356 ;;		wreg, fsr2l, fsr2h, status,2, status,0, prodl, prodh, cstack
  5357 ;; Tracked objects:
  5358 ;;		On entry : 0/0
  5359 ;;		On exit  : 0/0
  5360 ;;		Unchanged: 0/0
  5361 ;; Data sizes:     COMRAM   BANK0   BANK1   BANK2   BANK3   BANK4   BANK5   BANK6   BANK7
  5362 ;;      Params:         0       0       0       0       0       0       0       0       0
  5363 ;;      Locals:         0       0       0       0       0       0       0       0       0
  5364 ;;      Temps:          0       0       0       0       0       0       0       0       0
  5365 ;;      Totals:         0       0       0       0       0       0       0       0       0
  5366 ;;Total ram usage:        0 bytes
  5367 ;; Hardware stack levels used: 1
  5368 ;; Hardware stack levels required when called: 4
  5369 ;; This function calls:
  5370 ;;		_USER_USB_CALLBACK_EVENT_HANDLER
  5371 ;; This function is called by:
  5372 ;;		_USBDeviceTasks
  5373 ;; This function uses a non-reentrant model
  5374 ;;
  5375                           
  5376                           	psect	text30
  5377  0031CC                     __ptext30:
  5378                           	callstack 0
  5379  0031CC                     _USBWakeFromSuspend:
  5380                           	callstack 21
  5381  0031CC                     
  5382                           ;mcc_generated_files/usb/usb_device.c: 2309:     USBBusIsSuspended = 0;
  5383  0031CC  0E00               	movlw	0
  5384  0031CE  0100               	movlb	0	; () banked
  5385  0031D0  6FA5               	movwf	_USBBusIsSuspended& (0+255),b	;volatile
  5386  0031D2                     
  5387                           ; BSR set to: 0
  5388                           ;mcc_generated_files/usb/usb_device.c: 2315:     USER_USB_CALLBACK_EVENT_HANDLER((USB_EV
      +                          ENT)EVENT_RESUME,0,0);
  5389  0031D2  0E00               	movlw	0
  5390  0031D4  6E0E               	movwf	(USER_USB_CALLBACK_EVENT_HANDLER@event+1)^0,c
  5391  0031D6  0E74               	movlw	116
  5392  0031D8  6E0D               	movwf	USER_USB_CALLBACK_EVENT_HANDLER@event^0,c
  5393  0031DA  0E00               	movlw	0
  5394  0031DC  6E0F               	movwf	USER_USB_CALLBACK_EVENT_HANDLER@pdata^0,c
  5395  0031DE  0E00               	movlw	0
  5396  0031E0  6E10               	movwf	(USER_USB_CALLBACK_EVENT_HANDLER@pdata+1)^0,c
  5397  0031E2  0E00               	movlw	0
  5398  0031E4  6E12               	movwf	(USER_USB_CALLBACK_EVENT_HANDLER@size+1)^0,c
  5399  0031E6  0E00               	movlw	0
  5400  0031E8  6E11               	movwf	USER_USB_CALLBACK_EVENT_HANDLER@size^0,c
  5401  0031EA  EC4D  F017         	call	_USER_USB_CALLBACK_EVENT_HANDLER	;wreg free
  5402  0031EE                     
  5403                           ;mcc_generated_files/usb/usb_device.c: 2322:         UCONbits.SUSPND = 0;
  5404  0031EE  9260               	bcf	96,1,c	;volatile
  5405  0031F0                     
  5406                           ;mcc_generated_files/usb/usb_device.c: 2327:     UIEbits.ACTVIE = 0;
  5407  0031F0  9464               	bcf	100,2,c	;volatile
  5408                           
  5409                           ;mcc_generated_files/usb/usb_device.c: 2345:     while(UIRbits.ACTVIF)
  5410  0031F2  EFFC  F018         	goto	i2l4824
  5411  0031F6                     i2l4822:
  5412                           
  5413                           ;mcc_generated_files/usb/usb_device.c: 2347:     {;mcc_generated_files/usb/usb_device.c:
      +                           2348:         (UIR &= 0xFB);
  5414  0031F6  9465               	bcf	101,2,c	;volatile
  5415  0031F8                     i2l4824:
  5416                           
  5417                           ;mcc_generated_files/usb/usb_device.c: 2345:     while(UIRbits.ACTVIF)
  5418  0031F8  B465               	btfsc	101,2,c	;volatile
  5419  0031FA  EF01  F019         	goto	i2u329_41
  5420  0031FE  EF03  F019         	goto	i2u329_40
  5421  003202                     i2u329_41:
  5422  003202  EFFB  F018         	goto	i2l4822
  5423  003206                     i2u329_40:
  5424  003206                     
  5425                           ;mcc_generated_files/usb/usb_device.c: 2351:     USBTicksSinceSuspendEnd = 0;
  5426  003206  0E00               	movlw	0
  5427  003208  0100               	movlb	0	; () banked
  5428  00320A  6FA4               	movwf	_USBTicksSinceSuspendEnd& (0+255),b	;volatile
  5429  00320C                     
  5430                           ; BSR set to: 0
  5431  00320C  0012               	return		;funcret
  5432  00320E                     __end_of_USBWakeFromSuspend:
  5433                           	callstack 0
  5434                           
  5435 ;; *************** function _USBSuspend *****************
  5436 ;; Defined at:
  5437 ;;		line 2249 in file "mcc_generated_files/usb/usb_device.c"
  5438 ;; Parameters:    Size  Location     Type
  5439 ;;		None
  5440 ;; Auto vars:     Size  Location     Type
  5441 ;;		None
  5442 ;; Return value:  Size  Location     Type
  5443 ;;                  1    wreg      void 
  5444 ;; Registers used:
  5445 ;;		wreg, fsr2l, fsr2h, status,2, status,0, prodl, prodh, cstack
  5446 ;; Tracked objects:
  5447 ;;		On entry : 0/0
  5448 ;;		On exit  : 0/0
  5449 ;;		Unchanged: 0/0
  5450 ;; Data sizes:     COMRAM   BANK0   BANK1   BANK2   BANK3   BANK4   BANK5   BANK6   BANK7
  5451 ;;      Params:         0       0       0       0       0       0       0       0       0
  5452 ;;      Locals:         0       0       0       0       0       0       0       0       0
  5453 ;;      Temps:          0       0       0       0       0       0       0       0       0
  5454 ;;      Totals:         0       0       0       0       0       0       0       0       0
  5455 ;;Total ram usage:        0 bytes
  5456 ;; Hardware stack levels used: 1
  5457 ;; Hardware stack levels required when called: 4
  5458 ;; This function calls:
  5459 ;;		_USER_USB_CALLBACK_EVENT_HANDLER
  5460 ;; This function is called by:
  5461 ;;		_USBDeviceTasks
  5462 ;; This function uses a non-reentrant model
  5463 ;;
  5464                           
  5465                           	psect	text31
  5466  0032E6                     __ptext31:
  5467                           	callstack 0
  5468  0032E6                     _USBSuspend:
  5469                           	callstack 21
  5470  0032E6                     
  5471                           ;mcc_generated_files/usb/usb_device.c: 2274:     UIEbits.ACTVIE = 1;
  5472  0032E6  8464               	bsf	100,2,c	;volatile
  5473  0032E8                     
  5474                           ;mcc_generated_files/usb/usb_device.c: 2275:     (UIR &= 0xEF);
  5475  0032E8  9865               	bcf	101,4,c	;volatile
  5476  0032EA                     
  5477                           ;mcc_generated_files/usb/usb_device.c: 2278:         UCONbits.SUSPND = 1;
  5478  0032EA  8260               	bsf	96,1,c	;volatile
  5479  0032EC                     
  5480                           ;mcc_generated_files/usb/usb_device.c: 2281:     USBBusIsSuspended = 1;
  5481  0032EC  0E01               	movlw	1
  5482  0032EE  0100               	movlb	0	; () banked
  5483  0032F0  6FA5               	movwf	_USBBusIsSuspended& (0+255),b	;volatile
  5484  0032F2                     
  5485                           ; BSR set to: 0
  5486                           ;mcc_generated_files/usb/usb_device.c: 2282:     USBTicksSinceSuspendEnd = 0;
  5487  0032F2  0E00               	movlw	0
  5488  0032F4  6FA4               	movwf	_USBTicksSinceSuspendEnd& (0+255),b	;volatile
  5489  0032F6                     
  5490                           ; BSR set to: 0
  5491                           ;mcc_generated_files/usb/usb_device.c: 2289:     USER_USB_CALLBACK_EVENT_HANDLER((USB_EV
      +                          ENT)EVENT_SUSPEND,0,0);
  5492  0032F6  0E00               	movlw	0
  5493  0032F8  6E0E               	movwf	(USER_USB_CALLBACK_EVENT_HANDLER@event+1)^0,c
  5494  0032FA  0E75               	movlw	117
  5495  0032FC  6E0D               	movwf	USER_USB_CALLBACK_EVENT_HANDLER@event^0,c
  5496  0032FE  0E00               	movlw	0
  5497  003300  6E0F               	movwf	USER_USB_CALLBACK_EVENT_HANDLER@pdata^0,c
  5498  003302  0E00               	movlw	0
  5499  003304  6E10               	movwf	(USER_USB_CALLBACK_EVENT_HANDLER@pdata+1)^0,c
  5500  003306  0E00               	movlw	0
  5501  003308  6E12               	movwf	(USER_USB_CALLBACK_EVENT_HANDLER@size+1)^0,c
  5502  00330A  0E00               	movlw	0
  5503  00330C  6E11               	movwf	USER_USB_CALLBACK_EVENT_HANDLER@size^0,c
  5504  00330E  EC4D  F017         	call	_USER_USB_CALLBACK_EVENT_HANDLER	;wreg free
  5505  003312  0012               	return		;funcret
  5506  003314                     __end_of_USBSuspend:
  5507                           	callstack 0
  5508                           
  5509 ;; *************** function _USBStallHandler *****************
  5510 ;; Defined at:
  5511 ;;		line 2206 in file "mcc_generated_files/usb/usb_device.c"
  5512 ;; Parameters:    Size  Location     Type
  5513 ;;		None
  5514 ;; Auto vars:     Size  Location     Type
  5515 ;;		None
  5516 ;; Return value:  Size  Location     Type
  5517 ;;                  1    wreg      void 
  5518 ;; Registers used:
  5519 ;;		wreg, fsr2l, fsr2h, status,2, status,0
  5520 ;; Tracked objects:
  5521 ;;		On entry : 0/0
  5522 ;;		On exit  : 0/0
  5523 ;;		Unchanged: 0/0
  5524 ;; Data sizes:     COMRAM   BANK0   BANK1   BANK2   BANK3   BANK4   BANK5   BANK6   BANK7
  5525 ;;      Params:         0       0       0       0       0       0       0       0       0
  5526 ;;      Locals:         0       0       0       0       0       0       0       0       0
  5527 ;;      Temps:          1       0       0       0       0       0       0       0       0
  5528 ;;      Totals:         1       0       0       0       0       0       0       0       0
  5529 ;;Total ram usage:        1 bytes
  5530 ;; Hardware stack levels used: 1
  5531 ;; This function calls:
  5532 ;;		Nothing
  5533 ;; This function is called by:
  5534 ;;		_USBDeviceTasks
  5535 ;; This function uses a non-reentrant model
  5536 ;;
  5537                           
  5538                           	psect	text32
  5539  002FFA                     __ptext32:
  5540                           	callstack 0
  5541  002FFA                     _USBStallHandler:
  5542                           	callstack 25
  5543  002FFA                     
  5544                           ;mcc_generated_files/usb/usb_device.c: 2218:     if(UEP0bits.EPSTALL == 1)
  5545  002FFA  A06A               	btfss	106,0,c	;volatile
  5546  002FFC  EF02  F018         	goto	i2u332_41
  5547  003000  EF04  F018         	goto	i2u332_40
  5548  003004                     i2u332_41:
  5549  003004  EF2B  F018         	goto	i2l297
  5550  003008                     i2u332_40:
  5551  003008                     
  5552                           ;mcc_generated_files/usb/usb_device.c: 2219:     {;mcc_generated_files/usb/usb_device.c:
      +                           2221:         if((pBDTEntryEP0OutCurrent->STAT.Val == 0x80) && (pBDTEntryIn[0]->STAT.Va
      +                          l == (0x80|0x04)))
  5553  003008  C03E  FFD9         	movff	_pBDTEntryEP0OutCurrent,fsr2l
  5554  00300C  C03F  FFDA         	movff	_pBDTEntryEP0OutCurrent+1,fsr2h
  5555  003010  0E80               	movlw	128
  5556  003012  18DE               	xorwf	postinc2,w,c
  5557  003014  A4D8               	btfss	status,2,c
  5558  003016  EF0F  F018         	goto	i2u333_41
  5559  00301A  EF11  F018         	goto	i2u333_40
  5560  00301E                     i2u333_41:
  5561  00301E  EF2A  F018         	goto	i2l4860
  5562  003022                     i2u333_40:
  5563  003022  C078  FFD9         	movff	_pBDTEntryIn,fsr2l
  5564  003026  C079  FFDA         	movff	_pBDTEntryIn+1,fsr2h
  5565  00302A  0E84               	movlw	132
  5566  00302C  18DE               	xorwf	postinc2,w,c
  5567  00302E  A4D8               	btfss	status,2,c
  5568  003030  EF1C  F018         	goto	i2u334_41
  5569  003034  EF1E  F018         	goto	i2u334_40
  5570  003038                     i2u334_41:
  5571  003038  EF2A  F018         	goto	i2l4860
  5572  00303C                     i2u334_40:
  5573  00303C                     
  5574                           ;mcc_generated_files/usb/usb_device.c: 2222:         {;mcc_generated_files/usb/usb_devic
      +                          e.c: 2224:             pBDTEntryEP0OutCurrent->STAT.Val = 0x00|(0x08 & 0x08)|0x04;
  5575  00303C  C03E  FFD9         	movff	_pBDTEntryEP0OutCurrent,fsr2l
  5576  003040  C03F  FFDA         	movff	_pBDTEntryEP0OutCurrent+1,fsr2h
  5577  003044  0E0C               	movlw	12
  5578  003046  6EDF               	movwf	indf2,c
  5579  003048                     
  5580                           ;mcc_generated_files/usb/usb_device.c: 2225:             pBDTEntryEP0OutCurrent->STAT.Va
      +                          l |= 0x80;
  5581  003048  C03E  FFD9         	movff	_pBDTEntryEP0OutCurrent,fsr2l
  5582  00304C  C03F  FFDA         	movff	_pBDTEntryEP0OutCurrent+1,fsr2h
  5583  003050  0E00               	movlw	0
  5584  003052  8EDB               	bsf	plusw2,7,c
  5585  003054                     i2l4860:
  5586                           
  5587                           ;mcc_generated_files/usb/usb_device.c: 2227:         UEP0bits.EPSTALL = 0;
  5588  003054  906A               	bcf	106,0,c	;volatile
  5589  003056                     i2l297:
  5590                           
  5591                           ;mcc_generated_files/usb/usb_device.c: 2230:     (UIR &= 0xDF);
  5592  003056  9A65               	bcf	101,5,c	;volatile
  5593  003058  0012               	return		;funcret
  5594  00305A                     __end_of_USBStallHandler:
  5595                           	callstack 0
  5596                           
  5597 ;; *************** function _USBIncrement1msInternalTimers *****************
  5598 ;; Defined at:
  5599 ;;		line 3029 in file "mcc_generated_files/usb/usb_device.c"
  5600 ;; Parameters:    Size  Location     Type
  5601 ;;		None
  5602 ;; Auto vars:     Size  Location     Type
  5603 ;;		None
  5604 ;; Return value:  Size  Location     Type
  5605 ;;                  1    wreg      void 
  5606 ;; Registers used:
  5607 ;;		wreg, status,2, status,0
  5608 ;; Tracked objects:
  5609 ;;		On entry : 0/0
  5610 ;;		On exit  : 0/0
  5611 ;;		Unchanged: 0/0
  5612 ;; Data sizes:     COMRAM   BANK0   BANK1   BANK2   BANK3   BANK4   BANK5   BANK6   BANK7
  5613 ;;      Params:         0       0       0       0       0       0       0       0       0
  5614 ;;      Locals:         0       0       0       0       0       0       0       0       0
  5615 ;;      Temps:          0       0       0       0       0       0       0       0       0
  5616 ;;      Totals:         0       0       0       0       0       0       0       0       0
  5617 ;;Total ram usage:        0 bytes
  5618 ;; Hardware stack levels used: 1
  5619 ;; This function calls:
  5620 ;;		Nothing
  5621 ;; This function is called by:
  5622 ;;		_USBDeviceTasks
  5623 ;; This function uses a non-reentrant model
  5624 ;;
  5625                           
  5626                           	psect	text33
  5627  003284                     __ptext33:
  5628                           	callstack 0
  5629  003284                     _USBIncrement1msInternalTimers:
  5630                           	callstack 25
  5631  003284                     
  5632                           ;mcc_generated_files/usb/usb_device.c: 3037:     USB1msTickCount++;
  5633  003284  0E01               	movlw	1
  5634  003286  262C               	addwf	_USB1msTickCount^0,f,c	;volatile
  5635  003288  0E00               	movlw	0
  5636  00328A  222D               	addwfc	(_USB1msTickCount+1)^0,f,c	;volatile
  5637  00328C  222E               	addwfc	(_USB1msTickCount+2)^0,f,c	;volatile
  5638  00328E  222F               	addwfc	(_USB1msTickCount+3)^0,f,c	;volatile
  5639  003290                     
  5640                           ;mcc_generated_files/usb/usb_device.c: 3038:     if(USBBusIsSuspended == 0)
  5641  003290  0100               	movlb	0	; () banked
  5642  003292  51A5               	movf	_USBBusIsSuspended& (0+255),w,b	;volatile
  5643  003294  A4D8               	btfss	status,2,c
  5644  003296  EF4F  F019         	goto	i2u330_41
  5645  00329A  EF51  F019         	goto	i2u330_40
  5646  00329E                     i2u330_41:
  5647  00329E  EF5B  F019         	goto	i2l389
  5648  0032A2                     i2u330_40:
  5649  0032A2                     
  5650                           ; BSR set to: 0
  5651                           ;mcc_generated_files/usb/usb_device.c: 3039:     {;mcc_generated_files/usb/usb_device.c:
      +                           3040:         USBTicksSinceSuspendEnd++;
  5652  0032A2  2BA4               	incf	_USBTicksSinceSuspendEnd& (0+255),f,b	;volatile
  5653  0032A4                     
  5654                           ; BSR set to: 0
  5655                           ;mcc_generated_files/usb/usb_device.c: 3042:         if(USBTicksSinceSuspendEnd == 0)
  5656  0032A4  51A4               	movf	_USBTicksSinceSuspendEnd& (0+255),w,b	;volatile
  5657  0032A6  A4D8               	btfss	status,2,c
  5658  0032A8  EF58  F019         	goto	i2u331_41
  5659  0032AC  EF5A  F019         	goto	i2u331_40
  5660  0032B0                     i2u331_41:
  5661  0032B0  EF5B  F019         	goto	i2l389
  5662  0032B4                     i2u331_40:
  5663  0032B4                     
  5664                           ; BSR set to: 0
  5665                           ;mcc_generated_files/usb/usb_device.c: 3043:         {;mcc_generated_files/usb/usb_devic
      +                          e.c: 3044:             USBTicksSinceSuspendEnd = 255;
  5666  0032B4  69A4               	setf	_USBTicksSinceSuspendEnd& (0+255),b	;volatile
  5667  0032B6                     i2l389:
  5668                           
  5669                           ; BSR set to: 0
  5670  0032B6  0012               	return		;funcret
  5671  0032B8                     __end_of_USBIncrement1msInternalTimers:
  5672                           	callstack 0
  5673                           
  5674 ;; *************** function _USBCtrlEPService *****************
  5675 ;; Defined at:
  5676 ;;		line 2376 in file "mcc_generated_files/usb/usb_device.c"
  5677 ;; Parameters:    Size  Location     Type
  5678 ;;		None
  5679 ;; Auto vars:     Size  Location     Type
  5680 ;;		None
  5681 ;; Return value:  Size  Location     Type
  5682 ;;                  1    wreg      void 
  5683 ;; Registers used:
  5684 ;;		wreg, fsr0l, fsr0h, fsr1l, fsr1h, fsr2l, fsr2h, status,2, status,0, tblptrl, tblptrh, tblptru, prodl, prodh, cstack
  5685 ;; Tracked objects:
  5686 ;;		On entry : 0/0
  5687 ;;		On exit  : 0/0
  5688 ;;		Unchanged: 0/0
  5689 ;; Data sizes:     COMRAM   BANK0   BANK1   BANK2   BANK3   BANK4   BANK5   BANK6   BANK7
  5690 ;;      Params:         0       0       0       0       0       0       0       0       0
  5691 ;;      Locals:         0       0       0       0       0       0       0       0       0
  5692 ;;      Temps:          1       0       0       0       0       0       0       0       0
  5693 ;;      Totals:         1       0       0       0       0       0       0       0       0
  5694 ;;Total ram usage:        1 bytes
  5695 ;; Hardware stack levels used: 1
  5696 ;; Hardware stack levels required when called: 7
  5697 ;; This function calls:
  5698 ;;		_USBCtrlTrfInHandler
  5699 ;;		_USBCtrlTrfOutHandler
  5700 ;;		_USBCtrlTrfSetupHandler
  5701 ;;		_memcpy
  5702 ;; This function is called by:
  5703 ;;		_USBDeviceTasks
  5704 ;; This function uses a non-reentrant model
  5705 ;;
  5706                           
  5707                           	psect	text34
  5708  002AAA                     __ptext34:
  5709                           	callstack 0
  5710  002AAA                     _USBCtrlEPService:
  5711                           	callstack 18
  5712  002AAA                     
  5713                           ;mcc_generated_files/usb/usb_device.c: 2382:         USBStatusStageTimeoutCounter = (uin
      +                          t8_t)45;
  5714  002AAA  0E2D               	movlw	45
  5715  002AAC  6E4A               	movwf	_USBStatusStageTimeoutCounter^0,c	;volatile
  5716  002AAE                     
  5717                           ;mcc_generated_files/usb/usb_device.c: 2386:     if((USTATcopy.Val & ~0x02) == 0x00)
  5718  002AAE  C053  F01E         	movff	_USTATcopy,??_USBCtrlEPService	;volatile
  5719  002AB2  0EFD               	movlw	253
  5720  002AB4  161E               	andwf	??_USBCtrlEPService^0,f,c
  5721  002AB6  A4D8               	btfss	status,2,c
  5722  002AB8  EF60  F015         	goto	i2u335_41
  5723  002ABC  EF62  F015         	goto	i2u335_40
  5724  002AC0                     i2u335_41:
  5725  002AC0  EFA4  F015         	goto	i2l4880
  5726  002AC4                     i2u335_40:
  5727  002AC4                     
  5728                           ;mcc_generated_files/usb/usb_device.c: 2387:     {;mcc_generated_files/usb/usb_device.c:
      +                           2390:             pBDTEntryEP0OutCurrent = (volatile BDT_ENTRY*)&BDT[(USTATcopy.Val & 0
      +                          x7E)>>1];
  5729  002AC4  C053  F01E         	movff	_USTATcopy,??_USBCtrlEPService	;volatile
  5730  002AC8  90D8               	bcf	status,0,c
  5731  002ACA  321E               	rrcf	??_USBCtrlEPService^0,f,c
  5732  002ACC  0E3F               	movlw	63
  5733  002ACE  161E               	andwf	??_USBCtrlEPService^0,f,c
  5734  002AD0  501E               	movf	??_USBCtrlEPService^0,w,c
  5735  002AD2  0D04               	mullw	4
  5736  002AD4  0E00               	movlw	0
  5737  002AD6  24F3               	addwf	243,w,c
  5738  002AD8  6E3E               	movwf	_pBDTEntryEP0OutCurrent^0,c
  5739  002ADA  0E04               	movlw	4
  5740  002ADC  20F4               	addwfc	prodh,w,c
  5741  002ADE  6E3F               	movwf	(_pBDTEntryEP0OutCurrent+1)^0,c
  5742  002AE0                     
  5743                           ;mcc_generated_files/usb/usb_device.c: 2398:         pBDTEntryEP0OutNext = pBDTEntryEP0O
      +                          utCurrent;
  5744  002AE0  C03E  F03C         	movff	_pBDTEntryEP0OutCurrent,_pBDTEntryEP0OutNext
  5745  002AE4  C03F  F03D         	movff	_pBDTEntryEP0OutCurrent+1,_pBDTEntryEP0OutNext+1
  5746  002AE8                     
  5747                           ;mcc_generated_files/usb/usb_device.c: 2400:         pBDTEntryEP0OutNext = (volatile BDT
      +                          _ENTRY*)(((uint16_t)pBDTEntryEP0OutNext) ^ 0x0004);
  5748  002AE8  0E04               	movlw	4
  5749  002AEA  183C               	xorwf	_pBDTEntryEP0OutNext^0,w,c
  5750  002AEC  6E3C               	movwf	_pBDTEntryEP0OutNext^0,c
  5751  002AEE  503D               	movf	(_pBDTEntryEP0OutNext+1)^0,w,c
  5752  002AF0  6E3D               	movwf	(_pBDTEntryEP0OutNext+1)^0,c
  5753  002AF2                     
  5754                           ;mcc_generated_files/usb/usb_device.c: 2403:         if(pBDTEntryEP0OutCurrent->STAT.PID
      +                           == 0xD)
  5755  002AF2  C03E  FFD9         	movff	_pBDTEntryEP0OutCurrent,fsr2l
  5756  002AF6  C03F  FFDA         	movff	_pBDTEntryEP0OutCurrent+1,fsr2h
  5757  002AFA  30DF               	rrcf	223,w,c
  5758  002AFC  32E8               	rrcf	wreg,f,c
  5759  002AFE  0B0F               	andlw	15
  5760  002B00  0A0D               	xorlw	13
  5761  002B02  A4D8               	btfss	status,2,c
  5762  002B04  EF86  F015         	goto	i2u336_41
  5763  002B08  EF88  F015         	goto	i2u336_40
  5764  002B0C                     i2u336_41:
  5765  002B0C  EFA0  F015         	goto	i2l4878
  5766  002B10                     i2u336_40:
  5767  002B10                     
  5768                           ;mcc_generated_files/usb/usb_device.c: 2404:         {;mcc_generated_files/usb/usb_devic
      +                          e.c: 2409:             memcpy((uint8_t*)&SetupPkt, (uint8_t*)((void *)(pBDTEntryEP0OutCu
      +                          rrent->ADR)), 8);
  5769  002B10  0E30               	movlw	48
  5770  002B12  6E01               	movwf	memcpy@d1^0,c
  5771  002B14  0E04               	movlw	4
  5772  002B16  6E02               	movwf	(memcpy@d1+1)^0,c
  5773  002B18  EE20 F002          	lfsr	2,2
  5774  002B1C  503E               	movf	_pBDTEntryEP0OutCurrent^0,w,c
  5775  002B1E  26D9               	addwf	fsr2l,f,c
  5776  002B20  503F               	movf	(_pBDTEntryEP0OutCurrent+1)^0,w,c
  5777  002B22  22DA               	addwfc	fsr2h,f,c
  5778  002B24  CFDE F003          	movff	postinc2,memcpy@s1
  5779  002B28  CFDD F004          	movff	postdec2,memcpy@s1+1
  5780  002B2C  0E00               	movlw	0
  5781  002B2E  6E06               	movwf	(memcpy@n+1)^0,c
  5782  002B30  0E08               	movlw	8
  5783  002B32  6E05               	movwf	memcpy@n^0,c
  5784  002B34  EC56  F018         	call	_memcpy	;wreg free
  5785  002B38                     
  5786                           ;mcc_generated_files/usb/usb_device.c: 2412:             USBCtrlTrfSetupHandler();
  5787  002B38  EC05  F017         	call	_USBCtrlTrfSetupHandler	;wreg free
  5788                           
  5789                           ;mcc_generated_files/usb/usb_device.c: 2413:         }
  5790  002B3C  EFB0  F015         	goto	i2l316
  5791  002B40                     i2l4878:
  5792                           
  5793                           ;mcc_generated_files/usb/usb_device.c: 2415:         {;mcc_generated_files/usb/usb_devic
      +                          e.c: 2417:             USBCtrlTrfOutHandler();
  5794  002B40  EC91  F017         	call	_USBCtrlTrfOutHandler	;wreg free
  5795  002B44  EFB0  F015         	goto	i2l316
  5796  002B48                     i2l4880:
  5797  002B48  5053               	movf	_USTATcopy^0,w,c	;volatile
  5798  002B4A  0BFD               	andlw	253
  5799  002B4C  0A04               	xorlw	4
  5800  002B4E  A4D8               	btfss	status,2,c
  5801  002B50  EFAC  F015         	goto	i2u337_41
  5802  002B54  EFAE  F015         	goto	i2u337_40
  5803  002B58                     i2u337_41:
  5804  002B58  EFB0  F015         	goto	i2l316
  5805  002B5C                     i2u337_40:
  5806  002B5C                     
  5807                           ;mcc_generated_files/usb/usb_device.c: 2421:     {;mcc_generated_files/usb/usb_device.c:
      +                           2424:         USBCtrlTrfInHandler();
  5808  002B5C  ECE2  F013         	call	_USBCtrlTrfInHandler	;wreg free
  5809  002B60                     i2l316:
  5810  002B60  0012               	return		;funcret
  5811  002B62                     __end_of_USBCtrlEPService:
  5812                           	callstack 0
  5813                           
  5814 ;; *************** function _memcpy *****************
  5815 ;; Defined at:
  5816 ;;		line 4 in file "/Applications/microchip/xc8/v2.36/pic/sources/c99/common/memcpy.c"
  5817 ;; Parameters:    Size  Location     Type
  5818 ;;  d1              2    0[COMRAM] PTR void 
  5819 ;;		 -> SetupPkt(8), 
  5820 ;;  s1              2    2[COMRAM] PTR const void 
  5821 ;;		 -> CtrlTrfData(8), RAM(2047), SetupPkt(8), 
  5822 ;;  n               2    4[COMRAM] unsigned int 
  5823 ;; Auto vars:     Size  Location     Type
  5824 ;;  s               2    8[COMRAM] PTR const unsigned char 
  5825 ;;		 -> CtrlTrfData(8), RAM(2047), SetupPkt(8), 
  5826 ;;  d               2    6[COMRAM] PTR unsigned char 
  5827 ;;		 -> SetupPkt(8), 
  5828 ;;  tmp             1   10[COMRAM] unsigned char 
  5829 ;; Return value:  Size  Location     Type
  5830 ;;                  2    0[COMRAM] PTR void 
  5831 ;; Registers used:
  5832 ;;		wreg, fsr2l, fsr2h, status,2, status,0
  5833 ;; Tracked objects:
  5834 ;;		On entry : 0/0
  5835 ;;		On exit  : 0/0
  5836 ;;		Unchanged: 0/0
  5837 ;; Data sizes:     COMRAM   BANK0   BANK1   BANK2   BANK3   BANK4   BANK5   BANK6   BANK7
  5838 ;;      Params:         6       0       0       0       0       0       0       0       0
  5839 ;;      Locals:         5       0       0       0       0       0       0       0       0
  5840 ;;      Temps:          0       0       0       0       0       0       0       0       0
  5841 ;;      Totals:        11       0       0       0       0       0       0       0       0
  5842 ;;Total ram usage:       11 bytes
  5843 ;; Hardware stack levels used: 1
  5844 ;; This function calls:
  5845 ;;		Nothing
  5846 ;; This function is called by:
  5847 ;;		_USBCtrlEPService
  5848 ;; This function uses a non-reentrant model
  5849 ;;
  5850                           
  5851                           	psect	text35
  5852  0030AC                     __ptext35:
  5853                           	callstack 0
  5854  0030AC                     _memcpy:
  5855                           	callstack 24
  5856  0030AC  C003  F009         	movff	memcpy@s1,memcpy@s
  5857  0030B0  C004  F00A         	movff	memcpy@s1+1,memcpy@s+1
  5858  0030B4  C001  F007         	movff	memcpy@d1,memcpy@d
  5859  0030B8  C002  F008         	movff	memcpy@d1+1,memcpy@d+1
  5860  0030BC  EF70  F018         	goto	i2l4574
  5861  0030C0                     i2l4566:
  5862  0030C0  C009  FFD9         	movff	memcpy@s,fsr2l
  5863  0030C4  C00A  FFDA         	movff	memcpy@s+1,fsr2h
  5864  0030C8  50DF               	movf	indf2,w,c
  5865  0030CA  6E0B               	movwf	memcpy@tmp^0,c
  5866  0030CC  4A09               	infsnz	memcpy@s^0,f,c
  5867  0030CE  2A0A               	incf	(memcpy@s+1)^0,f,c
  5868  0030D0  C007  FFD9         	movff	memcpy@d,fsr2l
  5869  0030D4  C008  FFDA         	movff	memcpy@d+1,fsr2h
  5870  0030D8  C00B  FFDF         	movff	memcpy@tmp,indf2
  5871  0030DC  4A07               	infsnz	memcpy@d^0,f,c
  5872  0030DE  2A08               	incf	(memcpy@d+1)^0,f,c
  5873  0030E0                     i2l4574:
  5874  0030E0  0605               	decf	memcpy@n^0,f,c
  5875  0030E2  A0D8               	btfss	status,0,c
  5876  0030E4  0606               	decf	(memcpy@n+1)^0,f,c
  5877  0030E6  2805               	incf	memcpy@n^0,w,c
  5878  0030E8  E106               	bnz	i2u303_41
  5879  0030EA  2806               	incf	(memcpy@n+1)^0,w,c
  5880  0030EC  A4D8               	btfss	status,2,c
  5881  0030EE  EF7B  F018         	goto	i2u303_41
  5882  0030F2  EF7D  F018         	goto	i2u303_40
  5883  0030F6                     i2u303_41:
  5884  0030F6  EF60  F018         	goto	i2l4566
  5885  0030FA                     i2u303_40:
  5886  0030FA  0012               	return		;funcret
  5887  0030FC                     __end_of_memcpy:
  5888                           	callstack 0
  5889                           
  5890 ;; *************** function _USBCtrlTrfSetupHandler *****************
  5891 ;; Defined at:
  5892 ;;		line 2469 in file "mcc_generated_files/usb/usb_device.c"
  5893 ;; Parameters:    Size  Location     Type
  5894 ;;		None
  5895 ;; Auto vars:     Size  Location     Type
  5896 ;;		None
  5897 ;; Return value:  Size  Location     Type
  5898 ;;                  1    wreg      void 
  5899 ;; Registers used:
  5900 ;;		wreg, fsr0l, fsr0h, fsr2l, fsr2h, status,2, status,0, tblptrl, tblptrh, tblptru, prodl, prodh, cstack
  5901 ;; Tracked objects:
  5902 ;;		On entry : 0/0
  5903 ;;		On exit  : 0/0
  5904 ;;		Unchanged: 0/0
  5905 ;; Data sizes:     COMRAM   BANK0   BANK1   BANK2   BANK3   BANK4   BANK5   BANK6   BANK7
  5906 ;;      Params:         0       0       0       0       0       0       0       0       0
  5907 ;;      Locals:         0       0       0       0       0       0       0       0       0
  5908 ;;      Temps:          0       0       0       0       0       0       0       0       0
  5909 ;;      Totals:         0       0       0       0       0       0       0       0       0
  5910 ;;Total ram usage:        0 bytes
  5911 ;; Hardware stack levels used: 1
  5912 ;; Hardware stack levels required when called: 6
  5913 ;; This function calls:
  5914 ;;		_USBCheckStdRequest
  5915 ;;		_USBCtrlEPServiceComplete
  5916 ;;		_USER_USB_CALLBACK_EVENT_HANDLER
  5917 ;; This function is called by:
  5918 ;;		_USBCtrlEPService
  5919 ;; This function uses a non-reentrant model
  5920 ;;
  5921                           
  5922                           	psect	text36
  5923  002E0A                     __ptext36:
  5924                           	callstack 0
  5925  002E0A                     _USBCtrlTrfSetupHandler:
  5926                           	callstack 18
  5927  002E0A                     
  5928                           ;mcc_generated_files/usb/usb_device.c: 2474:     shortPacketStatus = 0;
  5929  002E0A  0E00               	movlw	0
  5930  002E0C  6E4F               	movwf	_shortPacketStatus^0,c	;volatile
  5931                           
  5932                           ;mcc_generated_files/usb/usb_device.c: 2475:     USBDeferStatusStagePacket = 0;
  5933  002E0E  0E00               	movlw	0
  5934  002E10  6E49               	movwf	_USBDeferStatusStagePacket^0,c	;volatile
  5935                           
  5936                           ;mcc_generated_files/usb/usb_device.c: 2476:     USBDeferINDataStagePackets = 0;
  5937  002E12  0E00               	movlw	0
  5938  002E14  6E46               	movwf	_USBDeferINDataStagePackets^0,c	;volatile
  5939                           
  5940                           ;mcc_generated_files/usb/usb_device.c: 2477:     USBDeferOUTDataStagePackets = 0;
  5941  002E16  0E00               	movlw	0
  5942  002E18  6E45               	movwf	_USBDeferOUTDataStagePackets^0,c	;volatile
  5943                           
  5944                           ;mcc_generated_files/usb/usb_device.c: 2478:     BothEP0OutUOWNsSet = 0;
  5945  002E1A  0E00               	movlw	0
  5946  002E1C  6E4B               	movwf	_BothEP0OutUOWNsSet^0,c	;volatile
  5947                           
  5948                           ;mcc_generated_files/usb/usb_device.c: 2479:     controlTransferState = 0;
  5949  002E1E  0E00               	movlw	0
  5950  002E20  6E4E               	movwf	_controlTransferState^0,c	;volatile
  5951  002E22                     
  5952                           ;mcc_generated_files/usb/usb_device.c: 2488:     pBDTEntryIn[0]->STAT.Val &= ~(0x80);
  5953  002E22  C078  FFD9         	movff	_pBDTEntryIn,fsr2l
  5954  002E26  C079  FFDA         	movff	_pBDTEntryIn+1,fsr2h
  5955  002E2A  0E7F               	movlw	127
  5956  002E2C  16DF               	andwf	indf2,f,c
  5957  002E2E                     
  5958                           ;mcc_generated_files/usb/usb_device.c: 2490:     pBDTEntryIn[0] = (volatile BDT_ENTRY*)(
      +                          ((uint16_t)pBDTEntryIn[0]) ^ 0x0004);
  5959  002E2E  0E04               	movlw	4
  5960  002E30  0100               	movlb	0	; () banked
  5961  002E32  1978               	xorwf	_pBDTEntryIn& (0+255),w,b
  5962  002E34  6F78               	movwf	_pBDTEntryIn& (0+255),b
  5963  002E36  5179               	movf	(_pBDTEntryIn+1)& (0+255),w,b
  5964  002E38  6F79               	movwf	(_pBDTEntryIn+1)& (0+255),b
  5965  002E3A                     
  5966                           ; BSR set to: 0
  5967                           ;mcc_generated_files/usb/usb_device.c: 2491:     pBDTEntryIn[0]->STAT.Val &= ~(0x80);
  5968  002E3A  C078  FFD9         	movff	_pBDTEntryIn,fsr2l
  5969  002E3E  C079  FFDA         	movff	_pBDTEntryIn+1,fsr2h
  5970  002E42  0E7F               	movlw	127
  5971  002E44  16DF               	andwf	indf2,f,c
  5972  002E46                     
  5973                           ; BSR set to: 0
  5974                           ;mcc_generated_files/usb/usb_device.c: 2492:     pBDTEntryIn[0] = (volatile BDT_ENTRY*)(
      +                          ((uint16_t)pBDTEntryIn[0]) ^ 0x0004);
  5975  002E46  0E04               	movlw	4
  5976  002E48  1978               	xorwf	_pBDTEntryIn& (0+255),w,b
  5977  002E4A  6F78               	movwf	_pBDTEntryIn& (0+255),b
  5978  002E4C  5179               	movf	(_pBDTEntryIn+1)& (0+255),w,b
  5979  002E4E  6F79               	movwf	(_pBDTEntryIn+1)& (0+255),b
  5980  002E50                     
  5981                           ; BSR set to: 0
  5982                           ;mcc_generated_files/usb/usb_device.c: 2493:     pBDTEntryEP0OutNext->STAT.Val &= ~(0x80
      +                          );
  5983  002E50  C03C  FFD9         	movff	_pBDTEntryEP0OutNext,fsr2l
  5984  002E54  C03D  FFDA         	movff	_pBDTEntryEP0OutNext+1,fsr2h
  5985  002E58  0E7F               	movlw	127
  5986  002E5A  16DF               	andwf	indf2,f,c
  5987  002E5C                     
  5988                           ; BSR set to: 0
  5989                           ;mcc_generated_files/usb/usb_device.c: 2495:     inPipes[0].info.Val = 0;
  5990  002E5C  0E00               	movlw	0
  5991  002E5E  6F75               	movwf	(_inPipes+3)& (0+255),b	;volatile
  5992  002E60                     
  5993                           ; BSR set to: 0
  5994                           ;mcc_generated_files/usb/usb_device.c: 2496:     inPipes[0].wCount.Val = 0;
  5995  002E60  0E00               	movlw	0
  5996  002E62  6F77               	movwf	(_inPipes+5)& (0+255),b	;volatile
  5997  002E64  0E00               	movlw	0
  5998  002E66  6F76               	movwf	(_inPipes+4)& (0+255),b	;volatile
  5999  002E68                     
  6000                           ; BSR set to: 0
  6001                           ;mcc_generated_files/usb/usb_device.c: 2497:     outPipes[0].info.Val = 0;
  6002  002E68  0E00               	movlw	0
  6003  002E6A  6F6D               	movwf	(_outPipes+3)& (0+255),b	;volatile
  6004  002E6C                     
  6005                           ; BSR set to: 0
  6006                           ;mcc_generated_files/usb/usb_device.c: 2498:     outPipes[0].wCount.Val = 0;
  6007  002E6C  0E00               	movlw	0
  6008  002E6E  6F6F               	movwf	(_outPipes+5)& (0+255),b	;volatile
  6009  002E70  0E00               	movlw	0
  6010  002E72  6F6E               	movwf	(_outPipes+4)& (0+255),b	;volatile
  6011  002E74                     
  6012                           ; BSR set to: 0
  6013                           ;mcc_generated_files/usb/usb_device.c: 2504:     USBCheckStdRequest();
  6014  002E74  ECBA  F011         	call	_USBCheckStdRequest	;wreg free
  6015  002E78                     
  6016                           ;mcc_generated_files/usb/usb_device.c: 2505:     USER_USB_CALLBACK_EVENT_HANDLER((USB_EV
      +                          ENT)EVENT_EP0_REQUEST,0,0);
  6017  002E78  0E00               	movlw	0
  6018  002E7A  6E0E               	movwf	(USER_USB_CALLBACK_EVENT_HANDLER@event+1)^0,c
  6019  002E7C  0E03               	movlw	3
  6020  002E7E  6E0D               	movwf	USER_USB_CALLBACK_EVENT_HANDLER@event^0,c
  6021  002E80  0E00               	movlw	0
  6022  002E82  6E0F               	movwf	USER_USB_CALLBACK_EVENT_HANDLER@pdata^0,c
  6023  002E84  0E00               	movlw	0
  6024  002E86  6E10               	movwf	(USER_USB_CALLBACK_EVENT_HANDLER@pdata+1)^0,c
  6025  002E88  0E00               	movlw	0
  6026  002E8A  6E12               	movwf	(USER_USB_CALLBACK_EVENT_HANDLER@size+1)^0,c
  6027  002E8C  0E00               	movlw	0
  6028  002E8E  6E11               	movwf	USER_USB_CALLBACK_EVENT_HANDLER@size^0,c
  6029  002E90  EC4D  F017         	call	_USER_USB_CALLBACK_EVENT_HANDLER	;wreg free
  6030  002E94                     
  6031                           ;mcc_generated_files/usb/usb_device.c: 2518:     USBCtrlEPServiceComplete();
  6032  002E94  ECE1  F00F         	call	_USBCtrlEPServiceComplete	;wreg free
  6033  002E98  0012               	return		;funcret
  6034  002E9A                     __end_of_USBCtrlTrfSetupHandler:
  6035                           	callstack 0
  6036                           
  6037 ;; *************** function _USBCtrlEPServiceComplete *****************
  6038 ;; Defined at:
  6039 ;;		line 1620 in file "mcc_generated_files/usb/usb_device.c"
  6040 ;; Parameters:    Size  Location     Type
  6041 ;;		None
  6042 ;; Auto vars:     Size  Location     Type
  6043 ;;		None
  6044 ;; Return value:  Size  Location     Type
  6045 ;;                  1    wreg      void 
  6046 ;; Registers used:
  6047 ;;		wreg, fsr0l, fsr0h, fsr2l, fsr2h, status,2, status,0, tblptrl, tblptrh, tblptru, cstack
  6048 ;; Tracked objects:
  6049 ;;		On entry : 0/0
  6050 ;;		On exit  : 0/0
  6051 ;;		Unchanged: 0/0
  6052 ;; Data sizes:     COMRAM   BANK0   BANK1   BANK2   BANK3   BANK4   BANK5   BANK6   BANK7
  6053 ;;      Params:         0       0       0       0       0       0       0       0       0
  6054 ;;      Locals:         0       0       0       0       0       0       0       0       0
  6055 ;;      Temps:          0       0       0       0       0       0       0       0       0
  6056 ;;      Totals:         0       0       0       0       0       0       0       0       0
  6057 ;;Total ram usage:        0 bytes
  6058 ;; Hardware stack levels used: 1
  6059 ;; Hardware stack levels required when called: 2
  6060 ;; This function calls:
  6061 ;;		_USBCtrlEPAllowDataStage
  6062 ;;		_USBCtrlEPAllowStatusStage
  6063 ;; This function is called by:
  6064 ;;		_USBCtrlTrfSetupHandler
  6065 ;; This function uses a non-reentrant model
  6066 ;;
  6067                           
  6068                           	psect	text37
  6069  001FC2                     __ptext37:
  6070                           	callstack 0
  6071  001FC2                     _USBCtrlEPServiceComplete:
  6072                           	callstack 21
  6073  001FC2                     
  6074                           ;mcc_generated_files/usb/usb_device.c: 1626:     UCONbits.PKTDIS = 0;
  6075  001FC2  9860               	bcf	96,4,c	;volatile
  6076                           
  6077                           ;mcc_generated_files/usb/usb_device.c: 1632:     if(inPipes[0].info.bits.busy == 0)
  6078  001FC4  0100               	movlb	0	; () banked
  6079  001FC6  BF75               	btfsc	(_inPipes+3)& (0+255),7,b	;volatile
  6080  001FC8  EFE8  F00F         	goto	i2u282_41
  6081  001FCC  EFEA  F00F         	goto	i2u282_40
  6082  001FD0                     i2u282_41:
  6083  001FD0  EF2F  F010         	goto	i2l221
  6084  001FD4                     i2u282_40:
  6085  001FD4                     
  6086                           ; BSR set to: 0
  6087                           ;mcc_generated_files/usb/usb_device.c: 1633:     {;mcc_generated_files/usb/usb_device.c:
      +                           1634:         if(outPipes[0].info.bits.busy == 1)
  6088  001FD4  AF6D               	btfss	(_outPipes+3)& (0+255),7,b	;volatile
  6089  001FD6  EFEF  F00F         	goto	i2u283_41
  6090  001FDA  EFF1  F00F         	goto	i2u283_40
  6091  001FDE                     i2u283_41:
  6092  001FDE  EF03  F010         	goto	i2l4376
  6093  001FE2                     i2u283_40:
  6094  001FE2                     
  6095                           ; BSR set to: 0
  6096                           ;mcc_generated_files/usb/usb_device.c: 1635:         {;mcc_generated_files/usb/usb_devic
      +                          e.c: 1636:             controlTransferState = 2;
  6097  001FE2  0E02               	movlw	2
  6098  001FE4  6E4E               	movwf	_controlTransferState^0,c	;volatile
  6099                           
  6100                           ;mcc_generated_files/usb/usb_device.c: 1647:             if(USBDeferOUTDataStagePackets 
      +                          == 0)
  6101  001FE6  5045               	movf	_USBDeferOUTDataStagePackets^0,w,c	;volatile
  6102  001FE8  A4D8               	btfss	status,2,c
  6103  001FEA  EFF9  F00F         	goto	i2u284_41
  6104  001FEE  EFFB  F00F         	goto	i2u284_40
  6105  001FF2                     i2u284_41:
  6106  001FF2  EFFD  F00F         	goto	i2l4372
  6107  001FF6                     i2u284_40:
  6108  001FF6                     
  6109                           ; BSR set to: 0
  6110                           ;mcc_generated_files/usb/usb_device.c: 1648:             {;mcc_generated_files/usb/usb_d
      +                          evice.c: 1649:                 USBCtrlEPAllowDataStage();
  6111  001FF6  ECB1  F015         	call	_USBCtrlEPAllowDataStage	;wreg free
  6112  001FFA                     i2l4372:
  6113                           
  6114                           ;mcc_generated_files/usb/usb_device.c: 1654:             USBStatusStageEnabledFlag2 = 0;
  6115  001FFA  0E00               	movlw	0
  6116  001FFC  6E47               	movwf	_USBStatusStageEnabledFlag2^0,c	;volatile
  6117  001FFE                     
  6118                           ;mcc_generated_files/usb/usb_device.c: 1655:             USBStatusStageEnabledFlag1 = 0;
  6119  001FFE  0E00               	movlw	0
  6120  002000  6E48               	movwf	_USBStatusStageEnabledFlag1^0,c	;volatile
  6121                           
  6122                           ;mcc_generated_files/usb/usb_device.c: 1656:         }
  6123  002002  EF81  F010         	goto	i2l231
  6124  002006                     i2l4376:
  6125                           
  6126                           ; BSR set to: 0
  6127                           ;mcc_generated_files/usb/usb_device.c: 1658:         {;mcc_generated_files/usb/usb_devic
      +                          e.c: 1663:             pBDTEntryEP0OutNext->CNT = 8;
  6128  002006  EE20 F001          	lfsr	2,1
  6129  00200A  503C               	movf	_pBDTEntryEP0OutNext^0,w,c
  6130  00200C  26D9               	addwf	fsr2l,f,c
  6131  00200E  503D               	movf	(_pBDTEntryEP0OutNext+1)^0,w,c
  6132  002010  22DA               	addwfc	fsr2h,f,c
  6133  002012  0E08               	movlw	8
  6134  002014  6EDF               	movwf	indf2,c
  6135                           
  6136                           ;mcc_generated_files/usb/usb_device.c: 1664:             pBDTEntryEP0OutNext->ADR = ((ui
      +                          nt16_t)(&SetupPkt));
  6137  002016  EE20 F002          	lfsr	2,2
  6138  00201A  503C               	movf	_pBDTEntryEP0OutNext^0,w,c
  6139  00201C  26D9               	addwf	fsr2l,f,c
  6140  00201E  503D               	movf	(_pBDTEntryEP0OutNext+1)^0,w,c
  6141  002020  22DA               	addwfc	fsr2h,f,c
  6142  002022  0E30               	movlw	48
  6143  002024  6EDE               	movwf	postinc2,c
  6144  002026  0E04               	movlw	4
  6145  002028  6EDD               	movwf	postdec2,c
  6146  00202A                     
  6147                           ; BSR set to: 0
  6148                           ;mcc_generated_files/usb/usb_device.c: 1665:             pBDTEntryEP0OutNext->STAT.Val =
      +                           0x00|(0x08 & 0x08)|0x04;
  6149  00202A  C03C  FFD9         	movff	_pBDTEntryEP0OutNext,fsr2l
  6150  00202E  C03D  FFDA         	movff	_pBDTEntryEP0OutNext+1,fsr2h
  6151  002032  0E0C               	movlw	12
  6152  002034  6EDF               	movwf	indf2,c
  6153  002036                     
  6154                           ; BSR set to: 0
  6155                           ;mcc_generated_files/usb/usb_device.c: 1666:             pBDTEntryEP0OutNext->STAT.Val |
      +                          = 0x80;
  6156  002036  C03C  FFD9         	movff	_pBDTEntryEP0OutNext,fsr2l
  6157  00203A  C03D  FFDA         	movff	_pBDTEntryEP0OutNext+1,fsr2h
  6158  00203E  0E00               	movlw	0
  6159  002040  8EDB               	bsf	plusw2,7,c
  6160                           
  6161                           ;mcc_generated_files/usb/usb_device.c: 1667:             pBDTEntryIn[0]->STAT.Val = 0x04
      +                          ;
  6162  002042  C078  FFD9         	movff	_pBDTEntryIn,fsr2l
  6163  002046  C079  FFDA         	movff	_pBDTEntryIn+1,fsr2h
  6164  00204A  0E04               	movlw	4
  6165  00204C  6EDF               	movwf	indf2,c
  6166  00204E                     
  6167                           ; BSR set to: 0
  6168                           ;mcc_generated_files/usb/usb_device.c: 1668:             pBDTEntryIn[0]->STAT.Val |= 0x8
      +                          0;
  6169  00204E  C078  FFD9         	movff	_pBDTEntryIn,fsr2l
  6170  002052  C079  FFDA         	movff	_pBDTEntryIn+1,fsr2h
  6171  002056  0E00               	movlw	0
  6172  002058  8EDB               	bsf	plusw2,7,c
  6173  00205A  EF81  F010         	goto	i2l231
  6174  00205E                     i2l221:
  6175                           
  6176                           ; BSR set to: 0
  6177                           ;mcc_generated_files/usb/usb_device.c: 1672:     {;mcc_generated_files/usb/usb_device.c:
      +                           1673:   if(SetupPkt.DataDir == (0x80>>7))
  6178  00205E  0104               	movlb	4	; () banked
  6179  002060  AF30               	btfss	48,7,b	;volatile
  6180  002062  EF35  F010         	goto	i2u285_41
  6181  002066  EF37  F010         	goto	i2u285_40
  6182  00206A                     i2u285_41:
  6183  00206A  EF53  F010         	goto	i2l4396
  6184  00206E                     i2u285_40:
  6185  00206E                     
  6186                           ; BSR set to: 4
  6187                           ;mcc_generated_files/usb/usb_device.c: 1674:   {;mcc_generated_files/usb/usb_device.c: 1
      +                          675:    controlTransferState = 1;
  6188  00206E  0E01               	movlw	1
  6189  002070  6E4E               	movwf	_controlTransferState^0,c	;volatile
  6190                           
  6191                           ;mcc_generated_files/usb/usb_device.c: 1689:    if(USBDeferINDataStagePackets == 0)
  6192  002072  5046               	movf	_USBDeferINDataStagePackets^0,w,c	;volatile
  6193  002074  A4D8               	btfss	status,2,c
  6194  002076  EF3F  F010         	goto	i2u286_41
  6195  00207A  EF41  F010         	goto	i2u286_40
  6196  00207E                     i2u286_41:
  6197  00207E  EF43  F010         	goto	i2l4388
  6198  002082                     i2u286_40:
  6199  002082                     
  6200                           ; BSR set to: 4
  6201                           ;mcc_generated_files/usb/usb_device.c: 1690:             {;mcc_generated_files/usb/usb_d
      +                          evice.c: 1691:                 USBCtrlEPAllowDataStage();
  6202  002082  ECB1  F015         	call	_USBCtrlEPAllowDataStage	;wreg free
  6203  002086                     i2l4388:
  6204                           
  6205                           ;mcc_generated_files/usb/usb_device.c: 1714:             USBStatusStageEnabledFlag2 = 0;
  6206  002086  0E00               	movlw	0
  6207  002088  6E47               	movwf	_USBStatusStageEnabledFlag2^0,c	;volatile
  6208  00208A                     
  6209                           ;mcc_generated_files/usb/usb_device.c: 1715:             USBStatusStageEnabledFlag1 = 0;
  6210  00208A  0E00               	movlw	0
  6211  00208C  6E48               	movwf	_USBStatusStageEnabledFlag1^0,c	;volatile
  6212  00208E                     
  6213                           ;mcc_generated_files/usb/usb_device.c: 1716:             if(USBDeferStatusStagePacket ==
      +                           0)
  6214  00208E  5049               	movf	_USBDeferStatusStagePacket^0,w,c	;volatile
  6215  002090  A4D8               	btfss	status,2,c
  6216  002092  EF4D  F010         	goto	i2u287_41
  6217  002096  EF4F  F010         	goto	i2u287_40
  6218  00209A                     i2u287_41:
  6219  00209A  EF81  F010         	goto	i2l231
  6220  00209E                     i2u287_40:
  6221  00209E                     i2l4394:
  6222                           
  6223                           ;mcc_generated_files/usb/usb_device.c: 1717:             {;mcc_generated_files/usb/usb_d
      +                          evice.c: 1718:                 USBCtrlEPAllowStatusStage();
  6224  00209E  EC67  F014         	call	_USBCtrlEPAllowStatusStage	;wreg free
  6225  0020A2  EF81  F010         	goto	i2l231
  6226  0020A6                     i2l4396:
  6227                           
  6228                           ; BSR set to: 4
  6229                           ;mcc_generated_files/usb/usb_device.c: 1722:   {;mcc_generated_files/usb/usb_device.c: 1
      +                          733:    controlTransferState = 2;
  6230  0020A6  0E02               	movlw	2
  6231  0020A8  6E4E               	movwf	_controlTransferState^0,c	;volatile
  6232  0020AA                     
  6233                           ; BSR set to: 4
  6234                           ;mcc_generated_files/usb/usb_device.c: 1736:    pBDTEntryEP0OutNext->CNT = 8;
  6235  0020AA  EE20 F001          	lfsr	2,1
  6236  0020AE  503C               	movf	_pBDTEntryEP0OutNext^0,w,c
  6237  0020B0  26D9               	addwf	fsr2l,f,c
  6238  0020B2  503D               	movf	(_pBDTEntryEP0OutNext+1)^0,w,c
  6239  0020B4  22DA               	addwfc	fsr2h,f,c
  6240  0020B6  0E08               	movlw	8
  6241  0020B8  6EDF               	movwf	indf2,c
  6242  0020BA                     
  6243                           ; BSR set to: 4
  6244                           ;mcc_generated_files/usb/usb_device.c: 1737:    pBDTEntryEP0OutNext->ADR = ((uint16_t)(&
      +                          SetupPkt));
  6245  0020BA  EE20 F002          	lfsr	2,2
  6246  0020BE  503C               	movf	_pBDTEntryEP0OutNext^0,w,c
  6247  0020C0  26D9               	addwf	fsr2l,f,c
  6248  0020C2  503D               	movf	(_pBDTEntryEP0OutNext+1)^0,w,c
  6249  0020C4  22DA               	addwfc	fsr2h,f,c
  6250  0020C6  0E30               	movlw	48
  6251  0020C8  6EDE               	movwf	postinc2,c
  6252  0020CA  0E04               	movlw	4
  6253  0020CC  6EDD               	movwf	postdec2,c
  6254  0020CE                     
  6255                           ; BSR set to: 4
  6256                           ;mcc_generated_files/usb/usb_device.c: 1738:    pBDTEntryEP0OutNext->STAT.Val = 0x04;
  6257  0020CE  C03C  FFD9         	movff	_pBDTEntryEP0OutNext,fsr2l
  6258  0020D2  C03D  FFDA         	movff	_pBDTEntryEP0OutNext+1,fsr2h
  6259  0020D6  0E04               	movlw	4
  6260  0020D8  6EDF               	movwf	indf2,c
  6261  0020DA                     
  6262                           ; BSR set to: 4
  6263                           ;mcc_generated_files/usb/usb_device.c: 1739:             pBDTEntryEP0OutNext->STAT.Val |
      +                          = 0x80;
  6264  0020DA  C03C  FFD9         	movff	_pBDTEntryEP0OutNext,fsr2l
  6265  0020DE  C03D  FFDA         	movff	_pBDTEntryEP0OutNext+1,fsr2h
  6266  0020E2  0E00               	movlw	0
  6267  0020E4  8EDB               	bsf	plusw2,7,c
  6268  0020E6                     
  6269                           ; BSR set to: 4
  6270                           ;mcc_generated_files/usb/usb_device.c: 1742:             USBStatusStageEnabledFlag2 = 0;
  6271  0020E6  0E00               	movlw	0
  6272  0020E8  6E47               	movwf	_USBStatusStageEnabledFlag2^0,c	;volatile
  6273  0020EA                     
  6274                           ; BSR set to: 4
  6275                           ;mcc_generated_files/usb/usb_device.c: 1743:             USBStatusStageEnabledFlag1 = 0;
  6276  0020EA  0E00               	movlw	0
  6277  0020EC  6E48               	movwf	_USBStatusStageEnabledFlag1^0,c	;volatile
  6278  0020EE                     
  6279                           ; BSR set to: 4
  6280                           ;mcc_generated_files/usb/usb_device.c: 1744:    if(USBDeferStatusStagePacket == 0)
  6281  0020EE  5049               	movf	_USBDeferStatusStagePacket^0,w,c	;volatile
  6282  0020F0  A4D8               	btfss	status,2,c
  6283  0020F2  EF7D  F010         	goto	i2u288_41
  6284  0020F6  EF7F  F010         	goto	i2u288_40
  6285  0020FA                     i2u288_41:
  6286  0020FA  EF81  F010         	goto	i2l231
  6287  0020FE                     i2u288_40:
  6288  0020FE  EF4F  F010         	goto	i2l4394
  6289  002102                     i2l231:
  6290  002102  0012               	return		;funcret
  6291  002104                     __end_of_USBCtrlEPServiceComplete:
  6292                           	callstack 0
  6293                           
  6294 ;; *************** function _USBCtrlEPAllowDataStage *****************
  6295 ;; Defined at:
  6296 ;;		line 1492 in file "mcc_generated_files/usb/usb_device.c"
  6297 ;; Parameters:    Size  Location     Type
  6298 ;;		None
  6299 ;; Auto vars:     Size  Location     Type
  6300 ;;		None
  6301 ;; Return value:  Size  Location     Type
  6302 ;;                  1    wreg      void 
  6303 ;; Registers used:
  6304 ;;		wreg, fsr0l, fsr0h, fsr2l, fsr2h, status,2, status,0, tblptrl, tblptrh, tblptru, cstack
  6305 ;; Tracked objects:
  6306 ;;		On entry : 0/0
  6307 ;;		On exit  : 0/0
  6308 ;;		Unchanged: 0/0
  6309 ;; Data sizes:     COMRAM   BANK0   BANK1   BANK2   BANK3   BANK4   BANK5   BANK6   BANK7
  6310 ;;      Params:         0       0       0       0       0       0       0       0       0
  6311 ;;      Locals:         0       0       0       0       0       0       0       0       0
  6312 ;;      Temps:          0       0       0       0       0       0       0       0       0
  6313 ;;      Totals:         0       0       0       0       0       0       0       0       0
  6314 ;;Total ram usage:        0 bytes
  6315 ;; Hardware stack levels used: 1
  6316 ;; Hardware stack levels required when called: 1
  6317 ;; This function calls:
  6318 ;;		_USBCtrlTrfTxService
  6319 ;; This function is called by:
  6320 ;;		_USBCtrlEPServiceComplete
  6321 ;; This function uses a non-reentrant model
  6322 ;;
  6323                           
  6324                           	psect	text38
  6325  002B62                     __ptext38:
  6326                           	callstack 0
  6327  002B62                     _USBCtrlEPAllowDataStage:
  6328                           	callstack 21
  6329  002B62                     
  6330                           ;mcc_generated_files/usb/usb_device.c: 1494:     USBDeferINDataStagePackets = 0;
  6331  002B62  0E00               	movlw	0
  6332  002B64  6E46               	movwf	_USBDeferINDataStagePackets^0,c	;volatile
  6333                           
  6334                           ;mcc_generated_files/usb/usb_device.c: 1495:     USBDeferOUTDataStagePackets = 0;
  6335  002B66  0E00               	movlw	0
  6336  002B68  6E45               	movwf	_USBDeferOUTDataStagePackets^0,c	;volatile
  6337  002B6A                     
  6338                           ;mcc_generated_files/usb/usb_device.c: 1497:     if(controlTransferState == 2)
  6339  002B6A  0E02               	movlw	2
  6340  002B6C  184E               	xorwf	_controlTransferState^0,w,c	;volatile
  6341  002B6E  A4D8               	btfss	status,2,c
  6342  002B70  EFBC  F015         	goto	i2u249_41
  6343  002B74  EFBE  F015         	goto	i2u249_40
  6344  002B78                     i2u249_41:
  6345  002B78  EFDE  F015         	goto	i2l4162
  6346  002B7C                     i2u249_40:
  6347  002B7C                     
  6348                           ;mcc_generated_files/usb/usb_device.c: 1498:     {;mcc_generated_files/usb/usb_device.c:
      +                           1500:         pBDTEntryEP0OutNext->CNT = 8;
  6349  002B7C  EE20 F001          	lfsr	2,1
  6350  002B80  503C               	movf	_pBDTEntryEP0OutNext^0,w,c
  6351  002B82  26D9               	addwf	fsr2l,f,c
  6352  002B84  503D               	movf	(_pBDTEntryEP0OutNext+1)^0,w,c
  6353  002B86  22DA               	addwfc	fsr2h,f,c
  6354  002B88  0E08               	movlw	8
  6355  002B8A  6EDF               	movwf	indf2,c
  6356                           
  6357                           ;mcc_generated_files/usb/usb_device.c: 1501:         pBDTEntryEP0OutNext->ADR = ((uint16
      +                          _t)(&CtrlTrfData));
  6358  002B8C  EE20 F002          	lfsr	2,2
  6359  002B90  503C               	movf	_pBDTEntryEP0OutNext^0,w,c
  6360  002B92  26D9               	addwf	fsr2l,f,c
  6361  002B94  503D               	movf	(_pBDTEntryEP0OutNext+1)^0,w,c
  6362  002B96  22DA               	addwfc	fsr2h,f,c
  6363  002B98  0E38               	movlw	56
  6364  002B9A  6EDE               	movwf	postinc2,c
  6365  002B9C  0E04               	movlw	4
  6366  002B9E  6EDD               	movwf	postdec2,c
  6367  002BA0                     
  6368                           ;mcc_generated_files/usb/usb_device.c: 1502:         pBDTEntryEP0OutNext->STAT.Val = 0x4
      +                          0|(0x08 & 0x08);
  6369  002BA0  C03C  FFD9         	movff	_pBDTEntryEP0OutNext,fsr2l
  6370  002BA4  C03D  FFDA         	movff	_pBDTEntryEP0OutNext+1,fsr2h
  6371  002BA8  0E48               	movlw	72
  6372  002BAA  6EDF               	movwf	indf2,c
  6373  002BAC                     
  6374                           ;mcc_generated_files/usb/usb_device.c: 1503:         pBDTEntryEP0OutNext->STAT.Val |= 0x
      +                          80;
  6375  002BAC  C03C  FFD9         	movff	_pBDTEntryEP0OutNext,fsr2l
  6376  002BB0  C03D  FFDA         	movff	_pBDTEntryEP0OutNext+1,fsr2h
  6377  002BB4  0E00               	movlw	0
  6378  002BB6  8EDB               	bsf	plusw2,7,c
  6379                           
  6380                           ;mcc_generated_files/usb/usb_device.c: 1504:     }
  6381  002BB8  EF0A  F016         	goto	i2l213
  6382  002BBC                     i2l4162:
  6383                           
  6384                           ;mcc_generated_files/usb/usb_device.c: 1506:     {;mcc_generated_files/usb/usb_device.c:
      +                           1509:   if(SetupPkt.wLength < inPipes[0].wCount.Val)
  6385  002BBC  0100               	movlb	0	; () banked
  6386  002BBE  5176               	movf	(_inPipes+4)& (0+255),w,b	;volatile
  6387  002BC0  0104               	movlb	4	; () banked
  6388  002BC2  5D36               	subwf	54,w,b	;volatile
  6389  002BC4  0100               	movlb	0	; () banked
  6390  002BC6  5177               	movf	(_inPipes+5)& (0+255),w,b	;volatile
  6391  002BC8  0104               	movlb	4	; () banked
  6392  002BCA  5937               	subwfb	55,w,b	;volatile
  6393  002BCC  B0D8               	btfsc	status,0,c
  6394  002BCE  EFEB  F015         	goto	i2u250_41
  6395  002BD2  EFED  F015         	goto	i2u250_40
  6396  002BD6                     i2u250_41:
  6397  002BD6  EFF1  F015         	goto	i2l4166
  6398  002BDA                     i2u250_40:
  6399  002BDA                     
  6400                           ; BSR set to: 4
  6401                           ;mcc_generated_files/usb/usb_device.c: 1510:   {;mcc_generated_files/usb/usb_device.c: 1
      +                          511:    inPipes[0].wCount.Val = SetupPkt.wLength;
  6402  002BDA  C436 F076          	movff	1078,_inPipes+4	;volatile
  6403  002BDE  C437 F077          	movff	1079,_inPipes+5	;volatile
  6404  002BE2                     i2l4166:
  6405                           
  6406                           ; BSR set to: 4
  6407                           ;mcc_generated_files/usb/usb_device.c: 1513:   USBCtrlTrfTxService();
  6408  002BE2  EC4D  F012         	call	_USBCtrlTrfTxService	;wreg free
  6409  002BE6                     
  6410                           ;mcc_generated_files/usb/usb_device.c: 1518:   pBDTEntryIn[0]->ADR = ((uint16_t)(&CtrlTr
      +                          fData));
  6411  002BE6  0100               	movlb	0	; () banked
  6412  002BE8  EE20 F002          	lfsr	2,2
  6413  002BEC  5178               	movf	_pBDTEntryIn& (0+255),w,b
  6414  002BEE  26D9               	addwf	fsr2l,f,c
  6415  002BF0  5179               	movf	(_pBDTEntryIn+1)& (0+255),w,b
  6416  002BF2  22DA               	addwfc	fsr2h,f,c
  6417  002BF4  0E38               	movlw	56
  6418  002BF6  6EDE               	movwf	postinc2,c
  6419  002BF8  0E04               	movlw	4
  6420  002BFA  6EDD               	movwf	postdec2,c
  6421  002BFC                     
  6422                           ; BSR set to: 0
  6423                           ;mcc_generated_files/usb/usb_device.c: 1519:   pBDTEntryIn[0]->STAT.Val = 0x40|(0x08 & 0
      +                          x08);
  6424  002BFC  C078  FFD9         	movff	_pBDTEntryIn,fsr2l
  6425  002C00  C079  FFDA         	movff	_pBDTEntryIn+1,fsr2h
  6426  002C04  0E48               	movlw	72
  6427  002C06  6EDF               	movwf	indf2,c
  6428  002C08                     
  6429                           ; BSR set to: 0
  6430                           ;mcc_generated_files/usb/usb_device.c: 1520:         pBDTEntryIn[0]->STAT.Val |= 0x80;
  6431  002C08  C078  FFD9         	movff	_pBDTEntryIn,fsr2l
  6432  002C0C  C079  FFDA         	movff	_pBDTEntryIn+1,fsr2h
  6433  002C10  0E00               	movlw	0
  6434  002C12  8EDB               	bsf	plusw2,7,c
  6435  002C14                     i2l213:
  6436  002C14  0012               	return		;funcret
  6437  002C16                     __end_of_USBCtrlEPAllowDataStage:
  6438                           	callstack 0
  6439                           
  6440 ;; *************** function _USBCheckStdRequest *****************
  6441 ;; Defined at:
  6442 ;;		line 2690 in file "mcc_generated_files/usb/usb_device.c"
  6443 ;; Parameters:    Size  Location     Type
  6444 ;;		None
  6445 ;; Auto vars:     Size  Location     Type
  6446 ;;		None
  6447 ;; Return value:  Size  Location     Type
  6448 ;;                  1    wreg      void 
  6449 ;; Registers used:
  6450 ;;		wreg, fsr0l, fsr0h, fsr2l, fsr2h, status,2, status,0, tblptrl, tblptrh, tblptru, prodl, prodh, cstack
  6451 ;; Tracked objects:
  6452 ;;		On entry : 0/0
  6453 ;;		On exit  : 0/0
  6454 ;;		Unchanged: 0/0
  6455 ;; Data sizes:     COMRAM   BANK0   BANK1   BANK2   BANK3   BANK4   BANK5   BANK6   BANK7
  6456 ;;      Params:         0       0       0       0       0       0       0       0       0
  6457 ;;      Locals:         0       0       0       0       0       0       0       0       0
  6458 ;;      Temps:          2       0       0       0       0       0       0       0       0
  6459 ;;      Totals:         2       0       0       0       0       0       0       0       0
  6460 ;;Total ram usage:        2 bytes
  6461 ;; Hardware stack levels used: 1
  6462 ;; Hardware stack levels required when called: 5
  6463 ;; This function calls:
  6464 ;;		_USBStdFeatureReqHandler
  6465 ;;		_USBStdGetDscHandler
  6466 ;;		_USBStdGetStatusHandler
  6467 ;;		_USBStdSetCfgHandler
  6468 ;;		_USER_USB_CALLBACK_EVENT_HANDLER
  6469 ;; This function is called by:
  6470 ;;		_USBCtrlTrfSetupHandler
  6471 ;; This function uses a non-reentrant model
  6472 ;;
  6473                           
  6474                           	psect	text39
  6475  002374                     __ptext39:
  6476                           	callstack 0
  6477  002374                     _USBCheckStdRequest:
  6478                           	callstack 18
  6479  002374                     
  6480                           ;mcc_generated_files/usb/usb_device.c: 2692:     if(SetupPkt.RequestType != (0x00>>5)) r
      +                          eturn;
  6481  002374  0104               	movlb	4	; () banked
  6482  002376  3930               	swapf	48,w,b	;volatile
  6483  002378  32E8               	rrcf	wreg,f,c
  6484  00237A  0B03               	andlw	3
  6485  00237C  0900               	iorlw	0
  6486  00237E  B4D8               	btfsc	status,2,c
  6487  002380  EFC4  F011         	goto	i2u294_41
  6488  002384  EFC6  F011         	goto	i2u294_40
  6489  002388                     i2u294_41:
  6490  002388  EF13  F012         	goto	i2l4494
  6491  00238C                     i2u294_40:
  6492  00238C  EF4C  F012         	goto	i2l344
  6493  002390                     i2l346:
  6494                           
  6495                           ; BSR set to: 4
  6496                           ;mcc_generated_files/usb/usb_device.c: 2697:             inPipes[0].info.bits.busy = 1;
  6497  002390  0100               	movlb	0	; () banked
  6498  002392  8F75               	bsf	(_inPipes+3)& (0+255),7,b	;volatile
  6499  002394                     
  6500                           ; BSR set to: 0
  6501                           ;mcc_generated_files/usb/usb_device.c: 2698:             USBDeviceState = ADR_PENDING_ST
      +                          ATE;
  6502  002394  0E08               	movlw	8
  6503  002396  6E50               	movwf	_USBDeviceState^0,c	;volatile
  6504                           
  6505                           ;mcc_generated_files/usb/usb_device.c: 2700:             break;
  6506  002398  EF4C  F012         	goto	i2l344
  6507  00239C                     i2l4464:
  6508                           
  6509                           ; BSR set to: 4
  6510                           ;mcc_generated_files/usb/usb_device.c: 2702:             USBStdGetDscHandler();
  6511  00239C  EC9D  F00A         	call	_USBStdGetDscHandler	;wreg free
  6512                           
  6513                           ;mcc_generated_files/usb/usb_device.c: 2703:             break;
  6514  0023A0  EF4C  F012         	goto	i2l344
  6515  0023A4                     i2l4466:
  6516                           
  6517                           ; BSR set to: 4
  6518                           ;mcc_generated_files/usb/usb_device.c: 2705:             USBStdSetCfgHandler();
  6519  0023A4  ECE0  F014         	call	_USBStdSetCfgHandler	;wreg free
  6520                           
  6521                           ;mcc_generated_files/usb/usb_device.c: 2706:             break;
  6522  0023A8  EF4C  F012         	goto	i2l344
  6523  0023AC                     i2l4468:
  6524                           
  6525                           ; BSR set to: 4
  6526                           ;mcc_generated_files/usb/usb_device.c: 2708:             inPipes[0].pSrc.bRam = (uint8_t
      +                          *)&USBActiveConfiguration;
  6527  0023AC  0E54               	movlw	low _USBActiveConfiguration
  6528  0023AE  0100               	movlb	0	; () banked
  6529  0023B0  6F72               	movwf	_inPipes& (0+255),b	;volatile
  6530  0023B2  0E00               	movlw	high _USBActiveConfiguration
  6531  0023B4  6F73               	movwf	(_inPipes+1)& (0+255),b	;volatile
  6532  0023B6                     
  6533                           ; BSR set to: 0
  6534                           ;mcc_generated_files/usb/usb_device.c: 2709:             inPipes[0].info.bits.ctrl_trf_m
      +                          em = 0x01;
  6535  0023B6  8175               	bsf	(_inPipes+3)& (0+255),0,b	;volatile
  6536  0023B8                     
  6537                           ; BSR set to: 0
  6538                           ;mcc_generated_files/usb/usb_device.c: 2710:             inPipes[0].wCount.v[0] = 1;
  6539  0023B8  0E01               	movlw	1
  6540  0023BA  6F76               	movwf	(_inPipes+4)& (0+255),b	;volatile
  6541  0023BC                     
  6542                           ; BSR set to: 0
  6543                           ;mcc_generated_files/usb/usb_device.c: 2711:             inPipes[0].info.bits.busy = 1;
  6544  0023BC  8F75               	bsf	(_inPipes+3)& (0+255),7,b	;volatile
  6545                           
  6546                           ;mcc_generated_files/usb/usb_device.c: 2712:             break;
  6547  0023BE  EF4C  F012         	goto	i2l344
  6548  0023C2                     i2l4476:
  6549                           
  6550                           ; BSR set to: 4
  6551                           ;mcc_generated_files/usb/usb_device.c: 2714:             USBStdGetStatusHandler();
  6552  0023C2  ECD5  F012         	call	_USBStdGetStatusHandler	;wreg free
  6553                           
  6554                           ;mcc_generated_files/usb/usb_device.c: 2715:             break;
  6555  0023C6  EF4C  F012         	goto	i2l344
  6556  0023CA                     i2l4478:
  6557                           
  6558                           ; BSR set to: 4
  6559                           ;mcc_generated_files/usb/usb_device.c: 2718:             USBStdFeatureReqHandler();
  6560  0023CA  EC5A  F004         	call	_USBStdFeatureReqHandler	;wreg free
  6561                           
  6562                           ;mcc_generated_files/usb/usb_device.c: 2719:             break;
  6563  0023CE  EF4C  F012         	goto	i2l344
  6564  0023D2                     i2l4480:
  6565                           
  6566                           ; BSR set to: 4
  6567                           ;mcc_generated_files/usb/usb_device.c: 2721:             inPipes[0].pSrc.bRam = (uint8_t
      +                          *)&USBAlternateInterface[SetupPkt.bIntfID];
  6568  0023D2  0E51               	movlw	low _USBAlternateInterface
  6569  0023D4  2534               	addwf	52,w,b	;volatile
  6570  0023D6  0100               	movlb	0	; () banked
  6571  0023D8  6F72               	movwf	_inPipes& (0+255),b	;volatile
  6572  0023DA  6B73               	clrf	(_inPipes+1)& (0+255),b	;volatile
  6573  0023DC  0E00               	movlw	high _USBAlternateInterface
  6574  0023DE  2373               	addwfc	(_inPipes+1)& (0+255),f,b	;volatile
  6575  0023E0                     
  6576                           ; BSR set to: 0
  6577                           ;mcc_generated_files/usb/usb_device.c: 2722:             inPipes[0].info.bits.ctrl_trf_m
      +                          em = 0x01;
  6578  0023E0  8175               	bsf	(_inPipes+3)& (0+255),0,b	;volatile
  6579  0023E2                     
  6580                           ; BSR set to: 0
  6581                           ;mcc_generated_files/usb/usb_device.c: 2723:             inPipes[0].wCount.v[0] = 1;
  6582  0023E2  0E01               	movlw	1
  6583  0023E4  6F76               	movwf	(_inPipes+4)& (0+255),b	;volatile
  6584  0023E6                     
  6585                           ; BSR set to: 0
  6586                           ;mcc_generated_files/usb/usb_device.c: 2724:             inPipes[0].info.bits.busy = 1;
  6587  0023E6  8F75               	bsf	(_inPipes+3)& (0+255),7,b	;volatile
  6588                           
  6589                           ;mcc_generated_files/usb/usb_device.c: 2725:             break;
  6590  0023E8  EF4C  F012         	goto	i2l344
  6591  0023EC                     i2l355:
  6592                           
  6593                           ; BSR set to: 4
  6594                           ;mcc_generated_files/usb/usb_device.c: 2727:             inPipes[0].info.bits.busy = 1;
  6595  0023EC  0100               	movlb	0	; () banked
  6596  0023EE  8F75               	bsf	(_inPipes+3)& (0+255),7,b	;volatile
  6597  0023F0                     
  6598                           ; BSR set to: 0
  6599                           ;mcc_generated_files/usb/usb_device.c: 2728:             USBAlternateInterface[SetupPkt.
      +                          bIntfID] = SetupPkt.bAltID;
  6600  0023F0  0E51               	movlw	low _USBAlternateInterface
  6601  0023F2  0104               	movlb	4	; () banked
  6602  0023F4  2534               	addwf	52,w,b	;volatile
  6603  0023F6  6ED9               	movwf	fsr2l,c
  6604  0023F8  6ADA               	clrf	fsr2h,c
  6605  0023FA  0E00               	movlw	high _USBAlternateInterface
  6606  0023FC  22DA               	addwfc	fsr2h,f,c
  6607  0023FE  C432 FFDF          	movff	1074,indf2	;volatile
  6608                           
  6609                           ;mcc_generated_files/usb/usb_device.c: 2729:             break;
  6610  002402  EF4C  F012         	goto	i2l344
  6611  002406                     i2l4490:
  6612                           
  6613                           ; BSR set to: 4
  6614                           ;mcc_generated_files/usb/usb_device.c: 2731:             USER_USB_CALLBACK_EVENT_HANDLER
      +                          ((USB_EVENT)EVENT_SET_DESCRIPTOR,0,0);
  6615  002406  0E00               	movlw	0
  6616  002408  6E0E               	movwf	(USER_USB_CALLBACK_EVENT_HANDLER@event+1)^0,c
  6617  00240A  0E02               	movlw	2
  6618  00240C  6E0D               	movwf	USER_USB_CALLBACK_EVENT_HANDLER@event^0,c
  6619  00240E  0E00               	movlw	0
  6620  002410  6E0F               	movwf	USER_USB_CALLBACK_EVENT_HANDLER@pdata^0,c
  6621  002412  0E00               	movlw	0
  6622  002414  6E10               	movwf	(USER_USB_CALLBACK_EVENT_HANDLER@pdata+1)^0,c
  6623  002416  0E00               	movlw	0
  6624  002418  6E12               	movwf	(USER_USB_CALLBACK_EVENT_HANDLER@size+1)^0,c
  6625  00241A  0E00               	movlw	0
  6626  00241C  6E11               	movwf	USER_USB_CALLBACK_EVENT_HANDLER@size^0,c
  6627  00241E  EC4D  F017         	call	_USER_USB_CALLBACK_EVENT_HANDLER	;wreg free
  6628                           
  6629                           ;mcc_generated_files/usb/usb_device.c: 2732:             break;
  6630  002422  EF4C  F012         	goto	i2l344
  6631  002426                     i2l4494:
  6632                           
  6633                           ; BSR set to: 4
  6634  002426  5131               	movf	49,w,b	;volatile
  6635  002428  6E1C               	movwf	??_USBCheckStdRequest^0,c
  6636  00242A  6A1D               	clrf	(??_USBCheckStdRequest+1)^0,c
  6637                           
  6638                           ; Switch on 2 bytes has been partitioned into a top level switch of size 1, and 1 sub-sw
      +                          itches
  6639                           ; Switch size 1, requested type "simple"
  6640                           ; Number of cases is 1, Range of values is 0 to 0
  6641                           ; switch strategies available:
  6642                           ; Name         Instructions Cycles
  6643                           ; simple_byte            4     3 (average)
  6644                           ;	Chosen strategy is simple_byte
  6645  00242C  501D               	movf	(??_USBCheckStdRequest+1)^0,w,c
  6646  00242E  0A00               	xorlw	0	; case 0
  6647  002430  B4D8               	btfsc	status,2,c
  6648  002432  EF1D  F012         	goto	i2l6520
  6649  002436  EF4C  F012         	goto	i2l344
  6650  00243A                     i2l6520:
  6651                           
  6652                           ; BSR set to: 4
  6653                           ; Switch size 1, requested type "simple"
  6654                           ; Number of cases is 11, Range of values is 0 to 12
  6655                           ; switch strategies available:
  6656                           ; Name         Instructions Cycles
  6657                           ; simple_byte           34    18 (average)
  6658                           ;	Chosen strategy is simple_byte
  6659  00243A  501C               	movf	??_USBCheckStdRequest^0,w,c
  6660  00243C  0A00               	xorlw	0	; case 0
  6661  00243E  B4D8               	btfsc	status,2,c
  6662  002440  EFE1  F011         	goto	i2l4476
  6663  002444  0A01               	xorlw	1	; case 1
  6664  002446  B4D8               	btfsc	status,2,c
  6665  002448  EFE5  F011         	goto	i2l4478
  6666  00244C  0A02               	xorlw	2	; case 3
  6667  00244E  B4D8               	btfsc	status,2,c
  6668  002450  EFE5  F011         	goto	i2l4478
  6669  002454  0A06               	xorlw	6	; case 5
  6670  002456  B4D8               	btfsc	status,2,c
  6671  002458  EFC8  F011         	goto	i2l346
  6672  00245C  0A03               	xorlw	3	; case 6
  6673  00245E  B4D8               	btfsc	status,2,c
  6674  002460  EFCE  F011         	goto	i2l4464
  6675  002464  0A01               	xorlw	1	; case 7
  6676  002466  B4D8               	btfsc	status,2,c
  6677  002468  EF03  F012         	goto	i2l4490
  6678  00246C  0A0F               	xorlw	15	; case 8
  6679  00246E  B4D8               	btfsc	status,2,c
  6680  002470  EFD6  F011         	goto	i2l4468
  6681  002474  0A01               	xorlw	1	; case 9
  6682  002476  B4D8               	btfsc	status,2,c
  6683  002478  EFD2  F011         	goto	i2l4466
  6684  00247C  0A03               	xorlw	3	; case 10
  6685  00247E  B4D8               	btfsc	status,2,c
  6686  002480  EFE9  F011         	goto	i2l4480
  6687  002484  0A01               	xorlw	1	; case 11
  6688  002486  B4D8               	btfsc	status,2,c
  6689  002488  EFF6  F011         	goto	i2l355
  6690  00248C  0A07               	xorlw	7	; case 12
  6691  00248E  B4D8               	btfsc	status,2,c
  6692  002490  EF4C  F012         	goto	i2l344
  6693  002494  EF4C  F012         	goto	i2l344
  6694  002498                     i2l344:
  6695  002498  0012               	return		;funcret
  6696  00249A                     __end_of_USBCheckStdRequest:
  6697                           	callstack 0
  6698                           
  6699 ;; *************** function _USBStdSetCfgHandler *****************
  6700 ;; Defined at:
  6701 ;;		line 1972 in file "mcc_generated_files/usb/usb_device.c"
  6702 ;; Parameters:    Size  Location     Type
  6703 ;;		None
  6704 ;; Auto vars:     Size  Location     Type
  6705 ;;  i               1   20[COMRAM] unsigned char 
  6706 ;; Return value:  Size  Location     Type
  6707 ;;                  1    wreg      void 
  6708 ;; Registers used:
  6709 ;;		wreg, fsr2l, fsr2h, status,2, status,0, prodl, prodh, cstack
  6710 ;; Tracked objects:
  6711 ;;		On entry : 0/0
  6712 ;;		On exit  : 0/0
  6713 ;;		Unchanged: 0/0
  6714 ;; Data sizes:     COMRAM   BANK0   BANK1   BANK2   BANK3   BANK4   BANK5   BANK6   BANK7
  6715 ;;      Params:         0       0       0       0       0       0       0       0       0
  6716 ;;      Locals:         1       0       0       0       0       0       0       0       0
  6717 ;;      Temps:          0       0       0       0       0       0       0       0       0
  6718 ;;      Totals:         1       0       0       0       0       0       0       0       0
  6719 ;;Total ram usage:        1 bytes
  6720 ;; Hardware stack levels used: 1
  6721 ;; Hardware stack levels required when called: 4
  6722 ;; This function calls:
  6723 ;;		_USER_USB_CALLBACK_EVENT_HANDLER
  6724 ;;		i2_memset
  6725 ;; This function is called by:
  6726 ;;		_USBCheckStdRequest
  6727 ;; This function uses a non-reentrant model
  6728 ;;
  6729                           
  6730                           	psect	text40
  6731  0029C0                     __ptext40:
  6732                           	callstack 0
  6733  0029C0                     _USBStdSetCfgHandler:
  6734                           	callstack 18
  6735  0029C0                     
  6736                           ;mcc_generated_files/usb/usb_device.c: 1974:     uint8_t i;;mcc_generated_files/usb/usb_
      +                          device.c: 1977:     inPipes[0].info.bits.busy = 1;
  6737  0029C0  0100               	movlb	0	; () banked
  6738  0029C2  8F75               	bsf	(_inPipes+3)& (0+255),7,b	;volatile
  6739  0029C4                     
  6740                           ; BSR set to: 0
  6741                           ;mcc_generated_files/usb/usb_device.c: 1980:     memset((void*)&UEP1,0x00,(2));;
  6742  0029C4  0E6B               	movlw	107
  6743  0029C6  6E01               	movwf	i2memset@dest^0,c
  6744  0029C8  0E0F               	movlw	15
  6745  0029CA  6E02               	movwf	(i2memset@dest+1)^0,c
  6746  0029CC  0E00               	movlw	0
  6747  0029CE  6E04               	movwf	(i2memset@c+1)^0,c
  6748  0029D0  0E00               	movlw	0
  6749  0029D2  6E03               	movwf	i2memset@c^0,c
  6750  0029D4  0E00               	movlw	0
  6751  0029D6  6E06               	movwf	(i2memset@n+1)^0,c
  6752  0029D8  0E02               	movlw	2
  6753  0029DA  6E05               	movwf	i2memset@n^0,c
  6754  0029DC  ECE2  F009         	call	i2_memset	;wreg free
  6755                           
  6756                           ;mcc_generated_files/usb/usb_device.c: 1983:     memset((void*)&BDT[0], 0x00, sizeof(BDT
      +                          ));
  6757  0029E0  0E00               	movlw	0
  6758  0029E2  6E01               	movwf	i2memset@dest^0,c
  6759  0029E4  0E04               	movlw	4
  6760  0029E6  6E02               	movwf	(i2memset@dest+1)^0,c
  6761  0029E8  0E00               	movlw	0
  6762  0029EA  6E04               	movwf	(i2memset@c+1)^0,c
  6763  0029EC  0E00               	movlw	0
  6764  0029EE  6E03               	movwf	i2memset@c^0,c
  6765  0029F0  0E00               	movlw	0
  6766  0029F2  6E06               	movwf	(i2memset@n+1)^0,c
  6767  0029F4  0E30               	movlw	48
  6768  0029F6  6E05               	movwf	i2memset@n^0,c
  6769  0029F8  ECE2  F009         	call	i2_memset	;wreg free
  6770  0029FC                     
  6771                           ;mcc_generated_files/usb/usb_device.c: 1986:     UCONbits.PPBRST = 1;
  6772  0029FC  8C60               	bsf	96,6,c	;volatile
  6773  0029FE                     
  6774                           ;mcc_generated_files/usb/usb_device.c: 1991:  for(i = 0; i < (uint8_t)(2 +1u); i++)
  6775  0029FE  0E00               	movlw	0
  6776  002A00  6E15               	movwf	USBStdSetCfgHandler@i^0,c
  6777  002A02                     i2l4186:
  6778                           
  6779                           ;mcc_generated_files/usb/usb_device.c: 1992:  {;mcc_generated_files/usb/usb_device.c: 19
      +                          93:   ep_data_in[i].Val = 0u;
  6780  002A02  0E95               	movlw	low _ep_data_in
  6781  002A04  2415               	addwf	USBStdSetCfgHandler@i^0,w,c
  6782  002A06  6ED9               	movwf	fsr2l,c
  6783  002A08  6ADA               	clrf	fsr2h,c
  6784  002A0A  0E00               	movlw	high _ep_data_in
  6785  002A0C  22DA               	addwfc	fsr2h,f,c
  6786  002A0E  0E00               	movlw	0
  6787  002A10  6EDF               	movwf	indf2,c
  6788                           
  6789                           ;mcc_generated_files/usb/usb_device.c: 1994:         ep_data_out[i].Val = 0u;
  6790  002A12  0E92               	movlw	low _ep_data_out
  6791  002A14  2415               	addwf	USBStdSetCfgHandler@i^0,w,c
  6792  002A16  6ED9               	movwf	fsr2l,c
  6793  002A18  6ADA               	clrf	fsr2h,c
  6794  002A1A  0E00               	movlw	high _ep_data_out
  6795  002A1C  22DA               	addwfc	fsr2h,f,c
  6796  002A1E  0E00               	movlw	0
  6797  002A20  6EDF               	movwf	indf2,c
  6798  002A22                     
  6799                           ;mcc_generated_files/usb/usb_device.c: 1995:  }
  6800  002A22  2A15               	incf	USBStdSetCfgHandler@i^0,f,c
  6801  002A24  0E02               	movlw	2
  6802  002A26  6415               	cpfsgt	USBStdSetCfgHandler@i^0,c
  6803  002A28  EF18  F015         	goto	i2u251_41
  6804  002A2C  EF1A  F015         	goto	i2u251_40
  6805  002A30                     i2u251_41:
  6806  002A30  EF01  F015         	goto	i2l4186
  6807  002A34                     i2u251_40:
  6808  002A34                     
  6809                           ;mcc_generated_files/usb/usb_device.c: 1998:     memset((void*)&USBAlternateInterface,0x
      +                          00,2);
  6810  002A34  0E51               	movlw	low _USBAlternateInterface
  6811  002A36  6E01               	movwf	i2memset@dest^0,c
  6812  002A38  0E00               	movlw	high _USBAlternateInterface
  6813  002A3A  6E02               	movwf	(i2memset@dest+1)^0,c
  6814  002A3C  0E00               	movlw	0
  6815  002A3E  6E04               	movwf	(i2memset@c+1)^0,c
  6816  002A40  0E00               	movlw	0
  6817  002A42  6E03               	movwf	i2memset@c^0,c
  6818  002A44  0E00               	movlw	0
  6819  002A46  6E06               	movwf	(i2memset@n+1)^0,c
  6820  002A48  0E02               	movlw	2
  6821  002A4A  6E05               	movwf	i2memset@n^0,c
  6822  002A4C  ECE2  F009         	call	i2_memset	;wreg free
  6823  002A50                     
  6824                           ;mcc_generated_files/usb/usb_device.c: 2001:     UCONbits.PPBRST = 0;
  6825  002A50  9C60               	bcf	96,6,c	;volatile
  6826  002A52                     
  6827                           ;mcc_generated_files/usb/usb_device.c: 2003:     pBDTEntryIn[0] = (volatile BDT_ENTRY*)&
      +                          BDT[2];
  6828  002A52  0E08               	movlw	8
  6829  002A54  0100               	movlb	0	; () banked
  6830  002A56  6F78               	movwf	_pBDTEntryIn& (0+255),b
  6831  002A58  0E04               	movlw	4
  6832  002A5A  6F79               	movwf	(_pBDTEntryIn+1)& (0+255),b
  6833  002A5C                     
  6834                           ; BSR set to: 0
  6835                           ;mcc_generated_files/usb/usb_device.c: 2006:     pBDTEntryEP0OutCurrent = (volatile BDT_
      +                          ENTRY*)&BDT[0];
  6836  002A5C  0E00               	movlw	0
  6837  002A5E  6E3E               	movwf	_pBDTEntryEP0OutCurrent^0,c
  6838  002A60  0E04               	movlw	4
  6839  002A62  6E3F               	movwf	(_pBDTEntryEP0OutCurrent+1)^0,c
  6840  002A64                     
  6841                           ; BSR set to: 0
  6842                           ;mcc_generated_files/usb/usb_device.c: 2007:     pBDTEntryEP0OutNext = pBDTEntryEP0OutCu
      +                          rrent;
  6843  002A64  C03E  F03C         	movff	_pBDTEntryEP0OutCurrent,_pBDTEntryEP0OutNext
  6844  002A68  C03F  F03D         	movff	_pBDTEntryEP0OutCurrent+1,_pBDTEntryEP0OutNext+1
  6845  002A6C                     
  6846                           ; BSR set to: 0
  6847                           ;mcc_generated_files/usb/usb_device.c: 2010:     USBActiveConfiguration = SetupPkt.bConf
      +                          igurationValue;
  6848  002A6C  C432 F054          	movff	1074,_USBActiveConfiguration	;volatile
  6849  002A70                     
  6850                           ; BSR set to: 0
  6851                           ;mcc_generated_files/usb/usb_device.c: 2013:     if(USBActiveConfiguration == 0)
  6852  002A70  5054               	movf	_USBActiveConfiguration^0,w,c	;volatile
  6853  002A72  A4D8               	btfss	status,2,c
  6854  002A74  EF3E  F015         	goto	i2u252_41
  6855  002A78  EF40  F015         	goto	i2u252_40
  6856  002A7C                     i2u252_41:
  6857  002A7C  EF44  F015         	goto	i2l4208
  6858  002A80                     i2u252_40:
  6859  002A80                     
  6860                           ; BSR set to: 0
  6861                           ;mcc_generated_files/usb/usb_device.c: 2014:     {;mcc_generated_files/usb/usb_device.c:
      +                           2016:         USBDeviceState = ADDRESS_STATE;
  6862  002A80  0E10               	movlw	16
  6863  002A82  6E50               	movwf	_USBDeviceState^0,c	;volatile
  6864                           
  6865                           ;mcc_generated_files/usb/usb_device.c: 2017:     }
  6866  002A84  EF54  F015         	goto	i2l266
  6867  002A88                     i2l4208:
  6868                           
  6869                           ; BSR set to: 0
  6870                           ;mcc_generated_files/usb/usb_device.c: 2019:     {;mcc_generated_files/usb/usb_device.c:
      +                           2021:         USER_USB_CALLBACK_EVENT_HANDLER((USB_EVENT)EVENT_CONFIGURED,(void*)&USBAc
      +                          tiveConfiguration,1);
  6871  002A88  0E00               	movlw	0
  6872  002A8A  6E0E               	movwf	(USER_USB_CALLBACK_EVENT_HANDLER@event+1)^0,c
  6873  002A8C  0E01               	movlw	1
  6874  002A8E  6E0D               	movwf	USER_USB_CALLBACK_EVENT_HANDLER@event^0,c
  6875  002A90  0E54               	movlw	low _USBActiveConfiguration
  6876  002A92  6E0F               	movwf	USER_USB_CALLBACK_EVENT_HANDLER@pdata^0,c
  6877  002A94  0E00               	movlw	high _USBActiveConfiguration
  6878  002A96  6E10               	movwf	(USER_USB_CALLBACK_EVENT_HANDLER@pdata+1)^0,c
  6879  002A98  0E00               	movlw	0
  6880  002A9A  6E12               	movwf	(USER_USB_CALLBACK_EVENT_HANDLER@size+1)^0,c
  6881  002A9C  0E01               	movlw	1
  6882  002A9E  6E11               	movwf	USER_USB_CALLBACK_EVENT_HANDLER@size^0,c
  6883  002AA0  EC4D  F017         	call	_USER_USB_CALLBACK_EVENT_HANDLER	;wreg free
  6884  002AA4                     
  6885                           ;mcc_generated_files/usb/usb_device.c: 2026:         USBDeviceState = CONFIGURED_STATE;
  6886  002AA4  0E20               	movlw	32
  6887  002AA6  6E50               	movwf	_USBDeviceState^0,c	;volatile
  6888  002AA8                     i2l266:
  6889  002AA8  0012               	return		;funcret
  6890  002AAA                     __end_of_USBStdSetCfgHandler:
  6891                           	callstack 0
  6892                           
  6893 ;; *************** function i2_memset *****************
  6894 ;; Defined at:
  6895 ;;		line 4 in file "/Applications/microchip/xc8/v2.36/pic/sources/c99/common/memset.c"
  6896 ;; Parameters:    Size  Location     Type
  6897 ;;  dest            2    0[COMRAM] PTR void 
  6898 ;;		 -> USBAlternateInterface(2), BDT(48), UEP1(1), 
  6899 ;;  c               2    2[COMRAM] int 
  6900 ;;  n               2    4[COMRAM] unsigned int 
  6901 ;; Auto vars:     Size  Location     Type
  6902 ;;  s               2   10[COMRAM] PTR unsigned char 
  6903 ;;		 -> USBAlternateInterface(2), BDT(48), UEP1(1), 
  6904 ;;  k               2    8[COMRAM] unsigned int 
  6905 ;; Return value:  Size  Location     Type
  6906 ;;                  2    0[COMRAM] PTR void 
  6907 ;; Registers used:
  6908 ;;		wreg, fsr2l, fsr2h, status,2, status,0
  6909 ;; Tracked objects:
  6910 ;;		On entry : 0/0
  6911 ;;		On exit  : 0/0
  6912 ;;		Unchanged: 0/0
  6913 ;; Data sizes:     COMRAM   BANK0   BANK1   BANK2   BANK3   BANK4   BANK5   BANK6   BANK7
  6914 ;;      Params:         6       0       0       0       0       0       0       0       0
  6915 ;;      Locals:         4       0       0       0       0       0       0       0       0
  6916 ;;      Temps:          2       0       0       0       0       0       0       0       0
  6917 ;;      Totals:        12       0       0       0       0       0       0       0       0
  6918 ;;Total ram usage:       12 bytes
  6919 ;; Hardware stack levels used: 1
  6920 ;; This function calls:
  6921 ;;		Nothing
  6922 ;; This function is called by:
  6923 ;;		_USBStdSetCfgHandler
  6924 ;;		i2_USBDeviceInit
  6925 ;; This function uses a non-reentrant model
  6926 ;;
  6927                           
  6928                           	psect	text41
  6929  0013C4                     __ptext41:
  6930                           	callstack 0
  6931  0013C4                     i2_memset:
  6932                           	callstack 24
  6933  0013C4  C001  F00B         	movff	i2memset@dest,i2memset@s
  6934  0013C8  C002  F00C         	movff	i2memset@dest+1,i2memset@s+1
  6935  0013CC  5005               	movf	i2memset@n^0,w,c
  6936  0013CE  1006               	iorwf	(i2memset@n+1)^0,w,c
  6937  0013D0  A4D8               	btfss	status,2,c
  6938  0013D2  EFED  F009         	goto	i2u240_41
  6939  0013D6  EFEF  F009         	goto	i2u240_40
  6940  0013DA                     i2u240_41:
  6941  0013DA  EFF1  F009         	goto	i2l4090
  6942  0013DE                     i2u240_40:
  6943  0013DE  EF9C  F00A         	goto	i2l1778
  6944  0013E2                     i2l4090:
  6945  0013E2  C00B  FFD9         	movff	i2memset@s,fsr2l
  6946  0013E6  C00C  FFDA         	movff	i2memset@s+1,fsr2h
  6947  0013EA  C003  FFDF         	movff	i2memset@c,indf2
  6948  0013EE  5005               	movf	i2memset@n^0,w,c
  6949  0013F0  240B               	addwf	i2memset@s^0,w,c
  6950  0013F2  6E07               	movwf	??i2_memset^0,c
  6951  0013F4  5006               	movf	(i2memset@n+1)^0,w,c
  6952  0013F6  200C               	addwfc	(i2memset@s+1)^0,w,c
  6953  0013F8  6E08               	movwf	(??i2_memset+1)^0,c
  6954  0013FA  0EFF               	movlw	255
  6955  0013FC  2407               	addwf	??i2_memset^0,w,c
  6956  0013FE  6ED9               	movwf	fsr2l,c
  6957  001400  0EFF               	movlw	255
  6958  001402  2008               	addwfc	(??i2_memset+1)^0,w,c
  6959  001404  6EDA               	movwf	fsr2h,c
  6960  001406  C003  FFDF         	movff	i2memset@c,indf2
  6961  00140A  5006               	movf	(i2memset@n+1)^0,w,c
  6962  00140C  E107               	bnz	i2u241_41
  6963  00140E  0E03               	movlw	3
  6964  001410  5C05               	subwf	i2memset@n^0,w,c
  6965  001412  B0D8               	btfsc	status,0,c
  6966  001414  EF0E  F00A         	goto	i2u241_41
  6967  001418  EF10  F00A         	goto	i2u241_40
  6968  00141C                     i2u241_41:
  6969  00141C  EF12  F00A         	goto	i2l4096
  6970  001420                     i2u241_40:
  6971  001420  EF9C  F00A         	goto	i2l1778
  6972  001424                     i2l4096:
  6973  001424  EE20 F001          	lfsr	2,1
  6974  001428  500B               	movf	i2memset@s^0,w,c
  6975  00142A  26D9               	addwf	fsr2l,f,c
  6976  00142C  500C               	movf	(i2memset@s+1)^0,w,c
  6977  00142E  22DA               	addwfc	fsr2h,f,c
  6978  001430  C003  FFDF         	movff	i2memset@c,indf2
  6979  001434  EE20 F002          	lfsr	2,2
  6980  001438  500B               	movf	i2memset@s^0,w,c
  6981  00143A  26D9               	addwf	fsr2l,f,c
  6982  00143C  500C               	movf	(i2memset@s+1)^0,w,c
  6983  00143E  22DA               	addwfc	fsr2h,f,c
  6984  001440  C003  FFDF         	movff	i2memset@c,indf2
  6985  001444  5005               	movf	i2memset@n^0,w,c
  6986  001446  240B               	addwf	i2memset@s^0,w,c
  6987  001448  6E07               	movwf	??i2_memset^0,c
  6988  00144A  5006               	movf	(i2memset@n+1)^0,w,c
  6989  00144C  200C               	addwfc	(i2memset@s+1)^0,w,c
  6990  00144E  6E08               	movwf	(??i2_memset+1)^0,c
  6991  001450  0EFE               	movlw	254
  6992  001452  2407               	addwf	??i2_memset^0,w,c
  6993  001454  6ED9               	movwf	fsr2l,c
  6994  001456  0EFF               	movlw	255
  6995  001458  2008               	addwfc	(??i2_memset+1)^0,w,c
  6996  00145A  6EDA               	movwf	fsr2h,c
  6997  00145C  C003  FFDF         	movff	i2memset@c,indf2
  6998  001460  5005               	movf	i2memset@n^0,w,c
  6999  001462  240B               	addwf	i2memset@s^0,w,c
  7000  001464  6E07               	movwf	??i2_memset^0,c
  7001  001466  5006               	movf	(i2memset@n+1)^0,w,c
  7002  001468  200C               	addwfc	(i2memset@s+1)^0,w,c
  7003  00146A  6E08               	movwf	(??i2_memset+1)^0,c
  7004  00146C  0EFD               	movlw	253
  7005  00146E  2407               	addwf	??i2_memset^0,w,c
  7006  001470  6ED9               	movwf	fsr2l,c
  7007  001472  0EFF               	movlw	255
  7008  001474  2008               	addwfc	(??i2_memset+1)^0,w,c
  7009  001476  6EDA               	movwf	fsr2h,c
  7010  001478  C003  FFDF         	movff	i2memset@c,indf2
  7011  00147C  5006               	movf	(i2memset@n+1)^0,w,c
  7012  00147E  E107               	bnz	i2u242_41
  7013  001480  0E07               	movlw	7
  7014  001482  5C05               	subwf	i2memset@n^0,w,c
  7015  001484  B0D8               	btfsc	status,0,c
  7016  001486  EF47  F00A         	goto	i2u242_41
  7017  00148A  EF49  F00A         	goto	i2u242_40
  7018  00148E                     i2u242_41:
  7019  00148E  EF4B  F00A         	goto	i2l4102
  7020  001492                     i2u242_40:
  7021  001492  EF9C  F00A         	goto	i2l1778
  7022  001496                     i2l4102:
  7023  001496  EE20 F003          	lfsr	2,3
  7024  00149A  500B               	movf	i2memset@s^0,w,c
  7025  00149C  26D9               	addwf	fsr2l,f,c
  7026  00149E  500C               	movf	(i2memset@s+1)^0,w,c
  7027  0014A0  22DA               	addwfc	fsr2h,f,c
  7028  0014A2  C003  FFDF         	movff	i2memset@c,indf2
  7029  0014A6  5005               	movf	i2memset@n^0,w,c
  7030  0014A8  240B               	addwf	i2memset@s^0,w,c
  7031  0014AA  6E07               	movwf	??i2_memset^0,c
  7032  0014AC  5006               	movf	(i2memset@n+1)^0,w,c
  7033  0014AE  200C               	addwfc	(i2memset@s+1)^0,w,c
  7034  0014B0  6E08               	movwf	(??i2_memset+1)^0,c
  7035  0014B2  0EFC               	movlw	252
  7036  0014B4  2407               	addwf	??i2_memset^0,w,c
  7037  0014B6  6ED9               	movwf	fsr2l,c
  7038  0014B8  0EFF               	movlw	255
  7039  0014BA  2008               	addwfc	(??i2_memset+1)^0,w,c
  7040  0014BC  6EDA               	movwf	fsr2h,c
  7041  0014BE  C003  FFDF         	movff	i2memset@c,indf2
  7042  0014C2  5006               	movf	(i2memset@n+1)^0,w,c
  7043  0014C4  E107               	bnz	i2u243_41
  7044  0014C6  0E09               	movlw	9
  7045  0014C8  5C05               	subwf	i2memset@n^0,w,c
  7046  0014CA  B0D8               	btfsc	status,0,c
  7047  0014CC  EF6A  F00A         	goto	i2u243_41
  7048  0014D0  EF6C  F00A         	goto	i2u243_40
  7049  0014D4                     i2u243_41:
  7050  0014D4  EF6E  F00A         	goto	i2l4108
  7051  0014D8                     i2u243_40:
  7052  0014D8  EF9C  F00A         	goto	i2l1778
  7053  0014DC                     i2l4108:
  7054  0014DC  C00B  F007         	movff	i2memset@s,??i2_memset
  7055  0014E0  C00C  F008         	movff	i2memset@s+1,??i2_memset+1
  7056  0014E4  1E07               	comf	??i2_memset^0,f,c
  7057  0014E6  1E08               	comf	(??i2_memset+1)^0,f,c
  7058  0014E8  4A07               	infsnz	??i2_memset^0,f,c
  7059  0014EA  2A08               	incf	(??i2_memset+1)^0,f,c
  7060  0014EC  0E03               	movlw	3
  7061  0014EE  1407               	andwf	??i2_memset^0,w,c
  7062  0014F0  6E09               	movwf	i2memset@k^0,c
  7063  0014F2  6A0A               	clrf	(i2memset@k+1)^0,c
  7064  0014F4  5009               	movf	i2memset@k^0,w,c
  7065  0014F6  260B               	addwf	i2memset@s^0,f,c
  7066  0014F8  500A               	movf	(i2memset@k+1)^0,w,c
  7067  0014FA  220C               	addwfc	(i2memset@s+1)^0,f,c
  7068  0014FC  5009               	movf	i2memset@k^0,w,c
  7069  0014FE  5E05               	subwf	i2memset@n^0,f,c
  7070  001500  500A               	movf	(i2memset@k+1)^0,w,c
  7071  001502  5A06               	subwfb	(i2memset@n+1)^0,f,c
  7072  001504  0EFC               	movlw	252
  7073  001506  1605               	andwf	i2memset@n^0,f,c
  7074  001508  0EFF               	movlw	255
  7075  00150A  1606               	andwf	(i2memset@n+1)^0,f,c
  7076  00150C  EF93  F00A         	goto	i2l4116
  7077  001510                     i2l4110:
  7078  001510  C00B  FFD9         	movff	i2memset@s,fsr2l
  7079  001514  C00C  FFDA         	movff	i2memset@s+1,fsr2h
  7080  001518  C003  FFDF         	movff	i2memset@c,indf2
  7081  00151C  0605               	decf	i2memset@n^0,f,c
  7082  00151E  A0D8               	btfss	status,0,c
  7083  001520  0606               	decf	(i2memset@n+1)^0,f,c
  7084  001522  4A0B               	infsnz	i2memset@s^0,f,c
  7085  001524  2A0C               	incf	(i2memset@s+1)^0,f,c
  7086  001526                     i2l4116:
  7087  001526  5005               	movf	i2memset@n^0,w,c
  7088  001528  1006               	iorwf	(i2memset@n+1)^0,w,c
  7089  00152A  A4D8               	btfss	status,2,c
  7090  00152C  EF9A  F00A         	goto	i2u244_41
  7091  001530  EF9C  F00A         	goto	i2u244_40
  7092  001534                     i2u244_41:
  7093  001534  EF88  F00A         	goto	i2l4110
  7094  001538                     i2u244_40:
  7095  001538                     i2l1778:
  7096  001538  0012               	return		;funcret
  7097  00153A                     __end_ofi2_memset:
  7098                           	callstack 0
  7099                           
  7100 ;; *************** function _USBStdGetStatusHandler *****************
  7101 ;; Defined at:
  7102 ;;		line 2133 in file "mcc_generated_files/usb/usb_device.c"
  7103 ;; Parameters:    Size  Location     Type
  7104 ;;		None
  7105 ;; Auto vars:     Size  Location     Type
  7106 ;;  p               2    2[COMRAM] PTR struct __BDT
  7107 ;;		 -> RAM(2047), NULL(0), BDT(48), 
  7108 ;; Return value:  Size  Location     Type
  7109 ;;                  1    wreg      void 
  7110 ;; Registers used:
  7111 ;;		wreg, fsr2l, fsr2h, status,2, status,0, prodl, prodh
  7112 ;; Tracked objects:
  7113 ;;		On entry : 0/0
  7114 ;;		On exit  : 0/0
  7115 ;;		Unchanged: 0/0
  7116 ;; Data sizes:     COMRAM   BANK0   BANK1   BANK2   BANK3   BANK4   BANK5   BANK6   BANK7
  7117 ;;      Params:         0       0       0       0       0       0       0       0       0
  7118 ;;      Locals:         2       0       0       0       0       0       0       0       0
  7119 ;;      Temps:          2       0       0       0       0       0       0       0       0
  7120 ;;      Totals:         4       0       0       0       0       0       0       0       0
  7121 ;;Total ram usage:        4 bytes
  7122 ;; Hardware stack levels used: 1
  7123 ;; This function calls:
  7124 ;;		Nothing
  7125 ;; This function is called by:
  7126 ;;		_USBCheckStdRequest
  7127 ;; This function uses a non-reentrant model
  7128 ;;
  7129                           
  7130                           	psect	text42
  7131  0025AA                     __ptext42:
  7132                           	callstack 0
  7133  0025AA                     _USBStdGetStatusHandler:
  7134                           	callstack 22
  7135  0025AA                     
  7136                           ;mcc_generated_files/usb/usb_device.c: 2135:     CtrlTrfData[0] = 0;
  7137  0025AA  0E00               	movlw	0
  7138  0025AC  0104               	movlb	4	; () banked
  7139  0025AE  6F38               	movwf	56,b	;volatile
  7140                           
  7141                           ;mcc_generated_files/usb/usb_device.c: 2136:     CtrlTrfData[1] = 0;
  7142  0025B0  0E00               	movlw	0
  7143  0025B2  6F39               	movwf	57,b	;volatile
  7144                           
  7145                           ;mcc_generated_files/usb/usb_device.c: 2138:     switch(SetupPkt.Recipient)
  7146  0025B4  EF32  F013         	goto	i2l4268
  7147  0025B8                     i2l284:
  7148                           
  7149                           ; BSR set to: 4
  7150                           ;mcc_generated_files/usb/usb_device.c: 2141:             inPipes[0].info.bits.busy = 1;
  7151  0025B8  0100               	movlb	0	; () banked
  7152  0025BA  8F75               	bsf	(_inPipes+3)& (0+255),7,b	;volatile
  7153  0025BC                     
  7154                           ; BSR set to: 0
  7155                           ;mcc_generated_files/usb/usb_device.c: 2151:             if(RemoteWakeup == 1)
  7156  0025BC  044D               	decf	_RemoteWakeup^0,w,c	;volatile
  7157  0025BE  A4D8               	btfss	status,2,c
  7158  0025C0  EFE4  F012         	goto	i2u259_41
  7159  0025C4  EFE6  F012         	goto	i2u259_40
  7160  0025C8                     i2u259_41:
  7161  0025C8  EF4C  F013         	goto	i2l287
  7162  0025CC                     i2u259_40:
  7163  0025CC                     
  7164                           ; BSR set to: 0
  7165                           ;mcc_generated_files/usb/usb_device.c: 2152:             {;mcc_generated_files/usb/usb_d
      +                          evice.c: 2153:                 CtrlTrfData[0]|=0x02;
  7166  0025CC  0104               	movlb	4	; () banked
  7167  0025CE  8338               	bsf	56,1,b	;volatile
  7168  0025D0  EF4C  F013         	goto	i2l287
  7169  0025D4                     i2l288:
  7170                           
  7171                           ; BSR set to: 4
  7172                           ;mcc_generated_files/usb/usb_device.c: 2157:             inPipes[0].info.bits.busy = 1;
  7173  0025D4  0100               	movlb	0	; () banked
  7174  0025D6  8F75               	bsf	(_inPipes+3)& (0+255),7,b	;volatile
  7175                           
  7176                           ;mcc_generated_files/usb/usb_device.c: 2158:             break;
  7177  0025D8  EF4C  F013         	goto	i2l287
  7178  0025DC                     i2l289:
  7179                           
  7180                           ; BSR set to: 4
  7181                           ;mcc_generated_files/usb/usb_device.c: 2160:             inPipes[0].info.bits.busy = 1;
  7182  0025DC  0100               	movlb	0	; () banked
  7183  0025DE  8F75               	bsf	(_inPipes+3)& (0+255),7,b	;volatile
  7184                           
  7185                           ;mcc_generated_files/usb/usb_device.c: 2164:             {;mcc_generated_files/usb/usb_d
      +                          evice.c: 2165:                 BDT_ENTRY *p;;mcc_generated_files/usb/usb_device.c: 2167:
      +                                           if(SetupPkt.EPDir == 0)
  7186  0025E0  0104               	movlb	4	; () banked
  7187  0025E2  BF34               	btfsc	52,7,b	;volatile
  7188  0025E4  EFF6  F012         	goto	i2u260_41
  7189  0025E8  EFF8  F012         	goto	i2u260_40
  7190  0025EC                     i2u260_41:
  7191  0025EC  EF09  F013         	goto	i2l4258
  7192  0025F0                     i2u260_40:
  7193  0025F0                     
  7194                           ; BSR set to: 4
  7195                           ;mcc_generated_files/usb/usb_device.c: 2168:                 {;mcc_generated_files/usb/u
      +                          sb_device.c: 2169:                     p = (BDT_ENTRY*)pBDTEntryOut[SetupPkt.EPNum];
  7196  0025F0  5134               	movf	52,w,b	;volatile
  7197  0025F2  0B0F               	andlw	15
  7198  0025F4  6E01               	movwf	??_USBStdGetStatusHandler^0,c
  7199  0025F6  5001               	movf	??_USBStdGetStatusHandler^0,w,c
  7200  0025F8  0D02               	mullw	2
  7201  0025FA  0E7E               	movlw	low _pBDTEntryOut
  7202  0025FC  24F3               	addwf	243,w,c
  7203  0025FE  6ED9               	movwf	fsr2l,c
  7204  002600  0E00               	movlw	high _pBDTEntryOut
  7205  002602  20F4               	addwfc	prodh,w,c
  7206  002604  6EDA               	movwf	fsr2h,c
  7207  002606  CFDE F003          	movff	postinc2,USBStdGetStatusHandler@p
  7208  00260A  CFDD F004          	movff	postdec2,USBStdGetStatusHandler@p+1
  7209                           
  7210                           ;mcc_generated_files/usb/usb_device.c: 2170:                 }
  7211  00260E  EF18  F013         	goto	i2l4260
  7212  002612                     i2l4258:
  7213                           
  7214                           ; BSR set to: 4
  7215                           ;mcc_generated_files/usb/usb_device.c: 2172:                 {;mcc_generated_files/usb/u
      +                          sb_device.c: 2173:                     p = (BDT_ENTRY*)pBDTEntryIn[SetupPkt.EPNum];
  7216  002612  5134               	movf	52,w,b	;volatile
  7217  002614  0B0F               	andlw	15
  7218  002616  6E01               	movwf	??_USBStdGetStatusHandler^0,c
  7219  002618  5001               	movf	??_USBStdGetStatusHandler^0,w,c
  7220  00261A  0D02               	mullw	2
  7221  00261C  0E78               	movlw	low _pBDTEntryIn
  7222  00261E  24F3               	addwf	243,w,c
  7223  002620  6ED9               	movwf	fsr2l,c
  7224  002622  0E00               	movlw	high _pBDTEntryIn
  7225  002624  20F4               	addwfc	prodh,w,c
  7226  002626  6EDA               	movwf	fsr2h,c
  7227  002628  CFDE F003          	movff	postinc2,USBStdGetStatusHandler@p
  7228  00262C  CFDD F004          	movff	postdec2,USBStdGetStatusHandler@p+1
  7229  002630                     i2l4260:
  7230                           
  7231                           ; BSR set to: 4
  7232                           ;mcc_generated_files/usb/usb_device.c: 2176:                 if((p->STAT.UOWN == 1) && (
      +                          p->STAT.BSTALL == 1))
  7233  002630  C003  FFD9         	movff	USBStdGetStatusHandler@p,fsr2l
  7234  002634  C004  FFDA         	movff	USBStdGetStatusHandler@p+1,fsr2h
  7235  002638  AEDF               	btfss	indf2,7,c
  7236  00263A  EF21  F013         	goto	i2u261_41
  7237  00263E  EF23  F013         	goto	i2u261_40
  7238  002642                     i2u261_41:
  7239  002642  EF4C  F013         	goto	i2l287
  7240  002646                     i2u261_40:
  7241  002646                     
  7242                           ; BSR set to: 4
  7243  002646  C003  FFD9         	movff	USBStdGetStatusHandler@p,fsr2l
  7244  00264A  C004  FFDA         	movff	USBStdGetStatusHandler@p+1,fsr2h
  7245  00264E  A4DF               	btfss	indf2,2,c
  7246  002650  EF2C  F013         	goto	i2u262_41
  7247  002654  EF2E  F013         	goto	i2u262_40
  7248  002658                     i2u262_41:
  7249  002658  EF4C  F013         	goto	i2l287
  7250  00265C                     i2u262_40:
  7251  00265C                     
  7252                           ; BSR set to: 4
  7253                           ;mcc_generated_files/usb/usb_device.c: 2177:                     CtrlTrfData[0]=0x01;
  7254  00265C  0E01               	movlw	1
  7255  00265E  6F38               	movwf	56,b	;volatile
  7256  002660  EF4C  F013         	goto	i2l287
  7257  002664                     i2l4268:
  7258                           
  7259                           ; BSR set to: 4
  7260  002664  5130               	movf	48,w,b	;volatile
  7261  002666  0B1F               	andlw	31
  7262  002668  6E01               	movwf	??_USBStdGetStatusHandler^0,c
  7263  00266A  6A02               	clrf	(??_USBStdGetStatusHandler+1)^0,c
  7264                           
  7265                           ; Switch on 2 bytes has been partitioned into a top level switch of size 1, and 1 sub-sw
      +                          itches
  7266                           ; Switch size 1, requested type "simple"
  7267                           ; Number of cases is 1, Range of values is 0 to 0
  7268                           ; switch strategies available:
  7269                           ; Name         Instructions Cycles
  7270                           ; simple_byte            4     3 (average)
  7271                           ;	Chosen strategy is simple_byte
  7272  00266C  5002               	movf	(??_USBStdGetStatusHandler+1)^0,w,c
  7273  00266E  0A00               	xorlw	0	; case 0
  7274  002670  B4D8               	btfsc	status,2,c
  7275  002672  EF3D  F013         	goto	i2l6522
  7276  002676  EF4C  F013         	goto	i2l287
  7277  00267A                     i2l6522:
  7278                           
  7279                           ; BSR set to: 4
  7280                           ; Switch size 1, requested type "simple"
  7281                           ; Number of cases is 3, Range of values is 0 to 2
  7282                           ; switch strategies available:
  7283                           ; Name         Instructions Cycles
  7284                           ; simple_byte           10     6 (average)
  7285                           ;	Chosen strategy is simple_byte
  7286  00267A  5001               	movf	??_USBStdGetStatusHandler^0,w,c
  7287  00267C  0A00               	xorlw	0	; case 0
  7288  00267E  B4D8               	btfsc	status,2,c
  7289  002680  EFDC  F012         	goto	i2l284
  7290  002684  0A01               	xorlw	1	; case 1
  7291  002686  B4D8               	btfsc	status,2,c
  7292  002688  EFEA  F012         	goto	i2l288
  7293  00268C  0A03               	xorlw	3	; case 2
  7294  00268E  B4D8               	btfsc	status,2,c
  7295  002690  EFEE  F012         	goto	i2l289
  7296  002694  EF4C  F013         	goto	i2l287
  7297  002698                     i2l287:
  7298                           
  7299                           ;mcc_generated_files/usb/usb_device.c: 2182:     if(inPipes[0].info.bits.busy == 1)
  7300  002698  0100               	movlb	0	; () banked
  7301  00269A  AF75               	btfss	(_inPipes+3)& (0+255),7,b	;volatile
  7302  00269C  EF52  F013         	goto	i2u263_41
  7303  0026A0  EF54  F013         	goto	i2u263_40
  7304  0026A4                     i2u263_41:
  7305  0026A4  EF5B  F013         	goto	i2l294
  7306  0026A8                     i2u263_40:
  7307  0026A8                     
  7308                           ; BSR set to: 0
  7309                           ;mcc_generated_files/usb/usb_device.c: 2183:     {;mcc_generated_files/usb/usb_device.c:
      +                           2184:         inPipes[0].pSrc.bRam = (uint8_t*)&CtrlTrfData;
  7310  0026A8  0E38               	movlw	56
  7311  0026AA  6F72               	movwf	_inPipes& (0+255),b	;volatile
  7312  0026AC  0E04               	movlw	4
  7313  0026AE  6F73               	movwf	(_inPipes+1)& (0+255),b	;volatile
  7314  0026B0                     
  7315                           ; BSR set to: 0
  7316                           ;mcc_generated_files/usb/usb_device.c: 2185:         inPipes[0].info.bits.ctrl_trf_mem =
      +                           0x01;
  7317  0026B0  8175               	bsf	(_inPipes+3)& (0+255),0,b	;volatile
  7318  0026B2                     
  7319                           ; BSR set to: 0
  7320                           ;mcc_generated_files/usb/usb_device.c: 2186:         inPipes[0].wCount.v[0] = 2;
  7321  0026B2  0E02               	movlw	2
  7322  0026B4  6F76               	movwf	(_inPipes+4)& (0+255),b	;volatile
  7323  0026B6                     i2l294:
  7324                           
  7325                           ; BSR set to: 0
  7326  0026B6  0012               	return		;funcret
  7327  0026B8                     __end_of_USBStdGetStatusHandler:
  7328                           	callstack 0
  7329                           
  7330 ;; *************** function _USBStdGetDscHandler *****************
  7331 ;; Defined at:
  7332 ;;		line 2047 in file "mcc_generated_files/usb/usb_device.c"
  7333 ;; Parameters:    Size  Location     Type
  7334 ;;		None
  7335 ;; Auto vars:     Size  Location     Type
  7336 ;;		None
  7337 ;; Return value:  Size  Location     Type
  7338 ;;                  1    wreg      void 
  7339 ;; Registers used:
  7340 ;;		wreg, fsr0l, fsr0h, status,2, status,0, tblptrl, tblptrh, tblptru, prodl, prodh
  7341 ;; Tracked objects:
  7342 ;;		On entry : 0/0
  7343 ;;		On exit  : 0/0
  7344 ;;		Unchanged: 0/0
  7345 ;; Data sizes:     COMRAM   BANK0   BANK1   BANK2   BANK3   BANK4   BANK5   BANK6   BANK7
  7346 ;;      Params:         0       0       0       0       0       0       0       0       0
  7347 ;;      Locals:         0       0       0       0       0       0       0       0       0
  7348 ;;      Temps:          2       0       0       0       0       0       0       0       0
  7349 ;;      Totals:         2       0       0       0       0       0       0       0       0
  7350 ;;Total ram usage:        2 bytes
  7351 ;; Hardware stack levels used: 1
  7352 ;; This function calls:
  7353 ;;		Nothing
  7354 ;; This function is called by:
  7355 ;;		_USBCheckStdRequest
  7356 ;; This function uses a non-reentrant model
  7357 ;;
  7358                           
  7359                           	psect	text43
  7360  00153A                     __ptext43:
  7361                           	callstack 0
  7362  00153A                     _USBStdGetDscHandler:
  7363                           	callstack 22
  7364  00153A                     
  7365                           ;mcc_generated_files/usb/usb_device.c: 2049:     if(SetupPkt.bmRequestType == 0x80)
  7366  00153A  0E80               	movlw	128
  7367  00153C  0104               	movlb	4	; () banked
  7368  00153E  1930               	xorwf	48,w,b	;volatile
  7369  001540  A4D8               	btfss	status,2,c
  7370  001542  EFA5  F00A         	goto	i2u253_41
  7371  001546  EFA7  F00A         	goto	i2u253_40
  7372  00154A                     i2u253_41:
  7373  00154A  EF56  F00B         	goto	i2l280
  7374  00154E                     i2u253_40:
  7375  00154E                     
  7376                           ; BSR set to: 4
  7377                           ;mcc_generated_files/usb/usb_device.c: 2050:     {;mcc_generated_files/usb/usb_device.c:
      +                           2051:         inPipes[0].info.Val = 0x00 | 0x80 | 0x40;
  7378  00154E  0EC0               	movlw	192
  7379  001550  0100               	movlb	0	; () banked
  7380  001552  6F75               	movwf	(_inPipes+3)& (0+255),b	;volatile
  7381                           
  7382                           ;mcc_generated_files/usb/usb_device.c: 2053:         switch(SetupPkt.bDescriptorType)
  7383  001554  EF3C  F00B         	goto	i2l4242
  7384  001558                     i2l4216:
  7385                           
  7386                           ; BSR set to: 4
  7387                           ;mcc_generated_files/usb/usb_device.c: 2059:                     inPipes[0].pSrc.bRom = 
      +                          (const uint8_t*)&device_dsc;
  7388  001558  0E96               	movlw	low _device_dsc
  7389  00155A  0100               	movlb	0	; () banked
  7390  00155C  6F72               	movwf	_inPipes& (0+255),b	;volatile
  7391  00155E  0E08               	movlw	high _device_dsc
  7392  001560  6F73               	movwf	(_inPipes+1)& (0+255),b	;volatile
  7393  001562                     
  7394                           ; BSR set to: 0
  7395                           ;mcc_generated_files/usb/usb_device.c: 2061:                 inPipes[0].wCount.Val = siz
      +                          eof(device_dsc);
  7396  001562  0E00               	movlw	0
  7397  001564  6F77               	movwf	(_inPipes+5)& (0+255),b	;volatile
  7398  001566  0E12               	movlw	18
  7399  001568  6F76               	movwf	(_inPipes+4)& (0+255),b	;volatile
  7400                           
  7401                           ;mcc_generated_files/usb/usb_device.c: 2062:                 break;
  7402  00156A  EF56  F00B         	goto	i2l280
  7403  00156E                     i2l4220:
  7404                           
  7405                           ; BSR set to: 4
  7406                           ;mcc_generated_files/usb/usb_device.c: 2067:                 if(SetupPkt.bDscIndex < 1)
  7407  00156E  5132               	movf	50,w,b	;volatile
  7408  001570  A4D8               	btfss	status,2,c
  7409  001572  EFBD  F00A         	goto	i2u254_41
  7410  001576  EFBF  F00A         	goto	i2u254_40
  7411  00157A                     i2u254_41:
  7412  00157A  EF00  F00B         	goto	i2l4228
  7413  00157E                     i2u254_40:
  7414  00157E                     
  7415                           ; BSR set to: 4
  7416                           ;mcc_generated_files/usb/usb_device.c: 2068:                 {;mcc_generated_files/usb/u
      +                          sb_device.c: 2072:                         inPipes[0].pSrc.bRom = *(USB_CD_Ptr+SetupPkt.
      +                          bDscIndex);
  7417  00157E  5132               	movf	50,w,b	;volatile
  7418  001580  0D02               	mullw	2
  7419  001582  0E07               	movlw	low _USB_CD_Ptr
  7420  001584  24F3               	addwf	243,w,c
  7421  001586  6EF6               	movwf	tblptrl,c
  7422  001588  0E08               	movlw	high _USB_CD_Ptr
  7423  00158A  20F4               	addwfc	244,w,c
  7424  00158C  6EF7               	movwf	tblptrh,c
  7425  00158E                     	if	0	;There are less than 3 active tblptr bytes
  7426  00158E                     	endif
  7427  00158E  0009               	tblrd		*+
  7428  001590  CFF5 F072          	movff	tablat,_inPipes	;volatile
  7429  001594  000A               	tblrd		*-
  7430  001596  CFF5 F073          	movff	tablat,_inPipes+1	;volatile
  7431  00159A                     
  7432                           ; BSR set to: 4
  7433                           ;mcc_generated_files/usb/usb_device.c: 2078:                     inPipes[0].wCount.byte.
      +                          LB = *(inPipes[0].pSrc.bRom+2);
  7434  00159A  0E02               	movlw	2
  7435  00159C  0100               	movlb	0	; () banked
  7436  00159E  2572               	addwf	_inPipes& (0+255),w,b	;volatile
  7437  0015A0  6E01               	movwf	??_USBStdGetDscHandler^0,c
  7438  0015A2  0E00               	movlw	0
  7439  0015A4  2173               	addwfc	(_inPipes+1)& (0+255),w,b	;volatile
  7440  0015A6  6E02               	movwf	(??_USBStdGetDscHandler+1)^0,c
  7441  0015A8  C001  FFF6         	movff	??_USBStdGetDscHandler,tblptrl
  7442  0015AC  C002  FFF7         	movff	??_USBStdGetDscHandler+1,tblptrh
  7443  0015B0  6AF8               	clrf	tblptru,c
  7444  0015B2  0E07               	movlw	(high __ramtop+-1)
  7445  0015B4  64F7               	cpfsgt	tblptrh,c
  7446  0015B6  D003               	bra	i2u255_47
  7447  0015B8  0008               	tblrd		*
  7448  0015BA  50F5               	movf	tablat,w,c
  7449  0015BC  D005               	bra	i2u255_40
  7450  0015BE                     i2u255_47:
  7451  0015BE  CFF6 FFE9          	movff	tblptrl,fsr0l
  7452  0015C2  CFF7 FFEA          	movff	tblptrh,fsr0h
  7453  0015C6  50EF               	movf	indf0,w,c
  7454  0015C8                     i2u255_40:
  7455  0015C8  0100               	movlb	0	; () banked
  7456  0015CA  6F76               	movwf	(_inPipes+4)& (0+255),b	;volatile
  7457  0015CC                     
  7458                           ; BSR set to: 0
  7459                           ;mcc_generated_files/usb/usb_device.c: 2079:                     inPipes[0].wCount.byte.
      +                          HB = *(inPipes[0].pSrc.bRom+3);
  7460  0015CC  0E03               	movlw	3
  7461  0015CE  2572               	addwf	_inPipes& (0+255),w,b	;volatile
  7462  0015D0  6E01               	movwf	??_USBStdGetDscHandler^0,c
  7463  0015D2  0E00               	movlw	0
  7464  0015D4  2173               	addwfc	(_inPipes+1)& (0+255),w,b	;volatile
  7465  0015D6  6E02               	movwf	(??_USBStdGetDscHandler+1)^0,c
  7466  0015D8  C001  FFF6         	movff	??_USBStdGetDscHandler,tblptrl
  7467  0015DC  C002  FFF7         	movff	??_USBStdGetDscHandler+1,tblptrh
  7468  0015E0  6AF8               	clrf	tblptru,c
  7469  0015E2  0E07               	movlw	(high __ramtop+-1)
  7470  0015E4  64F7               	cpfsgt	tblptrh,c
  7471  0015E6  D003               	bra	i2u256_47
  7472  0015E8  0008               	tblrd		*
  7473  0015EA  50F5               	movf	tablat,w,c
  7474  0015EC  D005               	bra	i2u256_40
  7475  0015EE                     i2u256_47:
  7476  0015EE  CFF6 FFE9          	movff	tblptrl,fsr0l
  7477  0015F2  CFF7 FFEA          	movff	tblptrh,fsr0h
  7478  0015F6  50EF               	movf	indf0,w,c
  7479  0015F8                     i2u256_40:
  7480  0015F8  0100               	movlb	0	; () banked
  7481  0015FA  6F77               	movwf	(_inPipes+5)& (0+255),b	;volatile
  7482                           
  7483                           ;mcc_generated_files/usb/usb_device.c: 2080:                 }
  7484  0015FC  EF56  F00B         	goto	i2l280
  7485  001600                     i2l4228:
  7486                           
  7487                           ; BSR set to: 4
  7488                           ;mcc_generated_files/usb/usb_device.c: 2082:     {;mcc_generated_files/usb/usb_device.c:
      +                           2083:      inPipes[0].info.Val = 0;
  7489  001600  0E00               	movlw	0
  7490  001602  0100               	movlb	0	; () banked
  7491  001604  6F75               	movwf	(_inPipes+3)& (0+255),b	;volatile
  7492  001606  EF56  F00B         	goto	i2l280
  7493  00160A                     i2l4230:
  7494                           
  7495                           ; BSR set to: 4
  7496                           ;mcc_generated_files/usb/usb_device.c: 2090:                 if(SetupPkt.bDscIndex<3)
  7497  00160A  0E03               	movlw	3
  7498  00160C  6132               	cpfslt	50,b	;volatile
  7499  00160E  EF0B  F00B         	goto	i2u257_41
  7500  001612  EF0D  F00B         	goto	i2u257_40
  7501  001616                     i2u257_41:
  7502  001616  EF32  F00B         	goto	i2l4236
  7503  00161A                     i2u257_40:
  7504  00161A                     
  7505                           ; BSR set to: 4
  7506                           ;mcc_generated_files/usb/usb_device.c: 2091:                 {;mcc_generated_files/usb/u
      +                          sb_device.c: 2093:                     inPipes[0].pSrc.bRom = *(USB_SD_Ptr+SetupPkt.bDsc
      +                          Index);
  7507  00161A  5132               	movf	50,w,b	;volatile
  7508  00161C  0D02               	mullw	2
  7509  00161E  0E01               	movlw	low _USB_SD_Ptr
  7510  001620  24F3               	addwf	243,w,c
  7511  001622  6EF6               	movwf	tblptrl,c
  7512  001624  0E08               	movlw	high _USB_SD_Ptr
  7513  001626  20F4               	addwfc	244,w,c
  7514  001628  6EF7               	movwf	tblptrh,c
  7515  00162A                     	if	0	;There are less than 3 active tblptr bytes
  7516  00162A                     	endif
  7517  00162A  0009               	tblrd		*+
  7518  00162C  CFF5 F072          	movff	tablat,_inPipes	;volatile
  7519  001630  000A               	tblrd		*-
  7520  001632  CFF5 F073          	movff	tablat,_inPipes+1	;volatile
  7521  001636                     
  7522                           ; BSR set to: 4
  7523                           ;mcc_generated_files/usb/usb_device.c: 2095:                     inPipes[0].wCount.Val =
      +                           *inPipes[0].pSrc.bRom;
  7524  001636  C072  FFF6         	movff	_inPipes,tblptrl	;volatile
  7525  00163A  C073  FFF7         	movff	_inPipes+1,tblptrh	;volatile
  7526  00163E  6AF8               	clrf	tblptru,c
  7527  001640  0E07               	movlw	(high __ramtop+-1)
  7528  001642  64F7               	cpfsgt	tblptrh,c
  7529  001644  D003               	bra	i2u258_47
  7530  001646  0008               	tblrd		*
  7531  001648  50F5               	movf	tablat,w,c
  7532  00164A  D005               	bra	i2u258_40
  7533  00164C                     i2u258_47:
  7534  00164C  CFF6 FFE9          	movff	tblptrl,fsr0l
  7535  001650  CFF7 FFEA          	movff	tblptrh,fsr0h
  7536  001654  50EF               	movf	indf0,w,c
  7537  001656                     i2u258_40:
  7538  001656  6E01               	movwf	??_USBStdGetDscHandler^0,c
  7539  001658  5001               	movf	??_USBStdGetDscHandler^0,w,c
  7540  00165A  0100               	movlb	0	; () banked
  7541  00165C  6F76               	movwf	(_inPipes+4)& (0+255),b	;volatile
  7542  00165E  6B77               	clrf	(_inPipes+5)& (0+255),b	;volatile
  7543                           
  7544                           ;mcc_generated_files/usb/usb_device.c: 2096:                 }
  7545  001660  EF56  F00B         	goto	i2l280
  7546  001664                     i2l4236:
  7547                           
  7548                           ; BSR set to: 4
  7549                           ;mcc_generated_files/usb/usb_device.c: 2107:                 {;mcc_generated_files/usb/u
      +                          sb_device.c: 2108:                     inPipes[0].info.Val = 0;
  7550  001664  0E00               	movlw	0
  7551  001666  0100               	movlb	0	; () banked
  7552  001668  6F75               	movwf	(_inPipes+3)& (0+255),b	;volatile
  7553  00166A  EF56  F00B         	goto	i2l280
  7554  00166E                     i2l4238:
  7555                           
  7556                           ; BSR set to: 4
  7557                           ;mcc_generated_files/usb/usb_device.c: 2112:                 inPipes[0].info.Val = 0;
  7558  00166E  0E00               	movlw	0
  7559  001670  0100               	movlb	0	; () banked
  7560  001672  6F75               	movwf	(_inPipes+3)& (0+255),b	;volatile
  7561                           
  7562                           ;mcc_generated_files/usb/usb_device.c: 2113:                 break;
  7563  001674  EF56  F00B         	goto	i2l280
  7564  001678                     i2l4242:
  7565                           
  7566                           ; BSR set to: 0
  7567  001678  0104               	movlb	4	; () banked
  7568  00167A  5133               	movf	51,w,b	;volatile
  7569  00167C  6E01               	movwf	??_USBStdGetDscHandler^0,c
  7570  00167E  6A02               	clrf	(??_USBStdGetDscHandler+1)^0,c
  7571                           
  7572                           ; Switch on 2 bytes has been partitioned into a top level switch of size 1, and 1 sub-sw
      +                          itches
  7573                           ; Switch size 1, requested type "simple"
  7574                           ; Number of cases is 1, Range of values is 0 to 0
  7575                           ; switch strategies available:
  7576                           ; Name         Instructions Cycles
  7577                           ; simple_byte            4     3 (average)
  7578                           ;	Chosen strategy is simple_byte
  7579  001680  5002               	movf	(??_USBStdGetDscHandler+1)^0,w,c
  7580  001682  0A00               	xorlw	0	; case 0
  7581  001684  B4D8               	btfsc	status,2,c
  7582  001686  EF47  F00B         	goto	i2l6524
  7583  00168A  EF37  F00B         	goto	i2l4238
  7584  00168E                     i2l6524:
  7585                           
  7586                           ; BSR set to: 4
  7587                           ; Switch size 1, requested type "simple"
  7588                           ; Number of cases is 3, Range of values is 1 to 3
  7589                           ; switch strategies available:
  7590                           ; Name         Instructions Cycles
  7591                           ; simple_byte           10     6 (average)
  7592                           ;	Chosen strategy is simple_byte
  7593  00168E  5001               	movf	??_USBStdGetDscHandler^0,w,c
  7594  001690  0A01               	xorlw	1	; case 1
  7595  001692  B4D8               	btfsc	status,2,c
  7596  001694  EFAC  F00A         	goto	i2l4216
  7597  001698  0A03               	xorlw	3	; case 2
  7598  00169A  B4D8               	btfsc	status,2,c
  7599  00169C  EFB7  F00A         	goto	i2l4220
  7600  0016A0  0A01               	xorlw	1	; case 3
  7601  0016A2  B4D8               	btfsc	status,2,c
  7602  0016A4  EF05  F00B         	goto	i2l4230
  7603  0016A8  EF37  F00B         	goto	i2l4238
  7604  0016AC                     i2l280:
  7605  0016AC  0012               	return		;funcret
  7606  0016AE                     __end_of_USBStdGetDscHandler:
  7607                           	callstack 0
  7608                           
  7609 ;; *************** function _USBStdFeatureReqHandler *****************
  7610 ;; Defined at:
  7611 ;;		line 2758 in file "mcc_generated_files/usb/usb_device.c"
  7612 ;; Parameters:    Size  Location     Type
  7613 ;;		None
  7614 ;; Auto vars:     Size  Location     Type
  7615 ;;  p               2   25[COMRAM] PTR struct __BDT
  7616 ;;		 -> RAM(2047), NULL(0), BDT(48), 
  7617 ;;  pUEP            2   22[COMRAM] PTR unsigned char 
  7618 ;;		 -> UEP0(1), 
  7619 ;;  current_ep_d    1   24[COMRAM] struct .
  7620 ;; Return value:  Size  Location     Type
  7621 ;;                  1    wreg      void 
  7622 ;; Registers used:
  7623 ;;		wreg, fsr2l, fsr2h, status,2, status,0, prodl, prodh, cstack
  7624 ;; Tracked objects:
  7625 ;;		On entry : 0/0
  7626 ;;		On exit  : 0/0
  7627 ;;		Unchanged: 0/0
  7628 ;; Data sizes:     COMRAM   BANK0   BANK1   BANK2   BANK3   BANK4   BANK5   BANK6   BANK7
  7629 ;;      Params:         0       0       0       0       0       0       0       0       0
  7630 ;;      Locals:         5       0       0       0       0       0       0       0       0
  7631 ;;      Temps:          2       0       0       0       0       0       0       0       0
  7632 ;;      Totals:         7       0       0       0       0       0       0       0       0
  7633 ;;Total ram usage:        7 bytes
  7634 ;; Hardware stack levels used: 1
  7635 ;; Hardware stack levels required when called: 4
  7636 ;; This function calls:
  7637 ;;		_USER_USB_CALLBACK_EVENT_HANDLER
  7638 ;; This function is called by:
  7639 ;;		_USBCheckStdRequest
  7640 ;; This function uses a non-reentrant model
  7641 ;;
  7642                           
  7643                           	psect	text44
  7644  0008B4                     __ptext44:
  7645                           	callstack 0
  7646  0008B4                     _USBStdFeatureReqHandler:
  7647                           	callstack 18
  7648  0008B4                     
  7649                           ;mcc_generated_files/usb/usb_device.c: 2760:     BDT_ENTRY *p;;mcc_generated_files/usb/u
      +                          sb_device.c: 2761:     EP_STATUS current_ep_data;;mcc_generated_files/usb/usb_device.c: 
      +                          2765:         unsigned char* pUEP;;mcc_generated_files/usb/usb_device.c: 2803:     if((S
      +                          etupPkt.bFeature == 1)&&
  7650  0008B4  0104               	movlb	4	; () banked
  7651  0008B6  0532               	decf	50,w,b	;volatile
  7652  0008B8  A4D8               	btfss	status,2,c
  7653  0008BA  EF61  F004         	goto	i2u264_41
  7654  0008BE  EF63  F004         	goto	i2u264_40
  7655  0008C2                     i2u264_41:
  7656  0008C2  EF7F  F004         	goto	i2l361
  7657  0008C6                     i2u264_40:
  7658  0008C6                     
  7659                           ; BSR set to: 4
  7660  0008C6  5130               	movf	48,w,b	;volatile
  7661  0008C8  0B1F               	andlw	31
  7662  0008CA  0900               	iorlw	0
  7663  0008CC  A4D8               	btfss	status,2,c
  7664  0008CE  EF6B  F004         	goto	i2u265_41
  7665  0008D2  EF6D  F004         	goto	i2u265_40
  7666  0008D6                     i2u265_41:
  7667  0008D6  EF7F  F004         	goto	i2l361
  7668  0008DA                     i2u265_40:
  7669  0008DA                     
  7670                           ; BSR set to: 4
  7671                           ;mcc_generated_files/usb/usb_device.c: 2805:     {;mcc_generated_files/usb/usb_device.c:
      +                           2806:         inPipes[0].info.bits.busy = 1;
  7672  0008DA  0100               	movlb	0	; () banked
  7673  0008DC  8F75               	bsf	(_inPipes+3)& (0+255),7,b	;volatile
  7674  0008DE                     
  7675                           ; BSR set to: 0
  7676                           ;mcc_generated_files/usb/usb_device.c: 2807:         if(SetupPkt.bRequest == 3)
  7677  0008DE  0E03               	movlw	3
  7678  0008E0  0104               	movlb	4	; () banked
  7679  0008E2  1931               	xorwf	49,w,b	;volatile
  7680  0008E4  A4D8               	btfss	status,2,c
  7681  0008E6  EF77  F004         	goto	i2u266_41
  7682  0008EA  EF79  F004         	goto	i2u266_40
  7683  0008EE                     i2u266_41:
  7684  0008EE  EF7D  F004         	goto	i2l4290
  7685  0008F2                     i2u266_40:
  7686  0008F2                     
  7687                           ; BSR set to: 4
  7688                           ;mcc_generated_files/usb/usb_device.c: 2808:             RemoteWakeup = 1;
  7689  0008F2  0E01               	movlw	1
  7690  0008F4  6E4D               	movwf	_RemoteWakeup^0,c	;volatile
  7691  0008F6  EF7F  F004         	goto	i2l361
  7692  0008FA                     i2l4290:
  7693                           
  7694                           ; BSR set to: 4
  7695                           ;mcc_generated_files/usb/usb_device.c: 2810:             RemoteWakeup = 0;
  7696  0008FA  0E00               	movlw	0
  7697  0008FC  6E4D               	movwf	_RemoteWakeup^0,c	;volatile
  7698  0008FE                     i2l361:
  7699                           
  7700                           ; BSR set to: 4
  7701                           ;mcc_generated_files/usb/usb_device.c: 2814:     if((SetupPkt.bFeature == 0)&&
  7702  0008FE  5132               	movf	50,w,b	;volatile
  7703  000900  A4D8               	btfss	status,2,c
  7704  000902  EF85  F004         	goto	i2u267_41
  7705  000906  EF87  F004         	goto	i2u267_40
  7706  00090A                     i2u267_41:
  7707  00090A  EF07  F006         	goto	i2l384
  7708  00090E                     i2u267_40:
  7709  00090E                     
  7710                           ; BSR set to: 4
  7711  00090E  5130               	movf	48,w,b	;volatile
  7712  000910  0B1F               	andlw	31
  7713  000912  0A02               	xorlw	2
  7714  000914  A4D8               	btfss	status,2,c
  7715  000916  EF8F  F004         	goto	i2u268_41
  7716  00091A  EF91  F004         	goto	i2u268_40
  7717  00091E                     i2u268_41:
  7718  00091E  EF07  F006         	goto	i2l384
  7719  000922                     i2u268_40:
  7720  000922                     
  7721                           ; BSR set to: 4
  7722  000922  5134               	movf	52,w,b	;volatile
  7723  000924  0B0F               	andlw	15
  7724  000926  0900               	iorlw	0
  7725  000928  B4D8               	btfsc	status,2,c
  7726  00092A  EF99  F004         	goto	i2u269_41
  7727  00092E  EF9B  F004         	goto	i2u269_40
  7728  000932                     i2u269_41:
  7729  000932  EF07  F006         	goto	i2l384
  7730  000936                     i2u269_40:
  7731  000936                     
  7732                           ; BSR set to: 4
  7733  000936  5134               	movf	52,w,b	;volatile
  7734  000938  0B0F               	andlw	15
  7735  00093A  6E15               	movwf	??_USBStdFeatureReqHandler^0,c
  7736  00093C  0E03               	movlw	3
  7737  00093E  6015               	cpfslt	??_USBStdFeatureReqHandler^0,c
  7738  000940  EFA4  F004         	goto	i2u270_41
  7739  000944  EFA6  F004         	goto	i2u270_40
  7740  000948                     i2u270_41:
  7741  000948  EF07  F006         	goto	i2l384
  7742  00094C                     i2u270_40:
  7743  00094C                     
  7744                           ; BSR set to: 4
  7745  00094C  0E20               	movlw	32
  7746  00094E  1850               	xorwf	_USBDeviceState^0,w,c	;volatile
  7747  000950  A4D8               	btfss	status,2,c
  7748  000952  EFAD  F004         	goto	i2u271_41
  7749  000956  EFAF  F004         	goto	i2u271_40
  7750  00095A                     i2u271_41:
  7751  00095A  EF07  F006         	goto	i2l384
  7752  00095E                     i2u271_40:
  7753  00095E                     
  7754                           ; BSR set to: 4
  7755                           ;mcc_generated_files/usb/usb_device.c: 2818:     {;mcc_generated_files/usb/usb_device.c:
      +                           2821:   inPipes[0].info.bits.busy = 1;
  7756  00095E  0100               	movlb	0	; () banked
  7757  000960  8F75               	bsf	(_inPipes+3)& (0+255),7,b	;volatile
  7758                           
  7759                           ;mcc_generated_files/usb/usb_device.c: 2824:         if(SetupPkt.EPDir == 0)
  7760  000962  0104               	movlb	4	; () banked
  7761  000964  BF34               	btfsc	52,7,b	;volatile
  7762  000966  EFB7  F004         	goto	i2u272_41
  7763  00096A  EFB9  F004         	goto	i2u272_40
  7764  00096E                     i2u272_41:
  7765  00096E  EFD6  F004         	goto	i2l4306
  7766  000972                     i2u272_40:
  7767  000972                     
  7768                           ; BSR set to: 4
  7769                           ;mcc_generated_files/usb/usb_device.c: 2825:         {;mcc_generated_files/usb/usb_devic
      +                          e.c: 2826:             p = (BDT_ENTRY*)pBDTEntryOut[SetupPkt.EPNum];
  7770  000972  5134               	movf	52,w,b	;volatile
  7771  000974  0B0F               	andlw	15
  7772  000976  6E15               	movwf	??_USBStdFeatureReqHandler^0,c
  7773  000978  5015               	movf	??_USBStdFeatureReqHandler^0,w,c
  7774  00097A  0D02               	mullw	2
  7775  00097C  0E7E               	movlw	low _pBDTEntryOut
  7776  00097E  24F3               	addwf	243,w,c
  7777  000980  6ED9               	movwf	fsr2l,c
  7778  000982  0E00               	movlw	high _pBDTEntryOut
  7779  000984  20F4               	addwfc	prodh,w,c
  7780  000986  6EDA               	movwf	fsr2h,c
  7781  000988  CFDE F01A          	movff	postinc2,USBStdFeatureReqHandler@p
  7782  00098C  CFDD F01B          	movff	postdec2,USBStdFeatureReqHandler@p+1
  7783  000990                     
  7784                           ; BSR set to: 4
  7785                           ;mcc_generated_files/usb/usb_device.c: 2827:             current_ep_data.Val = ep_data_o
      +                          ut[SetupPkt.EPNum].Val;
  7786  000990  5134               	movf	52,w,b	;volatile
  7787  000992  0B0F               	andlw	15
  7788  000994  6E15               	movwf	??_USBStdFeatureReqHandler^0,c
  7789  000996  6A16               	clrf	(??_USBStdFeatureReqHandler+1)^0,c
  7790  000998  0E92               	movlw	low _ep_data_out
  7791  00099A  2415               	addwf	??_USBStdFeatureReqHandler^0,w,c
  7792  00099C  6ED9               	movwf	fsr2l,c
  7793  00099E  0E00               	movlw	high _ep_data_out
  7794  0009A0  2016               	addwfc	(??_USBStdFeatureReqHandler+1)^0,w,c
  7795  0009A2  6EDA               	movwf	fsr2h,c
  7796  0009A4  50DF               	movf	indf2,w,c
  7797  0009A6  6E19               	movwf	USBStdFeatureReqHandler@current_ep_data^0,c
  7798                           
  7799                           ;mcc_generated_files/usb/usb_device.c: 2828:         }
  7800  0009A8  EFF1  F004         	goto	i2l4310
  7801  0009AC                     i2l4306:
  7802                           
  7803                           ; BSR set to: 4
  7804                           ;mcc_generated_files/usb/usb_device.c: 2830:         {;mcc_generated_files/usb/usb_devic
      +                          e.c: 2831:             p = (BDT_ENTRY*)pBDTEntryIn[SetupPkt.EPNum];
  7805  0009AC  5134               	movf	52,w,b	;volatile
  7806  0009AE  0B0F               	andlw	15
  7807  0009B0  6E15               	movwf	??_USBStdFeatureReqHandler^0,c
  7808  0009B2  5015               	movf	??_USBStdFeatureReqHandler^0,w,c
  7809  0009B4  0D02               	mullw	2
  7810  0009B6  0E78               	movlw	low _pBDTEntryIn
  7811  0009B8  24F3               	addwf	243,w,c
  7812  0009BA  6ED9               	movwf	fsr2l,c
  7813  0009BC  0E00               	movlw	high _pBDTEntryIn
  7814  0009BE  20F4               	addwfc	prodh,w,c
  7815  0009C0  6EDA               	movwf	fsr2h,c
  7816  0009C2  CFDE F01A          	movff	postinc2,USBStdFeatureReqHandler@p
  7817  0009C6  CFDD F01B          	movff	postdec2,USBStdFeatureReqHandler@p+1
  7818  0009CA                     
  7819                           ; BSR set to: 4
  7820                           ;mcc_generated_files/usb/usb_device.c: 2832:             current_ep_data.Val = ep_data_i
      +                          n[SetupPkt.EPNum].Val;
  7821  0009CA  5134               	movf	52,w,b	;volatile
  7822  0009CC  0B0F               	andlw	15
  7823  0009CE  6E15               	movwf	??_USBStdFeatureReqHandler^0,c
  7824  0009D0  6A16               	clrf	(??_USBStdFeatureReqHandler+1)^0,c
  7825  0009D2  0E95               	movlw	low _ep_data_in
  7826  0009D4  2415               	addwf	??_USBStdFeatureReqHandler^0,w,c
  7827  0009D6  6ED9               	movwf	fsr2l,c
  7828  0009D8  0E00               	movlw	high _ep_data_in
  7829  0009DA  2016               	addwfc	(??_USBStdFeatureReqHandler+1)^0,w,c
  7830  0009DC  6EDA               	movwf	fsr2h,c
  7831  0009DE  50DF               	movf	indf2,w,c
  7832  0009E0  6E19               	movwf	USBStdFeatureReqHandler@current_ep_data^0,c
  7833  0009E2                     i2l4310:
  7834                           
  7835                           ; BSR set to: 4
  7836                           ;mcc_generated_files/usb/usb_device.c: 2839:             if(current_ep_data.bits.ping_po
      +                          ng_state == 0)
  7837  0009E2  B019               	btfsc	USBStdFeatureReqHandler@current_ep_data^0,0,c
  7838  0009E4  EFF6  F004         	goto	i2u273_41
  7839  0009E8  EFF8  F004         	goto	i2u273_40
  7840  0009EC                     i2u273_41:
  7841  0009EC  EF00  F005         	goto	i2l4314
  7842  0009F0                     i2u273_40:
  7843  0009F0                     
  7844                           ; BSR set to: 4
  7845                           ;mcc_generated_files/usb/usb_device.c: 2840:             {;mcc_generated_files/usb/usb_d
      +                          evice.c: 2841:                 p = (BDT_ENTRY*)(((uint16_t)p) & (~0x0004));
  7846  0009F0  0EFB               	movlw	251
  7847  0009F2  141A               	andwf	USBStdFeatureReqHandler@p^0,w,c
  7848  0009F4  6E1A               	movwf	USBStdFeatureReqHandler@p^0,c
  7849  0009F6  0EFF               	movlw	255
  7850  0009F8  141B               	andwf	(USBStdFeatureReqHandler@p+1)^0,w,c
  7851  0009FA  6E1B               	movwf	(USBStdFeatureReqHandler@p+1)^0,c
  7852                           
  7853                           ;mcc_generated_files/usb/usb_device.c: 2842:             }
  7854  0009FC  EF05  F005         	goto	i2l4316
  7855  000A00                     i2l4314:
  7856                           
  7857                           ; BSR set to: 4
  7858                           ;mcc_generated_files/usb/usb_device.c: 2844:             {;mcc_generated_files/usb/usb_d
      +                          evice.c: 2845:                 p = (BDT_ENTRY*)(((uint16_t)p) | 0x0004);
  7859  000A00  0E04               	movlw	4
  7860  000A02  101A               	iorwf	USBStdFeatureReqHandler@p^0,w,c
  7861  000A04  6E1A               	movwf	USBStdFeatureReqHandler@p^0,c
  7862  000A06  501B               	movf	(USBStdFeatureReqHandler@p+1)^0,w,c
  7863  000A08  6E1B               	movwf	(USBStdFeatureReqHandler@p+1)^0,c
  7864  000A0A                     i2l4316:
  7865                           
  7866                           ; BSR set to: 4
  7867                           ;mcc_generated_files/usb/usb_device.c: 2851:         if(SetupPkt.EPDir == 0)
  7868  000A0A  BF34               	btfsc	52,7,b	;volatile
  7869  000A0C  EF0A  F005         	goto	i2u274_41
  7870  000A10  EF0C  F005         	goto	i2u274_40
  7871  000A14                     i2u274_41:
  7872  000A14  EF1D  F005         	goto	i2l4320
  7873  000A18                     i2u274_40:
  7874  000A18                     
  7875                           ; BSR set to: 4
  7876                           ;mcc_generated_files/usb/usb_device.c: 2852:         {;mcc_generated_files/usb/usb_devic
      +                          e.c: 2853:             pBDTEntryOut[SetupPkt.EPNum] = (volatile BDT_ENTRY *)p;
  7877  000A18  5134               	movf	52,w,b	;volatile
  7878  000A1A  0B0F               	andlw	15
  7879  000A1C  6E15               	movwf	??_USBStdFeatureReqHandler^0,c
  7880  000A1E  5015               	movf	??_USBStdFeatureReqHandler^0,w,c
  7881  000A20  0D02               	mullw	2
  7882  000A22  0E7E               	movlw	low _pBDTEntryOut
  7883  000A24  24F3               	addwf	243,w,c
  7884  000A26  6ED9               	movwf	fsr2l,c
  7885  000A28  0E00               	movlw	high _pBDTEntryOut
  7886  000A2A  20F4               	addwfc	prodh,w,c
  7887  000A2C  6EDA               	movwf	fsr2h,c
  7888  000A2E  C01A  FFDE         	movff	USBStdFeatureReqHandler@p,postinc2
  7889  000A32  C01B  FFDD         	movff	USBStdFeatureReqHandler@p+1,postdec2
  7890                           
  7891                           ;mcc_generated_files/usb/usb_device.c: 2854:         }
  7892  000A36  EF2C  F005         	goto	i2l4322
  7893  000A3A                     i2l4320:
  7894                           
  7895                           ; BSR set to: 4
  7896                           ;mcc_generated_files/usb/usb_device.c: 2856:         {;mcc_generated_files/usb/usb_devic
      +                          e.c: 2857:             pBDTEntryIn[SetupPkt.EPNum] = (volatile BDT_ENTRY *)p;
  7897  000A3A  5134               	movf	52,w,b	;volatile
  7898  000A3C  0B0F               	andlw	15
  7899  000A3E  6E15               	movwf	??_USBStdFeatureReqHandler^0,c
  7900  000A40  5015               	movf	??_USBStdFeatureReqHandler^0,w,c
  7901  000A42  0D02               	mullw	2
  7902  000A44  0E78               	movlw	low _pBDTEntryIn
  7903  000A46  24F3               	addwf	243,w,c
  7904  000A48  6ED9               	movwf	fsr2l,c
  7905  000A4A  0E00               	movlw	high _pBDTEntryIn
  7906  000A4C  20F4               	addwfc	prodh,w,c
  7907  000A4E  6EDA               	movwf	fsr2h,c
  7908  000A50  C01A  FFDE         	movff	USBStdFeatureReqHandler@p,postinc2
  7909  000A54  C01B  FFDD         	movff	USBStdFeatureReqHandler@p+1,postdec2
  7910  000A58                     i2l4322:
  7911                           
  7912                           ; BSR set to: 4
  7913                           ;mcc_generated_files/usb/usb_device.c: 2861:         if(SetupPkt.bRequest == 3)
  7914  000A58  0E03               	movlw	3
  7915  000A5A  1931               	xorwf	49,w,b	;volatile
  7916  000A5C  A4D8               	btfss	status,2,c
  7917  000A5E  EF33  F005         	goto	i2u275_41
  7918  000A62  EF35  F005         	goto	i2u275_40
  7919  000A66                     i2u275_41:
  7920  000A66  EF6F  F005         	goto	i2l4332
  7921  000A6A                     i2u275_40:
  7922  000A6A                     
  7923                           ; BSR set to: 4
  7924                           ;mcc_generated_files/usb/usb_device.c: 2862:         {;mcc_generated_files/usb/usb_devic
      +                          e.c: 2863:             if(p->STAT.UOWN == 1)
  7925  000A6A  C01A  FFD9         	movff	USBStdFeatureReqHandler@p,fsr2l
  7926  000A6E  C01B  FFDA         	movff	USBStdFeatureReqHandler@p+1,fsr2h
  7927  000A72  AEDF               	btfss	indf2,7,c
  7928  000A74  EF3E  F005         	goto	i2u276_41
  7929  000A78  EF40  F005         	goto	i2u276_40
  7930  000A7C                     i2u276_41:
  7931  000A7C  EF61  F005         	goto	i2l372
  7932  000A80                     i2u276_40:
  7933  000A80                     
  7934                           ; BSR set to: 4
  7935                           ;mcc_generated_files/usb/usb_device.c: 2864:             {;mcc_generated_files/usb/usb_d
      +                          evice.c: 2867:                 if(SetupPkt.EPDir == 0)
  7936  000A80  BF34               	btfsc	52,7,b	;volatile
  7937  000A82  EF45  F005         	goto	i2u277_41
  7938  000A86  EF47  F005         	goto	i2u277_40
  7939  000A8A                     i2u277_41:
  7940  000A8A  EF55  F005         	goto	i2l4330
  7941  000A8E                     i2u277_40:
  7942  000A8E                     
  7943                           ; BSR set to: 4
  7944                           ;mcc_generated_files/usb/usb_device.c: 2868:                 {;mcc_generated_files/usb/u
      +                          sb_device.c: 2869:                     ep_data_out[SetupPkt.EPNum].bits.transfer_termina
      +                          ted = 1;
  7945  000A8E  5134               	movf	52,w,b	;volatile
  7946  000A90  0B0F               	andlw	15
  7947  000A92  6E15               	movwf	??_USBStdFeatureReqHandler^0,c
  7948  000A94  6A16               	clrf	(??_USBStdFeatureReqHandler+1)^0,c
  7949  000A96  0E92               	movlw	low _ep_data_out
  7950  000A98  2415               	addwf	??_USBStdFeatureReqHandler^0,w,c
  7951  000A9A  6ED9               	movwf	fsr2l,c
  7952  000A9C  0E00               	movlw	high _ep_data_out
  7953  000A9E  2016               	addwfc	(??_USBStdFeatureReqHandler+1)^0,w,c
  7954  000AA0  6EDA               	movwf	fsr2h,c
  7955  000AA2  0100               	movlb	0	; () banked
  7956  000AA4  82DF               	bsf	indf2,1,c
  7957                           
  7958                           ;mcc_generated_files/usb/usb_device.c: 2870:                 }
  7959  000AA6  EF61  F005         	goto	i2l372
  7960  000AAA                     i2l4330:
  7961                           
  7962                           ; BSR set to: 4
  7963                           ;mcc_generated_files/usb/usb_device.c: 2872:                 {;mcc_generated_files/usb/u
      +                          sb_device.c: 2873:                     ep_data_in[SetupPkt.EPNum].bits.transfer_terminat
      +                          ed = 1;
  7964  000AAA  5134               	movf	52,w,b	;volatile
  7965  000AAC  0B0F               	andlw	15
  7966  000AAE  6E15               	movwf	??_USBStdFeatureReqHandler^0,c
  7967  000AB0  6A16               	clrf	(??_USBStdFeatureReqHandler+1)^0,c
  7968  000AB2  0E95               	movlw	low _ep_data_in
  7969  000AB4  2415               	addwf	??_USBStdFeatureReqHandler^0,w,c
  7970  000AB6  6ED9               	movwf	fsr2l,c
  7971  000AB8  0E00               	movlw	high _ep_data_in
  7972  000ABA  2016               	addwfc	(??_USBStdFeatureReqHandler+1)^0,w,c
  7973  000ABC  6EDA               	movwf	fsr2h,c
  7974  000ABE  0100               	movlb	0	; () banked
  7975  000AC0  82DF               	bsf	indf2,1,c
  7976  000AC2                     i2l372:
  7977                           
  7978                           ;mcc_generated_files/usb/usb_device.c: 2878:             p->STAT.Val |= 0x04;
  7979  000AC2  C01A  FFD9         	movff	USBStdFeatureReqHandler@p,fsr2l
  7980  000AC6  C01B  FFDA         	movff	USBStdFeatureReqHandler@p+1,fsr2h
  7981  000ACA  0E00               	movlw	0
  7982  000ACC  84DB               	bsf	plusw2,2,c
  7983                           
  7984                           ;mcc_generated_files/usb/usb_device.c: 2879:             p->STAT.Val |= 0x80;
  7985  000ACE  C01A  FFD9         	movff	USBStdFeatureReqHandler@p,fsr2l
  7986  000AD2  C01B  FFDA         	movff	USBStdFeatureReqHandler@p+1,fsr2h
  7987  000AD6  0E00               	movlw	0
  7988  000AD8  8EDB               	bsf	plusw2,7,c
  7989                           
  7990                           ;mcc_generated_files/usb/usb_device.c: 2880:         }
  7991  000ADA  EF07  F006         	goto	i2l384
  7992  000ADE                     i2l4332:
  7993                           
  7994                           ; BSR set to: 4
  7995                           ;mcc_generated_files/usb/usb_device.c: 2882:         {;mcc_generated_files/usb/usb_devic
      +                          e.c: 2886:                 p = (BDT_ENTRY*)(((uint16_t)p) ^ 0x0004);
  7996  000ADE  0E04               	movlw	4
  7997  000AE0  181A               	xorwf	USBStdFeatureReqHandler@p^0,w,c
  7998  000AE2  6E1A               	movwf	USBStdFeatureReqHandler@p^0,c
  7999  000AE4  501B               	movf	(USBStdFeatureReqHandler@p+1)^0,w,c
  8000  000AE6  6E1B               	movwf	(USBStdFeatureReqHandler@p+1)^0,c
  8001  000AE8                     
  8002                           ; BSR set to: 4
  8003                           ;mcc_generated_files/usb/usb_device.c: 2888:                 if(p->STAT.UOWN == 1)
  8004  000AE8  C01A  FFD9         	movff	USBStdFeatureReqHandler@p,fsr2l
  8005  000AEC  C01B  FFDA         	movff	USBStdFeatureReqHandler@p+1,fsr2h
  8006  000AF0  AEDF               	btfss	indf2,7,c
  8007  000AF2  EF7D  F005         	goto	i2u278_41
  8008  000AF6  EF7F  F005         	goto	i2u278_40
  8009  000AFA                     i2u278_41:
  8010  000AFA  EF9B  F005         	goto	i2l4342
  8011  000AFE                     i2u278_40:
  8012  000AFE                     
  8013                           ; BSR set to: 4
  8014                           ;mcc_generated_files/usb/usb_device.c: 2889:                 {;mcc_generated_files/usb/u
      +                          sb_device.c: 2892:                     p->STAT.Val &= (~0x80);
  8015  000AFE  C01A  FFD9         	movff	USBStdFeatureReqHandler@p,fsr2l
  8016  000B02  C01B  FFDA         	movff	USBStdFeatureReqHandler@p+1,fsr2h
  8017  000B06  0E7F               	movlw	127
  8018  000B08  16DF               	andwf	indf2,f,c
  8019  000B0A                     
  8020                           ; BSR set to: 4
  8021                           ;mcc_generated_files/usb/usb_device.c: 2893:                     p->STAT.Val |= 0x40;
  8022  000B0A  C01A  FFD9         	movff	USBStdFeatureReqHandler@p,fsr2l
  8023  000B0E  C01B  FFDA         	movff	USBStdFeatureReqHandler@p+1,fsr2h
  8024  000B12  0E00               	movlw	0
  8025  000B14  8CDB               	bsf	plusw2,6,c
  8026  000B16                     
  8027                           ; BSR set to: 4
  8028                           ;mcc_generated_files/usb/usb_device.c: 2894:                     USER_USB_CALLBACK_EVENT
      +                          _HANDLER((USB_EVENT)EVENT_TRANSFER_TERMINATED,p,sizeof(p));
  8029  000B16  0E00               	movlw	0
  8030  000B18  6E0E               	movwf	(USER_USB_CALLBACK_EVENT_HANDLER@event+1)^0,c
  8031  000B1A  0E05               	movlw	5
  8032  000B1C  6E0D               	movwf	USER_USB_CALLBACK_EVENT_HANDLER@event^0,c
  8033  000B1E  C01A  F00F         	movff	USBStdFeatureReqHandler@p,USER_USB_CALLBACK_EVENT_HANDLER@pdata
  8034  000B22  C01B  F010         	movff	USBStdFeatureReqHandler@p+1,USER_USB_CALLBACK_EVENT_HANDLER@pdata+1
  8035  000B26  0E00               	movlw	0
  8036  000B28  6E12               	movwf	(USER_USB_CALLBACK_EVENT_HANDLER@size+1)^0,c
  8037  000B2A  0E02               	movlw	2
  8038  000B2C  6E11               	movwf	USER_USB_CALLBACK_EVENT_HANDLER@size^0,c
  8039  000B2E  EC4D  F017         	call	_USER_USB_CALLBACK_EVENT_HANDLER	;wreg free
  8040                           
  8041                           ;mcc_generated_files/usb/usb_device.c: 2895:                 }
  8042  000B32  EFA1  F005         	goto	i2l4344
  8043  000B36                     i2l4342:
  8044                           
  8045                           ; BSR set to: 4
  8046                           ;mcc_generated_files/usb/usb_device.c: 2897:                 {;mcc_generated_files/usb/u
      +                          sb_device.c: 2899:      p->STAT.Val |= 0x40;
  8047  000B36  C01A  FFD9         	movff	USBStdFeatureReqHandler@p,fsr2l
  8048  000B3A  C01B  FFDA         	movff	USBStdFeatureReqHandler@p+1,fsr2h
  8049  000B3E  0E00               	movlw	0
  8050  000B40  8CDB               	bsf	plusw2,6,c
  8051  000B42                     i2l4344:
  8052                           
  8053                           ;mcc_generated_files/usb/usb_device.c: 2904:                 p = (BDT_ENTRY*)(((uint16_t
      +                          )p) ^ 0x0004);
  8054  000B42  0E04               	movlw	4
  8055  000B44  181A               	xorwf	USBStdFeatureReqHandler@p^0,w,c
  8056  000B46  6E1A               	movwf	USBStdFeatureReqHandler@p^0,c
  8057  000B48  501B               	movf	(USBStdFeatureReqHandler@p+1)^0,w,c
  8058  000B4A  6E1B               	movwf	(USBStdFeatureReqHandler@p+1)^0,c
  8059  000B4C                     
  8060                           ;mcc_generated_files/usb/usb_device.c: 2910:                 if((current_ep_data.bits.tr
      +                          ansfer_terminated != 0) || (p->STAT.UOWN == 1))
  8061  000B4C  B219               	btfsc	USBStdFeatureReqHandler@current_ep_data^0,1,c
  8062  000B4E  EFAB  F005         	goto	i2u279_41
  8063  000B52  EFAD  F005         	goto	i2u279_40
  8064  000B56                     i2u279_41:
  8065  000B56  EFB8  F005         	goto	i2l380
  8066  000B5A                     i2u279_40:
  8067  000B5A  C01A  FFD9         	movff	USBStdFeatureReqHandler@p,fsr2l
  8068  000B5E  C01B  FFDA         	movff	USBStdFeatureReqHandler@p+1,fsr2h
  8069  000B62  AEDF               	btfss	indf2,7,c
  8070  000B64  EFB6  F005         	goto	i2u280_41
  8071  000B68  EFB8  F005         	goto	i2u280_40
  8072  000B6C                     i2u280_41:
  8073  000B6C  EFF0  F005         	goto	i2l4358
  8074  000B70                     i2u280_40:
  8075  000B70                     i2l380:
  8076                           
  8077                           ;mcc_generated_files/usb/usb_device.c: 2911:                 {;mcc_generated_files/usb/u
      +                          sb_device.c: 2912:                     if(SetupPkt.EPDir == 0)
  8078  000B70  0104               	movlb	4	; () banked
  8079  000B72  BF34               	btfsc	52,7,b	;volatile
  8080  000B74  EFBE  F005         	goto	i2u281_41
  8081  000B78  EFC0  F005         	goto	i2u281_40
  8082  000B7C                     i2u281_41:
  8083  000B7C  EFCE  F005         	goto	i2l4352
  8084  000B80                     i2u281_40:
  8085  000B80                     
  8086                           ; BSR set to: 4
  8087                           ;mcc_generated_files/usb/usb_device.c: 2913:                     {;mcc_generated_files/u
      +                          sb/usb_device.c: 2914:                         ep_data_out[SetupPkt.EPNum].bits.transfer
      +                          _terminated = 0;
  8088  000B80  5134               	movf	52,w,b	;volatile
  8089  000B82  0B0F               	andlw	15
  8090  000B84  6E15               	movwf	??_USBStdFeatureReqHandler^0,c
  8091  000B86  6A16               	clrf	(??_USBStdFeatureReqHandler+1)^0,c
  8092  000B88  0E92               	movlw	low _ep_data_out
  8093  000B8A  2415               	addwf	??_USBStdFeatureReqHandler^0,w,c
  8094  000B8C  6ED9               	movwf	fsr2l,c
  8095  000B8E  0E00               	movlw	high _ep_data_out
  8096  000B90  2016               	addwfc	(??_USBStdFeatureReqHandler+1)^0,w,c
  8097  000B92  6EDA               	movwf	fsr2h,c
  8098  000B94  0100               	movlb	0	; () banked
  8099  000B96  92DF               	bcf	indf2,1,c
  8100                           
  8101                           ;mcc_generated_files/usb/usb_device.c: 2915:                     }
  8102  000B98  EFDA  F005         	goto	i2l4354
  8103  000B9C                     i2l4352:
  8104                           
  8105                           ; BSR set to: 4
  8106                           ;mcc_generated_files/usb/usb_device.c: 2917:                     {;mcc_generated_files/u
      +                          sb/usb_device.c: 2918:                         ep_data_in[SetupPkt.EPNum].bits.transfer_
      +                          terminated = 0;
  8107  000B9C  5134               	movf	52,w,b	;volatile
  8108  000B9E  0B0F               	andlw	15
  8109  000BA0  6E15               	movwf	??_USBStdFeatureReqHandler^0,c
  8110  000BA2  6A16               	clrf	(??_USBStdFeatureReqHandler+1)^0,c
  8111  000BA4  0E95               	movlw	low _ep_data_in
  8112  000BA6  2415               	addwf	??_USBStdFeatureReqHandler^0,w,c
  8113  000BA8  6ED9               	movwf	fsr2l,c
  8114  000BAA  0E00               	movlw	high _ep_data_in
  8115  000BAC  2016               	addwfc	(??_USBStdFeatureReqHandler+1)^0,w,c
  8116  000BAE  6EDA               	movwf	fsr2h,c
  8117  000BB0  0100               	movlb	0	; () banked
  8118  000BB2  92DF               	bcf	indf2,1,c
  8119  000BB4                     i2l4354:
  8120                           
  8121                           ; BSR set to: 0
  8122                           ;mcc_generated_files/usb/usb_device.c: 2921:                     p->STAT.Val &= ~(0x80 |
      +                           0x40 | 0x04);
  8123  000BB4  C01A  FFD9         	movff	USBStdFeatureReqHandler@p,fsr2l
  8124  000BB8  C01B  FFDA         	movff	USBStdFeatureReqHandler@p+1,fsr2h
  8125  000BBC  0E3B               	movlw	59
  8126  000BBE  16DF               	andwf	indf2,f,c
  8127  000BC0                     
  8128                           ; BSR set to: 0
  8129                           ;mcc_generated_files/usb/usb_device.c: 2924:                     USER_USB_CALLBACK_EVENT
      +                          _HANDLER((USB_EVENT)EVENT_TRANSFER_TERMINATED,p,sizeof(p));
  8130  000BC0  0E00               	movlw	0
  8131  000BC2  6E0E               	movwf	(USER_USB_CALLBACK_EVENT_HANDLER@event+1)^0,c
  8132  000BC4  0E05               	movlw	5
  8133  000BC6  6E0D               	movwf	USER_USB_CALLBACK_EVENT_HANDLER@event^0,c
  8134  000BC8  C01A  F00F         	movff	USBStdFeatureReqHandler@p,USER_USB_CALLBACK_EVENT_HANDLER@pdata
  8135  000BCC  C01B  F010         	movff	USBStdFeatureReqHandler@p+1,USER_USB_CALLBACK_EVENT_HANDLER@pdata+1
  8136  000BD0  0E00               	movlw	0
  8137  000BD2  6E12               	movwf	(USER_USB_CALLBACK_EVENT_HANDLER@size+1)^0,c
  8138  000BD4  0E02               	movlw	2
  8139  000BD6  6E11               	movwf	USER_USB_CALLBACK_EVENT_HANDLER@size^0,c
  8140  000BD8  EC4D  F017         	call	_USER_USB_CALLBACK_EVENT_HANDLER	;wreg free
  8141                           
  8142                           ;mcc_generated_files/usb/usb_device.c: 2925:                 }
  8143  000BDC  EFF6  F005         	goto	i2l4360
  8144  000BE0                     i2l4358:
  8145                           
  8146                           ;mcc_generated_files/usb/usb_device.c: 2927:                 {;mcc_generated_files/usb/u
      +                          sb_device.c: 2929:                     p->STAT.Val &= ~(0x80 | 0x40 | 0x04);
  8147  000BE0  C01A  FFD9         	movff	USBStdFeatureReqHandler@p,fsr2l
  8148  000BE4  C01B  FFDA         	movff	USBStdFeatureReqHandler@p+1,fsr2h
  8149  000BE8  0E3B               	movlw	59
  8150  000BEA  16DF               	andwf	indf2,f,c
  8151  000BEC                     i2l4360:
  8152                           
  8153                           ;mcc_generated_files/usb/usb_device.c: 2977:                 pUEP = (unsigned char*)(&UE
      +                          P0+SetupPkt.EPNum);
  8154  000BEC  0104               	movlb	4	; () banked
  8155  000BEE  5134               	movf	52,w,b	;volatile
  8156  000BF0  0B0F               	andlw	15
  8157  000BF2  6E15               	movwf	??_USBStdFeatureReqHandler^0,c
  8158  000BF4  6A16               	clrf	(??_USBStdFeatureReqHandler+1)^0,c
  8159  000BF6  0E6A               	movlw	106
  8160  000BF8  2415               	addwf	??_USBStdFeatureReqHandler^0,w,c
  8161  000BFA  6E17               	movwf	USBStdFeatureReqHandler@pUEP^0,c
  8162  000BFC  0E0F               	movlw	15
  8163  000BFE  2016               	addwfc	(??_USBStdFeatureReqHandler+1)^0,w,c
  8164  000C00  6E18               	movwf	(USBStdFeatureReqHandler@pUEP+1)^0,c
  8165  000C02                     
  8166                           ; BSR set to: 4
  8167                           ;mcc_generated_files/usb/usb_device.c: 2981:             *pUEP &= ~0x0001;
  8168  000C02  C017  FFD9         	movff	USBStdFeatureReqHandler@pUEP,fsr2l
  8169  000C06  C018  FFDA         	movff	USBStdFeatureReqHandler@pUEP+1,fsr2h
  8170  000C0A  0EFE               	movlw	254
  8171  000C0C  16DF               	andwf	indf2,f,c
  8172  000C0E                     i2l384:
  8173  000C0E  0012               	return		;funcret
  8174  000C10                     __end_of_USBStdFeatureReqHandler:
  8175                           	callstack 0
  8176                           
  8177 ;; *************** function _USER_USB_CALLBACK_EVENT_HANDLER *****************
  8178 ;; Defined at:
  8179 ;;		line 49 in file "mcc_generated_files/usb/usb_device_events.c"
  8180 ;; Parameters:    Size  Location     Type
  8181 ;;  event           2   12[COMRAM] enum E46
  8182 ;;  pdata           2   14[COMRAM] PTR void 
  8183 ;;		 -> RAM(2047), USTATcopy(1), USBActiveConfiguration(1), NULL(0), 
  8184 ;;		 -> BDT(48), 
  8185 ;;  size            2   16[COMRAM] unsigned short 
  8186 ;; Auto vars:     Size  Location     Type
  8187 ;;		None
  8188 ;; Return value:  Size  Location     Type
  8189 ;;                  1    wreg      _Bool 
  8190 ;; Registers used:
  8191 ;;		wreg, fsr2l, fsr2h, status,2, status,0, prodl, prodh, cstack
  8192 ;; Tracked objects:
  8193 ;;		On entry : 0/0
  8194 ;;		On exit  : 0/0
  8195 ;;		Unchanged: 0/0
  8196 ;; Data sizes:     COMRAM   BANK0   BANK1   BANK2   BANK3   BANK4   BANK5   BANK6   BANK7
  8197 ;;      Params:         6       0       0       0       0       0       0       0       0
  8198 ;;      Locals:         0       0       0       0       0       0       0       0       0
  8199 ;;      Temps:          2       0       0       0       0       0       0       0       0
  8200 ;;      Totals:         8       0       0       0       0       0       0       0       0
  8201 ;;Total ram usage:        8 bytes
  8202 ;; Hardware stack levels used: 1
  8203 ;; Hardware stack levels required when called: 3
  8204 ;; This function calls:
  8205 ;;		_CDCInitEP
  8206 ;;		_USBCheckCDCRequest
  8207 ;; This function is called by:
  8208 ;;		_USBDeviceTasks
  8209 ;;		_USBStdSetCfgHandler
  8210 ;;		_USBSuspend
  8211 ;;		_USBWakeFromSuspend
  8212 ;;		_USBCtrlTrfSetupHandler
  8213 ;;		_USBCheckStdRequest
  8214 ;;		_USBStdFeatureReqHandler
  8215 ;; This function uses a non-reentrant model
  8216 ;;
  8217                           
  8218                           	psect	text45
  8219  002E9A                     __ptext45:
  8220                           	callstack 0
  8221  002E9A                     _USER_USB_CALLBACK_EVENT_HANDLER:
  8222                           	callstack 22
  8223  002E9A                     
  8224                           ;mcc_generated_files/usb/usb_device_events.c: 49: _Bool USER_USB_CALLBACK_EVENT_HANDLER(
      +                          USB_EVENT event, void *pdata, uint16_t size);mcc_generated_files/usb/usb_device_events.c
      +                          : 50: {;mcc_generated_files/usb/usb_device_events.c: 51:     switch( (int) event )
  8225  002E9A  EF57  F017         	goto	i2l4032
  8226  002E9E                     i2l4026:
  8227                           
  8228                           ;mcc_generated_files/usb/usb_device_events.c: 76:             CDCInitEP();
  8229  002E9E  ECCB  F017         	call	_CDCInitEP	;wreg free
  8230                           
  8231                           ;mcc_generated_files/usb/usb_device_events.c: 77:             break;
  8232  002EA2  EF90  F017         	goto	i2l427
  8233  002EA6                     i2l4028:
  8234                           
  8235                           ;mcc_generated_files/usb/usb_device_events.c: 85:             USBCheckCDCRequest();
  8236  002EA6  EC5C  F013         	call	_USBCheckCDCRequest	;wreg free
  8237                           
  8238                           ;mcc_generated_files/usb/usb_device_events.c: 86:             break;
  8239  002EAA  EF90  F017         	goto	i2l427
  8240  002EAE                     i2l4032:
  8241  002EAE  C00D  F013         	movff	USER_USB_CALLBACK_EVENT_HANDLER@event,??_USER_USB_CALLBACK_EVENT_HANDLER
  8242  002EB2  C00E  F014         	movff	USER_USB_CALLBACK_EVENT_HANDLER@event+1,??_USER_USB_CALLBACK_EVENT_HANDLER+1
  8243                           
  8244                           ; Switch on 2 bytes has been partitioned into a top level switch of size 1, and 2 sub-sw
      +                          itches
  8245                           ; Switch size 1, requested type "simple"
  8246                           ; Number of cases is 2, Range of values is 0 to 127
  8247                           ; switch strategies available:
  8248                           ; Name         Instructions Cycles
  8249                           ; simple_byte            7     4 (average)
  8250                           ;	Chosen strategy is simple_byte
  8251  002EB6  5014               	movf	(??_USER_USB_CALLBACK_EVENT_HANDLER+1)^0,w,c
  8252  002EB8  0A00               	xorlw	0	; case 0
  8253  002EBA  B4D8               	btfsc	status,2,c
  8254  002EBC  EF66  F017         	goto	i2l6526
  8255  002EC0  0A7F               	xorlw	127	; case 127
  8256  002EC2  B4D8               	btfsc	status,2,c
  8257  002EC4  EF89  F017         	goto	i2l6528
  8258  002EC8  EF90  F017         	goto	i2l427
  8259  002ECC                     i2l6526:
  8260                           
  8261                           ; Switch size 1, requested type "simple"
  8262                           ; Number of cases is 8, Range of values is 1 to 117
  8263                           ; switch strategies available:
  8264                           ; Name         Instructions Cycles
  8265                           ; simple_byte           25    13 (average)
  8266                           ;	Chosen strategy is simple_byte
  8267  002ECC  5013               	movf	??_USER_USB_CALLBACK_EVENT_HANDLER^0,w,c
  8268  002ECE  0A01               	xorlw	1	; case 1
  8269  002ED0  B4D8               	btfsc	status,2,c
  8270  002ED2  EF4F  F017         	goto	i2l4026
  8271  002ED6  0A03               	xorlw	3	; case 2
  8272  002ED8  B4D8               	btfsc	status,2,c
  8273  002EDA  EF90  F017         	goto	i2l427
  8274  002EDE  0A01               	xorlw	1	; case 3
  8275  002EE0  B4D8               	btfsc	status,2,c
  8276  002EE2  EF53  F017         	goto	i2l4028
  8277  002EE6  0A06               	xorlw	6	; case 5
  8278  002EE8  B4D8               	btfsc	status,2,c
  8279  002EEA  EF90  F017         	goto	i2l427
  8280  002EEE  0A77               	xorlw	119	; case 114
  8281  002EF0  B4D8               	btfsc	status,2,c
  8282  002EF2  EF90  F017         	goto	i2l427
  8283  002EF6  0A01               	xorlw	1	; case 115
  8284  002EF8  B4D8               	btfsc	status,2,c
  8285  002EFA  EF90  F017         	goto	i2l427
  8286  002EFE  0A07               	xorlw	7	; case 116
  8287  002F00  B4D8               	btfsc	status,2,c
  8288  002F02  EF90  F017         	goto	i2l427
  8289  002F06  0A01               	xorlw	1	; case 117
  8290  002F08  B4D8               	btfsc	status,2,c
  8291  002F0A  EF90  F017         	goto	i2l427
  8292  002F0E  EF90  F017         	goto	i2l427
  8293  002F12                     i2l6528:
  8294                           
  8295                           ; Switch size 1, requested type "simple"
  8296                           ; Number of cases is 1, Range of values is 255 to 255
  8297                           ; switch strategies available:
  8298                           ; Name         Instructions Cycles
  8299                           ; simple_byte            4     3 (average)
  8300                           ;	Chosen strategy is simple_byte
  8301  002F12  5013               	movf	??_USER_USB_CALLBACK_EVENT_HANDLER^0,w,c
  8302  002F14  0AFF               	xorlw	255	; case 255
  8303  002F16  B4D8               	btfsc	status,2,c
  8304  002F18  EF90  F017         	goto	i2l427
  8305  002F1C  EF90  F017         	goto	i2l427
  8306  002F20                     i2l427:
  8307  002F20  0012               	return		;funcret
  8308  002F22                     __end_of_USER_USB_CALLBACK_EVENT_HANDLER:
  8309                           	callstack 0
  8310                           
  8311 ;; *************** function _USBCheckCDCRequest *****************
  8312 ;; Defined at:
  8313 ;;		line 147 in file "mcc_generated_files/usb/usb_device_cdc.c"
  8314 ;; Parameters:    Size  Location     Type
  8315 ;;		None
  8316 ;; Auto vars:     Size  Location     Type
  8317 ;;		None
  8318 ;; Return value:  Size  Location     Type
  8319 ;;                  1    wreg      void 
  8320 ;; Registers used:
  8321 ;;		wreg, status,2, status,0
  8322 ;; Tracked objects:
  8323 ;;		On entry : 0/0
  8324 ;;		On exit  : 0/0
  8325 ;;		Unchanged: 0/0
  8326 ;; Data sizes:     COMRAM   BANK0   BANK1   BANK2   BANK3   BANK4   BANK5   BANK6   BANK7
  8327 ;;      Params:         0       0       0       0       0       0       0       0       0
  8328 ;;      Locals:         0       0       0       0       0       0       0       0       0
  8329 ;;      Temps:          2       0       0       0       0       0       0       0       0
  8330 ;;      Totals:         2       0       0       0       0       0       0       0       0
  8331 ;;Total ram usage:        2 bytes
  8332 ;; Hardware stack levels used: 1
  8333 ;; This function calls:
  8334 ;;		Nothing
  8335 ;; This function is called by:
  8336 ;;		_USER_USB_CALLBACK_EVENT_HANDLER
  8337 ;; This function uses a non-reentrant model
  8338 ;;
  8339                           
  8340                           	psect	text46
  8341  0026B8                     __ptext46:
  8342                           	callstack 0
  8343  0026B8                     _USBCheckCDCRequest:
  8344                           	callstack 24
  8345  0026B8                     
  8346                           ;mcc_generated_files/usb/usb_device_cdc.c: 152:     if(SetupPkt.Recipient != (0x01)) ret
      +                          urn;
  8347  0026B8  0104               	movlb	4	; () banked
  8348  0026BA  5130               	movf	48,w,b	;volatile
  8349  0026BC  0B1F               	andlw	31
  8350  0026BE  06E8               	decf	wreg,f,c
  8351  0026C0  B4D8               	btfsc	status,2,c
  8352  0026C2  EF65  F013         	goto	i2u228_41
  8353  0026C6  EF67  F013         	goto	i2u228_40
  8354  0026CA                     i2u228_41:
  8355  0026CA  EF69  F013         	goto	i2l3982
  8356  0026CE                     i2u228_40:
  8357  0026CE  EFE1  F013         	goto	i2l473
  8358  0026D2                     i2l3982:
  8359                           
  8360                           ; BSR set to: 4
  8361                           ;mcc_generated_files/usb/usb_device_cdc.c: 157:     if(SetupPkt.RequestType != (0x20>>5)
      +                          ) return;
  8362  0026D2  3930               	swapf	48,w,b	;volatile
  8363  0026D4  32E8               	rrcf	wreg,f,c
  8364  0026D6  0B03               	andlw	3
  8365  0026D8  06E8               	decf	wreg,f,c
  8366  0026DA  B4D8               	btfsc	status,2,c
  8367  0026DC  EF72  F013         	goto	i2u229_41
  8368  0026E0  EF74  F013         	goto	i2u229_40
  8369  0026E4                     i2u229_41:
  8370  0026E4  EF76  F013         	goto	i2l3986
  8371  0026E8                     i2u229_40:
  8372  0026E8  EFE1  F013         	goto	i2l473
  8373  0026EC                     i2l3986:
  8374                           
  8375                           ; BSR set to: 4
  8376                           ;mcc_generated_files/usb/usb_device_cdc.c: 163:     if((SetupPkt.bIntfID != 0x0)&&
  8377  0026EC  5134               	movf	52,w,b	;volatile
  8378  0026EE  B4D8               	btfsc	status,2,c
  8379  0026F0  EF7C  F013         	goto	i2u230_41
  8380  0026F4  EF7E  F013         	goto	i2u230_40
  8381  0026F8                     i2u230_41:
  8382  0026F8  EFC0  F013         	goto	i2l4016
  8383  0026FC                     i2u230_40:
  8384  0026FC                     
  8385                           ; BSR set to: 4
  8386  0026FC  0534               	decf	52,w,b	;volatile
  8387  0026FE  B4D8               	btfsc	status,2,c
  8388  002700  EF84  F013         	goto	i2u231_41
  8389  002704  EF86  F013         	goto	i2u231_40
  8390  002708                     i2u231_41:
  8391  002708  EFC0  F013         	goto	i2l4016
  8392  00270C                     i2u231_40:
  8393  00270C  EFE1  F013         	goto	i2l473
  8394  002710                     i2l3992:
  8395                           
  8396                           ; BSR set to: 4
  8397                           ;mcc_generated_files/usb/usb_device_cdc.c: 171:             inPipes[0].pSrc.bRam = (uint
      +                          8_t*)&dummy_encapsulated_cmd_response;
  8398  002710  0EA6               	movlw	low _dummy_encapsulated_cmd_response
  8399  002712  0100               	movlb	0	; () banked
  8400  002714  6F72               	movwf	_inPipes& (0+255),b	;volatile
  8401  002716  0E00               	movlw	high _dummy_encapsulated_cmd_response
  8402  002718  6F73               	movwf	(_inPipes+1)& (0+255),b	;volatile
  8403  00271A                     
  8404                           ; BSR set to: 0
  8405                           ;mcc_generated_files/usb/usb_device_cdc.c: 172:             inPipes[0].wCount.Val = 0x08
      +                          ;
  8406  00271A  0E00               	movlw	0
  8407  00271C  6F77               	movwf	(_inPipes+5)& (0+255),b	;volatile
  8408  00271E  0E08               	movlw	8
  8409  002720  6F76               	movwf	(_inPipes+4)& (0+255),b	;volatile
  8410  002722                     
  8411                           ; BSR set to: 0
  8412                           ;mcc_generated_files/usb/usb_device_cdc.c: 173:             inPipes[0].info.bits.ctrl_tr
      +                          f_mem = 0x01;
  8413  002722  8175               	bsf	(_inPipes+3)& (0+255),0,b	;volatile
  8414  002724                     
  8415                           ; BSR set to: 0
  8416                           ;mcc_generated_files/usb/usb_device_cdc.c: 174:             inPipes[0].info.bits.busy = 
      +                          1;
  8417  002724  8F75               	bsf	(_inPipes+3)& (0+255),7,b	;volatile
  8418                           
  8419                           ;mcc_generated_files/usb/usb_device_cdc.c: 175:             break;
  8420  002726  EFE1  F013         	goto	i2l473
  8421  00272A                     i2l4000:
  8422                           
  8423                           ; BSR set to: 4
  8424                           ;mcc_generated_files/usb/usb_device_cdc.c: 178:             inPipes[0].pSrc.bRam = (uint
      +                          8_t*)&dummy_encapsulated_cmd_response;
  8425  00272A  0EA6               	movlw	low _dummy_encapsulated_cmd_response
  8426  00272C  0100               	movlb	0	; () banked
  8427  00272E  6F72               	movwf	_inPipes& (0+255),b	;volatile
  8428  002730  0E00               	movlw	high _dummy_encapsulated_cmd_response
  8429  002732  6F73               	movwf	(_inPipes+1)& (0+255),b	;volatile
  8430  002734                     
  8431                           ; BSR set to: 0
  8432                           ;mcc_generated_files/usb/usb_device_cdc.c: 179:             inPipes[0].info.bits.busy = 
      +                          1;
  8433  002734  8F75               	bsf	(_inPipes+3)& (0+255),7,b	;volatile
  8434                           
  8435                           ;mcc_generated_files/usb/usb_device_cdc.c: 180:             break;
  8436  002736  EFE1  F013         	goto	i2l473
  8437  00273A                     i2l480:
  8438                           
  8439                           ; BSR set to: 4
  8440                           ;mcc_generated_files/usb/usb_device_cdc.c: 185:             outPipes[0].wCount.Val = Set
      +                          upPkt.wLength;
  8441  00273A  C436 F06E          	movff	1078,_outPipes+4	;volatile
  8442  00273E  C437 F06F          	movff	1079,_outPipes+5	;volatile
  8443  002742                     
  8444                           ; BSR set to: 4
  8445                           ;mcc_generated_files/usb/usb_device_cdc.c: 186:             outPipes[0].pDst.bRam = (uin
      +                          t8_t*)&line_coding._byte[0];
  8446  002742  0EAE               	movlw	low _line_coding
  8447  002744  0100               	movlb	0	; () banked
  8448  002746  6F6A               	movwf	_outPipes& (0+255),b	;volatile
  8449  002748  0E00               	movlw	high _line_coding
  8450  00274A  6F6B               	movwf	(_outPipes+1)& (0+255),b	;volatile
  8451                           
  8452                           ;mcc_generated_files/usb/usb_device_cdc.c: 187:             outPipes[0].pFunc = ((void*)
      +                          0);
  8453  00274C  0E00               	movlw	0
  8454  00274E  6F70               	movwf	(_outPipes+6)& (0+255),b	;volatile
  8455  002750  0E00               	movlw	0
  8456  002752  6F71               	movwf	(_outPipes+7)& (0+255),b	;volatile
  8457  002754                     
  8458                           ; BSR set to: 0
  8459                           ;mcc_generated_files/usb/usb_device_cdc.c: 188:             outPipes[0].info.bits.busy =
      +                           1;
  8460  002754  8F6D               	bsf	(_outPipes+3)& (0+255),7,b	;volatile
  8461                           
  8462                           ;mcc_generated_files/usb/usb_device_cdc.c: 189:             break;
  8463  002756  EFE1  F013         	goto	i2l473
  8464  00275A                     i2l4008:
  8465                           
  8466                           ; BSR set to: 4
  8467                           ;mcc_generated_files/usb/usb_device_cdc.c: 192:             { inPipes[0].pSrc.bRam = (ui
      +                          nt8_t*)&line_coding; inPipes[0].wCount.Val = 0x07; inPipes[0].info.Val = 0x40 | 0x80 | 0
      +                          x01; };
  8468  00275A  0EAE               	movlw	low _line_coding
  8469  00275C  0100               	movlb	0	; () banked
  8470  00275E  6F72               	movwf	_inPipes& (0+255),b	;volatile
  8471  002760  0E00               	movlw	high _line_coding
  8472  002762  6F73               	movwf	(_inPipes+1)& (0+255),b	;volatile
  8473  002764                     
  8474                           ; BSR set to: 0
  8475  002764  0E00               	movlw	0
  8476  002766  6F77               	movwf	(_inPipes+5)& (0+255),b	;volatile
  8477  002768  0E07               	movlw	7
  8478  00276A  6F76               	movwf	(_inPipes+4)& (0+255),b	;volatile
  8479  00276C                     
  8480                           ; BSR set to: 0
  8481  00276C  0EC1               	movlw	193
  8482  00276E  6F75               	movwf	(_inPipes+3)& (0+255),b	;volatile
  8483                           
  8484                           ;mcc_generated_files/usb/usb_device_cdc.c: 196:             break;
  8485  002770  EFE1  F013         	goto	i2l473
  8486  002774                     i2l482:
  8487                           
  8488                           ; BSR set to: 4
  8489                           ;mcc_generated_files/usb/usb_device_cdc.c: 199:             control_signal_bitmap._byte 
      +                          = (uint8_t)SetupPkt.wValue;
  8490  002774  C432 F042          	movff	1074,_control_signal_bitmap	;volatile
  8491                           
  8492                           ;mcc_generated_files/usb/usb_device_cdc.c: 231:             inPipes[0].info.bits.busy = 
      +                          1;
  8493  002778  0100               	movlb	0	; () banked
  8494  00277A  8F75               	bsf	(_inPipes+3)& (0+255),7,b	;volatile
  8495                           
  8496                           ;mcc_generated_files/usb/usb_device_cdc.c: 232:             break;
  8497  00277C  EFE1  F013         	goto	i2l473
  8498  002780                     i2l4016:
  8499                           
  8500                           ; BSR set to: 4
  8501  002780  5131               	movf	49,w,b	;volatile
  8502  002782  6E01               	movwf	??_USBCheckCDCRequest^0,c
  8503  002784  6A02               	clrf	(??_USBCheckCDCRequest+1)^0,c
  8504                           
  8505                           ; Switch on 2 bytes has been partitioned into a top level switch of size 1, and 1 sub-sw
      +                          itches
  8506                           ; Switch size 1, requested type "simple"
  8507                           ; Number of cases is 1, Range of values is 0 to 0
  8508                           ; switch strategies available:
  8509                           ; Name         Instructions Cycles
  8510                           ; simple_byte            4     3 (average)
  8511                           ;	Chosen strategy is simple_byte
  8512  002786  5002               	movf	(??_USBCheckCDCRequest+1)^0,w,c
  8513  002788  0A00               	xorlw	0	; case 0
  8514  00278A  B4D8               	btfsc	status,2,c
  8515  00278C  EFCA  F013         	goto	i2l6530
  8516  002790  EFE1  F013         	goto	i2l473
  8517  002794                     i2l6530:
  8518                           
  8519                           ; BSR set to: 4
  8520                           ; Switch size 1, requested type "simple"
  8521                           ; Number of cases is 5, Range of values is 0 to 34
  8522                           ; switch strategies available:
  8523                           ; Name         Instructions Cycles
  8524                           ; simple_byte           16     9 (average)
  8525                           ;	Chosen strategy is simple_byte
  8526  002794  5001               	movf	??_USBCheckCDCRequest^0,w,c
  8527  002796  0A00               	xorlw	0	; case 0
  8528  002798  B4D8               	btfsc	status,2,c
  8529  00279A  EF88  F013         	goto	i2l3992
  8530  00279E  0A01               	xorlw	1	; case 1
  8531  0027A0  B4D8               	btfsc	status,2,c
  8532  0027A2  EF95  F013         	goto	i2l4000
  8533  0027A6  0A21               	xorlw	33	; case 32
  8534  0027A8  B4D8               	btfsc	status,2,c
  8535  0027AA  EF9D  F013         	goto	i2l480
  8536  0027AE  0A01               	xorlw	1	; case 33
  8537  0027B0  B4D8               	btfsc	status,2,c
  8538  0027B2  EFAD  F013         	goto	i2l4008
  8539  0027B6  0A03               	xorlw	3	; case 34
  8540  0027B8  B4D8               	btfsc	status,2,c
  8541  0027BA  EFBA  F013         	goto	i2l482
  8542  0027BE  EFE1  F013         	goto	i2l473
  8543  0027C2                     i2l473:
  8544  0027C2  0012               	return		;funcret
  8545  0027C4                     __end_of_USBCheckCDCRequest:
  8546                           	callstack 0
  8547                           
  8548 ;; *************** function _CDCInitEP *****************
  8549 ;; Defined at:
  8550 ;;		line 294 in file "mcc_generated_files/usb/usb_device_cdc.c"
  8551 ;; Parameters:    Size  Location     Type
  8552 ;;		None
  8553 ;; Auto vars:     Size  Location     Type
  8554 ;;		None
  8555 ;; Return value:  Size  Location     Type
  8556 ;;                  1    wreg      void 
  8557 ;; Registers used:
  8558 ;;		wreg, fsr2l, fsr2h, status,2, status,0, prodl, prodh, cstack
  8559 ;; Tracked objects:
  8560 ;;		On entry : 0/0
  8561 ;;		On exit  : 0/0
  8562 ;;		Unchanged: 0/0
  8563 ;; Data sizes:     COMRAM   BANK0   BANK1   BANK2   BANK3   BANK4   BANK5   BANK6   BANK7
  8564 ;;      Params:         0       0       0       0       0       0       0       0       0
  8565 ;;      Locals:         0       0       0       0       0       0       0       0       0
  8566 ;;      Temps:          0       0       0       0       0       0       0       0       0
  8567 ;;      Totals:         0       0       0       0       0       0       0       0       0
  8568 ;;Total ram usage:        0 bytes
  8569 ;; Hardware stack levels used: 1
  8570 ;; Hardware stack levels required when called: 2
  8571 ;; This function calls:
  8572 ;;		_USBEnableEndpoint
  8573 ;;		i2_USBTransferOnePacket
  8574 ;; This function is called by:
  8575 ;;		_USER_USB_CALLBACK_EVENT_HANDLER
  8576 ;; This function uses a non-reentrant model
  8577 ;;
  8578                           
  8579                           	psect	text47
  8580  002F96                     __ptext47:
  8581                           	callstack 0
  8582  002F96                     _CDCInitEP:
  8583                           	callstack 22
  8584  002F96                     
  8585                           ;mcc_generated_files/usb/usb_device_cdc.c: 297:     line_coding.dwDTERate = 19200;
  8586  002F96  0E00               	movlw	0
  8587  002F98  0100               	movlb	0	; () banked
  8588  002F9A  6FAE               	movwf	_line_coding& (0+255),b
  8589  002F9C  0E4B               	movlw	75
  8590  002F9E  6FAF               	movwf	(_line_coding+1)& (0+255),b
  8591  002FA0  0E00               	movlw	0
  8592  002FA2  6FB0               	movwf	(_line_coding+2)& (0+255),b
  8593  002FA4  0E00               	movlw	0
  8594  002FA6  6FB1               	movwf	(_line_coding+3)& (0+255),b
  8595                           
  8596                           ;mcc_generated_files/usb/usb_device_cdc.c: 298:     line_coding.bCharFormat = 0x00;
  8597  002FA8  0E00               	movlw	0
  8598  002FAA  6FB2               	movwf	(_line_coding+4)& (0+255),b
  8599                           
  8600                           ;mcc_generated_files/usb/usb_device_cdc.c: 299:     line_coding.bParityType = 0x00;
  8601  002FAC  0E00               	movlw	0
  8602  002FAE  6FB3               	movwf	(_line_coding+5)& (0+255),b
  8603                           
  8604                           ;mcc_generated_files/usb/usb_device_cdc.c: 300:     line_coding.bDataBits = 0x08;
  8605  002FB0  0E08               	movlw	8
  8606  002FB2  6FB4               	movwf	(_line_coding+6)& (0+255),b
  8607                           
  8608                           ;mcc_generated_files/usb/usb_device_cdc.c: 302:     cdc_rx_len = 0;
  8609  002FB4  0E00               	movlw	0
  8610  002FB6  6E44               	movwf	_cdc_rx_len^0,c
  8611  002FB8                     
  8612                           ; BSR set to: 0
  8613                           ;mcc_generated_files/usb/usb_device_cdc.c: 315:     USBEnableEndpoint(1,0x02|0x10|0x08);
  8614  002FB8  0E1A               	movlw	26
  8615  002FBA  6E09               	movwf	USBEnableEndpoint@options^0,c
  8616  002FBC  0E01               	movlw	1
  8617  002FBE  EC7E  F018         	call	_USBEnableEndpoint
  8618  002FC2                     
  8619                           ;mcc_generated_files/usb/usb_device_cdc.c: 316:     USBEnableEndpoint(2,0x02|0x04|0x10|0
      +                          x08);
  8620  002FC2  0E1E               	movlw	30
  8621  002FC4  6E09               	movwf	USBEnableEndpoint@options^0,c
  8622  002FC6  0E02               	movlw	2
  8623  002FC8  EC7E  F018         	call	_USBEnableEndpoint
  8624  002FCC                     
  8625                           ;mcc_generated_files/usb/usb_device_cdc.c: 318:     CDCDataOutHandle = USBTransferOnePac
      +                          ket(2,0,(uint8_t*)&cdc_data_rx,sizeof(cdc_data_rx));
  8626  002FCC  0E00               	movlw	0
  8627  002FCE  6E01               	movwf	i2USBTransferOnePacket@dir^0,c
  8628  002FD0  0E40               	movlw	64
  8629  002FD2  6E02               	movwf	i2USBTransferOnePacket@data^0,c
  8630  002FD4  0E05               	movlw	5
  8631  002FD6  6E03               	movwf	(i2USBTransferOnePacket@data+1)^0,c
  8632  002FD8  0E40               	movlw	64
  8633  002FDA  6E04               	movwf	i2USBTransferOnePacket@len^0,c
  8634  002FDC  0E02               	movlw	2
  8635  002FDE  EC82  F010         	call	i2_USBTransferOnePacket
  8636  002FE2  C001  F038         	movff	?i2_USBTransferOnePacket,_CDCDataOutHandle
  8637  002FE6  C002  F039         	movff	?i2_USBTransferOnePacket+1,_CDCDataOutHandle+1
  8638  002FEA                     
  8639                           ;mcc_generated_files/usb/usb_device_cdc.c: 319:     CDCDataInHandle = ((void*)0);
  8640  002FEA  0E00               	movlw	0
  8641  002FEC  0100               	movlb	0	; () banked
  8642  002FEE  6FA0               	movwf	_CDCDataInHandle& (0+255),b
  8643  002FF0  0E00               	movlw	0
  8644  002FF2  6FA1               	movwf	(_CDCDataInHandle+1)& (0+255),b
  8645  002FF4                     
  8646                           ; BSR set to: 0
  8647                           ;mcc_generated_files/usb/usb_device_cdc.c: 346:     cdc_trf_state = 0;
  8648  002FF4  0E00               	movlw	0
  8649  002FF6  6E43               	movwf	_cdc_trf_state^0,c
  8650  002FF8                     
  8651                           ; BSR set to: 0
  8652  002FF8  0012               	return		;funcret
  8653  002FFA                     __end_of_CDCInitEP:
  8654                           	callstack 0
  8655                           
  8656 ;; *************** function i2_USBTransferOnePacket *****************
  8657 ;; Defined at:
  8658 ;;		line 999 in file "mcc_generated_files/usb/usb_device.c"
  8659 ;; Parameters:    Size  Location     Type
  8660 ;;  ep              1    wreg     unsigned char 
  8661 ;;  dir             1    0[COMRAM] unsigned char 
  8662 ;;  data            2    1[COMRAM] PTR unsigned char 
  8663 ;;		 -> cdc_data_tx(64), cdc_data_rx(64), NULL(0), 
  8664 ;;  len             1    3[COMRAM] unsigned char 
  8665 ;; Auto vars:     Size  Location     Type
  8666 ;;  ep              1    8[COMRAM] unsigned char 
  8667 ;;  handle          2    9[COMRAM] PTR volatile struct __BD
  8668 ;;		 -> RAM(2047), NULL(0), BDT(48), 
  8669 ;; Return value:  Size  Location     Type
  8670 ;;                  2    0[COMRAM] PTR void 
  8671 ;; Registers used:
  8672 ;;		wreg, fsr2l, fsr2h, status,2, status,0, prodl, prodh
  8673 ;; Tracked objects:
  8674 ;;		On entry : 0/0
  8675 ;;		On exit  : 0/0
  8676 ;;		Unchanged: 0/0
  8677 ;; Data sizes:     COMRAM   BANK0   BANK1   BANK2   BANK3   BANK4   BANK5   BANK6   BANK7
  8678 ;;      Params:         4       0       0       0       0       0       0       0       0
  8679 ;;      Locals:         3       0       0       0       0       0       0       0       0
  8680 ;;      Temps:          4       0       0       0       0       0       0       0       0
  8681 ;;      Totals:        11       0       0       0       0       0       0       0       0
  8682 ;;Total ram usage:       11 bytes
  8683 ;; Hardware stack levels used: 1
  8684 ;; This function calls:
  8685 ;;		Nothing
  8686 ;; This function is called by:
  8687 ;;		_CDCInitEP
  8688 ;; This function uses a non-reentrant model
  8689 ;;
  8690                           
  8691                           	psect	text48
  8692  002104                     __ptext48:
  8693                           	callstack 0
  8694  002104                     i2_USBTransferOnePacket:
  8695                           	callstack 23
  8696                           
  8697                           ; BSR set to: 0
  8698                           ;incstack = 0
  8699                           ;i2USBTransferOnePacket@ep stored from wreg
  8700  002104  6E09               	movwf	i2USBTransferOnePacket@ep^0,c
  8701  002106                     
  8702                           ;mcc_generated_files/usb/usb_device.c: 999: void* USBTransferOnePacket(uint8_t ep,uint8_
      +                          t dir,uint8_t* data,uint8_t len);mcc_generated_files/usb/usb_device.c: 1000: {;mcc_gener
      +                          ated_files/usb/usb_device.c: 1001:     volatile BDT_ENTRY* handle;;mcc_generated_files/u
      +                          sb/usb_device.c: 1004:     if(dir != 0)
  8703  002106  5001               	movf	i2USBTransferOnePacket@dir^0,w,c
  8704  002108  B4D8               	btfsc	status,2,c
  8705  00210A  EF89  F010         	goto	i2u225_41
  8706  00210E  EF8B  F010         	goto	i2u225_40
  8707  002112                     i2u225_41:
  8708  002112  EF99  F010         	goto	i2l3940
  8709  002116                     i2u225_40:
  8710  002116                     
  8711                           ;mcc_generated_files/usb/usb_device.c: 1005:     {;mcc_generated_files/usb/usb_device.c:
      +                           1007:         handle = pBDTEntryIn[ep];
  8712  002116  5009               	movf	i2USBTransferOnePacket@ep^0,w,c
  8713  002118  0D02               	mullw	2
  8714  00211A  0E78               	movlw	low _pBDTEntryIn
  8715  00211C  24F3               	addwf	243,w,c
  8716  00211E  6ED9               	movwf	fsr2l,c
  8717  002120  0E00               	movlw	high _pBDTEntryIn
  8718  002122  20F4               	addwfc	prodh,w,c
  8719  002124  6EDA               	movwf	fsr2h,c
  8720  002126  CFDE F00A          	movff	postinc2,i2USBTransferOnePacket@handle
  8721  00212A  CFDD F00B          	movff	postdec2,i2USBTransferOnePacket@handle+1
  8722                           
  8723                           ;mcc_generated_files/usb/usb_device.c: 1008:     }
  8724  00212E  EFA5  F010         	goto	i2l3942
  8725  002132                     i2l3940:
  8726                           
  8727                           ;mcc_generated_files/usb/usb_device.c: 1010:     {;mcc_generated_files/usb/usb_device.c:
      +                           1012:         handle = pBDTEntryOut[ep];
  8728  002132  5009               	movf	i2USBTransferOnePacket@ep^0,w,c
  8729  002134  0D02               	mullw	2
  8730  002136  0E7E               	movlw	low _pBDTEntryOut
  8731  002138  24F3               	addwf	243,w,c
  8732  00213A  6ED9               	movwf	fsr2l,c
  8733  00213C  0E00               	movlw	high _pBDTEntryOut
  8734  00213E  20F4               	addwfc	prodh,w,c
  8735  002140  6EDA               	movwf	fsr2h,c
  8736  002142  CFDE F00A          	movff	postinc2,i2USBTransferOnePacket@handle
  8737  002146  CFDD F00B          	movff	postdec2,i2USBTransferOnePacket@handle+1
  8738  00214A                     i2l3942:
  8739                           
  8740                           ;mcc_generated_files/usb/usb_device.c: 1017:     if(handle == 0)
  8741  00214A  500A               	movf	i2USBTransferOnePacket@handle^0,w,c
  8742  00214C  100B               	iorwf	(i2USBTransferOnePacket@handle+1)^0,w,c
  8743  00214E  A4D8               	btfss	status,2,c
  8744  002150  EFAC  F010         	goto	i2u226_41
  8745  002154  EFAE  F010         	goto	i2u226_40
  8746  002158                     i2u226_41:
  8747  002158  EFB4  F010         	goto	i2l3948
  8748  00215C                     i2u226_40:
  8749  00215C                     
  8750                           ;mcc_generated_files/usb/usb_device.c: 1018:     {;mcc_generated_files/usb/usb_device.c:
      +                           1019:         return 0;
  8751  00215C  0E00               	movlw	0
  8752  00215E  6E01               	movwf	?i2_USBTransferOnePacket^0,c
  8753  002160  0E00               	movlw	0
  8754  002162  6E02               	movwf	(?i2_USBTransferOnePacket+1)^0,c
  8755  002164  EF20  F011         	goto	i2l177
  8756  002168                     i2l3948:
  8757                           
  8758                           ;mcc_generated_files/usb/usb_device.c: 1033:     handle->ADR = ((uint16_t)(data));
  8759  002168  EE20 F002          	lfsr	2,2
  8760  00216C  500A               	movf	i2USBTransferOnePacket@handle^0,w,c
  8761  00216E  26D9               	addwf	fsr2l,f,c
  8762  002170  500B               	movf	(i2USBTransferOnePacket@handle+1)^0,w,c
  8763  002172  22DA               	addwfc	fsr2h,f,c
  8764  002174  C002  FFDE         	movff	i2USBTransferOnePacket@data,postinc2
  8765  002178  C003  FFDD         	movff	i2USBTransferOnePacket@data+1,postdec2
  8766                           
  8767                           ;mcc_generated_files/usb/usb_device.c: 1034:     handle->CNT = len;
  8768  00217C  EE20 F001          	lfsr	2,1
  8769  002180  500A               	movf	i2USBTransferOnePacket@handle^0,w,c
  8770  002182  26D9               	addwf	fsr2l,f,c
  8771  002184  500B               	movf	(i2USBTransferOnePacket@handle+1)^0,w,c
  8772  002186  22DA               	addwfc	fsr2h,f,c
  8773  002188  C004  FFDF         	movff	i2USBTransferOnePacket@len,indf2
  8774  00218C                     
  8775                           ;mcc_generated_files/usb/usb_device.c: 1035:     handle->STAT.Val &= 0x40;
  8776  00218C  C00A  FFD9         	movff	i2USBTransferOnePacket@handle,fsr2l
  8777  002190  C00B  FFDA         	movff	i2USBTransferOnePacket@handle+1,fsr2h
  8778  002194  0E40               	movlw	64
  8779  002196  16DF               	andwf	indf2,f,c
  8780  002198                     
  8781                           ;mcc_generated_files/usb/usb_device.c: 1036:     handle->STAT.Val |= (0x08 & 0x08);
  8782  002198  C00A  FFD9         	movff	i2USBTransferOnePacket@handle,fsr2l
  8783  00219C  C00B  FFDA         	movff	i2USBTransferOnePacket@handle+1,fsr2h
  8784  0021A0  0E00               	movlw	0
  8785  0021A2  86DB               	bsf	plusw2,3,c
  8786  0021A4                     
  8787                           ;mcc_generated_files/usb/usb_device.c: 1037:     handle->STAT.Val |= 0x80;
  8788  0021A4  C00A  FFD9         	movff	i2USBTransferOnePacket@handle,fsr2l
  8789  0021A8  C00B  FFDA         	movff	i2USBTransferOnePacket@handle+1,fsr2h
  8790  0021AC  0E00               	movlw	0
  8791  0021AE  8EDB               	bsf	plusw2,7,c
  8792  0021B0                     
  8793                           ;mcc_generated_files/usb/usb_device.c: 1040:     if(dir != 0)
  8794  0021B0  5001               	movf	i2USBTransferOnePacket@dir^0,w,c
  8795  0021B2  B4D8               	btfsc	status,2,c
  8796  0021B4  EFDE  F010         	goto	i2u227_41
  8797  0021B8  EFE0  F010         	goto	i2u227_40
  8798  0021BC                     i2u227_41:
  8799  0021BC  EFFF  F010         	goto	i2l3960
  8800  0021C0                     i2u227_40:
  8801  0021C0                     
  8802                           ;mcc_generated_files/usb/usb_device.c: 1041:     {;mcc_generated_files/usb/usb_device.c:
      +                           1043:         pBDTEntryIn[ep] = (BDT_ENTRY*)(((uint16_t)pBDTEntryIn[ep]) ^ 0x0004);
  8803  0021C0  5009               	movf	i2USBTransferOnePacket@ep^0,w,c
  8804  0021C2  0D02               	mullw	2
  8805  0021C4  0E78               	movlw	low _pBDTEntryIn
  8806  0021C6  24F3               	addwf	243,w,c
  8807  0021C8  6ED9               	movwf	fsr2l,c
  8808  0021CA  0E00               	movlw	high _pBDTEntryIn
  8809  0021CC  20F4               	addwfc	prodh,w,c
  8810  0021CE  6EDA               	movwf	fsr2h,c
  8811  0021D0  CFDE F005          	movff	postinc2,??i2_USBTransferOnePacket
  8812  0021D4  CFDD F006          	movff	postdec2,??i2_USBTransferOnePacket+1
  8813  0021D8  0E04               	movlw	4
  8814  0021DA  1805               	xorwf	??i2_USBTransferOnePacket^0,w,c
  8815  0021DC  6E07               	movwf	(??i2_USBTransferOnePacket+2)^0,c
  8816  0021DE  5006               	movf	(??i2_USBTransferOnePacket+1)^0,w,c
  8817  0021E0  6E08               	movwf	(??i2_USBTransferOnePacket+3)^0,c
  8818  0021E2  5009               	movf	i2USBTransferOnePacket@ep^0,w,c
  8819  0021E4  0D02               	mullw	2
  8820  0021E6  0E78               	movlw	low _pBDTEntryIn
  8821  0021E8  24F3               	addwf	243,w,c
  8822  0021EA  6ED9               	movwf	fsr2l,c
  8823  0021EC  0E00               	movlw	high _pBDTEntryIn
  8824  0021EE  20F4               	addwfc	prodh,w,c
  8825  0021F0  6EDA               	movwf	fsr2h,c
  8826  0021F2  C007  FFDE         	movff	??i2_USBTransferOnePacket+2,postinc2
  8827  0021F6  C008  FFDD         	movff	??i2_USBTransferOnePacket+3,postdec2
  8828                           
  8829                           ;mcc_generated_files/usb/usb_device.c: 1044:     }
  8830  0021FA  EF1C  F011         	goto	i2l3962
  8831  0021FE                     i2l3960:
  8832                           
  8833                           ;mcc_generated_files/usb/usb_device.c: 1046:     {;mcc_generated_files/usb/usb_device.c:
      +                           1048:         pBDTEntryOut[ep] = (BDT_ENTRY*)(((uint16_t)pBDTEntryOut[ep]) ^ 0x0004);
  8834  0021FE  5009               	movf	i2USBTransferOnePacket@ep^0,w,c
  8835  002200  0D02               	mullw	2
  8836  002202  0E7E               	movlw	low _pBDTEntryOut
  8837  002204  24F3               	addwf	243,w,c
  8838  002206  6ED9               	movwf	fsr2l,c
  8839  002208  0E00               	movlw	high _pBDTEntryOut
  8840  00220A  20F4               	addwfc	prodh,w,c
  8841  00220C  6EDA               	movwf	fsr2h,c
  8842  00220E  CFDE F005          	movff	postinc2,??i2_USBTransferOnePacket
  8843  002212  CFDD F006          	movff	postdec2,??i2_USBTransferOnePacket+1
  8844  002216  0E04               	movlw	4
  8845  002218  1805               	xorwf	??i2_USBTransferOnePacket^0,w,c
  8846  00221A  6E07               	movwf	(??i2_USBTransferOnePacket+2)^0,c
  8847  00221C  5006               	movf	(??i2_USBTransferOnePacket+1)^0,w,c
  8848  00221E  6E08               	movwf	(??i2_USBTransferOnePacket+3)^0,c
  8849  002220  5009               	movf	i2USBTransferOnePacket@ep^0,w,c
  8850  002222  0D02               	mullw	2
  8851  002224  0E7E               	movlw	low _pBDTEntryOut
  8852  002226  24F3               	addwf	243,w,c
  8853  002228  6ED9               	movwf	fsr2l,c
  8854  00222A  0E00               	movlw	high _pBDTEntryOut
  8855  00222C  20F4               	addwfc	prodh,w,c
  8856  00222E  6EDA               	movwf	fsr2h,c
  8857  002230  C007  FFDE         	movff	??i2_USBTransferOnePacket+2,postinc2
  8858  002234  C008  FFDD         	movff	??i2_USBTransferOnePacket+3,postdec2
  8859  002238                     i2l3962:
  8860                           
  8861                           ;mcc_generated_files/usb/usb_device.c: 1050:     return (void*)handle;
  8862  002238  C00A  F001         	movff	i2USBTransferOnePacket@handle,?i2_USBTransferOnePacket
  8863  00223C  C00B  F002         	movff	i2USBTransferOnePacket@handle+1,?i2_USBTransferOnePacket+1
  8864  002240                     i2l177:
  8865  002240  0012               	return		;funcret
  8866  002242                     __end_ofi2_USBTransferOnePacket:
  8867                           	callstack 0
  8868                           
  8869 ;; *************** function _USBEnableEndpoint *****************
  8870 ;; Defined at:
  8871 ;;		line 882 in file "mcc_generated_files/usb/usb_device.c"
  8872 ;; Parameters:    Size  Location     Type
  8873 ;;  ep              1    wreg     unsigned char 
  8874 ;;  options         1    8[COMRAM] unsigned char 
  8875 ;; Auto vars:     Size  Location     Type
  8876 ;;  ep              1   11[COMRAM] unsigned char 
  8877 ;;  p               2    9[COMRAM] PTR unsigned char 
  8878 ;;		 -> UEP0(1), 
  8879 ;; Return value:  Size  Location     Type
  8880 ;;                  1    wreg      void 
  8881 ;; Registers used:
  8882 ;;		wreg, fsr2l, fsr2h, status,2, status,0, prodl, prodh, cstack
  8883 ;; Tracked objects:
  8884 ;;		On entry : 0/0
  8885 ;;		On exit  : 0/0
  8886 ;;		Unchanged: 0/0
  8887 ;; Data sizes:     COMRAM   BANK0   BANK1   BANK2   BANK3   BANK4   BANK5   BANK6   BANK7
  8888 ;;      Params:         1       0       0       0       0       0       0       0       0
  8889 ;;      Locals:         3       0       0       0       0       0       0       0       0
  8890 ;;      Temps:          0       0       0       0       0       0       0       0       0
  8891 ;;      Totals:         4       0       0       0       0       0       0       0       0
  8892 ;;Total ram usage:        4 bytes
  8893 ;; Hardware stack levels used: 1
  8894 ;; Hardware stack levels required when called: 1
  8895 ;; This function calls:
  8896 ;;		_USBConfigureEndpoint
  8897 ;; This function is called by:
  8898 ;;		_CDCInitEP
  8899 ;; This function uses a non-reentrant model
  8900 ;;
  8901                           
  8902                           	psect	text49
  8903  0030FC                     __ptext49:
  8904                           	callstack 0
  8905  0030FC                     _USBEnableEndpoint:
  8906                           	callstack 22
  8907                           
  8908                           ;incstack = 0
  8909                           ;USBEnableEndpoint@ep stored from wreg
  8910  0030FC  6E0C               	movwf	USBEnableEndpoint@ep^0,c
  8911  0030FE                     
  8912                           ;mcc_generated_files/usb/usb_device.c: 882: void USBEnableEndpoint(uint8_t ep, uint8_t o
      +                          ptions);mcc_generated_files/usb/usb_device.c: 883: {;mcc_generated_files/usb/usb_device.
      +                          c: 884:     unsigned char* p;;mcc_generated_files/usb/usb_device.c: 888:     if(options 
      +                          & 0x04)
  8913  0030FE  A409               	btfss	USBEnableEndpoint@options^0,2,c
  8914  003100  EF84  F018         	goto	i2u223_41
  8915  003104  EF86  F018         	goto	i2u223_40
  8916  003108                     i2u223_41:
  8917  003108  EF8B  F018         	goto	i2l3928
  8918  00310C                     i2u223_40:
  8919  00310C                     
  8920                           ;mcc_generated_files/usb/usb_device.c: 889:     {;mcc_generated_files/usb/usb_device.c: 
      +                          890:         USBConfigureEndpoint(ep, 0);
  8921  00310C  0E00               	movlw	0
  8922  00310E  6E01               	movwf	USBConfigureEndpoint@direction^0,c
  8923  003110  500C               	movf	USBEnableEndpoint@ep^0,w,c
  8924  003112  EC63  F016         	call	_USBConfigureEndpoint
  8925  003116                     i2l3928:
  8926                           
  8927                           ;mcc_generated_files/usb/usb_device.c: 892:     if(options & 0x02)
  8928  003116  A209               	btfss	USBEnableEndpoint@options^0,1,c
  8929  003118  EF90  F018         	goto	i2u224_41
  8930  00311C  EF92  F018         	goto	i2u224_40
  8931  003120                     i2u224_41:
  8932  003120  EF97  F018         	goto	i2l3932
  8933  003124                     i2u224_40:
  8934  003124                     
  8935                           ;mcc_generated_files/usb/usb_device.c: 893:     {;mcc_generated_files/usb/usb_device.c: 
      +                          894:         USBConfigureEndpoint(ep, 1);
  8936  003124  0E01               	movlw	1
  8937  003126  6E01               	movwf	USBConfigureEndpoint@direction^0,c
  8938  003128  500C               	movf	USBEnableEndpoint@ep^0,w,c
  8939  00312A  EC63  F016         	call	_USBConfigureEndpoint
  8940  00312E                     i2l3932:
  8941                           
  8942                           ;mcc_generated_files/usb/usb_device.c: 903:         p = (unsigned char*)(&UEP0+ep);
  8943  00312E  0E6A               	movlw	106
  8944  003130  240C               	addwf	USBEnableEndpoint@ep^0,w,c
  8945  003132  6E0A               	movwf	USBEnableEndpoint@p^0,c
  8946  003134  6A0B               	clrf	(USBEnableEndpoint@p+1)^0,c
  8947  003136  0E0F               	movlw	15
  8948  003138  220B               	addwfc	(USBEnableEndpoint@p+1)^0,f,c
  8949  00313A                     
  8950                           ;mcc_generated_files/usb/usb_device.c: 905:     *p = options;
  8951  00313A  C00A  FFD9         	movff	USBEnableEndpoint@p,fsr2l
  8952  00313E  C00B  FFDA         	movff	USBEnableEndpoint@p+1,fsr2h
  8953  003142  C009  FFDF         	movff	USBEnableEndpoint@options,indf2
  8954  003146  0012               	return		;funcret
  8955  003148                     __end_of_USBEnableEndpoint:
  8956                           	callstack 0
  8957                           
  8958 ;; *************** function _USBConfigureEndpoint *****************
  8959 ;; Defined at:
  8960 ;;		line 1547 in file "mcc_generated_files/usb/usb_device.c"
  8961 ;; Parameters:    Size  Location     Type
  8962 ;;  EPNum           1    wreg     unsigned char 
  8963 ;;  direction       1    0[COMRAM] unsigned char 
  8964 ;; Auto vars:     Size  Location     Type
  8965 ;;  EPNum           1    5[COMRAM] unsigned char 
  8966 ;;  handle          2    6[COMRAM] PTR volatile struct __BD
  8967 ;;		 -> BDT(48), 
  8968 ;; Return value:  Size  Location     Type
  8969 ;;                  1    wreg      void 
  8970 ;; Registers used:
  8971 ;;		wreg, fsr2l, fsr2h, status,2, status,0, prodl, prodh
  8972 ;; Tracked objects:
  8973 ;;		On entry : 0/0
  8974 ;;		On exit  : 0/0
  8975 ;;		Unchanged: 0/0
  8976 ;; Data sizes:     COMRAM   BANK0   BANK1   BANK2   BANK3   BANK4   BANK5   BANK6   BANK7
  8977 ;;      Params:         1       0       0       0       0       0       0       0       0
  8978 ;;      Locals:         3       0       0       0       0       0       0       0       0
  8979 ;;      Temps:          4       0       0       0       0       0       0       0       0
  8980 ;;      Totals:         8       0       0       0       0       0       0       0       0
  8981 ;;Total ram usage:        8 bytes
  8982 ;; Hardware stack levels used: 1
  8983 ;; This function calls:
  8984 ;;		Nothing
  8985 ;; This function is called by:
  8986 ;;		_USBEnableEndpoint
  8987 ;; This function uses a non-reentrant model
  8988 ;;
  8989                           
  8990                           	psect	text50
  8991  002CC6                     __ptext50:
  8992                           	callstack 0
  8993  002CC6                     _USBConfigureEndpoint:
  8994                           	callstack 22
  8995                           
  8996                           ;incstack = 0
  8997                           ;USBConfigureEndpoint@EPNum stored from wreg
  8998  002CC6  6E06               	movwf	USBConfigureEndpoint@EPNum^0,c
  8999  002CC8                     
  9000                           ;mcc_generated_files/usb/usb_device.c: 1547: static void USBConfigureEndpoint(uint8_t EP
      +                          Num, uint8_t direction);mcc_generated_files/usb/usb_device.c: 1548: {;mcc_generated_file
      +                          s/usb/usb_device.c: 1549:     volatile BDT_ENTRY* handle;;mcc_generated_files/usb/usb_de
      +                          vice.c: 1553:     handle = (volatile BDT_ENTRY*)&BDT[0];
  9001  002CC8  0E00               	movlw	0
  9002  002CCA  6E07               	movwf	USBConfigureEndpoint@handle^0,c
  9003  002CCC  0E04               	movlw	4
  9004  002CCE  6E08               	movwf	(USBConfigureEndpoint@handle+1)^0,c
  9005  002CD0                     
  9006                           ;mcc_generated_files/usb/usb_device.c: 1554:     handle += (4*EPNum+2*direction+0u);
  9007  002CD0  5001               	movf	USBConfigureEndpoint@direction^0,w,c
  9008  002CD2  6E02               	movwf	??_USBConfigureEndpoint^0,c
  9009  002CD4  6A03               	clrf	(??_USBConfigureEndpoint+1)^0,c
  9010  002CD6  90D8               	bcf	status,0,c
  9011  002CD8  3602               	rlcf	??_USBConfigureEndpoint^0,f,c
  9012  002CDA  3603               	rlcf	(??_USBConfigureEndpoint+1)^0,f,c
  9013  002CDC  5006               	movf	USBConfigureEndpoint@EPNum^0,w,c
  9014  002CDE  6E04               	movwf	(??_USBConfigureEndpoint+2)^0,c
  9015  002CE0  6A05               	clrf	(??_USBConfigureEndpoint+3)^0,c
  9016  002CE2  90D8               	bcf	status,0,c
  9017  002CE4  3604               	rlcf	(??_USBConfigureEndpoint+2)^0,f,c
  9018  002CE6  3605               	rlcf	(??_USBConfigureEndpoint+3)^0,f,c
  9019  002CE8  90D8               	bcf	status,0,c
  9020  002CEA  3604               	rlcf	(??_USBConfigureEndpoint+2)^0,f,c
  9021  002CEC  3605               	rlcf	(??_USBConfigureEndpoint+3)^0,f,c
  9022  002CEE  5002               	movf	??_USBConfigureEndpoint^0,w,c
  9023  002CF0  2604               	addwf	(??_USBConfigureEndpoint+2)^0,f,c
  9024  002CF2  5003               	movf	(??_USBConfigureEndpoint+1)^0,w,c
  9025  002CF4  2205               	addwfc	(??_USBConfigureEndpoint+3)^0,f,c
  9026  002CF6  90D8               	bcf	status,0,c
  9027  002CF8  3604               	rlcf	(??_USBConfigureEndpoint+2)^0,f,c
  9028  002CFA  3605               	rlcf	(??_USBConfigureEndpoint+3)^0,f,c
  9029  002CFC  90D8               	bcf	status,0,c
  9030  002CFE  3604               	rlcf	(??_USBConfigureEndpoint+2)^0,f,c
  9031  002D00  3605               	rlcf	(??_USBConfigureEndpoint+3)^0,f,c
  9032  002D02  5004               	movf	(??_USBConfigureEndpoint+2)^0,w,c
  9033  002D04  2607               	addwf	USBConfigureEndpoint@handle^0,f,c
  9034  002D06  5005               	movf	(??_USBConfigureEndpoint+3)^0,w,c
  9035  002D08  2208               	addwfc	(USBConfigureEndpoint@handle+1)^0,f,c
  9036  002D0A                     
  9037                           ;mcc_generated_files/usb/usb_device.c: 1556:     handle->STAT.UOWN = 0;
  9038  002D0A  C007  FFD9         	movff	USBConfigureEndpoint@handle,fsr2l
  9039  002D0E  C008  FFDA         	movff	USBConfigureEndpoint@handle+1,fsr2h
  9040  002D12  9EDF               	bcf	indf2,7,c
  9041  002D14                     
  9042                           ;mcc_generated_files/usb/usb_device.c: 1561:     if(direction == 0)
  9043  002D14  5001               	movf	USBConfigureEndpoint@direction^0,w,c
  9044  002D16  A4D8               	btfss	status,2,c
  9045  002D18  EF90  F016         	goto	i2u222_41
  9046  002D1C  EF92  F016         	goto	i2u222_40
  9047  002D20                     i2u222_41:
  9048  002D20  EFA0  F016         	goto	i2l3918
  9049  002D24                     i2u222_40:
  9050  002D24                     
  9051                           ;mcc_generated_files/usb/usb_device.c: 1562:     {;mcc_generated_files/usb/usb_device.c:
      +                           1563:         pBDTEntryOut[EPNum] = handle;
  9052  002D24  5006               	movf	USBConfigureEndpoint@EPNum^0,w,c
  9053  002D26  0D02               	mullw	2
  9054  002D28  0E7E               	movlw	low _pBDTEntryOut
  9055  002D2A  24F3               	addwf	243,w,c
  9056  002D2C  6ED9               	movwf	fsr2l,c
  9057  002D2E  0E00               	movlw	high _pBDTEntryOut
  9058  002D30  20F4               	addwfc	prodh,w,c
  9059  002D32  6EDA               	movwf	fsr2h,c
  9060  002D34  C007  FFDE         	movff	USBConfigureEndpoint@handle,postinc2
  9061  002D38  C008  FFDD         	movff	USBConfigureEndpoint@handle+1,postdec2
  9062                           
  9063                           ;mcc_generated_files/usb/usb_device.c: 1564:     }
  9064  002D3C  EFAC  F016         	goto	i2l3920
  9065  002D40                     i2l3918:
  9066                           
  9067                           ;mcc_generated_files/usb/usb_device.c: 1566:     {;mcc_generated_files/usb/usb_device.c:
      +                           1567:         pBDTEntryIn[EPNum] = handle;
  9068  002D40  5006               	movf	USBConfigureEndpoint@EPNum^0,w,c
  9069  002D42  0D02               	mullw	2
  9070  002D44  0E78               	movlw	low _pBDTEntryIn
  9071  002D46  24F3               	addwf	243,w,c
  9072  002D48  6ED9               	movwf	fsr2l,c
  9073  002D4A  0E00               	movlw	high _pBDTEntryIn
  9074  002D4C  20F4               	addwfc	prodh,w,c
  9075  002D4E  6EDA               	movwf	fsr2h,c
  9076  002D50  C007  FFDE         	movff	USBConfigureEndpoint@handle,postinc2
  9077  002D54  C008  FFDD         	movff	USBConfigureEndpoint@handle+1,postdec2
  9078  002D58                     i2l3920:
  9079                           
  9080                           ;mcc_generated_files/usb/usb_device.c: 1571:         handle->STAT.DTS = 0;
  9081  002D58  C007  FFD9         	movff	USBConfigureEndpoint@handle,fsr2l
  9082  002D5C  C008  FFDA         	movff	USBConfigureEndpoint@handle+1,fsr2h
  9083  002D60  9CDF               	bcf	indf2,6,c
  9084  002D62                     
  9085                           ;mcc_generated_files/usb/usb_device.c: 1572:         (handle+1)->STAT.DTS = 1;
  9086  002D62  EE20 F004          	lfsr	2,4
  9087  002D66  5007               	movf	USBConfigureEndpoint@handle^0,w,c
  9088  002D68  26D9               	addwf	fsr2l,f,c
  9089  002D6A  5008               	movf	(USBConfigureEndpoint@handle+1)^0,w,c
  9090  002D6C  22DA               	addwfc	fsr2h,f,c
  9091  002D6E  8CDF               	bsf	indf2,6,c
  9092  002D70  0012               	return		;funcret
  9093  002D72                     __end_of_USBConfigureEndpoint:
  9094                           	callstack 0
  9095                           
  9096 ;; *************** function _USBCtrlTrfOutHandler *****************
  9097 ;; Defined at:
  9098 ;;		line 2542 in file "mcc_generated_files/usb/usb_device.c"
  9099 ;; Parameters:    Size  Location     Type
  9100 ;;		None
  9101 ;; Auto vars:     Size  Location     Type
  9102 ;;		None
  9103 ;; Return value:  Size  Location     Type
  9104 ;;                  1    wreg      void 
  9105 ;; Registers used:
  9106 ;;		wreg, fsr1l, fsr1h, fsr2l, fsr2h, status,2, status,0, cstack
  9107 ;; Tracked objects:
  9108 ;;		On entry : 0/0
  9109 ;;		On exit  : 0/0
  9110 ;;		Unchanged: 0/0
  9111 ;; Data sizes:     COMRAM   BANK0   BANK1   BANK2   BANK3   BANK4   BANK5   BANK6   BANK7
  9112 ;;      Params:         0       0       0       0       0       0       0       0       0
  9113 ;;      Locals:         0       0       0       0       0       0       0       0       0
  9114 ;;      Temps:          0       0       0       0       0       0       0       0       0
  9115 ;;      Totals:         0       0       0       0       0       0       0       0       0
  9116 ;;Total ram usage:        0 bytes
  9117 ;; Hardware stack levels used: 1
  9118 ;; Hardware stack levels required when called: 2
  9119 ;; This function calls:
  9120 ;;		_USBCtrlTrfRxService
  9121 ;; This function is called by:
  9122 ;;		_USBCtrlEPService
  9123 ;; This function uses a non-reentrant model
  9124 ;;
  9125                           
  9126                           	psect	text51
  9127  002F22                     __ptext51:
  9128                           	callstack 0
  9129  002F22                     _USBCtrlTrfOutHandler:
  9130                           	callstack 22
  9131  002F22                     
  9132                           ;mcc_generated_files/usb/usb_device.c: 2544:     if(controlTransferState == 2)
  9133  002F22  0E02               	movlw	2
  9134  002F24  184E               	xorwf	_controlTransferState^0,w,c	;volatile
  9135  002F26  A4D8               	btfss	status,2,c
  9136  002F28  EF98  F017         	goto	i2u304_41
  9137  002F2C  EF9A  F017         	goto	i2u304_40
  9138  002F30                     i2u304_41:
  9139  002F30  EF9E  F017         	goto	i2l4606
  9140  002F34                     i2u304_40:
  9141  002F34                     
  9142                           ;mcc_generated_files/usb/usb_device.c: 2545:     {;mcc_generated_files/usb/usb_device.c:
      +                           2546:         USBCtrlTrfRxService();
  9143  002F34  EC9E  F00E         	call	_USBCtrlTrfRxService	;wreg free
  9144                           
  9145                           ;mcc_generated_files/usb/usb_device.c: 2547:     }
  9146  002F38  EFCA  F017         	goto	i2l326
  9147  002F3C                     i2l4606:
  9148                           
  9149                           ;mcc_generated_files/usb/usb_device.c: 2549:     {;mcc_generated_files/usb/usb_device.c:
      +                           2552:         controlTransferState = 0;
  9150  002F3C  0E00               	movlw	0
  9151  002F3E  6E4E               	movwf	_controlTransferState^0,c	;volatile
  9152                           
  9153                           ;mcc_generated_files/usb/usb_device.c: 2559:         if(BothEP0OutUOWNsSet == 0)
  9154  002F40  504B               	movf	_BothEP0OutUOWNsSet^0,w,c	;volatile
  9155  002F42  A4D8               	btfss	status,2,c
  9156  002F44  EFA6  F017         	goto	i2u305_41
  9157  002F48  EFA8  F017         	goto	i2u305_40
  9158  002F4C                     i2u305_41:
  9159  002F4C  EFC8  F017         	goto	i2l4614
  9160  002F50                     i2u305_40:
  9161  002F50                     
  9162                           ;mcc_generated_files/usb/usb_device.c: 2560:         {;mcc_generated_files/usb/usb_devic
      +                          e.c: 2561:             pBDTEntryEP0OutNext->CNT = 8;
  9163  002F50  EE20 F001          	lfsr	2,1
  9164  002F54  503C               	movf	_pBDTEntryEP0OutNext^0,w,c
  9165  002F56  26D9               	addwf	fsr2l,f,c
  9166  002F58  503D               	movf	(_pBDTEntryEP0OutNext+1)^0,w,c
  9167  002F5A  22DA               	addwfc	fsr2h,f,c
  9168  002F5C  0E08               	movlw	8
  9169  002F5E  6EDF               	movwf	indf2,c
  9170                           
  9171                           ;mcc_generated_files/usb/usb_device.c: 2562:             pBDTEntryEP0OutNext->ADR = ((ui
      +                          nt16_t)(&SetupPkt));
  9172  002F60  EE20 F002          	lfsr	2,2
  9173  002F64  503C               	movf	_pBDTEntryEP0OutNext^0,w,c
  9174  002F66  26D9               	addwf	fsr2l,f,c
  9175  002F68  503D               	movf	(_pBDTEntryEP0OutNext+1)^0,w,c
  9176  002F6A  22DA               	addwfc	fsr2h,f,c
  9177  002F6C  0E30               	movlw	48
  9178  002F6E  6EDE               	movwf	postinc2,c
  9179  002F70  0E04               	movlw	4
  9180  002F72  6EDD               	movwf	postdec2,c
  9181  002F74                     
  9182                           ;mcc_generated_files/usb/usb_device.c: 2563:             pBDTEntryEP0OutNext->STAT.Val =
      +                           0x00|(0x08 & 0x08)|0x04;
  9183  002F74  C03C  FFD9         	movff	_pBDTEntryEP0OutNext,fsr2l
  9184  002F78  C03D  FFDA         	movff	_pBDTEntryEP0OutNext+1,fsr2h
  9185  002F7C  0E0C               	movlw	12
  9186  002F7E  6EDF               	movwf	indf2,c
  9187  002F80                     
  9188                           ;mcc_generated_files/usb/usb_device.c: 2564:             pBDTEntryEP0OutNext->STAT.Val |
      +                          = 0x80;
  9189  002F80  C03C  FFD9         	movff	_pBDTEntryEP0OutNext,fsr2l
  9190  002F84  C03D  FFDA         	movff	_pBDTEntryEP0OutNext+1,fsr2h
  9191  002F88  0E00               	movlw	0
  9192  002F8A  8EDB               	bsf	plusw2,7,c
  9193                           
  9194                           ;mcc_generated_files/usb/usb_device.c: 2565:         }
  9195  002F8C  EFCA  F017         	goto	i2l326
  9196  002F90                     i2l4614:
  9197                           
  9198                           ;mcc_generated_files/usb/usb_device.c: 2567:         {;mcc_generated_files/usb/usb_devic
      +                          e.c: 2568:                 BothEP0OutUOWNsSet = 0;
  9199  002F90  0E00               	movlw	0
  9200  002F92  6E4B               	movwf	_BothEP0OutUOWNsSet^0,c	;volatile
  9201  002F94                     i2l326:
  9202  002F94  0012               	return		;funcret
  9203  002F96                     __end_of_USBCtrlTrfOutHandler:
  9204                           	callstack 0
  9205                           
  9206 ;; *************** function _USBCtrlTrfRxService *****************
  9207 ;; Defined at:
  9208 ;;		line 1856 in file "mcc_generated_files/usb/usb_device.c"
  9209 ;; Parameters:    Size  Location     Type
  9210 ;;		None
  9211 ;; Auto vars:     Size  Location     Type
  9212 ;;  byteToRead      1    1[COMRAM] unsigned char 
  9213 ;;  i               1    0[COMRAM] unsigned char 
  9214 ;; Return value:  Size  Location     Type
  9215 ;;                  1    wreg      void 
  9216 ;; Registers used:
  9217 ;;		wreg, fsr1l, fsr1h, fsr2l, fsr2h, status,2, status,0, cstack
  9218 ;; Tracked objects:
  9219 ;;		On entry : 0/0
  9220 ;;		On exit  : 0/0
  9221 ;;		Unchanged: 0/0
  9222 ;; Data sizes:     COMRAM   BANK0   BANK1   BANK2   BANK3   BANK4   BANK5   BANK6   BANK7
  9223 ;;      Params:         0       0       0       0       0       0       0       0       0
  9224 ;;      Locals:         2       0       0       0       0       0       0       0       0
  9225 ;;      Temps:          0       0       0       0       0       0       0       0       0
  9226 ;;      Totals:         2       0       0       0       0       0       0       0       0
  9227 ;;Total ram usage:        2 bytes
  9228 ;; Hardware stack levels used: 1
  9229 ;; Hardware stack levels required when called: 1
  9230 ;; This function calls:
  9231 ;;		_USBCtrlEPAllowStatusStage
  9232 ;; This function is called by:
  9233 ;;		_USBCtrlTrfOutHandler
  9234 ;; This function uses a non-reentrant model
  9235 ;;
  9236                           
  9237                           	psect	text52
  9238  001D3C                     __ptext52:
  9239                           	callstack 0
  9240  001D3C                     _USBCtrlTrfRxService:
  9241                           	callstack 22
  9242  001D3C                     
  9243                           ;mcc_generated_files/usb/usb_device.c: 1858:     uint8_t byteToRead;;mcc_generated_files
      +                          /usb/usb_device.c: 1859:     uint8_t i;;mcc_generated_files/usb/usb_device.c: 1863:     
      +                          byteToRead = pBDTEntryEP0OutCurrent->CNT;
  9244  001D3C  EE20 F001          	lfsr	2,1
  9245  001D40  503E               	movf	_pBDTEntryEP0OutCurrent^0,w,c
  9246  001D42  26D9               	addwf	fsr2l,f,c
  9247  001D44  503F               	movf	(_pBDTEntryEP0OutCurrent+1)^0,w,c
  9248  001D46  22DA               	addwfc	fsr2h,f,c
  9249  001D48  50DF               	movf	indf2,w,c
  9250  001D4A  6E02               	movwf	USBCtrlTrfRxService@byteToRead^0,c
  9251  001D4C                     
  9252                           ;mcc_generated_files/usb/usb_device.c: 1869:     if(byteToRead > outPipes[0].wCount.Val)
  9253  001D4C  5002               	movf	USBCtrlTrfRxService@byteToRead^0,w,c
  9254  001D4E  0100               	movlb	0	; () banked
  9255  001D50  5D6E               	subwf	(_outPipes+4)& (0+255),w,b	;volatile
  9256  001D52  0E00               	movlw	0
  9257  001D54  596F               	subwfb	(_outPipes+5)& (0+255),w,b	;volatile
  9258  001D56  B0D8               	btfsc	status,0,c
  9259  001D58  EFB0  F00E         	goto	i2u289_41
  9260  001D5C  EFB2  F00E         	goto	i2u289_40
  9261  001D60                     i2u289_41:
  9262  001D60  EFB4  F00E         	goto	i2l4420
  9263  001D64                     i2u289_40:
  9264  001D64                     
  9265                           ; BSR set to: 0
  9266                           ;mcc_generated_files/usb/usb_device.c: 1870:     {;mcc_generated_files/usb/usb_device.c:
      +                           1871:         byteToRead = outPipes[0].wCount.Val;
  9267  001D64  C06E  F002         	movff	_outPipes+4,USBCtrlTrfRxService@byteToRead	;volatile
  9268  001D68                     i2l4420:
  9269                           
  9270                           ; BSR set to: 0
  9271                           ;mcc_generated_files/usb/usb_device.c: 1874:     outPipes[0].wCount.Val -= byteToRead;
  9272  001D68  5002               	movf	USBCtrlTrfRxService@byteToRead^0,w,c
  9273  001D6A  5F6E               	subwf	(_outPipes+4)& (0+255),f,b	;volatile
  9274  001D6C  0E00               	movlw	0
  9275  001D6E  5B6F               	subwfb	(_outPipes+5)& (0+255),f,b	;volatile
  9276  001D70                     
  9277                           ; BSR set to: 0
  9278                           ;mcc_generated_files/usb/usb_device.c: 1878:     for(i=0;i<byteToRead;i++)
  9279  001D70  0E00               	movlw	0
  9280  001D72  6E01               	movwf	USBCtrlTrfRxService@i^0,c
  9281  001D74  EFCB  F00E         	goto	i2l4430
  9282  001D78                     i2l4424:
  9283                           
  9284                           ; BSR set to: 0
  9285                           ;mcc_generated_files/usb/usb_device.c: 1879:     {;mcc_generated_files/usb/usb_device.c:
      +                           1880:         *outPipes[0].pDst.bRam++ = CtrlTrfData[i];
  9286  001D78  0E38               	movlw	56
  9287  001D7A  2401               	addwf	USBCtrlTrfRxService@i^0,w,c
  9288  001D7C  6ED9               	movwf	fsr2l,c
  9289  001D7E  6ADA               	clrf	fsr2h,c
  9290  001D80  0E04               	movlw	4
  9291  001D82  22DA               	addwfc	fsr2h,f,c
  9292  001D84  C06A  FFE1         	movff	_outPipes,fsr1l	;volatile
  9293  001D88  C06B  FFE2         	movff	_outPipes+1,fsr1h	;volatile
  9294  001D8C  CFDF FFE7          	movff	indf2,indf1
  9295  001D90                     
  9296                           ; BSR set to: 0
  9297  001D90  4B6A               	infsnz	_outPipes& (0+255),f,b	;volatile
  9298  001D92  2B6B               	incf	(_outPipes+1)& (0+255),f,b	;volatile
  9299  001D94                     
  9300                           ; BSR set to: 0
  9301                           ;mcc_generated_files/usb/usb_device.c: 1881:     }
  9302  001D94  2A01               	incf	USBCtrlTrfRxService@i^0,f,c
  9303  001D96                     i2l4430:
  9304                           
  9305                           ; BSR set to: 0
  9306  001D96  5002               	movf	USBCtrlTrfRxService@byteToRead^0,w,c
  9307  001D98  5C01               	subwf	USBCtrlTrfRxService@i^0,w,c
  9308  001D9A  A0D8               	btfss	status,0,c
  9309  001D9C  EFD2  F00E         	goto	i2u290_41
  9310  001DA0  EFD4  F00E         	goto	i2u290_40
  9311  001DA4                     i2u290_41:
  9312  001DA4  EFBC  F00E         	goto	i2l4424
  9313  001DA8                     i2u290_40:
  9314  001DA8                     
  9315                           ; BSR set to: 0
  9316                           ;mcc_generated_files/usb/usb_device.c: 1885:     if(outPipes[0].wCount.Val > 0)
  9317  001DA8  516E               	movf	(_outPipes+4)& (0+255),w,b	;volatile
  9318  001DAA  116F               	iorwf	(_outPipes+5)& (0+255),w,b	;volatile
  9319  001DAC  B4D8               	btfsc	status,2,c
  9320  001DAE  EFDB  F00E         	goto	i2u291_41
  9321  001DB2  EFDD  F00E         	goto	i2u291_40
  9322  001DB6                     i2u291_41:
  9323  001DB6  EF16  F00F         	goto	i2l4446
  9324  001DBA                     i2u291_40:
  9325  001DBA                     
  9326                           ; BSR set to: 0
  9327                           ;mcc_generated_files/usb/usb_device.c: 1886:     {;mcc_generated_files/usb/usb_device.c:
      +                           1887:         pBDTEntryEP0OutNext->CNT = 8;
  9328  001DBA  EE20 F001          	lfsr	2,1
  9329  001DBE  503C               	movf	_pBDTEntryEP0OutNext^0,w,c
  9330  001DC0  26D9               	addwf	fsr2l,f,c
  9331  001DC2  503D               	movf	(_pBDTEntryEP0OutNext+1)^0,w,c
  9332  001DC4  22DA               	addwfc	fsr2h,f,c
  9333  001DC6  0E08               	movlw	8
  9334  001DC8  6EDF               	movwf	indf2,c
  9335                           
  9336                           ;mcc_generated_files/usb/usb_device.c: 1888:         pBDTEntryEP0OutNext->ADR = ((uint16
      +                          _t)(&CtrlTrfData));
  9337  001DCA  EE20 F002          	lfsr	2,2
  9338  001DCE  503C               	movf	_pBDTEntryEP0OutNext^0,w,c
  9339  001DD0  26D9               	addwf	fsr2l,f,c
  9340  001DD2  503D               	movf	(_pBDTEntryEP0OutNext+1)^0,w,c
  9341  001DD4  22DA               	addwfc	fsr2h,f,c
  9342  001DD6  0E38               	movlw	56
  9343  001DD8  6EDE               	movwf	postinc2,c
  9344  001DDA  0E04               	movlw	4
  9345  001DDC  6EDD               	movwf	postdec2,c
  9346  001DDE                     
  9347                           ; BSR set to: 0
  9348                           ;mcc_generated_files/usb/usb_device.c: 1889:         if(pBDTEntryEP0OutCurrent->STAT.DTS
      +                           == 0)
  9349  001DDE  C03E  FFD9         	movff	_pBDTEntryEP0OutCurrent,fsr2l
  9350  001DE2  C03F  FFDA         	movff	_pBDTEntryEP0OutCurrent+1,fsr2h
  9351  001DE6  BCDF               	btfsc	indf2,6,c
  9352  001DE8  EFF8  F00E         	goto	i2u292_41
  9353  001DEC  EFFA  F00E         	goto	i2u292_40
  9354  001DF0                     i2u292_41:
  9355  001DF0  EF08  F00F         	goto	i2l4442
  9356  001DF4                     i2u292_40:
  9357  001DF4                     
  9358                           ; BSR set to: 0
  9359                           ;mcc_generated_files/usb/usb_device.c: 1890:         {;mcc_generated_files/usb/usb_devic
      +                          e.c: 1891:             pBDTEntryEP0OutNext->STAT.Val = 0x40|(0x08 & 0x08);
  9360  001DF4  C03C  FFD9         	movff	_pBDTEntryEP0OutNext,fsr2l
  9361  001DF8  C03D  FFDA         	movff	_pBDTEntryEP0OutNext+1,fsr2h
  9362  001DFC  0E48               	movlw	72
  9363  001DFE  6EDF               	movwf	indf2,c
  9364  001E00                     
  9365                           ; BSR set to: 0
  9366                           ;mcc_generated_files/usb/usb_device.c: 1892:             pBDTEntryEP0OutNext->STAT.Val |
      +                          = 0x80;
  9367  001E00  C03C  FFD9         	movff	_pBDTEntryEP0OutNext,fsr2l
  9368  001E04  C03D  FFDA         	movff	_pBDTEntryEP0OutNext+1,fsr2h
  9369  001E08  0E00               	movlw	0
  9370  001E0A  8EDB               	bsf	plusw2,7,c
  9371                           
  9372                           ;mcc_generated_files/usb/usb_device.c: 1893:         }
  9373  001E0C  EF3F  F00F         	goto	i2l259
  9374  001E10                     i2l4442:
  9375                           
  9376                           ; BSR set to: 0
  9377                           ;mcc_generated_files/usb/usb_device.c: 1895:         {;mcc_generated_files/usb/usb_devic
      +                          e.c: 1896:             pBDTEntryEP0OutNext->STAT.Val = 0x00|(0x08 & 0x08);
  9378  001E10  C03C  FFD9         	movff	_pBDTEntryEP0OutNext,fsr2l
  9379  001E14  C03D  FFDA         	movff	_pBDTEntryEP0OutNext+1,fsr2h
  9380  001E18  0E08               	movlw	8
  9381  001E1A  6EDF               	movwf	indf2,c
  9382  001E1C                     
  9383                           ; BSR set to: 0
  9384                           ;mcc_generated_files/usb/usb_device.c: 1897:             pBDTEntryEP0OutNext->STAT.Val |
      +                          = 0x80;
  9385  001E1C  C03C  FFD9         	movff	_pBDTEntryEP0OutNext,fsr2l
  9386  001E20  C03D  FFDA         	movff	_pBDTEntryEP0OutNext+1,fsr2h
  9387  001E24  0E00               	movlw	0
  9388  001E26  8EDB               	bsf	plusw2,7,c
  9389  001E28  EF3F  F00F         	goto	i2l259
  9390  001E2C                     i2l4446:
  9391                           
  9392                           ; BSR set to: 0
  9393                           ;mcc_generated_files/usb/usb_device.c: 1901:     {;mcc_generated_files/usb/usb_device.c:
      +                           1905:         pBDTEntryEP0OutNext->CNT = 8;
  9394  001E2C  EE20 F001          	lfsr	2,1
  9395  001E30  503C               	movf	_pBDTEntryEP0OutNext^0,w,c
  9396  001E32  26D9               	addwf	fsr2l,f,c
  9397  001E34  503D               	movf	(_pBDTEntryEP0OutNext+1)^0,w,c
  9398  001E36  22DA               	addwfc	fsr2h,f,c
  9399  001E38  0E08               	movlw	8
  9400  001E3A  6EDF               	movwf	indf2,c
  9401                           
  9402                           ;mcc_generated_files/usb/usb_device.c: 1906:         pBDTEntryEP0OutNext->ADR = ((uint16
      +                          _t)(&SetupPkt));
  9403  001E3C  EE20 F002          	lfsr	2,2
  9404  001E40  503C               	movf	_pBDTEntryEP0OutNext^0,w,c
  9405  001E42  26D9               	addwf	fsr2l,f,c
  9406  001E44  503D               	movf	(_pBDTEntryEP0OutNext+1)^0,w,c
  9407  001E46  22DA               	addwfc	fsr2h,f,c
  9408  001E48  0E30               	movlw	48
  9409  001E4A  6EDE               	movwf	postinc2,c
  9410  001E4C  0E04               	movlw	4
  9411  001E4E  6EDD               	movwf	postdec2,c
  9412  001E50                     
  9413                           ; BSR set to: 0
  9414                           ;mcc_generated_files/usb/usb_device.c: 1910:         pBDTEntryEP0OutNext->STAT.Val = 0x0
      +                          4;
  9415  001E50  C03C  FFD9         	movff	_pBDTEntryEP0OutNext,fsr2l
  9416  001E54  C03D  FFDA         	movff	_pBDTEntryEP0OutNext+1,fsr2h
  9417  001E58  0E04               	movlw	4
  9418  001E5A  6EDF               	movwf	indf2,c
  9419  001E5C                     
  9420                           ; BSR set to: 0
  9421                           ;mcc_generated_files/usb/usb_device.c: 1911:         pBDTEntryEP0OutNext->STAT.Val |= 0x
      +                          80;
  9422  001E5C  C03C  FFD9         	movff	_pBDTEntryEP0OutNext,fsr2l
  9423  001E60  C03D  FFDA         	movff	_pBDTEntryEP0OutNext+1,fsr2h
  9424  001E64  0E00               	movlw	0
  9425  001E66  8EDB               	bsf	plusw2,7,c
  9426  001E68                     
  9427                           ; BSR set to: 0
  9428  001E68  9F6D               	bcf	(_outPipes+3)& (0+255),7,b	;volatile
  9429  001E6A                     
  9430                           ; BSR set to: 0
  9431                           ;mcc_generated_files/usb/usb_device.c: 1945:         if(USBDeferStatusStagePacket == 0)
  9432  001E6A  5049               	movf	_USBDeferStatusStagePacket^0,w,c	;volatile
  9433  001E6C  A4D8               	btfss	status,2,c
  9434  001E6E  EF3B  F00F         	goto	i2u293_41
  9435  001E72  EF3D  F00F         	goto	i2u293_40
  9436  001E76                     i2u293_41:
  9437  001E76  EF3F  F00F         	goto	i2l259
  9438  001E7A                     i2u293_40:
  9439  001E7A                     
  9440                           ; BSR set to: 0
  9441                           ;mcc_generated_files/usb/usb_device.c: 1946:         {;mcc_generated_files/usb/usb_devic
      +                          e.c: 1947:             USBCtrlEPAllowStatusStage();
  9442  001E7A  EC67  F014         	call	_USBCtrlEPAllowStatusStage	;wreg free
  9443  001E7E                     i2l259:
  9444  001E7E  0012               	return		;funcret
  9445  001E80                     __end_of_USBCtrlTrfRxService:
  9446                           	callstack 0
  9447                           
  9448 ;; *************** function _USBCtrlEPAllowStatusStage *****************
  9449 ;; Defined at:
  9450 ;;		line 1420 in file "mcc_generated_files/usb/usb_device.c"
  9451 ;; Parameters:    Size  Location     Type
  9452 ;;		None
  9453 ;; Auto vars:     Size  Location     Type
  9454 ;;		None
  9455 ;; Return value:  Size  Location     Type
  9456 ;;                  1    wreg      void 
  9457 ;; Registers used:
  9458 ;;		wreg, fsr2l, fsr2h, status,2, status,0
  9459 ;; Tracked objects:
  9460 ;;		On entry : 0/0
  9461 ;;		On exit  : 0/0
  9462 ;;		Unchanged: 0/0
  9463 ;; Data sizes:     COMRAM   BANK0   BANK1   BANK2   BANK3   BANK4   BANK5   BANK6   BANK7
  9464 ;;      Params:         0       0       0       0       0       0       0       0       0
  9465 ;;      Locals:         0       0       0       0       0       0       0       0       0
  9466 ;;      Temps:          0       0       0       0       0       0       0       0       0
  9467 ;;      Totals:         0       0       0       0       0       0       0       0       0
  9468 ;;Total ram usage:        0 bytes
  9469 ;; Hardware stack levels used: 1
  9470 ;; This function calls:
  9471 ;;		Nothing
  9472 ;; This function is called by:
  9473 ;;		_USBDeviceTasks
  9474 ;;		_USBCtrlEPServiceComplete
  9475 ;;		_USBCtrlTrfRxService
  9476 ;; This function uses a non-reentrant model
  9477 ;;
  9478                           
  9479                           	psect	text53
  9480  0028CE                     __ptext53:
  9481                           	callstack 0
  9482  0028CE                     _USBCtrlEPAllowStatusStage:
  9483                           	callstack 22
  9484  0028CE                     
  9485                           ;mcc_generated_files/usb/usb_device.c: 1427:     if(USBStatusStageEnabledFlag1 == 0)
  9486  0028CE  5048               	movf	_USBStatusStageEnabledFlag1^0,w,c	;volatile
  9487  0028D0  A4D8               	btfss	status,2,c
  9488  0028D2  EF6D  F014         	goto	i2u245_41
  9489  0028D6  EF6F  F014         	goto	i2u245_40
  9490  0028DA                     i2u245_41:
  9491  0028DA  EFDF  F014         	goto	i2l207
  9492  0028DE                     i2u245_40:
  9493  0028DE                     
  9494                           ;mcc_generated_files/usb/usb_device.c: 1428:     {;mcc_generated_files/usb/usb_device.c:
      +                           1429:         USBStatusStageEnabledFlag1 = 1;
  9495  0028DE  0E01               	movlw	1
  9496  0028E0  6E48               	movwf	_USBStatusStageEnabledFlag1^0,c	;volatile
  9497                           
  9498                           ;mcc_generated_files/usb/usb_device.c: 1430:         if(USBStatusStageEnabledFlag2 == 0)
  9499  0028E2  5047               	movf	_USBStatusStageEnabledFlag2^0,w,c	;volatile
  9500  0028E4  A4D8               	btfss	status,2,c
  9501  0028E6  EF77  F014         	goto	i2u246_41
  9502  0028EA  EF79  F014         	goto	i2u246_40
  9503  0028EE                     i2u246_41:
  9504  0028EE  EFDF  F014         	goto	i2l207
  9505  0028F2                     i2u246_40:
  9506  0028F2                     
  9507                           ;mcc_generated_files/usb/usb_device.c: 1431:         {;mcc_generated_files/usb/usb_devic
      +                          e.c: 1432:             USBStatusStageEnabledFlag2 = 1;
  9508  0028F2  0E01               	movlw	1
  9509  0028F4  6E47               	movwf	_USBStatusStageEnabledFlag2^0,c	;volatile
  9510  0028F6                     
  9511                           ;mcc_generated_files/usb/usb_device.c: 1436:             if(controlTransferState == 2)
  9512  0028F6  0E02               	movlw	2
  9513  0028F8  184E               	xorwf	_controlTransferState^0,w,c	;volatile
  9514  0028FA  A4D8               	btfss	status,2,c
  9515  0028FC  EF82  F014         	goto	i2u247_41
  9516  002900  EF84  F014         	goto	i2u247_40
  9517  002904                     i2u247_41:
  9518  002904  EF9B  F014         	goto	i2l4132
  9519  002908                     i2u247_40:
  9520  002908                     
  9521                           ;mcc_generated_files/usb/usb_device.c: 1437:             {;mcc_generated_files/usb/usb_d
      +                          evice.c: 1438:                 pBDTEntryIn[0]->CNT = 0;
  9522  002908  0100               	movlb	0	; () banked
  9523  00290A  EE20 F001          	lfsr	2,1
  9524  00290E  5178               	movf	_pBDTEntryIn& (0+255),w,b
  9525  002910  26D9               	addwf	fsr2l,f,c
  9526  002912  5179               	movf	(_pBDTEntryIn+1)& (0+255),w,b
  9527  002914  22DA               	addwfc	fsr2h,f,c
  9528  002916  0E00               	movlw	0
  9529  002918  6EDF               	movwf	indf2,c
  9530  00291A                     
  9531                           ; BSR set to: 0
  9532                           ;mcc_generated_files/usb/usb_device.c: 1439:                 pBDTEntryIn[0]->STAT.Val = 
      +                          0x40|(0x08 & 0x08);
  9533  00291A  C078  FFD9         	movff	_pBDTEntryIn,fsr2l
  9534  00291E  C079  FFDA         	movff	_pBDTEntryIn+1,fsr2h
  9535  002922  0E48               	movlw	72
  9536  002924  6EDF               	movwf	indf2,c
  9537  002926                     
  9538                           ; BSR set to: 0
  9539                           ;mcc_generated_files/usb/usb_device.c: 1440:                 pBDTEntryIn[0]->STAT.Val |=
      +                           0x80;
  9540  002926  C078  FFD9         	movff	_pBDTEntryIn,fsr2l
  9541  00292A  C079  FFDA         	movff	_pBDTEntryIn+1,fsr2h
  9542  00292E  0E00               	movlw	0
  9543  002930  8EDB               	bsf	plusw2,7,c
  9544                           
  9545                           ;mcc_generated_files/usb/usb_device.c: 1441:             }
  9546  002932  EFDF  F014         	goto	i2l207
  9547  002936                     i2l4132:
  9548  002936  044E               	decf	_controlTransferState^0,w,c	;volatile
  9549  002938  A4D8               	btfss	status,2,c
  9550  00293A  EFA1  F014         	goto	i2u248_41
  9551  00293E  EFA3  F014         	goto	i2u248_40
  9552  002942                     i2u248_41:
  9553  002942  EFDF  F014         	goto	i2l203
  9554  002946                     i2u248_40:
  9555  002946                     
  9556                           ;mcc_generated_files/usb/usb_device.c: 1443:             {;mcc_generated_files/usb/usb_d
      +                          evice.c: 1444:                 BothEP0OutUOWNsSet = 0;
  9557  002946  0E00               	movlw	0
  9558  002948  6E4B               	movwf	_BothEP0OutUOWNsSet^0,c	;volatile
  9559  00294A                     
  9560                           ;mcc_generated_files/usb/usb_device.c: 1449:                     pBDTEntryEP0OutCurrent-
      +                          >CNT = 8;
  9561  00294A  EE20 F001          	lfsr	2,1
  9562  00294E  503E               	movf	_pBDTEntryEP0OutCurrent^0,w,c
  9563  002950  26D9               	addwf	fsr2l,f,c
  9564  002952  503F               	movf	(_pBDTEntryEP0OutCurrent+1)^0,w,c
  9565  002954  22DA               	addwfc	fsr2h,f,c
  9566  002956  0E08               	movlw	8
  9567  002958  6EDF               	movwf	indf2,c
  9568  00295A                     
  9569                           ;mcc_generated_files/usb/usb_device.c: 1450:                     pBDTEntryEP0OutCurrent-
      +                          >ADR = ((uint16_t)(&SetupPkt));
  9570  00295A  EE20 F002          	lfsr	2,2
  9571  00295E  503E               	movf	_pBDTEntryEP0OutCurrent^0,w,c
  9572  002960  26D9               	addwf	fsr2l,f,c
  9573  002962  503F               	movf	(_pBDTEntryEP0OutCurrent+1)^0,w,c
  9574  002964  22DA               	addwfc	fsr2h,f,c
  9575  002966  0E30               	movlw	48
  9576  002968  6EDE               	movwf	postinc2,c
  9577  00296A  0E04               	movlw	4
  9578  00296C  6EDD               	movwf	postdec2,c
  9579  00296E                     
  9580                           ;mcc_generated_files/usb/usb_device.c: 1451:                     pBDTEntryEP0OutCurrent-
      +                          >STAT.Val = 0x04;
  9581  00296E  C03E  FFD9         	movff	_pBDTEntryEP0OutCurrent,fsr2l
  9582  002972  C03F  FFDA         	movff	_pBDTEntryEP0OutCurrent+1,fsr2h
  9583  002976  0E04               	movlw	4
  9584  002978  6EDF               	movwf	indf2,c
  9585  00297A                     
  9586                           ;mcc_generated_files/usb/usb_device.c: 1452:                     pBDTEntryEP0OutCurrent-
      +                          >STAT.Val |= 0x80;
  9587  00297A  C03E  FFD9         	movff	_pBDTEntryEP0OutCurrent,fsr2l
  9588  00297E  C03F  FFDA         	movff	_pBDTEntryEP0OutCurrent+1,fsr2h
  9589  002982  0E00               	movlw	0
  9590  002984  8EDB               	bsf	plusw2,7,c
  9591  002986                     
  9592                           ;mcc_generated_files/usb/usb_device.c: 1453:                     BothEP0OutUOWNsSet = 1;
  9593  002986  0E01               	movlw	1
  9594  002988  6E4B               	movwf	_BothEP0OutUOWNsSet^0,c	;volatile
  9595  00298A                     
  9596                           ;mcc_generated_files/usb/usb_device.c: 1457:                 pBDTEntryEP0OutNext->CNT = 
      +                          8;
  9597  00298A  EE20 F001          	lfsr	2,1
  9598  00298E  503C               	movf	_pBDTEntryEP0OutNext^0,w,c
  9599  002990  26D9               	addwf	fsr2l,f,c
  9600  002992  503D               	movf	(_pBDTEntryEP0OutNext+1)^0,w,c
  9601  002994  22DA               	addwfc	fsr2h,f,c
  9602  002996  0E08               	movlw	8
  9603  002998  6EDF               	movwf	indf2,c
  9604  00299A                     
  9605                           ;mcc_generated_files/usb/usb_device.c: 1458:                 pBDTEntryEP0OutNext->ADR = 
      +                          ((uint16_t)(&SetupPkt));
  9606  00299A  EE20 F002          	lfsr	2,2
  9607  00299E  503C               	movf	_pBDTEntryEP0OutNext^0,w,c
  9608  0029A0  26D9               	addwf	fsr2l,f,c
  9609  0029A2  503D               	movf	(_pBDTEntryEP0OutNext+1)^0,w,c
  9610  0029A4  22DA               	addwfc	fsr2h,f,c
  9611  0029A6  0E30               	movlw	48
  9612  0029A8  6EDE               	movwf	postinc2,c
  9613  0029AA  0E04               	movlw	4
  9614  0029AC  6EDD               	movwf	postdec2,c
  9615  0029AE                     
  9616                           ;mcc_generated_files/usb/usb_device.c: 1459:                 pBDTEntryEP0OutNext->STAT.V
      +                          al = 0x80;
  9617  0029AE  C03C  FFD9         	movff	_pBDTEntryEP0OutNext,fsr2l
  9618  0029B2  C03D  FFDA         	movff	_pBDTEntryEP0OutNext+1,fsr2h
  9619  0029B6  0E80               	movlw	128
  9620  0029B8  6EDF               	movwf	indf2,c
  9621  0029BA  EFDF  F014         	goto	i2l207
  9622  0029BE                     i2l203:
  9623  0029BE                     i2l207:
  9624  0029BE  0012               	return		;funcret
  9625  0029C0                     __end_of_USBCtrlEPAllowStatusStage:
  9626                           	callstack 0
  9627                           
  9628 ;; *************** function _USBCtrlTrfInHandler *****************
  9629 ;; Defined at:
  9630 ;;		line 2596 in file "mcc_generated_files/usb/usb_device.c"
  9631 ;; Parameters:    Size  Location     Type
  9632 ;;		None
  9633 ;; Auto vars:     Size  Location     Type
  9634 ;;  lastDTS         1    1[COMRAM] unsigned char 
  9635 ;; Return value:  Size  Location     Type
  9636 ;;                  1    wreg      void 
  9637 ;; Registers used:
  9638 ;;		wreg, fsr0l, fsr0h, fsr2l, fsr2h, status,2, status,0, tblptrl, tblptrh, tblptru, cstack
  9639 ;; Tracked objects:
  9640 ;;		On entry : 0/0
  9641 ;;		On exit  : 0/0
  9642 ;;		Unchanged: 0/0
  9643 ;; Data sizes:     COMRAM   BANK0   BANK1   BANK2   BANK3   BANK4   BANK5   BANK6   BANK7
  9644 ;;      Params:         0       0       0       0       0       0       0       0       0
  9645 ;;      Locals:         1       0       0       0       0       0       0       0       0
  9646 ;;      Temps:          0       0       0       0       0       0       0       0       0
  9647 ;;      Totals:         1       0       0       0       0       0       0       0       0
  9648 ;;Total ram usage:        1 bytes
  9649 ;; Hardware stack levels used: 1
  9650 ;; Hardware stack levels required when called: 1
  9651 ;; This function calls:
  9652 ;;		_USBCtrlTrfTxService
  9653 ;; This function is called by:
  9654 ;;		_USBCtrlEPService
  9655 ;; This function uses a non-reentrant model
  9656 ;;
  9657                           
  9658                           	psect	text54
  9659  0027C4                     __ptext54:
  9660                           	callstack 0
  9661  0027C4                     _USBCtrlTrfInHandler:
  9662                           	callstack 23
  9663  0027C4                     
  9664                           ;mcc_generated_files/usb/usb_device.c: 2598:     uint8_t lastDTS;;mcc_generated_files/us
      +                          b/usb_device.c: 2600:     lastDTS = pBDTEntryIn[0]->STAT.DTS;
  9665  0027C4  C078  FFD9         	movff	_pBDTEntryIn,fsr2l
  9666  0027C8  C079  FFDA         	movff	_pBDTEntryIn+1,fsr2h
  9667  0027CC  0100               	movlb	0	; () banked
  9668  0027CE  0E00               	movlw	0
  9669  0027D0  BCDF               	btfsc	indf2,6,c
  9670  0027D2  0E01               	movlw	1
  9671  0027D4  6E02               	movwf	USBCtrlTrfInHandler@lastDTS^0,c
  9672  0027D6                     
  9673                           ; BSR set to: 0
  9674                           ;mcc_generated_files/usb/usb_device.c: 2603:     pBDTEntryIn[0] = (volatile BDT_ENTRY*)(
      +                          ((uint16_t)pBDTEntryIn[0]) ^ 0x0004);
  9675  0027D6  0E04               	movlw	4
  9676  0027D8  1978               	xorwf	_pBDTEntryIn& (0+255),w,b
  9677  0027DA  6F78               	movwf	_pBDTEntryIn& (0+255),b
  9678  0027DC  5179               	movf	(_pBDTEntryIn+1)& (0+255),w,b
  9679  0027DE  6F79               	movwf	(_pBDTEntryIn+1)& (0+255),b
  9680  0027E0                     
  9681                           ; BSR set to: 0
  9682                           ;mcc_generated_files/usb/usb_device.c: 2608:     if(USBDeviceState == ADR_PENDING_STATE)
  9683  0027E0  0E08               	movlw	8
  9684  0027E2  1850               	xorwf	_USBDeviceState^0,w,c	;volatile
  9685  0027E4  A4D8               	btfss	status,2,c
  9686  0027E6  EFF7  F013         	goto	i2u306_41
  9687  0027EA  EFF9  F013         	goto	i2u306_40
  9688  0027EE                     i2u306_41:
  9689  0027EE  EF0B  F014         	goto	i2l4630
  9690  0027F2                     i2u306_40:
  9691  0027F2                     
  9692                           ; BSR set to: 0
  9693                           ;mcc_generated_files/usb/usb_device.c: 2609:     {;mcc_generated_files/usb/usb_device.c:
      +                           2610:         UADDR = (SetupPkt.bDevADR & 0x7F);
  9694  0027F2  0104               	movlb	4	; () banked
  9695  0027F4  5132               	movf	50,w,b	;volatile
  9696  0027F6  0B7F               	andlw	127
  9697  0027F8  6E63               	movwf	99,c	;volatile
  9698  0027FA                     
  9699                           ; BSR set to: 4
  9700                           ;mcc_generated_files/usb/usb_device.c: 2611:         if(UADDR != 0u)
  9701  0027FA  5063               	movf	99,w,c	;volatile
  9702  0027FC  B4D8               	btfsc	status,2,c
  9703  0027FE  EF03  F014         	goto	i2u307_41
  9704  002802  EF05  F014         	goto	i2u307_40
  9705  002806                     i2u307_41:
  9706  002806  EF09  F014         	goto	i2l4628
  9707  00280A                     i2u307_40:
  9708  00280A                     
  9709                           ; BSR set to: 4
  9710                           ;mcc_generated_files/usb/usb_device.c: 2612:         {;mcc_generated_files/usb/usb_devic
      +                          e.c: 2613:             USBDeviceState=ADDRESS_STATE;
  9711  00280A  0E10               	movlw	16
  9712  00280C  6E50               	movwf	_USBDeviceState^0,c	;volatile
  9713                           
  9714                           ;mcc_generated_files/usb/usb_device.c: 2614:         }
  9715  00280E  EF0B  F014         	goto	i2l4630
  9716  002812                     i2l4628:
  9717                           
  9718                           ; BSR set to: 4
  9719                           ;mcc_generated_files/usb/usb_device.c: 2616:         {;mcc_generated_files/usb/usb_devic
      +                          e.c: 2617:             USBDeviceState=DEFAULT_STATE;
  9720  002812  0E04               	movlw	4
  9721  002814  6E50               	movwf	_USBDeviceState^0,c	;volatile
  9722  002816                     i2l4630:
  9723                           
  9724                           ;mcc_generated_files/usb/usb_device.c: 2622:     if(controlTransferState == 1)
  9725  002816  044E               	decf	_controlTransferState^0,w,c	;volatile
  9726  002818  A4D8               	btfss	status,2,c
  9727  00281A  EF11  F014         	goto	i2u308_41
  9728  00281E  EF13  F014         	goto	i2u308_40
  9729  002822                     i2u308_41:
  9730  002822  EF5B  F014         	goto	i2l332
  9731  002826                     i2u308_40:
  9732  002826                     
  9733                           ;mcc_generated_files/usb/usb_device.c: 2623:     {;mcc_generated_files/usb/usb_device.c:
      +                           2624:         pBDTEntryIn[0]->ADR = ((uint16_t)(CtrlTrfData));
  9734  002826  0100               	movlb	0	; () banked
  9735  002828  EE20 F002          	lfsr	2,2
  9736  00282C  5178               	movf	_pBDTEntryIn& (0+255),w,b
  9737  00282E  26D9               	addwf	fsr2l,f,c
  9738  002830  5179               	movf	(_pBDTEntryIn+1)& (0+255),w,b
  9739  002832  22DA               	addwfc	fsr2h,f,c
  9740  002834  0E38               	movlw	56
  9741  002836  6EDE               	movwf	postinc2,c
  9742  002838  0E04               	movlw	4
  9743  00283A  6EDD               	movwf	postdec2,c
  9744  00283C                     
  9745                           ; BSR set to: 0
  9746                           ;mcc_generated_files/usb/usb_device.c: 2625:         USBCtrlTrfTxService();
  9747  00283C  EC4D  F012         	call	_USBCtrlTrfTxService	;wreg free
  9748  002840                     
  9749                           ;mcc_generated_files/usb/usb_device.c: 2631:         if(shortPacketStatus == 2)
  9750  002840  0E02               	movlw	2
  9751  002842  184F               	xorwf	_shortPacketStatus^0,w,c	;volatile
  9752  002844  A4D8               	btfss	status,2,c
  9753  002846  EF27  F014         	goto	i2u309_41
  9754  00284A  EF29  F014         	goto	i2u309_40
  9755  00284E                     i2u309_41:
  9756  00284E  EF37  F014         	goto	i2l4642
  9757  002852                     i2u309_40:
  9758  002852                     
  9759                           ;mcc_generated_files/usb/usb_device.c: 2632:         {;mcc_generated_files/usb/usb_devic
      +                          e.c: 2635:             pBDTEntryIn[0]->STAT.Val = 0x04;
  9760  002852  C078  FFD9         	movff	_pBDTEntryIn,fsr2l
  9761  002856  C079  FFDA         	movff	_pBDTEntryIn+1,fsr2h
  9762  00285A  0E04               	movlw	4
  9763  00285C  6EDF               	movwf	indf2,c
  9764  00285E                     
  9765                           ;mcc_generated_files/usb/usb_device.c: 2636:             pBDTEntryIn[0]->STAT.Val |= 0x8
      +                          0;
  9766  00285E  C078  FFD9         	movff	_pBDTEntryIn,fsr2l
  9767  002862  C079  FFDA         	movff	_pBDTEntryIn+1,fsr2h
  9768  002866  0E00               	movlw	0
  9769  002868  8EDB               	bsf	plusw2,7,c
  9770                           
  9771                           ;mcc_generated_files/usb/usb_device.c: 2637:         }
  9772  00286A  EF66  F014         	goto	i2l340
  9773  00286E                     i2l4642:
  9774                           
  9775                           ;mcc_generated_files/usb/usb_device.c: 2639:         {;mcc_generated_files/usb/usb_devic
      +                          e.c: 2640:             if(lastDTS == 0)
  9776  00286E  5002               	movf	USBCtrlTrfInHandler@lastDTS^0,w,c
  9777  002870  A4D8               	btfss	status,2,c
  9778  002872  EF3D  F014         	goto	i2u310_41
  9779  002876  EF3F  F014         	goto	i2u310_40
  9780  00287A                     i2u310_41:
  9781  00287A  EF4D  F014         	goto	i2l4648
  9782  00287E                     i2u310_40:
  9783  00287E                     
  9784                           ;mcc_generated_files/usb/usb_device.c: 2641:             {;mcc_generated_files/usb/usb_d
      +                          evice.c: 2642:                 pBDTEntryIn[0]->STAT.Val = 0x40|(0x08 & 0x08);
  9785  00287E  C078  FFD9         	movff	_pBDTEntryIn,fsr2l
  9786  002882  C079  FFDA         	movff	_pBDTEntryIn+1,fsr2h
  9787  002886  0E48               	movlw	72
  9788  002888  6EDF               	movwf	indf2,c
  9789  00288A                     
  9790                           ;mcc_generated_files/usb/usb_device.c: 2643:                 pBDTEntryIn[0]->STAT.Val |=
      +                           0x80;
  9791  00288A  C078  FFD9         	movff	_pBDTEntryIn,fsr2l
  9792  00288E  C079  FFDA         	movff	_pBDTEntryIn+1,fsr2h
  9793  002892  0E00               	movlw	0
  9794  002894  8EDB               	bsf	plusw2,7,c
  9795                           
  9796                           ;mcc_generated_files/usb/usb_device.c: 2644:             }
  9797  002896  EF66  F014         	goto	i2l340
  9798  00289A                     i2l4648:
  9799                           
  9800                           ;mcc_generated_files/usb/usb_device.c: 2646:             {;mcc_generated_files/usb/usb_d
      +                          evice.c: 2647:                 pBDTEntryIn[0]->STAT.Val = 0x00|(0x08 & 0x08);
  9801  00289A  C078  FFD9         	movff	_pBDTEntryIn,fsr2l
  9802  00289E  C079  FFDA         	movff	_pBDTEntryIn+1,fsr2h
  9803  0028A2  0E08               	movlw	8
  9804  0028A4  6EDF               	movwf	indf2,c
  9805  0028A6                     
  9806                           ;mcc_generated_files/usb/usb_device.c: 2648:                 pBDTEntryIn[0]->STAT.Val |=
      +                           0x80;
  9807  0028A6  C078  FFD9         	movff	_pBDTEntryIn,fsr2l
  9808  0028AA  C079  FFDA         	movff	_pBDTEntryIn+1,fsr2h
  9809  0028AE  0E00               	movlw	0
  9810  0028B0  8EDB               	bsf	plusw2,7,c
  9811  0028B2  EF66  F014         	goto	i2l340
  9812  0028B6                     i2l332:
  9813                           
  9814                           ;mcc_generated_files/usb/usb_device.c: 2653:  {;mcc_generated_files/usb/usb_device.c: 26
      +                          57:         if(outPipes[0].info.bits.busy == 1)
  9815  0028B6  0100               	movlb	0	; () banked
  9816  0028B8  AF6D               	btfss	(_outPipes+3)& (0+255),7,b	;volatile
  9817  0028BA  EF61  F014         	goto	i2u311_41
  9818  0028BE  EF63  F014         	goto	i2u311_40
  9819  0028C2                     i2u311_41:
  9820  0028C2  EF64  F014         	goto	i2l4654
  9821  0028C6                     i2u311_40:
  9822  0028C6                     
  9823                           ; BSR set to: 0
  9824                           ;mcc_generated_files/usb/usb_device.c: 2663:             outPipes[0].info.bits.busy = 0;
  9825  0028C6  9F6D               	bcf	(_outPipes+3)& (0+255),7,b	;volatile
  9826  0028C8                     i2l4654:
  9827                           
  9828                           ; BSR set to: 0
  9829                           ;mcc_generated_files/usb/usb_device.c: 2666:         controlTransferState = 0;
  9830  0028C8  0E00               	movlw	0
  9831  0028CA  6E4E               	movwf	_controlTransferState^0,c	;volatile
  9832  0028CC                     i2l340:
  9833  0028CC  0012               	return		;funcret
  9834  0028CE                     __end_of_USBCtrlTrfInHandler:
  9835                           	callstack 0
  9836                           
  9837 ;; *************** function _USBCtrlTrfTxService *****************
  9838 ;; Defined at:
  9839 ;;		line 1775 in file "mcc_generated_files/usb/usb_device.c"
  9840 ;; Parameters:    Size  Location     Type
  9841 ;;		None
  9842 ;; Auto vars:     Size  Location     Type
  9843 ;;  byteToSend      1    0[COMRAM] unsigned char 
  9844 ;; Return value:  Size  Location     Type
  9845 ;;                  1    wreg      void 
  9846 ;; Registers used:
  9847 ;;		wreg, fsr0l, fsr0h, fsr2l, fsr2h, status,2, status,0, tblptrl, tblptrh, tblptru
  9848 ;; Tracked objects:
  9849 ;;		On entry : 0/0
  9850 ;;		On exit  : 0/0
  9851 ;;		Unchanged: 0/0
  9852 ;; Data sizes:     COMRAM   BANK0   BANK1   BANK2   BANK3   BANK4   BANK5   BANK6   BANK7
  9853 ;;      Params:         0       0       0       0       0       0       0       0       0
  9854 ;;      Locals:         1       0       0       0       0       0       0       0       0
  9855 ;;      Temps:          0       0       0       0       0       0       0       0       0
  9856 ;;      Totals:         1       0       0       0       0       0       0       0       0
  9857 ;;Total ram usage:        1 bytes
  9858 ;; Hardware stack levels used: 1
  9859 ;; This function calls:
  9860 ;;		Nothing
  9861 ;; This function is called by:
  9862 ;;		_USBCtrlEPAllowDataStage
  9863 ;;		_USBCtrlTrfInHandler
  9864 ;; This function uses a non-reentrant model
  9865 ;;
  9866                           
  9867                           	psect	text55
  9868  00249A                     __ptext55:
  9869                           	callstack 0
  9870  00249A                     _USBCtrlTrfTxService:
  9871                           	callstack 21
  9872  00249A                     
  9873                           ;mcc_generated_files/usb/usb_device.c: 1777:     uint8_t byteToSend;;mcc_generated_files
      +                          /usb/usb_device.c: 1781:     byteToSend = 8;
  9874  00249A  0E08               	movlw	8
  9875  00249C  6E01               	movwf	USBCtrlTrfTxService@byteToSend^0,c
  9876  00249E                     
  9877                           ;mcc_generated_files/usb/usb_device.c: 1782:     if(inPipes[0].wCount.Val < (uint8_t)8)
  9878  00249E  0100               	movlb	0	; () banked
  9879  0024A0  5177               	movf	(_inPipes+5)& (0+255),w,b	;volatile
  9880  0024A2  E107               	bnz	i2u232_41
  9881  0024A4  0E08               	movlw	8
  9882  0024A6  5D76               	subwf	(_inPipes+4)& (0+255),w,b	;volatile
  9883  0024A8  B0D8               	btfsc	status,0,c
  9884  0024AA  EF59  F012         	goto	i2u232_41
  9885  0024AE  EF5B  F012         	goto	i2u232_40
  9886  0024B2                     i2u232_41:
  9887  0024B2  EF73  F012         	goto	i2l4056
  9888  0024B6                     i2u232_40:
  9889  0024B6                     
  9890                           ; BSR set to: 0
  9891                           ;mcc_generated_files/usb/usb_device.c: 1783:     {;mcc_generated_files/usb/usb_device.c:
      +                           1784:         byteToSend = inPipes[0].wCount.Val;
  9892  0024B6  C076  F001         	movff	_inPipes+4,USBCtrlTrfTxService@byteToSend	;volatile
  9893  0024BA                     
  9894                           ; BSR set to: 0
  9895                           ;mcc_generated_files/usb/usb_device.c: 1791:         if(shortPacketStatus == 0)
  9896  0024BA  504F               	movf	_shortPacketStatus^0,w,c	;volatile
  9897  0024BC  A4D8               	btfss	status,2,c
  9898  0024BE  EF63  F012         	goto	i2u233_41
  9899  0024C2  EF65  F012         	goto	i2u233_40
  9900  0024C6                     i2u233_41:
  9901  0024C6  EF69  F012         	goto	i2l4052
  9902  0024CA                     i2u233_40:
  9903  0024CA                     
  9904                           ; BSR set to: 0
  9905                           ;mcc_generated_files/usb/usb_device.c: 1792:         {;mcc_generated_files/usb/usb_devic
      +                          e.c: 1793:             shortPacketStatus = 1;
  9906  0024CA  0E01               	movlw	1
  9907  0024CC  6E4F               	movwf	_shortPacketStatus^0,c	;volatile
  9908                           
  9909                           ;mcc_generated_files/usb/usb_device.c: 1794:         }
  9910  0024CE  EF73  F012         	goto	i2l4056
  9911  0024D2                     i2l4052:
  9912                           
  9913                           ; BSR set to: 0
  9914  0024D2  044F               	decf	_shortPacketStatus^0,w,c	;volatile
  9915  0024D4  A4D8               	btfss	status,2,c
  9916  0024D6  EF6F  F012         	goto	i2u234_41
  9917  0024DA  EF71  F012         	goto	i2u234_40
  9918  0024DE                     i2u234_41:
  9919  0024DE  EF73  F012         	goto	i2l4056
  9920  0024E2                     i2u234_40:
  9921  0024E2                     
  9922                           ; BSR set to: 0
  9923                           ;mcc_generated_files/usb/usb_device.c: 1796:         {;mcc_generated_files/usb/usb_devic
      +                          e.c: 1797:             shortPacketStatus = 2;
  9924  0024E2  0E02               	movlw	2
  9925  0024E4  6E4F               	movwf	_shortPacketStatus^0,c	;volatile
  9926  0024E6                     i2l4056:
  9927                           
  9928                           ; BSR set to: 0
  9929                           ;mcc_generated_files/usb/usb_device.c: 1803:     inPipes[0].wCount.Val -= byteToSend;
  9930  0024E6  5001               	movf	USBCtrlTrfTxService@byteToSend^0,w,c
  9931  0024E8  5F76               	subwf	(_inPipes+4)& (0+255),f,b	;volatile
  9932  0024EA  0E00               	movlw	0
  9933  0024EC  5B77               	subwfb	(_inPipes+5)& (0+255),f,b	;volatile
  9934  0024EE                     
  9935                           ; BSR set to: 0
  9936                           ;mcc_generated_files/usb/usb_device.c: 1808:     pBDTEntryIn[0]->CNT = byteToSend;
  9937  0024EE  EE20 F001          	lfsr	2,1
  9938  0024F2  5178               	movf	_pBDTEntryIn& (0+255),w,b
  9939  0024F4  26D9               	addwf	fsr2l,f,c
  9940  0024F6  5179               	movf	(_pBDTEntryIn+1)& (0+255),w,b
  9941  0024F8  22DA               	addwfc	fsr2h,f,c
  9942  0024FA  C001  FFDF         	movff	USBCtrlTrfTxService@byteToSend,indf2
  9943  0024FE                     
  9944                           ; BSR set to: 0
  9945                           ;mcc_generated_files/usb/usb_device.c: 1812:     pDst = (volatile uint8_t*)CtrlTrfData;
  9946  0024FE  0E38               	movlw	56
  9947  002500  6E3A               	movwf	_pDst^0,c
  9948  002502  0E04               	movlw	4
  9949  002504  6E3B               	movwf	(_pDst+1)^0,c
  9950  002506                     
  9951                           ; BSR set to: 0
  9952                           ;mcc_generated_files/usb/usb_device.c: 1813:     if(inPipes[0].info.bits.ctrl_trf_mem ==
      +                           0x00)
  9953  002506  B175               	btfsc	(_inPipes+3)& (0+255),0,b	;volatile
  9954  002508  EF88  F012         	goto	i2u235_41
  9955  00250C  EF8A  F012         	goto	i2u235_40
  9956  002510                     i2u235_41:
  9957  002510  EFCC  F012         	goto	i2l4084
  9958  002514                     i2u235_40:
  9959  002514  EFA7  F012         	goto	i2l4074
  9960  002518                     i2l4066:
  9961                           
  9962                           ; BSR set to: 0
  9963                           ;mcc_generated_files/usb/usb_device.c: 1816:         {;mcc_generated_files/usb/usb_devic
      +                          e.c: 1817:             *pDst++ = *inPipes[0].pSrc.bRom++;
  9964  002518  C072  FFF6         	movff	_inPipes,tblptrl	;volatile
  9965  00251C  C073  FFF7         	movff	_inPipes+1,tblptrh	;volatile
  9966  002520  6AF8               	clrf	tblptru,c
  9967  002522  C03A  FFD9         	movff	_pDst,fsr2l
  9968  002526  C03B  FFDA         	movff	_pDst+1,fsr2h
  9969  00252A  0E07               	movlw	(high __ramtop+-1)
  9970  00252C  64F7               	cpfsgt	tblptrh,c
  9971  00252E  D003               	bra	i2u236_47
  9972  002530  0008               	tblrd		*
  9973  002532  50F5               	movf	tablat,w,c
  9974  002534  D005               	bra	i2u236_40
  9975  002536                     i2u236_47:
  9976  002536  CFF6 FFE9          	movff	tblptrl,fsr0l
  9977  00253A  CFF7 FFEA          	movff	tblptrh,fsr0h
  9978  00253E  50EF               	movf	indf0,w,c
  9979  002540                     i2u236_40:
  9980  002540  6EDF               	movwf	indf2,c
  9981  002542  0100               	movlb	0	; () banked
  9982  002544  4B72               	infsnz	_inPipes& (0+255),f,b	;volatile
  9983  002546  2B73               	incf	(_inPipes+1)& (0+255),f,b	;volatile
  9984  002548                     
  9985                           ; BSR set to: 0
  9986  002548  4A3A               	infsnz	_pDst^0,f,c
  9987  00254A  2A3B               	incf	(_pDst+1)^0,f,c
  9988  00254C                     
  9989                           ; BSR set to: 0
  9990                           ;mcc_generated_files/usb/usb_device.c: 1818:             byteToSend--;
  9991  00254C  0601               	decf	USBCtrlTrfTxService@byteToSend^0,f,c
  9992  00254E                     i2l4074:
  9993                           
  9994                           ; BSR set to: 0
  9995                           ;mcc_generated_files/usb/usb_device.c: 1815:         while(byteToSend)
  9996  00254E  5001               	movf	USBCtrlTrfTxService@byteToSend^0,w,c
  9997  002550  A4D8               	btfss	status,2,c
  9998  002552  EFAD  F012         	goto	i2u237_41
  9999  002556  EFAF  F012         	goto	i2u237_40
 10000  00255A                     i2u237_41:
 10001  00255A  EF8C  F012         	goto	i2l4066
 10002  00255E                     i2u237_40:
 10003  00255E  EFD4  F012         	goto	i2l246
 10004  002562                     i2l4076:
 10005                           
 10006                           ; BSR set to: 0
 10007                           ;mcc_generated_files/usb/usb_device.c: 1824:         {;mcc_generated_files/usb/usb_devic
      +                          e.c: 1825:             *pDst++ = *inPipes[0].pSrc.bRam++;
 10008  002562  C072  FFF6         	movff	_inPipes,tblptrl	;volatile
 10009  002566  C073  FFF7         	movff	_inPipes+1,tblptrh	;volatile
 10010  00256A  6AF8               	clrf	tblptru,c
 10011  00256C  C03A  FFD9         	movff	_pDst,fsr2l
 10012  002570  C03B  FFDA         	movff	_pDst+1,fsr2h
 10013  002574  0E07               	movlw	(high __ramtop+-1)
 10014  002576  64F7               	cpfsgt	tblptrh,c
 10015  002578  D003               	bra	i2u238_47
 10016  00257A  0008               	tblrd		*
 10017  00257C  50F5               	movf	tablat,w,c
 10018  00257E  D005               	bra	i2u238_40
 10019  002580                     i2u238_47:
 10020  002580  CFF6 FFE9          	movff	tblptrl,fsr0l
 10021  002584  CFF7 FFEA          	movff	tblptrh,fsr0h
 10022  002588  50EF               	movf	indf0,w,c
 10023  00258A                     i2u238_40:
 10024  00258A  6EDF               	movwf	indf2,c
 10025  00258C  0100               	movlb	0	; () banked
 10026  00258E  4B72               	infsnz	_inPipes& (0+255),f,b	;volatile
 10027  002590  2B73               	incf	(_inPipes+1)& (0+255),f,b	;volatile
 10028  002592                     
 10029                           ; BSR set to: 0
 10030  002592  4A3A               	infsnz	_pDst^0,f,c
 10031  002594  2A3B               	incf	(_pDst+1)^0,f,c
 10032  002596                     
 10033                           ; BSR set to: 0
 10034                           ;mcc_generated_files/usb/usb_device.c: 1826:             byteToSend--;
 10035  002596  0601               	decf	USBCtrlTrfTxService@byteToSend^0,f,c
 10036  002598                     i2l4084:
 10037                           
 10038                           ; BSR set to: 0
 10039                           ;mcc_generated_files/usb/usb_device.c: 1823:         while(byteToSend)
 10040  002598  5001               	movf	USBCtrlTrfTxService@byteToSend^0,w,c
 10041  00259A  A4D8               	btfss	status,2,c
 10042  00259C  EFD2  F012         	goto	i2u239_41
 10043  0025A0  EFD4  F012         	goto	i2u239_40
 10044  0025A4                     i2u239_41:
 10045  0025A4  EFB1  F012         	goto	i2l4076
 10046  0025A8                     i2u239_40:
 10047  0025A8                     i2l246:
 10048                           
 10049                           ; BSR set to: 0
 10050  0025A8  0012               	return		;funcret
 10051  0025AA                     __end_of_USBCtrlTrfTxService:
 10052                           	callstack 0
 10053                           
 10054                           	psect	rparam
 10055  0000                     
 10056                           	psect	temp
 10057  000055                     btemp:
 10058                           	callstack 0
 10059  000055                     	ds	1
 10060  0000                     int$flags	set	btemp
 10061  0000                     wtemp8	set	btemp+1
 10062  0000                     ttemp5	set	btemp+1
 10063  0000                     ttemp6	set	btemp+4
 10064  0000                     ttemp7	set	btemp+8
 10065                           
 10066                           	psect	idloc
 10067                           
 10068                           ;Config register IDLOC0 @ 0x200000
 10069                           ;	unspecified, using default values
 10070  200000                     	org	2097152
 10071  200000  FF                 	db	255
 10072                           
 10073                           ;Config register IDLOC1 @ 0x200001
 10074                           ;	unspecified, using default values
 10075  200001                     	org	2097153
 10076  200001  FF                 	db	255
 10077                           
 10078                           ;Config register IDLOC2 @ 0x200002
 10079                           ;	unspecified, using default values
 10080  200002                     	org	2097154
 10081  200002  FF                 	db	255
 10082                           
 10083                           ;Config register IDLOC3 @ 0x200003
 10084                           ;	unspecified, using default values
 10085  200003                     	org	2097155
 10086  200003  FF                 	db	255
 10087                           
 10088                           ;Config register IDLOC4 @ 0x200004
 10089                           ;	unspecified, using default values
 10090  200004                     	org	2097156
 10091  200004  FF                 	db	255
 10092                           
 10093                           ;Config register IDLOC5 @ 0x200005
 10094                           ;	unspecified, using default values
 10095  200005                     	org	2097157
 10096  200005  FF                 	db	255
 10097                           
 10098                           ;Config register IDLOC6 @ 0x200006
 10099                           ;	unspecified, using default values
 10100  200006                     	org	2097158
 10101  200006  FF                 	db	255
 10102                           
 10103                           ;Config register IDLOC7 @ 0x200007
 10104                           ;	unspecified, using default values
 10105  200007                     	org	2097159
 10106  200007  FF                 	db	255
 10107                           
 10108                           	psect	config
 10109                           
 10110                           ;Config register CONFIG1L @ 0x300000
 10111                           ;	PLL Selection
 10112                           ;	PLLSEL = PLL3X, 3x clock multiplier
 10113                           ;	PLL Enable Configuration bit
 10114                           ;	CFGPLLEN = ON, PLL Enabled
 10115                           ;	CPU System Clock Postscaler
 10116                           ;	CPUDIV = NOCLKDIV, CPU uses system clock (no divide)
 10117                           ;	Low Speed USB mode with 48 MHz system clock
 10118                           ;	LS48MHZ = SYS48X8, System clock at 48 MHz, USB clock divider is set to 8
 10119  300000                     	org	3145728
 10120  300000  23                 	db	35
 10121                           
 10122                           ;Config register CONFIG1H @ 0x300001
 10123                           ;	Oscillator Selection
 10124                           ;	FOSC = INTOSCIO, Internal oscillator
 10125                           ;	Primary Oscillator Shutdown
 10126                           ;	PCLKEN = ON, Primary oscillator enabled
 10127                           ;	Fail-Safe Clock Monitor
 10128                           ;	FCMEN = OFF, Fail-Safe Clock Monitor disabled
 10129                           ;	Internal/External Oscillator Switchover
 10130                           ;	IESO = OFF, Oscillator Switchover mode disabled
 10131  300001                     	org	3145729
 10132  300001  28                 	db	40
 10133                           
 10134                           ;Config register CONFIG2L @ 0x300002
 10135                           ;	Power-up Timer Enable
 10136                           ;	nPWRTEN = OFF, Power up timer disabled
 10137                           ;	Brown-out Reset Enable
 10138                           ;	BOREN = SBORDIS, BOR enabled in hardware (SBOREN is ignored)
 10139                           ;	Brown-out Reset Voltage
 10140                           ;	BORV = 190, BOR set to 1.9V nominal
 10141                           ;	Low-Power Brown-out Reset
 10142                           ;	nLPBOR = OFF, Low-Power Brown-out Reset disabled
 10143  300002                     	org	3145730
 10144  300002  5F                 	db	95
 10145                           
 10146                           ;Config register CONFIG2H @ 0x300003
 10147                           ;	Watchdog Timer Enable bits
 10148                           ;	WDTEN = OFF, WDT disabled in hardware (SWDTEN ignored)
 10149                           ;	Watchdog Timer Postscaler
 10150                           ;	WDTPS = 32768, 1:32768
 10151  300003                     	org	3145731
 10152  300003  3C                 	db	60
 10153                           
 10154                           ; Padding undefined space
 10155  300004                     	org	3145732
 10156  300004  FF                 	db	255
 10157                           
 10158                           ;Config register CONFIG3H @ 0x300005
 10159                           ;	CCP2 MUX bit
 10160                           ;	CCP2MX = RC1, CCP2 input/output is multiplexed with RC1
 10161                           ;	PORTB A/D Enable bit
 10162                           ;	PBADEN = ON, PORTB<5:0> pins are configured as analog input channels on Reset
 10163                           ;	Timer3 Clock Input MUX bit
 10164                           ;	T3CMX = RC0, T3CKI function is on RC0
 10165                           ;	SDO Output MUX bit
 10166                           ;	SDOMX = RB3, SDO function is on RB3
 10167                           ;	Master Clear Reset Pin Enable
 10168                           ;	MCLRE = ON, MCLR pin enabled; RE3 input disabled
 10169  300005                     	org	3145733
 10170  300005  D3                 	db	211
 10171                           
 10172                           ;Config register CONFIG4L @ 0x300006
 10173                           ;	Stack Full/Underflow Reset
 10174                           ;	STVREN = ON, Stack full/underflow will cause Reset
 10175                           ;	Single-Supply ICSP Enable bit
 10176                           ;	LVP = ON, Single-Supply ICSP enabled if MCLRE is also 1
 10177                           ;	Dedicated In-Circuit Debug/Programming Port Enable
 10178                           ;	ICPRT = OFF, ICPORT disabled
 10179                           ;	Extended Instruction Set Enable bit
 10180                           ;	XINST = OFF, Instruction set extension and Indexed Addressing mode disabled
 10181                           ;	Background Debugger Enable bit
 10182                           ;	DEBUG = OFF, Background debugger disabled, RB6 and RB7 configured as general purpose I
      +                          /O pins
 10183  300006                     	org	3145734
 10184  300006  85                 	db	133
 10185                           
 10186                           ; Padding undefined space
 10187  300007                     	org	3145735
 10188  300007  FF                 	db	255
 10189                           
 10190                           ;Config register CONFIG5L @ 0x300008
 10191                           ;	Block 0 Code Protect
 10192                           ;	CP0 = OFF, Block 0 is not code-protected
 10193                           ;	Block 1 Code Protect
 10194                           ;	CP1 = OFF, Block 1 is not code-protected
 10195                           ;	Block 2 Code Protect
 10196                           ;	CP2 = OFF, Block 2 is not code-protected
 10197                           ;	Block 3 Code Protect
 10198                           ;	CP3 = OFF, Block 3 is not code-protected
 10199  300008                     	org	3145736
 10200  300008  0F                 	db	15
 10201                           
 10202                           ;Config register CONFIG5H @ 0x300009
 10203                           ;	Boot Block Code Protect
 10204                           ;	CPB = OFF, Boot block is not code-protected
 10205                           ;	Data EEPROM Code Protect
 10206                           ;	CPD = OFF, Data EEPROM is not code-protected
 10207  300009                     	org	3145737
 10208  300009  C0                 	db	192
 10209                           
 10210                           ;Config register CONFIG6L @ 0x30000A
 10211                           ;	Block 0 Write Protect
 10212                           ;	WRT0 = OFF, Block 0 (0800-1FFFh) is not write-protected
 10213                           ;	Block 1 Write Protect
 10214                           ;	WRT1 = OFF, Block 1 (2000-3FFFh) is not write-protected
 10215                           ;	Block 2 Write Protect
 10216                           ;	WRT2 = OFF, Block 2 (04000-5FFFh) is not write-protected
 10217                           ;	Block 3 Write Protect
 10218                           ;	WRT3 = OFF, Block 3 (06000-7FFFh) is not write-protected
 10219  30000A                     	org	3145738
 10220  30000A  0F                 	db	15
 10221                           
 10222                           ;Config register CONFIG6H @ 0x30000B
 10223                           ;	Configuration Registers Write Protect
 10224                           ;	WRTC = OFF, Configuration registers (300000-3000FFh) are not write-protected
 10225                           ;	Boot Block Write Protect
 10226                           ;	WRTB = OFF, Boot block (0000-7FFh) is not write-protected
 10227                           ;	Data EEPROM Write Protect
 10228                           ;	WRTD = OFF, Data EEPROM is not write-protected
 10229  30000B                     	org	3145739
 10230  30000B  E0                 	db	224
 10231                           
 10232                           ;Config register CONFIG7L @ 0x30000C
 10233                           ;	Block 0 Table Read Protect
 10234                           ;	EBTR0 = OFF, Block 0 is not protected from table reads executed in other blocks
 10235                           ;	Block 1 Table Read Protect
 10236                           ;	EBTR1 = OFF, Block 1 is not protected from table reads executed in other blocks
 10237                           ;	Block 2 Table Read Protect
 10238                           ;	EBTR2 = OFF, Block 2 is not protected from table reads executed in other blocks
 10239                           ;	Block 3 Table Read Protect
 10240                           ;	EBTR3 = OFF, Block 3 is not protected from table reads executed in other blocks
 10241  30000C                     	org	3145740
 10242  30000C  0F                 	db	15
 10243                           
 10244                           ;Config register CONFIG7H @ 0x30000D
 10245                           ;	Boot Block Table Read Protect
 10246                           ;	EBTRB = OFF, Boot block is not protected from table reads executed in other blocks
 10247  30000D                     	org	3145741
 10248  30000D  40                 	db	64
 10249                           tosu	equ	0xFFF
 10250                           tosh	equ	0xFFE
 10251                           tosl	equ	0xFFD
 10252                           stkptr	equ	0xFFC
 10253                           pclatu	equ	0xFFB
 10254                           pclath	equ	0xFFA
 10255                           pcl	equ	0xFF9
 10256                           tblptru	equ	0xFF8
 10257                           tblptrh	equ	0xFF7
 10258                           tblptrl	equ	0xFF6
 10259                           tablat	equ	0xFF5
 10260                           prodh	equ	0xFF4
 10261                           prodl	equ	0xFF3
 10262                           indf0	equ	0xFEF
 10263                           postinc0	equ	0xFEE
 10264                           postdec0	equ	0xFED
 10265                           preinc0	equ	0xFEC
 10266                           plusw0	equ	0xFEB
 10267                           fsr0h	equ	0xFEA
 10268                           fsr0l	equ	0xFE9
 10269                           wreg	equ	0xFE8
 10270                           indf1	equ	0xFE7
 10271                           postinc1	equ	0xFE6
 10272                           postdec1	equ	0xFE5
 10273                           preinc1	equ	0xFE4
 10274                           plusw1	equ	0xFE3
 10275                           fsr1h	equ	0xFE2
 10276                           fsr1l	equ	0xFE1
 10277                           bsr	equ	0xFE0
 10278                           indf2	equ	0xFDF
 10279                           postinc2	equ	0xFDE
 10280                           postdec2	equ	0xFDD
 10281                           preinc2	equ	0xFDC
 10282                           plusw2	equ	0xFDB
 10283                           fsr2h	equ	0xFDA
 10284                           fsr2l	equ	0xFD9
 10285                           status	equ	0xFD8

Data Sizes:
    Strings     7
    Constant    171
    Data        0
    BSS         382
    Persistent  0
    Stack       0

Auto Spaces:
    Space          Size  Autos    Used
    COMRAM           94     43      84
    BANK0           160     52     137
    BANK1           256      0     256
    BANK2           256      0       0
    BANK3           256      0       0
    BANK4           192      0       0
    BANK5           128      0       0
    BANK6           256      0       0
    BANK7           256      0       0

Pointer List with Targets:

    __heap_hi.......next	PTR struct chunk size(2) Largest target is 0

    __heap_hi.....next	PTR struct chunk size(2) Largest target is 0

    __heap_hi...next	PTR struct chunk size(2) Largest target is 0

    CommandList.cabeza.next	PTR struct NodoComando_T size(2) Largest target is 0
		 -> __heap_hi(UNKNOWN), RAM(DATA[2047]), NULL(NULL[0]), 

    CommandList.cabeza.comando	PTR unsigned char  size(2) Largest target is 0
		 -> __heap_hi(UNKNOWN), RAM(DATA[2047]), NULL(NULL[0]), 

    CommandList.cola.next	PTR struct NodoComando_T size(2) Largest target is 0
		 -> __heap_hi(UNKNOWN), RAM(DATA[2047]), NULL(NULL[0]), 

    CommandList.cola.comando	PTR unsigned char  size(2) Largest target is 0
		 -> __heap_hi(UNKNOWN), RAM(DATA[2047]), NULL(NULL[0]), 

    __heap_hi.next.next	PTR struct NodoComando_T size(2) Largest target is 0
		 -> __heap_hi(UNKNOWN), RAM(DATA[2047]), NULL(NULL[0]), 

    __heap_hi.next.comando	PTR unsigned char  size(2) Largest target is 0
		 -> __heap_hi(UNKNOWN), RAM(DATA[2047]), NULL(NULL[0]), 

    __heap_hi.next	PTR struct NodoComando_T size(2) Largest target is 0
		 -> __heap_hi(UNKNOWN), RAM(DATA[2047]), NULL(NULL[0]), 

    __heap_hi.comando	PTR unsigned char  size(2) Largest target is 0
		 -> __heap_hi(UNKNOWN), RAM(DATA[2047]), NULL(NULL[0]), 

    ?___simple_search_fl...next	PTR struct chunk size(2) Largest target is 0

    USER_USB_CALLBACK_EVENT_HANDLER@pdata	PTR void  size(2) Largest target is 2047
		 -> RAM(DATA[2047]), USTATcopy(COMRAM[1]), USBActiveConfiguration(COMRAM[1]), NULL(NULL[0]), 
		 -> BDT(BIGRAMl[48]), 

    ADC_InterruptHandler	PTR FTN()void  size(2) Largest target is 1
		 -> Absolute function(), 

    strlen@s	PTR const unsigned char  size(2) Largest target is 2047
		 -> __heap_hi(UNKNOWN), STR_2(CODE[7]), RAM(DATA[2047]), NULL(NULL[0]), 

    strlen@a	PTR const unsigned char  size(2) Largest target is 2047
		 -> __heap_hi(UNKNOWN), STR_2(CODE[7]), RAM(DATA[2047]), NULL(NULL[0]), 

    strcpy@dest	PTR unsigned char  size(2) Largest target is 2047
		 -> __heap_hi..(UNKNOWN), __heap_hi(UNKNOWN), RAM(DATA[2047]), NULL(NULL[0]), 

    strcpy@d	PTR unsigned char  size(2) Largest target is 2047
		 -> __heap_hi..(UNKNOWN), __heap_hi(UNKNOWN), RAM(DATA[2047]), NULL(NULL[0]), 

    strcpy@src	PTR const unsigned char  size(2) Largest target is 7
		 -> STR_1(CODE[7]), 

    strcpy@s	PTR const unsigned char  size(2) Largest target is 7
		 -> STR_1(CODE[7]), 

    memset@dest	PTR void  size(2) Largest target is 48
		 -> USBAlternateInterface(COMRAM[2]), BDT(BIGRAMl[48]), UEP1(BITBIGSFRlhhlll[1]), 

    memset@s	PTR unsigned char  size(2) Largest target is 48
		 -> USBAlternateInterface(COMRAM[2]), BDT(BIGRAMl[48]), UEP1(BITBIGSFRlhhlll[1]), 

    memcpy@d1	PTR void  size(2) Largest target is 8
		 -> SetupPkt(BIGRAMhl[8]), 

    memcpy@d	PTR unsigned char  size(2) Largest target is 8
		 -> SetupPkt(BIGRAMhl[8]), 

    memcpy@s1	PTR const void  size(2) Largest target is 2047
		 -> CtrlTrfData(BIGRAMhl[8]), RAM(DATA[2047]), SetupPkt(BIGRAMhl[8]), 

    memcpy@s	PTR const unsigned char  size(2) Largest target is 2047
		 -> CtrlTrfData(BIGRAMhl[8]), RAM(DATA[2047]), SetupPkt(BIGRAMhl[8]), 

    __expand_heap@new_brkp	PTR unsigned char  size(2) Largest target is 0
		 -> __heap_hi(UNKNOWN), NULL(NULL[0]), 

    brkp	PTR unsigned char  size(2) Largest target is 0
		 -> __heap_hi(UNKNOWN), NULL(NULL[0]), 

    __expand_heap@pn	PTR unsigned int  size(2) Largest target is 2
		 -> malloc@m(BANK0[2]), 

    malloc@sz	PTR unsigned int  size(2) Largest target is 2047
		 -> __heap_hi..(UNKNOWN), __heap_hi(UNKNOWN), RAM(DATA[2047]), NULL(NULL[0]), 

    sp____expand_heap	PTR void  size(2) Largest target is 0
		 -> __heap_hi(UNKNOWN), NULL(NULL[0]), 

    malloc@new	PTR unsigned char  size(2) Largest target is 2047
		 -> __heap_hi(UNKNOWN), RAM(DATA[2047]), NULL(NULL[0]), 

    malloc@end	PTR unsigned char  size(2) Largest target is 2047
		 -> __heap_hi(UNKNOWN), RAM(DATA[2047]), NULL(NULL[0]), 

    malloc@cur	PTR unsigned char  size(2) Largest target is 2047
		 -> __heap_hi(UNKNOWN), RAM(DATA[2047]), NULL(NULL[0]), 

    malloc@p	PTR void  size(2) Largest target is 2047
		 -> __heap_hi..(UNKNOWN), __heap_hi(UNKNOWN), RAM(DATA[2047]), NULL(NULL[0]), 

    free@c.....next	PTR struct chunk size(2) Largest target is 0

    free@c...next	PTR struct chunk size(2) Largest target is 0

    free@c	PTR struct chunk size(2) Largest target is 2047
		 -> __heap_hi(UNKNOWN), RAM(DATA[2047]), NULL(NULL[0]), 

    free@ptr	PTR void  size(2) Largest target is 2047
		 -> __heap_hi(UNKNOWN), RAM(DATA[2047]), NULL(NULL[0]), 

    free@cptr	PTR unsigned char  size(2) Largest target is 2047
		 -> __heap_hi(UNKNOWN), RAM(DATA[2047]), NULL(NULL[0]), 

    __simple_search_fl@best_last.....next	PTR struct chunk size(2) Largest target is 0

    __simple_search_fl@split.....next	PTR struct chunk size(2) Largest target is 0

    __simple_search_fl@split...next	PTR struct chunk size(2) Largest target is 0

    __simple_search_fl@split	PTR struct chunk size(2) Largest target is 2047
		 -> __heap_hi..(UNKNOWN), __heap_hi(UNKNOWN), RAM(DATA[2047]), NULL(NULL[0]), 

    __simple_search_fl@next...next	PTR struct chunk size(2) Largest target is 0

    __simple_search_fl@next	PTR struct chunk size(2) Largest target is 2047
		 -> __heap_hi..(UNKNOWN), __heap_hi(UNKNOWN), RAM(DATA[2047]), NULL(NULL[0]), 

    __simple_search_fl@best_last...next	PTR struct chunk size(2) Largest target is 0

    __simple_search_fl@best...next	PTR struct chunk size(2) Largest target is 0

    sp____simple_search_fl...next	PTR struct chunk size(2) Largest target is 0

    __freelist...next	PTR struct chunk size(2) Largest target is 0

    __simple_search_fl@last.....next	PTR struct chunk size(2) Largest target is 0

    __simple_search_fl@last...next	PTR struct chunk size(2) Largest target is 0

    S4010$next	PTR struct chunk size(2) Largest target is 0

    __simple_search_fl@c...next	PTR struct chunk size(2) Largest target is 0

    __simple_search_fl@c	PTR struct chunk size(2) Largest target is 2047
		 -> __heap_hi..(UNKNOWN), __heap_hi(UNKNOWN), RAM(DATA[2047]), NULL(NULL[0]), 

    sp____simple_search_fl	PTR void  size(2) Largest target is 2047
		 -> __heap_hi..(UNKNOWN), __heap_hi(UNKNOWN), RAM(DATA[2047]), NULL(NULL[0]), 

    __freelist	PTR struct chunk size(2) Largest target is 2047
		 -> __heap_hi..(UNKNOWN), __heap_hi(UNKNOWN), RAM(DATA[2047]), NULL(NULL[0]), 

    __simple_search_fl@last	PTR struct chunk size(2) Largest target is 2047
		 -> __heap_hi..(UNKNOWN), __heap_hi(UNKNOWN), RAM(DATA[2047]), NULL(NULL[0]), 

    __simple_search_fl@best_last	PTR struct chunk size(2) Largest target is 2047
		 -> __heap_hi..(UNKNOWN), __heap_hi(UNKNOWN), RAM(DATA[2047]), NULL(NULL[0]), 

    __simple_search_fl@best	PTR struct chunk size(2) Largest target is 2047
		 -> __heap_hi..(UNKNOWN), __heap_hi(UNKNOWN), RAM(DATA[2047]), NULL(NULL[0]), 

    FilaPop@viejo.next	PTR struct NodoComando_T size(2) Largest target is 2047
		 -> __heap_hi(UNKNOWN), RAM(DATA[2047]), NULL(NULL[0]), 

    FilaPop@viejo.comando	PTR unsigned char  size(2) Largest target is 2047
		 -> __heap_hi(UNKNOWN), RAM(DATA[2047]), NULL(NULL[0]), 

    FilaPop@viejo	PTR struct NodoComando_T size(2) Largest target is 2047
		 -> __heap_hi(UNKNOWN), RAM(DATA[2047]), NULL(NULL[0]), 

    FilaPop@fila.cabeza.next	PTR struct NodoComando_T size(2) Largest target is 2047
		 -> __heap_hi(UNKNOWN), RAM(DATA[2047]), NULL(NULL[0]), 

    FilaPop@fila.cabeza.comando	PTR unsigned char  size(2) Largest target is 2047
		 -> __heap_hi(UNKNOWN), RAM(DATA[2047]), NULL(NULL[0]), 

    FilaPop@r	PTR unsigned char  size(2) Largest target is 2047
		 -> __heap_hi(UNKNOWN), RAM(DATA[2047]), NULL(NULL[0]), 

    FilaPop@fila.cola	PTR struct NodoComando_T size(2) Largest target is 2047
		 -> __heap_hi(UNKNOWN), RAM(DATA[2047]), NULL(NULL[0]), 

    FilaPop@fila.cabeza	PTR struct NodoComando_T size(2) Largest target is 2047
		 -> __heap_hi(UNKNOWN), RAM(DATA[2047]), NULL(NULL[0]), 

    FilaPop@fila	PTR struct Fila_T size(2) Largest target is 8
		 -> main@CommandList(BANK0[6]), 

    Fila_Agregar@fila.cabeza.next	PTR struct NodoComando_T size(2) Largest target is 2047
		 -> __heap_hi(UNKNOWN), RAM(DATA[2047]), NULL(NULL[0]), 

    Fila_Agregar@fila.cabeza.comando	PTR unsigned char  size(2) Largest target is 2047
		 -> __heap_hi(UNKNOWN), RAM(DATA[2047]), NULL(NULL[0]), 

    Fila_Agregar@fila.cola.next.next	PTR struct NodoComando_T size(2) Largest target is 2047
		 -> __heap_hi(UNKNOWN), RAM(DATA[2047]), NULL(NULL[0]), 

    Fila_Agregar@fila.cola.next.comando	PTR unsigned char  size(2) Largest target is 2047
		 -> __heap_hi(UNKNOWN), RAM(DATA[2047]), NULL(NULL[0]), 

    Fila_Agregar@fila.cola.next	PTR struct NodoComando_T size(2) Largest target is 2047
		 -> __heap_hi(UNKNOWN), RAM(DATA[2047]), NULL(NULL[0]), 

    Fila_Agregar@fila.cola.comando	PTR unsigned char  size(2) Largest target is 2047
		 -> __heap_hi(UNKNOWN), RAM(DATA[2047]), NULL(NULL[0]), 

    Fila_Agregar@fila.cola	PTR struct NodoComando_T size(2) Largest target is 2047
		 -> __heap_hi(UNKNOWN), RAM(DATA[2047]), NULL(NULL[0]), 

    Fila_Agregar@fila.cabeza	PTR struct NodoComando_T size(2) Largest target is 2047
		 -> __heap_hi(UNKNOWN), RAM(DATA[2047]), NULL(NULL[0]), 

    Fila_Agregar@fila	PTR struct Fila_T size(2) Largest target is 8
		 -> main@CommandList(BANK0[6]), 

    sp__strcpy	PTR unsigned char  size(2) Largest target is 2047
		 -> __heap_hi..(UNKNOWN), __heap_hi(UNKNOWN), RAM(DATA[2047]), NULL(NULL[0]), 

    S3435NodoComando_T$next	PTR struct NodoComando_T size(2) Largest target is 2047
		 -> __heap_hi(UNKNOWN), RAM(DATA[2047]), NULL(NULL[0]), 

    Fila_Agregar@nuevo.next	PTR struct NodoComando_T size(2) Largest target is 2047
		 -> __heap_hi(UNKNOWN), RAM(DATA[2047]), NULL(NULL[0]), 

    S3435NodoComando_T$comando	PTR unsigned char  size(2) Largest target is 2047
		 -> __heap_hi(UNKNOWN), RAM(DATA[2047]), NULL(NULL[0]), 

    Fila_Agregar@nuevo.comando	PTR unsigned char  size(2) Largest target is 2047
		 -> __heap_hi(UNKNOWN), RAM(DATA[2047]), NULL(NULL[0]), 

    sp__malloc	PTR void  size(2) Largest target is 2047
		 -> __heap_hi..(UNKNOWN), __heap_hi(UNKNOWN), RAM(DATA[2047]), NULL(NULL[0]), 

    Fila_Agregar@nuevo	PTR struct NodoComando_T size(2) Largest target is 2047
		 -> __heap_hi..(UNKNOWN), __heap_hi(UNKNOWN), RAM(DATA[2047]), NULL(NULL[0]), 

    Fila_Agregar@comando	PTR unsigned char  size(2) Largest target is 7
		 -> STR_1(CODE[7]), 

    Fila_Init@fila.cola	PTR struct NodoComando_T size(2) Largest target is 2047
		 -> __heap_hi(UNKNOWN), RAM(DATA[2047]), NULL(NULL[0]), 

    Fila_Init@fila.cabeza	PTR struct NodoComando_T size(2) Largest target is 2047
		 -> __heap_hi(UNKNOWN), RAM(DATA[2047]), NULL(NULL[0]), 

    Fila_Init@fila	PTR struct Fila_T size(2) Largest target is 8
		 -> main@CommandList(BANK0[6]), 

    MCC_USB_WRITE@str	PTR unsigned char  size(2) Largest target is 2047
		 -> __heap_hi(UNKNOWN), RAM(DATA[2047]), NULL(NULL[0]), 

    sp__FilaPop	PTR unsigned char  size(2) Largest target is 2047
		 -> __heap_hi(UNKNOWN), RAM(DATA[2047]), NULL(NULL[0]), 

    main@send	PTR unsigned char  size(2) Largest target is 2047
		 -> __heap_hi(UNKNOWN), RAM(DATA[2047]), NULL(NULL[0]), 

    S3438Fila_T$cola	PTR struct NodoComando_T size(2) Largest target is 2047
		 -> __heap_hi(UNKNOWN), RAM(DATA[2047]), NULL(NULL[0]), 

    CommandList.cola	PTR struct NodoComando_T size(2) Largest target is 2047
		 -> __heap_hi(UNKNOWN), RAM(DATA[2047]), NULL(NULL[0]), 

    S3438Fila_T$cabeza	PTR struct NodoComando_T size(2) Largest target is 2047
		 -> __heap_hi(UNKNOWN), RAM(DATA[2047]), NULL(NULL[0]), 

    CommandList.cabeza	PTR struct NodoComando_T size(2) Largest target is 2047
		 -> __heap_hi(UNKNOWN), RAM(DATA[2047]), NULL(NULL[0]), 

    putUSBUSART@data	PTR unsigned char  size(2) Largest target is 2047
		 -> __heap_hi(UNKNOWN), writeBuffer(BANK1[64]), RAM(DATA[2047]), NULL(NULL[0]), 

    CDCDataInHandle	PTR void  size(2) Largest target is 2047
		 -> RAM(DATA[2047]), NULL(NULL[0]), BDT(BIGRAMl[48]), 

    CDCDataOutHandle	PTR void  size(2) Largest target is 2047
		 -> RAM(DATA[2047]), NULL(NULL[0]), BDT(BIGRAMl[48]), 

    pCDCDst.wRom	PTR const unsigned short  size(2) Largest target is 0

    pCDCDst.bRom	PTR const unsigned char  size(2) Largest target is 0

    pCDCDst.wRam	PTR unsigned short  size(2) Largest target is 0

    pCDCDst.bRam	PTR unsigned char  size(2) Largest target is 0

    S1778_POINTER$wRom	PTR const unsigned short  size(2) Largest target is 0

    pCDCSrc.wRom	PTR const unsigned short  size(2) Largest target is 0

    S1778_POINTER$bRom	PTR const unsigned char  size(2) Largest target is 0

    pCDCSrc.bRom	PTR const unsigned char  size(2) Largest target is 0

    S1778_POINTER$wRam	PTR unsigned short  size(2) Largest target is 0

    pCDCSrc.wRam	PTR unsigned short  size(2) Largest target is 0

    S1778_POINTER$bRam	PTR unsigned char  size(2) Largest target is 0

    pCDCSrc.bRam	PTR unsigned char  size(2) Largest target is 0

    USBStdFeatureReqHandler@pUEP	PTR unsigned char  size(2) Largest target is 1
		 -> UEP0(BITBIGSFRlhl[1]), 

    USBStdFeatureReqHandler@p	PTR struct __BDT size(2) Largest target is 2047
		 -> RAM(DATA[2047]), NULL(NULL[0]), BDT(BIGRAMl[48]), 

    sp__memcpy	PTR void  size(2) Largest target is 8
		 -> SetupPkt(BIGRAMhl[8]), 

    USBStdGetStatusHandler@p	PTR struct __BDT size(2) Largest target is 2047
		 -> RAM(DATA[2047]), NULL(NULL[0]), BDT(BIGRAMl[48]), 

    USB_SD_Ptr	const PTR const unsigned char [3] size(2) Largest target is 52
		 -> sd002(CODE[22]), sd001(CODE[52]), sd000(CODE[4]), 

    USB_CD_Ptr	const PTR const unsigned char [1] size(2) Largest target is 67
		 -> configDescriptor1(CODE[67]), 

    pDst	PTR volatile unsigned char  size(2) Largest target is 8
		 -> CtrlTrfData(BIGRAMhl[8]), NULL(NULL[0]), 

    USBConfigureEndpoint@handle	PTR volatile struct __BDT size(2) Largest target is 48
		 -> BDT(BIGRAMl[48]), 

    pBDTEntryEP0OutCurrent	PTR volatile struct __BDT size(2) Largest target is 48
		 -> NULL(NULL[0]), BDT(BIGRAMl[48]), 

    pBDTEntryEP0OutNext	PTR volatile struct __BDT size(2) Largest target is 2047
		 -> RAM(DATA[2047]), NULL(NULL[0]), BDT(BIGRAMl[48]), 

    USBTransferOnePacket@data	PTR unsigned char  size(2) Largest target is 64
		 -> cdc_data_tx(BIGRAMhl[64]), cdc_data_rx(BIGRAMhh[64]), NULL(NULL[0]), 

    sp__USBTransferOnePacket	PTR void  size(2) Largest target is 2047
		 -> RAM(DATA[2047]), NULL(NULL[0]), BDT(BIGRAMl[48]), 

    USBTransferOnePacket@handle	PTR volatile struct __BDT size(2) Largest target is 2047
		 -> RAM(DATA[2047]), NULL(NULL[0]), BDT(BIGRAMl[48]), 

    USBEnableEndpoint@p	PTR unsigned char  size(2) Largest target is 1
		 -> UEP0(BITBIGSFRlhl[1]), 

    pBDTEntryOut	PTR volatile struct __BDT[3] size(2) Largest target is 2047
		 -> RAM(DATA[2047]), NULL(NULL[0]), BDT(BIGRAMl[48]), 

    pBDTEntryIn	PTR volatile struct __BDT[3] size(2) Largest target is 2047
		 -> RAM(DATA[2047]), NULL(NULL[0]), BDT(BIGRAMl[48]), 

    S105$pFunc	PTR FTN()void  size(2) Largest target is 0
		 -> NULL(NULL[0]), 

    outPipes.pFunc	PTR FTN()void  size(2) Largest target is 0
		 -> NULL(NULL[0]), 

    S95$wRam	PTR unsigned short  size(2) Largest target is 0

    outPipes.pDst.wRam	PTR unsigned short  size(2) Largest target is 0

    S95$bRam	PTR unsigned char  size(2) Largest target is 0

    outPipes.pDst.bRam	PTR unsigned char  size(2) Largest target is 0

    S71$wRom	PTR const unsigned short  size(2) Largest target is 0

    inPipes.pSrc.wRom	PTR const unsigned short  size(2) Largest target is 0

    S71$wRam	PTR unsigned short  size(2) Largest target is 0

    inPipes.pSrc.wRam	PTR unsigned short  size(2) Largest target is 0

    S71$bRom	PTR const unsigned char  size(2) Largest target is 0

    inPipes.pSrc.bRom	PTR const unsigned char  size(2) Largest target is 0

    S71$bRam	PTR unsigned char  size(2) Largest target is 0

    inPipes.pSrc.bRam	PTR unsigned char  size(2) Largest target is 0

    sp__memset	PTR void  size(2) Largest target is 48
		 -> USBAlternateInterface(COMRAM[2]), BDT(BIGRAMl[48]), UEP1(BITBIGSFRlhhlll[1]), 


Critical Paths under _main in COMRAM

    None.

Critical Paths under _INTERRUPT_InterruptManager in COMRAM

    _INTERRUPT_InterruptManager->_USBDeviceTasks
    _USBDeviceTasks->_USBCtrlEPService
    i2_USBDeviceInit->i2_memset
    _USBWakeFromSuspend->_USER_USB_CALLBACK_EVENT_HANDLER
    _USBSuspend->_USER_USB_CALLBACK_EVENT_HANDLER
    _USBCtrlTrfSetupHandler->_USBCheckStdRequest
    _USBCtrlEPAllowDataStage->_USBCtrlTrfTxService
    _USBCheckStdRequest->_USBStdFeatureReqHandler
    _USBStdSetCfgHandler->_USER_USB_CALLBACK_EVENT_HANDLER
    _USBStdFeatureReqHandler->_USER_USB_CALLBACK_EVENT_HANDLER
    _CDCInitEP->_USBEnableEndpoint
    _USBEnableEndpoint->_USBConfigureEndpoint
    _USBCtrlTrfOutHandler->_USBCtrlTrfRxService
    _USBCtrlTrfInHandler->_USBCtrlTrfTxService

Critical Paths under _main in BANK0

    _main->_Fila_Agregar
    _SYSTEM_Initialize->_USBDeviceInit
    _USBDeviceInit->_memset
    _MCC_USB_WRITE->_CDCTxService
    _CDCTxService->_USBTransferOnePacket
    _Fila_Agregar->_malloc
    _malloc->___simple_search_fl
    _FilaPop->_free

Critical Paths under _INTERRUPT_InterruptManager in BANK0

    None.

Critical Paths under _main in BANK1

    None.

Critical Paths under _INTERRUPT_InterruptManager in BANK1

    None.

Critical Paths under _main in BANK2

    None.

Critical Paths under _INTERRUPT_InterruptManager in BANK2

    None.

Critical Paths under _main in BANK3

    None.

Critical Paths under _INTERRUPT_InterruptManager in BANK3

    None.

Critical Paths under _main in BANK4

    None.

Critical Paths under _INTERRUPT_InterruptManager in BANK4

    None.

Critical Paths under _main in BANK5

    None.

Critical Paths under _INTERRUPT_InterruptManager in BANK5

    None.

Critical Paths under _main in BANK6

    None.

Critical Paths under _INTERRUPT_InterruptManager in BANK6

    None.

Critical Paths under _main in BANK7

    None.

Critical Paths under _INTERRUPT_InterruptManager in BANK7

    None.

Call Graph Tables:

 ---------------------------------------------------------------------------------
 (Depth) Function   	        Calls       Base Space   Used Autos Params    Refs
 ---------------------------------------------------------------------------------
 (0) _main                                                10    10      0   10732
                                             42 BANK0     10    10      0
                            _FilaPop
                       _Fila_Agregar
                          _Fila_Init
                      _MCC_USB_WRITE
                  _SYSTEM_Initialize
                             _strlen
 ---------------------------------------------------------------------------------
 (1) _strlen                                               4     2      2     338
                                              0 BANK0      4     2      2
 ---------------------------------------------------------------------------------
 (1) _SYSTEM_Initialize                                    0     0      0    2241
                     _ADC_Initialize
                    _CCP2_Initialize
               _INTERRUPT_Initialize
              _OSCILLATOR_Initialize
             _PIN_MANAGER_Initialize
                    _TMR0_Initialize
                    _TMR1_Initialize
                    _TMR2_Initialize
                    _TMR3_Initialize
                    _USBDeviceAttach
                      _USBDeviceInit
 ---------------------------------------------------------------------------------
 (2) _USBDeviceInit                                        1     1      0    2241
                                             12 BANK0      1     1      0
                             _memset
 ---------------------------------------------------------------------------------
 (3) _memset                                              12     6      6    1950
                                              0 BANK0     12     6      6
 ---------------------------------------------------------------------------------
 (2) _USBDeviceAttach                                      0     0      0       0
 ---------------------------------------------------------------------------------
 (2) _TMR3_Initialize                                      0     0      0       0
 ---------------------------------------------------------------------------------
 (2) _TMR2_Initialize                                      0     0      0       0
 ---------------------------------------------------------------------------------
 (2) _TMR1_Initialize                                      0     0      0       0
 ---------------------------------------------------------------------------------
 (2) _TMR0_Initialize                                      0     0      0       0
 ---------------------------------------------------------------------------------
 (2) _PIN_MANAGER_Initialize                               0     0      0       0
 ---------------------------------------------------------------------------------
 (2) _OSCILLATOR_Initialize                                0     0      0       0
 ---------------------------------------------------------------------------------
 (2) _INTERRUPT_Initialize                                 0     0      0       0
 ---------------------------------------------------------------------------------
 (2) _CCP2_Initialize                                      0     0      0       0
 ---------------------------------------------------------------------------------
 (2) _ADC_Initialize                                       0     0      0       0
 ---------------------------------------------------------------------------------
 (1) _MCC_USB_WRITE                                        4     0      4    2937
                                             13 BANK0      4     0      4
                       _CDCTxService
                        _putUSBUSART
                             _strlen (ARG)
 ---------------------------------------------------------------------------------
 (2) _putUSBUSART                                          3     0      3     478
                                              0 BANK0      3     0      3
 ---------------------------------------------------------------------------------
 (2) _CDCTxService                                         2     2      0    2189
                                             11 BANK0      2     2      0
               _USBTransferOnePacket
 ---------------------------------------------------------------------------------
 (3) _USBTransferOnePacket                                11     7      4    1988
                                              0 BANK0     11     7      4
 ---------------------------------------------------------------------------------
 (1) _Fila_Init                                            2     0      2     197
                                              0 BANK0      2     0      2
 ---------------------------------------------------------------------------------
 (1) _Fila_Agregar                                        10     4      6    3705
                                             32 BANK0     10     4      6
                             _malloc
                             _strcpy
                             _strlen (ARG)
 ---------------------------------------------------------------------------------
 (2) _strcpy                                               8     4      4     345
                                              0 BANK0      8     4      4
 ---------------------------------------------------------------------------------
 (2) _malloc                                              14    12      2    2518
                                             20 BANK0     12    10      2
                      ___expand_heap
                 ___simple_search_fl
 ---------------------------------------------------------------------------------
 (3) ___simple_search_fl                                  20    18      2    1287
                                              0 BANK0     20    18      2
 ---------------------------------------------------------------------------------
 (3) ___expand_heap                                        8     6      2     299
                                              0 BANK0      8     6      2
 ---------------------------------------------------------------------------------
 (1) _FilaPop                                             10     8      2    1057
                                             10 BANK0     10     8      2
                               _free
 ---------------------------------------------------------------------------------
 (2) _free                                                10     8      2     513
                                              0 BANK0     10     8      2
 ---------------------------------------------------------------------------------
 Estimated maximum stack depth 3
 ---------------------------------------------------------------------------------
 (Depth) Function   	        Calls       Base Space   Used Autos Params    Refs
 ---------------------------------------------------------------------------------
 (4) _INTERRUPT_InterruptManager                          12    12      0   30801
                                             31 COMRAM    12    12      0
                     _USBDeviceTasks
 ---------------------------------------------------------------------------------
 (5) _USBDeviceTasks                                       1     1      0   30801
                                             30 COMRAM     1     1      0
          _USBCtrlEPAllowStatusStage
                   _USBCtrlEPService
      _USBIncrement1msInternalTimers
                    _USBStallHandler
                         _USBSuspend
                 _USBWakeFromSuspend
    _USER_USB_CALLBACK_EVENT_HANDLER
                    i2_USBDeviceInit
 ---------------------------------------------------------------------------------
 (6) i2_USBDeviceInit                                      1     1      0    1233
                                             12 COMRAM     1     1      0
                           i2_memset
 ---------------------------------------------------------------------------------
 (6) _USBWakeFromSuspend                                   0     0      0    3879
    _USER_USB_CALLBACK_EVENT_HANDLER
 ---------------------------------------------------------------------------------
 (6) _USBSuspend                                           0     0      0    3879
    _USER_USB_CALLBACK_EVENT_HANDLER
 ---------------------------------------------------------------------------------
 (6) _USBStallHandler                                      1     1      0       0
                                              0 COMRAM     1     1      0
 ---------------------------------------------------------------------------------
 (6) _USBIncrement1msInternalTimers                        0     0      0       0
 ---------------------------------------------------------------------------------
 (6) _USBCtrlEPService                                     1     1      0   17885
                                             29 COMRAM     1     1      0
                _USBCtrlTrfInHandler
               _USBCtrlTrfOutHandler
             _USBCtrlTrfSetupHandler
                             _memcpy
 ---------------------------------------------------------------------------------
 (7) _memcpy                                              11     5      6     410
                                              0 COMRAM    11     5      6
 ---------------------------------------------------------------------------------
 (7) _USBCtrlTrfSetupHandler                               0     0      0   17246
                 _USBCheckStdRequest
           _USBCtrlEPServiceComplete
    _USER_USB_CALLBACK_EVENT_HANDLER
 ---------------------------------------------------------------------------------
 (8) _USBCtrlEPServiceComplete                             0     0      0      92
            _USBCtrlEPAllowDataStage
          _USBCtrlEPAllowStatusStage
 ---------------------------------------------------------------------------------
 (9) _USBCtrlEPAllowDataStage                              0     0      0      92
                _USBCtrlTrfTxService
 ---------------------------------------------------------------------------------
 (8) _USBCheckStdRequest                                   2     2      0   13275
                                             27 COMRAM     2     2      0
            _USBStdFeatureReqHandler
                _USBStdGetDscHandler
             _USBStdGetStatusHandler
                _USBStdSetCfgHandler
    _USER_USB_CALLBACK_EVENT_HANDLER
 ---------------------------------------------------------------------------------
 (9) _USBStdSetCfgHandler                                  1     1      0    5000
                                             20 COMRAM     1     1      0
    _USER_USB_CALLBACK_EVENT_HANDLER
                           i2_memset
 ---------------------------------------------------------------------------------
 (7) i2_memset                                            12     6      6    1031
                                              0 COMRAM    12     6      6
 ---------------------------------------------------------------------------------
 (9) _USBStdGetStatusHandler                               4     4      0      46
                                              0 COMRAM     4     4      0
 ---------------------------------------------------------------------------------
 (9) _USBStdGetDscHandler                                  2     2      0       0
                                              0 COMRAM     2     2      0
 ---------------------------------------------------------------------------------
 (9) _USBStdFeatureReqHandler                              7     7      0    4350
                                             20 COMRAM     7     7      0
    _USER_USB_CALLBACK_EVENT_HANDLER
 ---------------------------------------------------------------------------------
 (6) _USER_USB_CALLBACK_EVENT_HANDLER                      8     2      6    3879
                                             12 COMRAM     8     2      6
                          _CDCInitEP
                 _USBCheckCDCRequest
 ---------------------------------------------------------------------------------
 (7) _USBCheckCDCRequest                                   2     2      0       0
                                              0 COMRAM     2     2      0
 ---------------------------------------------------------------------------------
 (7) _CDCInitEP                                            0     0      0    1187
                  _USBEnableEndpoint
             i2_USBTransferOnePacket
 ---------------------------------------------------------------------------------
 (8) i2_USBTransferOnePacket                              11     7      4     454
                                              0 COMRAM    11     7      4
 ---------------------------------------------------------------------------------
 (8) _USBEnableEndpoint                                    4     3      1     733
                                              8 COMRAM     4     3      1
               _USBConfigureEndpoint
 ---------------------------------------------------------------------------------
 (9) _USBConfigureEndpoint                                 8     7      1     400
                                              0 COMRAM     8     7      1
 ---------------------------------------------------------------------------------
 (7) _USBCtrlTrfOutHandler                                 0     0      0     114
                _USBCtrlTrfRxService
 ---------------------------------------------------------------------------------
 (8) _USBCtrlTrfRxService                                  2     2      0     114
                                              0 COMRAM     2     2      0
          _USBCtrlEPAllowStatusStage
 ---------------------------------------------------------------------------------
 (9) _USBCtrlEPAllowStatusStage                            0     0      0       0
 ---------------------------------------------------------------------------------
 (7) _USBCtrlTrfInHandler                                  1     1      0     115
                                              1 COMRAM     1     1      0
                _USBCtrlTrfTxService
 ---------------------------------------------------------------------------------
 (10) _USBCtrlTrfTxService                                 1     1      0      92
                                              0 COMRAM     1     1      0
 ---------------------------------------------------------------------------------
 Estimated maximum stack depth 10
 ---------------------------------------------------------------------------------

 Call Graph Graphs:

 _main (ROOT)
   _FilaPop
     _free
   _Fila_Agregar
     _malloc
       ___expand_heap
       ___simple_search_fl
     _strcpy
     _strlen (ARG)
   _Fila_Init
   _MCC_USB_WRITE
     _CDCTxService
       _USBTransferOnePacket
     _putUSBUSART
     _strlen (ARG)
   _SYSTEM_Initialize
     _ADC_Initialize
     _CCP2_Initialize
     _INTERRUPT_Initialize
     _OSCILLATOR_Initialize
     _PIN_MANAGER_Initialize
     _TMR0_Initialize
     _TMR1_Initialize
     _TMR2_Initialize
     _TMR3_Initialize
     _USBDeviceAttach
     _USBDeviceInit
       _memset
   _strlen

 _INTERRUPT_InterruptManager (ROOT)
   _USBDeviceTasks
     _USBCtrlEPAllowStatusStage
     _USBCtrlEPService
       _USBCtrlTrfInHandler
         _USBCtrlTrfTxService
       _USBCtrlTrfOutHandler
         _USBCtrlTrfRxService
           _USBCtrlEPAllowStatusStage
       _USBCtrlTrfSetupHandler
         _USBCheckStdRequest
           _USBStdFeatureReqHandler
             _USER_USB_CALLBACK_EVENT_HANDLER
               _CDCInitEP
                 _USBEnableEndpoint
                   _USBConfigureEndpoint
                 i2_USBTransferOnePacket
               _USBCheckCDCRequest
           _USBStdGetDscHandler
           _USBStdGetStatusHandler
           _USBStdSetCfgHandler
             _USER_USB_CALLBACK_EVENT_HANDLER
             i2_memset
           _USER_USB_CALLBACK_EVENT_HANDLER
         _USBCtrlEPServiceComplete
           _USBCtrlEPAllowDataStage
             _USBCtrlTrfTxService
           _USBCtrlEPAllowStatusStage
         _USER_USB_CALLBACK_EVENT_HANDLER
       _memcpy
     _USBIncrement1msInternalTimers
     _USBStallHandler
     _USBSuspend
       _USER_USB_CALLBACK_EVENT_HANDLER
     _USBWakeFromSuspend
       _USER_USB_CALLBACK_EVENT_HANDLER
     _USER_USB_CALLBACK_EVENT_HANDLER
     i2_USBDeviceInit
       i2_memset

 Address spaces:
Name               Size   Autos  Total    Cost      Usage
BIGRAMl            3FF      0       0      44        0.0%
BIGRAMhh           280      0       0      42        0.0%
EEDATA             100      0       0       0        0.0%
BITBANK7           100      0       0      18        0.0%
BANK7              100      0       0      19        0.0%
BITBANK6           100      0       0      16        0.0%
BANK6              100      0       0      17        0.0%
BITBANK3           100      0       0      10        0.0%
BANK3              100      0       0      11        0.0%
BITBANK2           100      0       0       8        0.0%
BANK2              100      0       0       9        0.0%
BITBANK1           100      0       0       6        0.0%
BANK1              100      0     100       7      100.0%
BIGRAMhl            C0      0       0      43        0.0%
BITBANK4            C0      0       0      12        0.0%
BANK4               C0      0       0      13        0.0%
BITBANK0            A0      0       0       4        0.0%
BANK0               A0     34      89       5       85.6%
BITBANK5            80      0       0      14        0.0%
BANK5               80      0       0      15        0.0%
BITCOMRAM           5E      0       0       0        0.0%
COMRAM              5E     2B      54       1       89.4%
BITBIGSFRhhlhh      19      0       0      22        0.0%
BITBIGSFRlhhlll     19      0       0      36        0.0%
BITBIGSFRhllh        7      0       0      28        0.0%
BITBIGSFRhhhh        7      0       0      20        0.0%
BITBIGSFRhlhhlh      7      0       0      25        0.0%
BITBIGSFRllllll      6      0       0      40        0.0%
BITBIGSFRlhhlhl      4      0       0      34        0.0%
BITBIGSFRhlhl        4      0       0      27        0.0%
BITBIGSFRlhhlhh      3      0       0      32        0.0%
BITBIGSFRlhhllh      3      0       0      35        0.0%
BITBIGSFRhlhhll      3      0       0      26        0.0%
BITBIGSFRlllllh      2      0       0      38        0.0%
BITBIGSFRlhhlhh      2      0       0      33        0.0%
BITBIGSFRlhhhlh      2      0       0      30        0.0%
BITBIGSFRlhhhll      2      0       0      31        0.0%
BITBIGSFRhhhl        2      0       0      21        0.0%
BITBIGSFRlhl         2      0       0      37        0.0%
BITBIGSFRllllll      1      0       0      39        0.0%
BITBIGSFRlhhhh       1      0       0      29        0.0%
BITBIGSFRhhlhl       1      0       0      23        0.0%
BITBIGSFRhhll        1      0       0      24        0.0%
BIGSFR               0      0       0     200        0.0%
BITSFR_1             0      0       0     200        0.0%
SFR_1                0      0       0     200        0.0%
BITSFR               0      0       0     200        0.0%
SFR                  0      0       0     200        0.0%
STACK                0      0       0       2        0.0%
NULL                 0      0       0       0        0.0%
ABS                  0      0     1DD      41        0.0%
DATA                 0      0     1DD       3        0.0%
CODE                 0      0       0       0        0.0%


Microchip Technology PIC18 Macro Assembler V2.36 build 20220127204148 
Symbol Table                                                                                   Sun Aug 28 15:52:52 2022

                             _USB_SD_Ptr 0801                            _USBDeviceInit 1816  
                        _timer0ReloadVal 0041     USER_USB_CALLBACK_EVENT_HANDLER@event 000D  
   USER_USB_CALLBACK_EVENT_HANDLER@pdata 000F                                      l141 1960  
                                    l136 187E              __end_of_USBStdGetDscHandler 16AE  
                                    l177 1FC0                                      l196 3176  
                                    l533 1172                                      l509 333E  
                                    l197 3174                                      l527 124A  
                                    l199 3188                                      l631 32E4  
                                    l528 10FC                                      l634 33F0  
                                    l812 33B6                                      l734 33A0  
                                    l655 3384                                      l860 3368  
                                    _BDT 000400                                      l589 3414  
                                    l694 3410                                      l775 33DE  
                                    l939 3402                                      l991 33CC  
                                    _PR2 000FBB                                      _UIE 000F64  
                                    _UIR 000F65                          _timer1ReloadVal 009E  
                             _USBSuspend 32E6                     USBStdSetCfgHandler@i 0015  
                        _TMR2_Initialize 3404                                      prod 000FF3  
                                    wreg 000FE8                           _USBDeviceTasks 0E8C  
                         _USBDeviceState 0050                    ??_USBCtrlTrfRxService 0001  
               USBEnableEndpoint@options 0009                                     l1010 3248  
                                   l1014 2372                                     l1025 1D3A  
                        _timer3ReloadVal 0036                                     l1713 0D38  
                                   l1705 0E8A                                     l1722 1814  
                                   l1716 0E46               USBConfigureEndpoint@handle 0007  
                                   l6000 115A                                     l1761 2C40  
                                   l1746 1BAA                                     l6002 116A  
                                   l1748 1BF6                                     l6100 1AE4  
                                   l6012 119C                                     l6020 11BA  
                                   l6004 1176                                     l1749 1B9E  
                                   l1766 2CC4                                     l6110 1B42  
                                   l6102 1AEC                                     l1790 31CA  
                                   l6022 11CE                                     l6014 11B0  
                                   l6030 11EC                                     l6006 1184  
                                   l6120 1B96                                     l6112 1B56  
                                   l6104 1B00                                     l6040 122A  
                                   l6024 11E2                                     l6032 11FC  
                                   l6016 11B4                                     l6008 1188  
                                   l6200 32C4                                     l6130 1BDA  
                                   l6122 1BB2                                     l6114 1B6A  
                                   l6106 1B14                                     l6034 120C  
                                   l6026 11E6                                     l6018 11B8  
                                   l6042 1248                                     l6050 334E  
                                   l1778 13C2                                     l6210 32D8  
                                   l6202 32C8                                     l6140 16AE  
                                   l6124 1BBA                                     l6108 1B36  
                                   l6132 1BEE                                     l6220 3234  
                                   l6036 121E                                     l6028 11EA  
                                   l6060 33A2                                     l6044 3412  
                                   l6052 3366                                     l6212 32DC  
                                   l6204 32CC                                     l1796 30AA  
                                   l6150 1744                                     l6126 1BCA  
                                   l6118 1B76                                     l6038 1226  
                                   l6054 33E0                                     l6046 3340  
                                   l6070 3406                                     l6062 336A  
                                   l6214 32E0                                     l6206 32D0  
                                   l6222 305A                                     l6160 17B8  
                                   l6152 176C                                     l6144 16CE  
                                   l6128 1BD2                                     l6136 318A  
                                   l6240 229E                                     l6232 2242  
                                   l6216 320E                                     l6056 33F2  
                                   l6048 334C                                     l6080 33CE  
                                   l6072 340A                                     l6064 3376  
                                   l6208 32D4                                     l6224 3066  
                                   l6146 16EC                                     l6090 1AAE  
                                   l6138 319A                                     l6250 233C  
                                   l6242 22BC                                     l6218 321E  
                                   l6058 33FE                                     l6082 33DA  
                                   l6074 3386                                     l6066 337E  
                                   l6226 306C                                     l6164 17E4  
                                   l6148 1724                                     l6260 1C24  
                                   l6092 1AC2                                     l6252 2350  
                                   l6244 22D8                                     l6236 225A  
                                   l6084 33DC                                     l6076 3392  
                                   l6068 3404                                     l6228 309C  
                                   l6158 1778                                     l6166 17FC  
                                   l6270 1CCE                                     l6262 1C5C  
                                   l6094 1AC6                                     l6086 1AAE  
                                   l6254 2360                                     l6246 2304  
                                   l6238 228C                                     l6078 339A  
                                   l6350 2D88                                     l6342 2D72  
                                   l6272 1CE2                                     l6264 1C7C  
                                   l6096 1ACE                                     l6088 1AAE  
                                   l6248 2324                                     l6352 2DB2  
                                   l6344 2D76                                     l6274 1CF6  
                                   l6266 1C8C                                     l6282 1D32  
                                   l6258 1BF8                                     l5810 0CAA  
                                   l5802 0C48                                     l6098 1ACE  
                                   l6194 32B8                                     l6354 2DC8  
                                   l6346 2D78                                     l6276 1D1A  
                                   l6268 1CB0                                     l5820 0CFE  
                                   l5812 0CBE                                     l5804 0C54  
                                   l5740 1278                                     l5900 186E  
                                   l6196 32BC                                     l6356 2DE8  
                                   l6348 2D7A                                     l6278 1D26  
                                   l5830 0D66                                     l5806 0C74  
                                   l6286 33B8                                     l5750 1320  
                                   l5734 124C                                     l5910 188A  
                                   l5902 1880                                     l6198 32C0  
                                   l5840 0E2A                                     l5832 0D78  
                                   l5824 0D28                                     l5808 0C86  
                                   l5816 0CCE                                     l6288 33C8  
                                   l5760 13A6                                     l5752 134C  
                                   l5744 12AE                                     l5912 188E  
                                   l5904 1884                                     l5842 0E5E  
                                   l5834 0DBA                                     l5826 0D40  
                                   l5818 0CEC                                     l5770 1EB2  
                                   l5762 13AC                                     l5746 1306  
                                   l5738 126C                                     l5930 1910  
                                   l5914 1892                                     l5906 1886  
                                   l5860 2C58                                     l5844 0E6A  
                                   l5836 0DDE                                     l5828 0D54  
                                   l5780 1F0C                                     l5772 1ECA  
                                   l5764 13B0                                     l5756 1366  
                                   l5940 1938                                     l5932 1912  
                                   l5924 18C0                                     l5916 189A  
                                   l5908 1888                                     l5870 2CA8  
                                   l5862 2C60                                     l5854 2C16  
                                   l5846 0E7E                                     l5838 0DEE  
                                   l5790 1F7E                                     l5782 1F18  
                                   l5774 1EDC                                     l5766 1E84  
                                   l5758 139A                                     l5950 1956  
                                   l5942 193C                                     l5934 1922  
                                   l5926 18F0                                     l5918 18A8  
                                   l5864 2C6C                                     l5856 2C26  
                                   l5792 1FB8                                     l5784 1F24  
                                   l5768 1E96                                     l5960 316E  
                                   l5952 195C                                     l5944 1940  
                                   l5936 192A                                     l5928 1900  
                                   l5880 1818                                     l5874 2CB4  
                                   l5866 2C8A                                     l5858 2C38  
                                   l5786 1F30                                     l5778 1EE8  
                                   l5970 332E                                     l5962 3184  
                                   l5954 3148                                     l5946 1942  
                                   l5938 192E                                     l5890 184E  
                                   l5882 1824                                     l5868 2CA0  
                                   l5796 0C10                                     l5788 1F40  
                                   l5980 10B6                                     l5972 3332  
                                   l5964 3314                                     l5956 3158  
                                   l5948 1946                                     l5884 1842  
                                   l5798 0C3C                                     l5990 110C  
                                   l5982 10CA                                     l5974 3338  
                                   l5966 3316                                     l5958 316C  
                                   l5886 1846                                     l5878 1816  
                                   l5992 1112                                     l5984 10E0  
                                   l5968 3326                                     l5976 333C  
                                   l5896 1854                                     l5888 184A  
                                   l5994 1124                                     l5986 10E6  
                                   l5978 10B4                                     l5898 186C  
                                   l5996 1142                                     l5988 10F8  
                                   l5998 114A                                     STR_1 08AC  
                                   STR_2 08AC                                     _LATA 000F89  
                                   _LATB 000F8A                                     _LATC 000F8B  
                                   u4300 1E96                                     u4301 1E92  
                                   u4310 1EDC                                     u4311 1ED8  
                                   u4400 0D78                                     u4320 1F40  
                                   u4401 0D74                                     u4321 1F3C  
                                   u4410 0DBA                                     u4330 0C3C  
                                   u4250 1268                                     u4411 0DB6  
                                   u4331 0C38                                     u4251 1264  
                                   u4420 0E5E                                     u4340 0C74  
                                   u4500 3158                                     u4260 12AA  
                                   u4421 0E5A                                     u4341 0C70  
                                   u4501 3154                                     u4261 12A6  
                                   u4430 2C38                                     u4350 0C86  
                                   u4510 3184                                     u4270 131C  
                                   u4431 2C34                                     u4351 0C82  
                                   u4511 3180                                     u4271 1318  
                                   u4440 2C58                                     u4360 0CEC  
                                   u4600 1198                                     u4520 3326  
                                   u4280 1362                                     u4441 2C54  
                                   u4361 0CE8                                     u4601 1194  
                                   u4521 3322                                     u4281 135E  
                                   u4450 2C8A                                     u4370 0CFE  
                                   u4610 11CA                                     u4530 10CA  
                                   u4290 13C2                                     u4451 2C86  
                                   u4371 0CFA                                     u4611 11C6  
                                   u4531 10C6                                     u4291 13BE  
                                   u4460 2CA0                                     u4380 0D24  
                                   u4700 1B96                                     u4620 11FC  
                                   u4540 10E0                                     u4461 2C9C  
                                   u4381 0D20                                     u4701 1B92  
                                   u4621 11F8                                     u4541 10DC  
                                   u4390 0D66                                     u4710 31CA  
                                   u4630 120C                                     u4550 10F8  
                                   u4470 187E                                     u4391 0D62  
                                   u4711 31C6                                     u4631 1208  
                                   u4551 10F4                                     u4471 187A  
                                   u4720 16CA                                     u4640 121E  
                                   u4560 110C                                     u4480 18A8  
                                   u4800 308C                                     u4721 16C6  
                                   u4641 121A                                     u4561 1108  
                                   u4481 18A4                                     u4730 16EC  
                                   u4650 1AC2                                     u4570 1124  
                                   u4490 1922                                     u4810 309C  
                                   u4731 16E8                                     u4651 1ABE  
                                   u4571 1120                                     u4491 191E  
                                   u4811 3098                                     u4740 1724  
                                   u4660 1AE4                                     u4820 2256  
                                   u4580 115A                                     u4741 1720  
                                   u4661 1AE0                                     u4821 2252  
                                   u4581 1156                                     u4750 17B8  
                                   u4670 1B14                                     u4830 229E  
                                   u4590 116A                                     u4751 17B4  
                                   u4671 1B10                                     u4831 229A  
                                   u4591 1166                                     u4807 3082  
                                   u4680 1B36                                     u4840 22B8  
                                   u4681 1B32                                     u4841 22B4  
                                   u4690 1B6A                                     u4850 2304  
                                   u4691 1B66                                     u4851 2300  
                                   u4860 1C24                                     u4861 1C20  
                                   u4870 1CCE                                     u4871 1CCA  
                  ??_USBCtrlTrfTxService 0001                                     _UCFG 000F62  
                                   _UEP0 000F6A                                     u4997 2DF4  
                                   _UEP1 000F6B                                     _UEIE 000F66  
                                   _UEIR 000F67                                     _UCON 000F60  
                                   _TMR1 000FCE                                     _TMR2 000FBC  
                                   _TMR3 000FB2                                     _WPUB 000F85  
                         ?_MCC_USB_WRITE 00C2                     __end_of_Fila_Agregar 2374  
                        _CDCDataInHandle 00A0   USBStdFeatureReqHandler@current_ep_data 0019  
                                   _pDst 003A                  __end_of_CCP2_Initialize 3404  
                                   _brkp 0030                                     _free 16AE  
                                   _main 2D72                 ??i2_USBTransferOnePacket 0005  
                                   fsr0h 000FEA                                     fsr1h 000FE2  
                                   indf0 000FEF                                     fsr2h 000FDA  
                                   fsr0l 000FE9                                     indf1 000FE7  
                            _BaudRateGen 0088                                     indf2 000FDF  
                                   fsr1l 000FE1                                     fsr2l 000FD9  
                        _USBDeviceAttach 3148                                     btemp 0055  
                                   prodh 000FF4                                     prodl 000FF3  
                                   start 009C                          _TMR3_Initialize 336A  
                        __end_of_FilaPop 1D3C               __end_of_USBCheckStdRequest 249A  
                 ??_USBCtrlTrfOutHandler 0003                             ___param_bank 000000  
              ??_USBStdFeatureReqHandler 0015                 ??_USBStdGetStatusHandler 0001  
                         ?_USBDeviceInit 0001                  __end_of_TMR0_Initialize 33E0  
          __end_of_OSCILLATOR_Initialize 33F2                              _writeBuffer 0180  
                                  ?_free 00B5                                    ?_main 0001  
                                  _EEADR 000FA9                                    _T0CON 000FD5  
                                  _T1CON 000FCD                   __end_of_USBDeviceTasks 10B4  
                                  _T2CON 000FBA                                    _T3CON 000FB1  
              ?_USBCtrlEPServiceComplete 0001                                    i2l203 29BE  
                                  i2l213 2C14                                    i2l221 205E  
                                  i2l141 1AAC                                    i2l302 3312  
                                  i2l207 29BE                                    i2l231 2102  
                                  i2l136 19C6                                    i2l218 2D70  
                                  i2l171 3146                                    i2l147 0EEC  
                                  i2l340 28CC                                    i2l332 28B6  
                                  i2l316 2B60                                    i2l308 320C  
                                  i2l148 10B2                                    i2l157 1008  
                                  i2l246 25A8                                    i2l326 2F94  
                                  i2l158 10B0                                    i2l319 2E98  
                                  i2l159 101A                                    i2l280 16AC  
                                  i2l344 2498                                    i2l257 1E68  
                                  i2l177 2240                                    i2l361 08FE  
                                  i2l266 2AA8                                    i2l346 2390  
                                  i2l339 28C6                                    i2l259 1E7E  
                                  i2l427 2F20                                    i2l355 23EC  
                                  i2l380 0B70                                    i2l372 0AC2  
                                  i2l284 25B8                                    i2l294 26B6  
                                  i2l287 2698                                    i2l480 273A  
                                  i2l384 0C0E                                    i2l288 25D4  
                                  i2l473 27C2                                    i2l289 25DC  
                                  i2l297 3056                                    i2l482 2774  
                                  i2l299 3058                                    i2l389 32B6  
                                  i2l486 2FF8                                    i2l598 0068  
                                  _UADDR 000F63                                    _TMR0H 000FD7  
                                  _TMR1H 000FCF                                    _TMR0L 000FD6  
                                  _TMR3H 000FB3                                    _TMR1L 000FCE  
                                  _TMR3L 000FB2                                    _TRISA 000F92  
                                  _TRISB 000F93                                    _TRISC 000F94  
                                  _USTAT 000F61          __end_of_USBCtrlEPAllowDataStage 2C16  
                                  _sd000 08A8                                    _sd001 084C  
                                  _sd002 0880           ?_USBIncrement1msInternalTimers 0001  
                                  _errno 0098                                    free@c 00BD  
                __end_of_TMR1_Initialize 33A2                                    tablat 000FF5  
                       ___expand_heap@pn 00B5                                    plusw2 000FDB  
                      __end_of_CDCInitEP 2FFA                                    ttemp5 0056  
                                  ttemp6 0059                                    ttemp7 005D  
                                  status 000FD8                                    wtemp8 0056  
                       __end_ofi2_memset 153A                          main@CommandList 00E3  
                        putUSBUSART@data 00B5                          __initialization 324A  
                           __end_of_free 1816                             __end_of_main 2E0A  
                          ___expand_heap 2C16                    _control_signal_bitmap 0042  
                __end_of_TMR2_Initialize 3412              ?_INTERRUPT_InterruptManager 0001  
                                 ??_free 00B7                                   ??_main 00DF  
                          __activetblptr 000002                          ?_USBDeviceTasks 0001  
                            ?_USBSuspend 0001                             _cdc_mem_type 00A2  
                     Fila_Agregar@nBytes 00D9                  __end_of_USBDeviceAttach 318A  
                                 _ADCON0 000FC2                                   _ADCON1 000FC1  
                                 _ADCON2 000FC0                         _CDCDataOutHandle 0038  
                                 _ACTCON 000FB5                          ??_MCC_USB_WRITE 00C6  
                                 _ADRESH 000FC4                                   _ADRESL 000FC3  
                                 _EEDATA 000FA8                                   _CCPR2H 000F91  
                                 _CCPR2L 000F90                                   _EECON2 000FA7  
                                 _ANSELA 000F5B                                   _ANSELB 000F5C  
                                 _ANSELC 000F5D                                   _T1GCON 000FCC  
                                 _T3GCON 000FB4                  __end_of_TMR3_Initialize 3386  
                                 i2l4000 272A                                   i2l4010 2764  
                                 i2l4002 2734                                   i2l4012 276C  
                                 i2l4004 2742                                   i2l4006 2754  
                                 i2l4110 1510                                   i2l4102 1496  
                                 i2l4120 28DE                                   i2l4008 275A  
                                 i2l4016 2780                                   i2l4032 2EAE  
                                 i2l4024 2E9A                                   i2l4112 151C  
                                 i2l4104 14C2                                   i2l4200 2A64  
                                 i2l4050 24CA                                   i2l4042 249A  
                                 i2l4130 2926                                   i2l4122 28F2  
                                 i2l4026 2E9E                                   i2l4114 1522  
                                 i2l4210 2AA4                                   i2l4202 2A6C  
                                 i2l4060 24FE                                   i2l4052 24D2  
                                 i2l4044 249E                                   i2l4140 296E  
                                 i2l4132 2936                                   i2l4124 28F6  
                                 i2l4028 2EA6                                   i2l4300 095E  
                                 i2l4220 156E                                   i2l4212 153A  
                                 i2l4116 1526                                   i2l4108 14DC  
                                 i2l4204 2A70                                   i2l5100 1962  
                                 i2l4070 2548                                   i2l4062 2506  
                                 i2l4054 24E2                                   i2l4046 24B6  
                                 i2l4150 29AE                                   i2l4142 297A  
                                 i2l4134 2946                                   i2l4126 2908  
                                 i2l4118 28CE                                   i2l4310 09E2  
                                 i2l4302 0972                                   i2l4230 160A  
                                 i2l4222 157E                                   i2l4214 154E  
                                 i2l4206 2A80                                   i2l5110 1994  
                                 i2l5102 1964                                   i2l4080 2592  
                                 i2l4072 254C                                   i2l4048 24BA  
                                 i2l4056 24E6                                   i2l4144 2986  
                                 i2l4136 294A                                   i2l4128 291A  
                                 i2l4320 0A3A                                   i2l4312 09F0  
                                 i2l4304 0990                                   i2l4232 161A  
                                 i2l4224 159A                                   i2l4216 1558  
                                 i2l4208 2A88                                   i2l4160 2BAC  
                                 i2l4152 2B62                                   i2l4400 20BA  
                                 i2l5120 19B4                                   i2l5112 1998  
                                 i2l5104 1970                                   i2l5200 0F08  
                                 i2l4082 2596                                   i2l4066 2518  
                                 i2l4074 254E                                   i2l4058 24EE  
                                 i2l4146 298A                                   i2l4138 295A  
                                 i2l4330 0AAA                                   i2l4322 0A58  
                                 i2l4314 0A00                                   i2l4306 09AC  
                                 i2l4234 1636                                   i2l4226 15CC  
                                 i2l4218 1562                                   i2l4242 1678  
                                 i2l4090 13E2                                   i2l4170 2BFC  
                                 i2l4162 2BBC                                   i2l4154 2B6A  
                                 i2l4410 20EE                                   i2l4402 20CE  
                                 i2l5130 19D0                                   i2l5122 19B6  
                                 i2l5106 198C                                   i2l5210 0F22  
                                 i2l5202 0F0C                                   i2l4076 2562  
                                 i2l4068 2542                                   i2l4084 2598  
                                 i2l4148 299A                                   i2l4420 1D68  
                                 i2l4340 0B16                                   i2l4324 0A6A  
                                 i2l4332 0ADE                                   i2l4316 0A0A  
                                 i2l4308 09CA                                   i2l4236 1664  
                                 i2l4228 1600                                   i2l4260 2630  
                                 i2l4252 25BC                                   i2l4092 13EE  
                                 i2l4180 29FE                                   i2l4172 2C08  
                                 i2l4164 2BDA                                   i2l4156 2B7C  
                                 i2l4404 20DA                                   i2l5140 19F2  
                                 i2l5132 19D2                                   i2l5124 19C8  
                                 i2l5108 1990                                   i2l5220 0F6C  
                                 i2l5212 0F30                                   i2l5204 0F0E  
                                 i2l4078 258C                                   i2l4430 1D96  
                                 i2l4422 1D70                                   i2l4414 1D3C  
                                 i2l4350 0B80                                   i2l4342 0B36  
                                 i2l4334 0AE8                                   i2l4326 0A80  
                                 i2l4318 0A18                                   i2l4238 166E  
                                 i2l4270 26A8                                   i2l4262 2646  
                                 i2l4254 25CC                                   i2l4086 13C4  
                                 i2l4190 2A24                                   i2l4174 29C0  
                                 i2l4166 2BE2                                   i2l4158 2BA0  
                                 i2l4406 20E6                                   i2l1774 30FA  
                                 i2l5150 1A4A                                   i2l5134 19D8  
                                 i2l5126 19CC                                   i2l5118 199C  
                                 i2l5230 0F94                                   i2l5222 0F6E  
                                 i2l5214 0F34                                   i2l5206 0F12  
                                 i2l4440 1E00                                   i2l4432 1DA8  
                                 i2l4424 1D78                                   i2l4416 1D4C  
                                 i2l4360 0BEC                                   i2l4352 0B9C  
                                 i2l4344 0B42                                   i2l4336 0AFE  
                                 i2l4328 0A8E                                   i2l4280 08B4  
                                 i2l4272 26B0                                   i2l4264 265C  
                                 i2l4256 25F0                                   i2l4248 25AA  
                                 i2l4096 1424                                   i2l4192 2A34  
                                 i2l4176 29C4                                   i2l4168 2BE6  
                                 i2l4408 20EA                                   i2l4600 2E94  
                                 i2l5160 1A7A                                   i2l5152 1A5A  
                                 i2l5136 19DC                                   i2l5128 19CE  
                                 i2l5240 0FC6                                   i2l5224 0F72  
                                 i2l5216 0F42                                   i2l5232 0F98  
                                 i2l5208 0F14                                   i2l4450 1E5C  
                                 i2l4442 1E10                                   i2l4434 1DBA  
                                 i2l4426 1D90                                   i2l4418 1D64  
                                 i2l4610 2F74                                   i2l4602 2F22  
                                 i2l4362 0C02                                   i2l4354 0BB4  
                                 i2l4346 0B4C                                   i2l4338 0B0A  
                                 i2l4290 08FA                                   i2l4282 08C6  
                                 i2l4274 26B2                                   i2l4258 2612  
                                 i2l4098 147C                                   i2l1778 1538  
                                 i2l4194 2A50                                   i2l4186 2A02  
                                 i2l4178 29FC                                   i2l4370 1FF6  
                                 i2l5170 1A92                                   i2l5162 1A84  
                                 i2l5154 1A5C                                   i2l5146 1A0A  
                                 i2l5138 19E4                                   i2l5250 1016  
                                 i2l5242 0FD4                                   i2l5234 0FA6  
                                 i2l5226 0F82                                   i2l5218 0F50  
                                 i2l4620 27E0                                   i2l4452 1E68  
                                 i2l4444 1E1C                                   i2l4436 1DDE  
                                 i2l4428 1D94                                   i2l4612 2F80  
                                 i2l4604 2F34                                   i2l4356 0BC0  
                                 i2l4348 0B5A                                   i2l4292 090E  
                                 i2l4284 08DA                                   i2l4268 2664  
                                 i2l4196 2A52                                   i2l4188 2A22  
                                 i2l4380 2036                                   i2l4372 1FFA  
                                 i2l4364 1FC2                                   i2l5172 1AA2  
                                 i2l5164 1A88                                   i2l5156 1A6C  
                                 i2l5148 1A3A                                   i2l5260 1036  
                                 i2l5244 0FEE                                   i2l5236 0FB4  
                                 i2l5228 0F84                                   i2l5180 0EAA  
                                 i2l4622 27F2                                   i2l4630 2816  
                                 i2l4454 1E6A                                   i2l4438 1DF4  
                                 i2l4446 1E2C                                   i2l4614 2F90  
                                 i2l4606 2F3C                                   i2l3910 2CD0  
                                 i2l4358 0BE0                                   i2l4294 0922  
                                 i2l4286 08DE                                   i2l4198 2A5C  
                                 i2l4470 23B6                                   i2l4462 2394  
                                 i2l4390 208A                                   i2l4382 204E  
                                 i2l4374 1FFE                                   i2l4366 1FD4  
                                 i2l5174 1AA8                                   i2l5166 1A8C  
                                 i2l5158 1A76                                   i2l5270 107A  
                                 i2l5262 1038                                   i2l5246 0FF2  
                                 i2l5238 0FB8                                   i2l5190 0ED2  
                                 i2l5182 0EAE                                   i2l4640 285E  
                                 i2l4632 2826                                   i2l4624 27FA  
                                 i2l4616 27C4                                   i2l4456 1E7A  
                                 i2l4448 1E50                                   i2l4608 2F50  
                                 i2l3920 2D58                                   i2l3912 2D0A  
                                 i2l4296 0936                                   i2l4288 08F2  
                                 i2l4480 23D2                                   i2l4472 23B8  
                                 i2l4464 239C                                   i2l4392 208E  
                                 i2l4384 206E                                   i2l4368 1FE2  
                                 i2l4376 2006                                   i2l5168 1A8E  
                                 i2l5272 1082                                   i2l5264 1046  
                                 i2l5256 1028                                   i2l5248 1002  
                                 i2l5192 0ED4                                   i2l5184 0EB0  
                                 i2l5176 0E8C                                   i2l4650 28A6  
                                 i2l4642 286E                                   i2l4634 283C  
                                 i2l4626 280A                                   i2l4618 27D6  
                                 i2l3922 2D62                                   i2l3914 2D14  
                                 i2l3930 3124                                   i2l4298 094C  
                                 i2l4490 2406                                   i2l4482 23E0  
                                 i2l4474 23BC                                   i2l4466 23A4  
                                 i2l4458 2374                                   i2l4394 209E  
                                 i2l4386 2082                                   i2l4378 202A  
                                 i2l4570 30D0                                   i2l5274 109E  
                                 i2l5266 105A                                   i2l5258 102C  
                                 i2l5194 0ED8                                   i2l5178 0E9C  
                                 i2l5186 0EB6                                   i2l4652 28C6  
                                 i2l4644 287E                                   i2l4636 2840  
                                 i2l4628 2812                                   i2l3916 2D24  
                                 i2l3908 2CC8                                   i2l3932 312E  
                                 i2l3924 30FE                                   i2l3940 2132  
                                 i2l4484 23E2                                   i2l4476 23C2  
                                 i2l4468 23AC                                   i2l4388 2086  
                                 i2l4396 20A6                                   i2l4580 2E2E  
                                 i2l4572 30DC                                   i2l4564 30AC  
                                 i2l4820 31F0                                   i2l5276 10A0  
                                 i2l5268 106A                                   i2l5196 0EE6  
                                 i2l5188 0EC4                                   i2l4654 28C8  
                                 i2l4646 288A                                   i2l4638 2852  
                                 i2l3918 2D40                                   i2l3934 313A  
                                 i2l3926 310C                                   i2l3950 218C  
                                 i2l3942 214A                                   i2l4486 23E6  
                                 i2l4478 23CA                                   i2l4494 2426  
                                 i2l4398 20AA                                   i2l4590 2E60  
                                 i2l4582 2E3A                                   i2l4566 30C0  
                                 i2l4574 30E0                                   i2l4830 32E8  
                                 i2l4822 31F6                                   i2l4814 31CC  
                                 i2l5198 0EFA                                   i2l5550 0056  
                                 i2l4648 289A                                   i2l3928 3116  
                                 i2l3960 21FE                                   i2l3952 2198  
                                 i2l3944 215C                                   i2l3936 2106  
                                 i2l6520 243A                                   i2l4488 23F0  
                                 i2l4592 2E68                                   i2l4584 2E46  
                                 i2l4576 2E0A                                   i2l4568 30CC  
                                 i2l4840 3284                                   i2l4832 32EA  
                                 i2l4824 31F8                                   i2l4816 31D2  
                                 i2l5552 0064                                   i2l3962 2238  
                                 i2l3954 21A4                                   i2l3938 2116  
                                 i2l3970 2FC2                                   i2l6530 2794  
                                 i2l6522 267A                                   i2l4594 2E6C  
                                 i2l4586 2E50                                   i2l4578 2E22  
                                 i2l4842 3290                                   i2l4850 2FFA  
                                 i2l4834 32EC                                   i2l4826 3206  
                                 i2l4818 31EE                                   i2l5546 003A  
                                 i2l3956 21B0                                   i2l3948 2168  
                                 i2l3972 2FCC                                   i2l6524 168E  
                                 i2l4596 2E74                                   i2l4588 2E5C  
                                 i2l4844 32A2                                   i2l4860 3054  
                                 i2l4852 3008                                   i2l4836 32F2  
                                 i2l4828 32E6                                   i2l5548 0048  
                                 i2l3958 21C0                                   i2l3974 2FEA  
                                 i2l3966 2F96                                   i2l3982 26D2  
                                 i2l6526 2ECC                                   i2l4598 2E78  
                                 i2l4870 2AE8                                   i2l4862 2AAA  
                                 i2l4846 32A4                                   i2l4854 3022  
                                 i2l4838 32F6                                   i2l3976 2FF4  
                                 i2l3968 2FB8                                   i2l3992 2710  
                                 i2l6528 2F12                                   i2l4872 2AF2  
                                 i2l4880 2B48                                   i2l4864 2AAE  
                                 i2l4848 32B4                                   i2l4856 303C  
                                 i2l3994 271A                                   i2l3986 26EC  
                                 i2l3978 26B8                                   i2l4882 2B5C  
                                 i2l4874 2B10                                   i2l4866 2AC4  
                                 i2l4858 3048                                   i2l3996 2722  
                                 i2l3988 26FC                                   i2l4876 2B38  
                                 i2l4868 2AE0                                   i2l3998 2724  
                                 i2l4878 2B40                                   _TABLAT 000FF5  
                                 _OSCCON 000FD3                                ??_FilaPop 00C1  
                          CDCTxService@i 00C0                         ?_CCP2_Initialize 0001  
               i2USBTransferOnePacket@ep 0009                        ??i2_USBDeviceInit 000D  
                      _shortPacketStatus 004F                          USBDeviceTasks@i 001F  
            USBStdFeatureReqHandler@pUEP 0017                 USBTransferOnePacket@data 00B6  
             USBCtrlTrfInHandler@lastDTS 0002                           ?___expand_heap 00B5  
                        ??_USBDeviceInit 00C1                  ___simple_search_fl@best 00C7  
                ___simple_search_fl@last 00C1                             ?_putUSBUSART 00B5  
                ___simple_search_fl@next 00C3                        _USBEnableEndpoint 30FC  
                                 _malloc 1AAE                                   _memcpy 30AC  
                       ?_TMR0_Initialize 0001                                   _memset 124C  
                                 clear_0 3252                                   clear_1 3264  
                                 clear_2 3270                                   isa$std 000001  
                     ?_USBEnableEndpoint 0009                                   _strcpy 318A  
                                 _strlen 305A                             _CDCTxService 10B4  
                           __mediumconst 0000                                   tblptrh 000FF7  
                                 tblptrl 000FF6                                   tblptru 000FF8  
                    ??_USBEnableEndpoint 000A                              _CtrlTrfData 000438  
                   _controlTransferState 004E                         ?_TMR1_Initialize 0001  
                      _SYSTEM_Initialize 32B8                               __accesstop 0060  
                __end_of__initialization 3276                       ?_SYSTEM_Initialize 0001  
                      __end_of_Fila_Init 324A                            ___rparam_used 000001  
                             ___freelist 0034                           __pcstackCOMRAM 0001  
              __end_of_USBEnableEndpoint 3148                            __end_of_sd000 08AC  
                          __end_of_sd001 0880                            __end_of_sd002 0896  
                    ??_SYSTEM_Initialize 00C2              __end_of_USBCtrlTrfInHandler 28CE  
                       ?_TMR2_Initialize 0001                             _Fila_Agregar 2242  
                 i2_USBTransferOnePacket 2104                         Fila_Agregar@fila 00D5  
                             _cdc_notice 0060                                ?i2_memset 0001  
                             _cdc_rx_len 0044                               _cdc_tx_len 00A3  
               ??_USBCtrlTrfSetupHandler 001E                  _USBTicksSinceSuspendEnd 00A4  
                    MCC_USB_WRITE@nBytes 00C4                         ?_USBDeviceAttach 0001  
              __end_of_SYSTEM_Initialize 32E6               __end_of___simple_search_fl 0E8C  
                 _USBStdGetStatusHandler 25AA                               __pbssBANK0 0060  
                             __pbssBANK1 0100                         ?_TMR3_Initialize 0001  
                            _pBDTEntryIn 0078                          ??___expand_heap 00B7  
       __end_of_USBCtrlEPServiceComplete 2104                     USBCtrlTrfRxService@i 0001  
                    Fila_Agregar@comando 00D7                                  _CCP2CON 000F97  
                                ?_malloc 00C9                                  ?_memcpy 0001  
                                ?_memset 00B5                               _device_dsc 0896  
                       _USBCtrlEPService 2AAA                               _ep_data_in 0095  
                                ?_strcpy 00B5                                  ?_strlen 00B5  
            __end_of_USBCtrlTrfRxService 1E80                       _USBCheckStdRequest 2374  
                      _configDescriptor1 0809                               ??i2_memset 0007  
            __end_of_USBCtrlTrfTxService 25AA                      _USBStdSetCfgHandler 29C0  
                                _OSCCON2 000FD2                                  _TBLPTRH 000FF7  
                                _TBLPTRL 000FF6                                  _TBLPTRU 000FF8  
                                _OSCTUNE 000F9B                      ?_USBCheckStdRequest 0001  
                                _UIEbits 000F64                                  _UIRbits 000F65  
                          _cdc_trf_state 0043                                  _FilaPop 1BF8  
                                _pCDCDst 008C                                  _pCDCSrc 008F  
                   _ADC_InterruptHandler 009C                                  __Hparam 0000  
        ??_USBIncrement1msInternalTimers 0001                     ?_USBStdSetCfgHandler 0001  
                              _CDCInitEP 2F96                                  __Lparam 0000  
                   ___simple_search_fl@c 00C5                     ___simple_search_fl@n 00B5  
                             _readBuffer 01C0                     ??_USBCheckStdRequest 001C  
                       ??_USBDeviceTasks 001F                        ??_USBStallHandler 0001  
                           __psmallconst 0800                 ___simple_search_fl@split 00BF  
                                __pcinit 324A                __end_of_configDescriptor1 084C  
                                __ramtop 0800                                  __ptext0 2D72  
                                __ptext1 305A                                  __ptext2 32B8  
                                __ptext3 1816                                  __ptext4 124C  
                                __ptext5 3148                                  __ptext6 336A  
                                __ptext7 3404                                  __ptext8 3386  
                                __ptext9 33CE                             i2memset@dest 0001  
                                _inPipes 0072              _USBDeferOUTDataStagePackets 0045  
                              _T0CONbits 000FD5                                _T1CONbits 000FCD  
                  _OSCILLATOR_Initialize 33E0                             ??_USBSuspend 0015  
                              _T2CONbits 000FBA                                _T3CONbits 000FB1  
               ??_PIN_MANAGER_Initialize 00B5                          i2_USBDeviceInit 1962  
                       i2USBDeviceInit@i 000D                       __end_of_USB_CD_Ptr 0809  
                                free@ptr 00B5                     end_of_initialization 3276  
                                malloc@m 00CD                                  malloc@n 00C9  
                                malloc@p 00D1                       __end_of_USB_SD_Ptr 0807  
                 ___expand_heap@new_brkp 00BB                                  memcpy@d 0007  
                                memcpy@n 0005                            Fila_Init@fila 00B5  
                                memcpy@s 0009                      _pBDTEntryEP0OutNext 003C  
                                memset@c 00B7                                  memset@k 00BD  
                                memset@n 00B9                                  memset@s 00BF  
                          __Lmediumconst 0000                          _USB1msTickCount 002C  
        _dummy_encapsulated_cmd_response 00A6                 ?_USBStdFeatureReqHandler 0001  
                  ??_USBStdSetCfgHandler 0015                               ?_CDCInitEP 0001  
                     __end_of_USBSuspend 3314                  _USBCtrlEPAllowDataStage 2B62  
                                postdec1 000FE5                                  postdec2 000FDD  
                                postinc0 000FEE                                  postinc1 000FE6  
                                postinc2 000FDE                 _USBCtrlEPServiceComplete 1FC2  
                                strcpy@d 00BB                                  strlen@a 00B7  
                                strcpy@s 00B9                                  strlen@s 00B5  
             _USBStatusStageEnabledFlag1 0048               _USBStatusStageEnabledFlag2 0047  
                     USBEnableEndpoint@p 000A                       _BothEP0OutUOWNsSet 004B  
              USBConfigureEndpoint@EPNum 0006               ?_USBCtrlEPAllowStatusStage 0001  
    USER_USB_CALLBACK_EVENT_HANDLER@size 0011                                _USTATcopy 0053  
                  __end_of_MCC_USB_WRITE 33CE             __end_of_USBTransferOnePacket 1FC2  
                      putUSBUSART@length 00B7                                _Fila_Init 320E  
                 _USBCtrlTrfSetupHandler 2E0A             __end_of_INTERRUPT_Initialize 3416  
                ?i2_USBTransferOnePacket 0001                    __end_of_USBDeviceInit 1962  
  __end_of_USBIncrement1msInternalTimers 32B8            _USBIncrement1msInternalTimers 3284  
                __end_ofi2_USBDeviceInit 1AAE                           _ADC_Initialize 33A2  
                         __end_of_malloc 1BF8                                i2memset@c 0003  
                              i2memset@k 0009                                i2memset@n 0005  
                              i2memset@s 000B                           __end_of_memcpy 30FC  
                 ?_OSCILLATOR_Initialize 0001                           __end_of_memset 13C4  
                      _USBBusIsSuspended 00A5                          ___expand_heap@n 00B9  
                         __end_of_strcpy 31CC                           __end_of_strlen 30AC  
                    start_initialization 324A                  ?_USBStdGetStatusHandler 0001  
          USBCtrlTrfRxService@byteToRead 0002                               malloc@lock 0084  
                            _cdc_data_rx 000540                              _cdc_data_tx 000500  
           __end_of_USBConfigureEndpoint 2D72          __end_of_USBStdFeatureReqHandler 0C10  
      __end_of_USBCtrlEPAllowStatusStage 29C0                 __end_of_USBCtrlEPService 2B62  
                      Fila_Agregar@nuevo 00DD                ??_USBCtrlEPAllowDataStage 0002  
                            ??_CDCInitEP 000D                           USBDeviceInit@i 00C1  
                 _pBDTEntryEP0OutCurrent 003E                       ___simple_search_fl 0C10  
                USBTransferOnePacket@dir 00B5                  USBTransferOnePacket@len 00B8  
         __end_ofi2_USBTransferOnePacket 2242                               ?_Fila_Init 00B5  
           ___simple_search_fl@best_last 00BD                      _USBStdGetDscHandler 153A  
                            _CCPTMRSbits 000F59                   __end_of_ADC_Initialize 33B8  
                               ??_malloc 00CB                                 ??_memcpy 0007  
                               ??_memset 00BB                      ?___simple_search_fl 00B5  
                             memset@dest 00B5                                 ??_strcpy 00B9  
                               ??_strlen 00B7                   _USBActiveConfiguration 0054  
         __end_of_USBStdGetStatusHandler 26B8                                ___heap_hi 0800  
                              ___heap_lo 0580                              __pbssCOMRAM 002C  
                          __pcstackBANK0 00B5                     ?_USBStdGetDscHandler 0001  
                   ??___simple_search_fl 00B7               __end_of_USBWakeFromSuspend 320E  
                               ?_FilaPop 00BF                          _USBStallHandler 2FFA  
                           _pBDTEntryOut 007E               __end_of_USBCheckCDCRequest 27C4  
                 _PIN_MANAGER_Initialize 3340                    __end_of___expand_heap 2CC6  
                              __pintcode 0008                          ?_ADC_Initialize 0001  
           ??_INTERRUPT_InterruptManager 0020                         ?i2_USBDeviceInit 0001  
                  _readBuffer@main$F3496 0140                     _USBTransferOnePacket 1E80  
                            __smallconst 0800                        ??_CCP2_Initialize 00B5  
           __end_of_USBCtrlTrfOutHandler 2F96                    ??_USBStdGetDscHandler 0001  
                            _ep_data_out 0092            USBConfigureEndpoint@direction 0001  
                   _INTERRUPT_Initialize 3412                        ??_TMR0_Initialize 00B5  
             ??_USBCtrlEPServiceComplete 0002                                 _IPR3bits 000FA5  
                               _PIE3bits 000FA3                             FilaPop@viejo 00C7  
                               i2u310_40 287E                                 i2u222_40 2D24  
                               i2u230_40 26FC                                 i2u310_41 287A  
                               i2u222_41 2D20                                 i2u230_41 26F8  
                               i2u311_40 28C6                                 i2u223_40 310C  
                               i2u231_40 270C                                 i2u303_40 30FA  
                               i2u311_41 28C2                                 i2u223_41 3108  
                               i2u231_41 2708                                 i2u303_41 30F6  
                               i2u232_40 24B6                                 i2u304_40 2F34  
                               i2u224_40 3124                                 i2u240_40 13DE  
                               i2u232_41 24B2                                 i2u304_41 2F30  
                               i2u224_41 3120                                 i2u240_41 13DA  
                               i2u233_40 24CA                                 i2u305_40 2F50  
                               i2u225_40 2116                                 i2u241_40 1420  
                               i2u233_41 24C6                                 i2u305_41 2F4C  
                               i2u225_41 2112                                 i2u241_41 141C  
                               i2u234_40 24E2                                 i2u306_40 27F2  
                               i2u226_40 215C                                 i2u242_40 1492  
                               i2u250_40 2BDA                                 i2u330_40 32A2  
                               i2u234_41 24DE                                 i2u306_41 27EE  
                               i2u226_41 2158                                 i2u242_41 148E  
                               i2u250_41 2BD6                                 i2u330_41 329E  
                               i2u235_40 2514                                 i2u307_40 280A  
                               i2u227_40 21C0                                 i2u243_40 14D8  
                               i2u251_40 2A34                                 i2u331_40 32B4  
                               i2u235_41 2510                                 i2u307_41 2806  
                               i2u227_41 21BC                                 i2u243_41 14D4  
                               i2u251_41 2A30                                 i2u331_41 32B0  
                               i2u236_40 2540                                 i2u308_40 2826  
                               i2u228_40 26CE                                 i2u260_40 25F0  
                               i2u244_40 1538                                 i2u252_40 2A80  
                               i2u332_40 3008                                 i2u420_40 0064  
                               i2u308_41 2822                                 i2u228_41 26CA  
                               i2u260_41 25EC                                 i2u244_41 1534  
                               i2u252_41 2A7C                                 i2u332_41 3004  
                               i2u420_41 0060                                 i2u236_47 2536  
                               i2u237_40 255E                                 i2u309_40 2852  
                               i2u245_40 28DE                                 i2u229_40 26E8  
                               i2u253_40 154E                                 i2u261_40 2646  
                               i2u333_40 3022                                 i2u237_41 255A  
                               i2u309_41 284E                                 i2u245_41 28DA  
                               i2u229_41 26E4                                 i2u253_41 154A  
                               i2u261_41 2642                                 i2u333_41 301E  
                               i2u238_40 258A                                 i2u246_40 28F2  
                               i2u270_40 094C                                 i2u254_40 157E  
                               i2u262_40 265C                                 i2u334_40 303C  
                               i2u246_41 28EE                                 i2u270_41 0948  
                               i2u254_41 157A                                 i2u262_41 2658  
                               i2u334_41 3038                                 i2u238_47 2580  
                               i2u239_40 25A8                                 i2u247_40 2908  
                               i2u271_40 095E                                 i2u255_40 15C8  
                               i2u263_40 26A8                                 i2u335_40 2AC4  
                               i2u239_41 25A4                                 i2u247_41 2904  
                               i2u271_41 095A                                 i2u263_41 26A4  
                               i2u335_41 2AC0                                 i2u255_47 15BE  
                               i2u248_40 2946                                 i2u280_40 0B70  
                               i2u272_40 0972                                 i2u264_40 08C6  
                               i2u256_40 15F8                                 i2u336_40 2B10  
                               i2u248_41 2942                                 i2u280_41 0B6C  
                               i2u272_41 096E                                 i2u264_41 08C2  
                               i2u336_41 2B0C                                 i2u256_47 15EE  
                               i2u281_40 0B80                                 i2u273_40 09F0  
                               i2u265_40 08DA                                 i2u257_40 161A  
                               i2u249_40 2B7C                                 i2u337_40 2B5C  
                               i2u329_40 3206                                 i2u281_41 0B7C  
                               i2u273_41 09EC                                 i2u265_41 08D6  
                               i2u257_41 1616                                 i2u249_41 2B78  
                               i2u337_41 2B58                                 i2u329_41 3202  
                               _PIR1bits 000F9E                                 i2u290_40 1DA8  
                               i2u274_40 0A18                                 i2u266_40 08F2  
                               i2u258_40 1656                                 i2u282_40 1FD4  
                               i2u370_40 0ED2                                 i2u418_40 0048  
                               i2u290_41 1DA4                                 i2u274_41 0A14  
                               i2u266_41 08EE                                 i2u282_41 1FD0  
                               i2u370_41 0ECE                                 i2u418_41 0044  
                               i2u258_47 164C                                 i2u291_40 1DBA  
                               i2u275_40 0A6A                                 i2u267_40 090E  
                               i2u259_40 25CC                                 i2u283_40 1FE2  
                               i2u371_40 0EE6                                 i2u419_40 0056  
                               i2u291_41 1DB6                                 i2u275_41 0A66  
                               i2u267_41 090A                                 i2u259_41 25C8  
                               i2u283_41 1FDE                                 i2u371_41 0EE2  
                               i2u419_41 0052                                 _PIR2bits 000FA1  
                               i2u292_40 1DF4                                 i2u276_40 0A80  
                               i2u268_40 0922                                 i2u284_40 1FF6  
                               i2u364_40 19C6                                 i2u380_40 0FA6  
                               i2u372_40 0EFA                                 i2u292_41 1DF0  
                               i2u276_41 0A7C                                 i2u268_41 091E  
                               i2u284_41 1FF2                                 i2u364_41 19C2  
                               i2u380_41 0FA2                                 i2u372_41 0EF6  
                               i2u293_40 1E7A                                 i2u277_40 0A8E  
                               i2u269_40 0936                                 i2u285_40 206E  
                               i2u365_40 19F2                                 i2u381_40 0FB4  
                               i2u373_40 0F08                                 i2u293_41 1E76  
                               i2u277_41 0A8A                                 i2u269_41 0932  
                               i2u285_41 206A                                 i2u365_41 19EE  
                               i2u381_41 0FB0                                 i2u373_41 0F04  
                               _PIR3bits 000FA4                                 i2u278_40 0AFE  
                               i2u294_40 238C                                 i2u286_40 2082  
                               i2u366_40 1A6C                                 i2u382_40 0FC6  
                               i2u374_40 0F22                                 i2u278_41 0AFA  
                               i2u294_41 2388                                 i2u286_41 207E  
                               i2u366_41 1A68                                 i2u382_41 0FC2  
                               i2u374_41 0F1E                                 FilaPop@r 00C5  
                               i2u279_40 0B5A                                 i2u287_40 209E  
                               i2u383_40 0FD4                                 i2u375_40 0F30  
                               i2u367_40 0E9C                                 i2u279_41 0B56  
                               i2u287_41 209A                                 i2u383_41 0FD0  
                               i2u375_41 0F2C                                 i2u367_41 0E98  
                               i2u288_40 20FE                                 i2u384_40 1002  
                               i2u376_40 0F42                                 i2u368_40 0EAA  
                               i2u288_41 20FA                                 i2u384_41 0FFE  
                               i2u376_41 0F3E                                 i2u368_41 0EA6  
                               i2u289_40 1D64                                 i2u385_40 1016  
                               i2u377_40 0F50                                 i2u369_40 0EC4  
                               i2u289_41 1D60                                 i2u385_41 1012  
                               i2u377_41 0F4C                                 i2u369_41 0EC0  
                               i2u386_40 1028                                 i2u378_40 0F82  
                               i2u386_41 1024                                 i2u378_41 0F7E  
                               i2u387_40 1046                                 i2u379_40 0F94  
                               i2u387_41 1042                                 i2u379_41 0F90  
                               i2u388_40 107A                                 i2u388_41 1076  
                               i2u389_40 10B0                                 i2u389_41 10AC  
                               _RCONbits 000FD0                              ??_Fila_Init 00B7  
                          ??_putUSBUSART 00B8                                 _UEP0bits 000F6A  
             _USBDeferINDataStagePackets 0046                   _writeBuffer@main$F3497 0100  
                               _UCONbits 000F60                     _USBConfigureEndpoint 2CC6  
                      ??_TMR1_Initialize 00B5                               _ADCON0bits 000FC2  
                  ?_USBTransferOnePacket 00B5                            ?_CDCTxService 0001  
                           _RemoteWakeup 004D                                 i2_memset 13C4  
                __end_of_USBStallHandler 305A                              _INTCON2bits 000FF1  
                  ?_INTERRUPT_Initialize 0001              ??_USBCtrlEPAllowStatusStage 0001  
            __end_of_USBStdSetCfgHandler 2AAA                                malloc@end 009A  
                              malloc@cur 0032                                malloc@new 00D3  
                      ??_TMR2_Initialize 00B5                       __end_of_device_dsc 08A8  
                             _EECON1bits 000FA6                  ?_USBCtrlTrfSetupHandler 0001  
                USBStdGetStatusHandler@p 0003                                 __Hrparam 0000  
                              memcpy@tmp 000B                                 __Lrparam 0000  
                 USBTransferOnePacket@ep 00BD                                 _SetupPkt 000430  
                ??_OSCILLATOR_Initialize 00B5                    ?_USBConfigureEndpoint 0001  
                      ??_USBDeviceAttach 00B5                            ?_Fila_Agregar 00D5  
                      ??_TMR3_Initialize 00B5                      __end_of_putUSBUSART 3340  
                            _line_coding 00AE                           ??_CDCTxService 00C0  
                           _numBytesRead 0040                                 __ptext10 3340  
                               __ptext11 33E0                                 __ptext20 2242  
                               __ptext12 3412                                 __ptext21 318A  
                               __ptext13 33F2                               _T1GCONbits 000FCC  
                               __ptext30 31CC                                 __ptext22 1AAE  
                               __ptext14 33A2                                 __ptext31 32E6  
                               __ptext23 0C10                                 __ptext15 33B8  
                               __ptext40 29C0                                 __ptext32 2FFA  
                               __ptext24 2C16                                 __ptext16 3314  
                               __ptext41 13C4                                 __ptext33 3284  
                               __ptext25 1BF8                                 __ptext17 10B4  
                               __ptext50 2CC6                                 __ptext42 25AA  
                               __ptext34 2AAA                                 __ptext26 16AE  
                               __ptext18 1E80                                 __ptext51 2F22  
                               __ptext43 153A                                 __ptext35 30AC  
                               __ptext19 320E                                 __ptext52 1D3C  
                               __ptext44 08B4                                 __ptext36 2E0A  
                               __ptext28 0E8C                                 __ptext53 28CE  
                               __ptext45 2E9A                                 __ptext37 1FC2  
                               __ptext29 1962                                 __ptext54 27C4  
                               __ptext46 26B8                                 __ptext38 2B62  
                               __ptext55 249A                                 __ptext47 2F96  
                               __ptext39 2374                                 __ptext48 2104  
                               __ptext49 30FC                               _T3GCONbits 000FB4  
                             strcpy@dest 00B5           __end_of_USBCtrlTrfSetupHandler 2E9A  
                      ?_USBCtrlEPService 0001                       ??_USBCtrlEPService 001E  
                            FilaPop@fila 00BF                      _USBCtrlTrfInHandler 27C4  
                               isa$xinst 000000                                 _outPipes 006A  
                   _USBCtrlTrfOutHandler 2F22                                 int$flags 0055  
              _USBCtrlEPAllowStatusStage 28CE                                 free@cptr 00BB  
     __end_of_INTERRUPT_InterruptManager 009C               _INTERRUPT_InterruptManager 0008  
                         ??_Fila_Agregar 00DB                                 main@send 00E1  
                 ??_USBTransferOnePacket 00B9                _USBDeferStatusStagePacket 0049  
               CDCTxService@byte_to_send 00C1                                 malloc@sz 00CF  
                             _INTCONbits 000FF2                     ?_USBCtrlTrfInHandler 0001  
                               memcpy@d1 0001                                 memcpy@s1 0003  
      ___simple_search_fl@remaining_size 00BB            USBCtrlTrfTxService@byteToSend 0001  
                 ??_INTERRUPT_Initialize 00B5                         ?_USBStallHandler 0001  
               USBStdFeatureReqHandler@p 001A                                 intlevel2 0000  
                       MCC_USB_WRITE@str 00C2  __end_of_USER_USB_CALLBACK_EVENT_HANDLER 2F22  
      ??_USER_USB_CALLBACK_EVENT_HANDLER 0013         ?_USER_USB_CALLBACK_EVENT_HANDLER 000D  
        _USER_USB_CALLBACK_EVENT_HANDLER 2E9A             i2USBTransferOnePacket@handle 000A  
                ?_PIN_MANAGER_Initialize 0001                                strcpy@src 00B7  
                       ??_ADC_Initialize 00B5               i2USBTransferOnePacket@data 0002  
                        _CCP2_Initialize 33F2                   ??_USBConfigureEndpoint 0002  
                  ?_USBCtrlTrfOutHandler 0001                              _putUSBUSART 3314  
                    _USBCtrlTrfRxService 1D3C                       _USBWakeFromSuspend 31CC  
                _USBStdFeatureReqHandler 08B4                       _USBCheckCDCRequest 26B8  
                    _USBCtrlTrfTxService 249A                      ?_USBWakeFromSuspend 0001  
                        _TMR0_Initialize 33CE                    ??_USBCtrlTrfInHandler 0002  
                  _USBAlternateInterface 0051                      ?_USBCheckCDCRequest 0001  
              i2USBTransferOnePacket@dir 0001                i2USBTransferOnePacket@len 0004  
                    USBEnableEndpoint@ep 000C                          _endpoint_number 004C  
                   ?_USBCtrlTrfRxService 0001           __end_of_PIN_MANAGER_Initialize 336A  
               ?_USBCtrlEPAllowDataStage 0001                     ?_USBCtrlTrfTxService 0001  
                          _MCC_USB_WRITE 33B8             _USBStatusStageTimeoutCounter 004A  
                   ??_USBWakeFromSuspend 0015               USBTransferOnePacket@handle 00BE  
                   __end_of_CDCTxService 124C                          _TMR1_Initialize 3386  
                   ??_USBCheckCDCRequest 0001                               _USB_CD_Ptr 0807  
