

Microchip MPLAB XC8 Assembler V2.36 build 20220127204148 
                                                                                               Thu Sep 15 11:09:43 2022

Microchip MPLAB XC8 C Compiler v2.36 (Free license) build 20220127204148 Og9 
     1                           	processor	18F25K50
     2                           	fnconf	rparam,??,?,0
     3                           	pagewidth 120
     4                           	opt	flic
     5                           	psect	idataBANK1,global,class=CODE,delta=1,noexec
     6                           	psect	smallconst,global,reloc=2,class=SMALLCONST,delta=1,noexec
     7                           	psect	cinit,global,reloc=2,class=CODE,delta=1
     8                           	psect	bssCOMRAM,global,class=COMRAM,space=1,delta=1,lowdata,noexec
     9                           	psect	bssBANK0,global,class=BANK0,space=1,delta=1,lowdata,noexec
    10                           	psect	bssBANK1,global,class=BANK1,space=1,delta=1,lowdata,noexec
    11                           	psect	dataBANK1,global,class=BANK1,space=1,delta=1,lowdata,noexec
    12                           	psect	bssBANK2,global,class=BANK2,space=1,delta=1,lowdata,noexec
    13                           	psect	bssBANK3,global,class=BANK3,space=1,delta=1,lowdata,noexec
    14                           	psect	bssBANK6,global,class=BANK6,space=1,delta=1,lowdata,noexec
    15                           	psect	cstackBANK1,global,class=BANK1,space=1,delta=1,lowdata,noexec
    16                           	psect	cstackBANK0,global,class=BANK0,space=1,delta=1,lowdata,noexec
    17                           	psect	cstackCOMRAM,global,class=COMRAM,space=1,delta=1,lowdata,noexec
    18                           	psect	text0,global,reloc=2,class=CODE,delta=1
    19                           	psect	text1,global,reloc=2,class=CODE,delta=1,group=3
    20                           	psect	text2,global,reloc=2,class=CODE,delta=1,group=1
    21                           	psect	text3,global,reloc=2,class=CODE,delta=1,group=1
    22                           	psect	text4,global,reloc=2,class=CODE,delta=1,group=3
    23                           	psect	text5,global,reloc=2,class=CODE,delta=1,group=1
    24                           	psect	text6,global,reloc=2,class=CODE,delta=1,group=1
    25                           	psect	text7,global,reloc=2,class=CODE,delta=1,group=1
    26                           	psect	text8,global,reloc=2,class=CODE,delta=1,group=3
    27                           	psect	text9,global,reloc=2,class=CODE,delta=1,group=3
    28                           	psect	text10,global,reloc=2,class=CODE,delta=1,group=3
    29                           	psect	text11,global,reloc=2,class=CODE,delta=1,group=3
    30                           	psect	text12,global,reloc=2,class=CODE,delta=1,group=3
    31                           	psect	text13,global,reloc=2,class=CODE,delta=1,group=2
    32                           	psect	text14,global,reloc=2,class=CODE,delta=1,group=2
    33                           	psect	text15,global,reloc=2,class=CODE,delta=1
    34                           	psect	text16,global,reloc=2,class=CODE,delta=1
    35                           	psect	text17,global,reloc=2,class=CODE,delta=1
    36                           	psect	text18,global,reloc=2,class=CODE,delta=1
    37                           	psect	text19,global,reloc=2,class=CODE,delta=1,group=3
    38                           	psect	text20,global,reloc=2,class=CODE,delta=1
    39                           	psect	text21,global,reloc=2,class=CODE,delta=1
    40                           	psect	text22,global,reloc=2,class=CODE,delta=1
    41                           	psect	text23,global,reloc=2,class=CODE,delta=1
    42                           	psect	text24,global,reloc=2,class=CODE,delta=1
    43                           	psect	text25,global,reloc=2,class=CODE,delta=1
    44                           	psect	text26,global,reloc=2,class=CODE,delta=1
    45                           	psect	text27,global,reloc=2,class=CODE,delta=1
    46                           	psect	text28,global,reloc=2,class=CODE,delta=1
    47                           	psect	text29,global,reloc=2,class=CODE,delta=1
    48                           	psect	text30,global,reloc=2,class=CODE,delta=1
    49                           	psect	text31,global,reloc=2,class=CODE,delta=1
    50                           	psect	text32,global,reloc=2,class=CODE,delta=1
    51                           	psect	text33,global,reloc=2,class=CODE,delta=1
    52                           	psect	text34,global,reloc=2,class=CODE,delta=1
    53                           	psect	text35,global,reloc=2,class=CODE,delta=1,group=3
    54                           	psect	text36,global,reloc=2,class=CODE,delta=1,group=3
    55                           	psect	text37,global,reloc=2,class=CODE,delta=1,group=3
    56                           	psect	text38,global,reloc=2,class=CODE,delta=1
    57                           	psect	text39,global,reloc=2,class=CODE,delta=1,group=3
    58                           	psect	text40,global,reloc=2,class=CODE,delta=1,group=3
    59                           	psect	text41,global,reloc=2,class=CODE,delta=1
    60                           	psect	text42,global,reloc=2,class=CODE,delta=1
    61                           	psect	intcode,global,reloc=2,class=CODE,delta=1
    62                           	psect	text44,global,reloc=2,class=CODE,delta=1
    63                           	psect	text45,global,reloc=2,class=CODE,delta=1
    64                           	psect	text46,global,reloc=2,class=CODE,delta=1
    65                           	psect	text47,global,reloc=2,class=CODE,delta=1
    66                           	psect	text48,global,reloc=2,class=CODE,delta=1
    67                           	psect	text49,global,reloc=2,class=CODE,delta=1
    68                           	psect	text50,global,reloc=2,class=CODE,delta=1
    69                           	psect	text51,global,reloc=2,class=CODE,delta=1,group=3
    70                           	psect	text52,global,reloc=2,class=CODE,delta=1
    71                           	psect	text53,global,reloc=2,class=CODE,delta=1
    72                           	psect	text54,global,reloc=2,class=CODE,delta=1
    73                           	psect	text55,global,reloc=2,class=CODE,delta=1
    74                           	psect	text56,global,reloc=2,class=CODE,delta=1
    75                           	psect	text57,global,reloc=2,class=CODE,delta=1
    76                           	psect	text58,global,reloc=2,class=CODE,delta=1
    77                           	psect	text59,global,reloc=2,class=CODE,delta=1
    78                           	psect	text60,global,reloc=2,class=CODE,delta=1
    79                           	psect	text61,global,reloc=2,class=CODE,delta=1
    80                           	psect	text62,global,reloc=2,class=CODE,delta=1
    81                           	psect	text63,global,reloc=2,class=CODE,delta=1
    82                           	psect	text64,global,reloc=2,class=CODE,delta=1
    83                           	psect	text65,global,reloc=2,class=CODE,delta=1
    84                           	psect	text66,global,reloc=2,class=CODE,delta=1
    85                           	psect	text67,global,reloc=2,class=CODE,delta=1
    86                           	psect	text68,global,reloc=2,class=CODE,delta=1
    87                           	psect	text69,global,reloc=2,class=CODE,delta=1
    88                           	psect	text70,global,reloc=2,class=CODE,delta=1
    89                           	psect	text71,global,reloc=2,class=CODE,delta=1
    90                           	psect	text72,global,reloc=2,class=CODE,delta=1
    91                           	psect	text73,global,reloc=2,class=CODE,delta=1
    92                           	psect	text74,global,reloc=2,class=CODE,delta=1
    93                           	psect	text75,global,reloc=2,class=CODE,delta=1
    94                           	psect	text76,global,reloc=2,class=CODE,delta=1
    95                           	psect	text77,global,reloc=2,class=CODE,delta=1
    96                           	psect	text78,global,reloc=2,class=CODE,delta=1
    97                           	psect	text79,global,reloc=2,class=CODE,delta=1
    98                           	psect	text80,global,reloc=2,class=CODE,delta=1
    99                           	psect	text81,global,reloc=2,class=CODE,delta=1
   100                           	psect	intsave_regs,global,class=BIGRAM,space=1,delta=1,noexec
   101                           	psect	text82,global,reloc=2,class=CODE,delta=1
   102                           	psect	rparam,global,class=COMRAM,space=1,delta=1,noexec
   103                           	psect	temp,global,ovrld,common,class=COMRAM,space=1,delta=1
   104                           	psect	idloc,global,abs,ovrld,class=IDLOC,space=5,delta=1,noexec
   105                           	psect	config,global,abs,ovrld,class=CONFIG,space=4,delta=1,noexec
   106                           	dabs	1,0x400,48,_BDT
   107                           	dabs	1,0x500,64,_cdc_data_tx
   108                           	dabs	1,0x438,8,_CtrlTrfData
   109                           	dabs	1,0x430,8,_SetupPkt
   110                           	dabs	1,0x540,64,_cdc_data_rx
   111  0000                     
   112                           ; Version 2.35
   113                           ; Generated 05/05/2021 GMT
   114                           ; 
   115                           ; Copyright © 2021, Microchip Technology Inc. and its subsidiaries ("Microchip")
   116                           ; All rights reserved.
   117                           ; 
   118                           ; This software is developed by Microchip Technology Inc. and its subsidiaries ("Microch
      +                          ip").
   119                           ; 
   120                           ; Redistribution and use in source and binary forms, with or without modification, are
   121                           ; permitted provided that the following conditions are met:
   122                           ; 
   123                           ;     1. Redistributions of source code must retain the above copyright notice, this lis
      +                          t of
   124                           ;        conditions and the following disclaimer.
   125                           ; 
   126                           ;     2. Redistributions in binary form must reproduce the above copyright notice, this 
      +                          list
   127                           ;        of conditions and the following disclaimer in the documentation and/or other
   128                           ;        materials provided with the distribution. Publication is not required when
   129                           ;        this file is used in an embedded application.
   130                           ; 
   131                           ;     3. Microchip's name may not be used to endorse or promote products derived from th
      +                          is
   132                           ;        software without specific prior written permission.
   133                           ; 
   134                           ; THIS SOFTWARE IS PROVIDED BY MICROCHIP "AS IS" AND ANY EXPRESS OR IMPLIED WARRANTIES,
   135                           ; INCLUDING, BUT NOT LIMITED TO, THE IMPLIED WARRANTIES OF MERCHANTABILITY AND FITNESS F
      +                          OR
   136                           ; PURPOSE ARE DISCLAIMED.  IN NO EVENT SHALL MICROCHIP BE LIABLE FOR ANY DIRECT, INDIREC
      +                          T,
   137                           ; INCIDENTAL, SPECIAL, EXEMPLARY, OR CONSEQUENTIAL DAMAGES (INCLUDING BUT NOT LIMITED TO
   138                           ; PROCUREMENT OF SUBSTITUTE GOODS OR SERVICES; LOSS OF USE, DATA OR PROFITS; OR BUSINESS
   139                           ; INTERRUPTION) HOWSOEVER CAUSED AND ON ANY THEORY OF LIABILITY, WHETHER IN CONTRACT, ST
      +                          RICT
   140                           ; LIABILITY, OR TORT (INCLUDING NEGLIGENCE OR OTHERWISE) ARISING IN ANY WAY OUT OF THE U
      +                          SE OF
   141                           ; THIS SOFTWARE, EVEN IF ADVISED OF THE POSSIBILITY OF SUCH DAMAGE.
   142                           ; 
   143                           ; 
   144                           ; Code-generator required, PIC18F25K50 Definitions
   145                           ; 
   146                           ; SFR Addresses
   147  0000                     
   148 ;; Function _G_00 is unused but had its address taken
   149  0000                     
   150 ;; Function _G_53 is unused but had its address taken
   151  0000                     
   152                           	psect	idataBANK1
   153  003682                     __pidataBANK1:
   154                           	callstack 0
   155                           
   156                           ;initializer for stoa@F1150
   157  003682  28                 	db	40
   158  003683  6E                 	db	110
   159  003684  75                 	db	117
   160  003685  6C                 	db	108
   161  003686  6C                 	db	108
   162  003687  29                 	db	41
   163  003688  00                 	db	0
   164                           
   165                           ;initializer for getTokens@F334
   166  003689  20                 	db	32
   167  00368A  00                 	db	0
   168                           
   169                           ;initializer for USBCommandFetch@F5887
   170  00368B  0A                 	db	10
   171  00368C  00                 	db	0
   172                           
   173                           	psect	smallconst
   174  000800                     __psmallconst:
   175                           	callstack 0
   176  000800  00                 	db	0
   177  000801                     _USB_SD_Ptr:
   178                           	callstack 0
   179  000801  A4                 	db	low _sd000
   180  000802  48                 	db	low _sd001
   181  000803  7C                 	db	low _sd002
   182  000804                     __end_of_USB_SD_Ptr:
   183                           	callstack 0
   184  000804                     _USB_CD_Ptr:
   185                           	callstack 0
   186  000804  05                 	db	low _configDescriptor1
   187  000805                     __end_of_USB_CD_Ptr:
   188                           	callstack 0
   189  000805                     _configDescriptor1:
   190                           	callstack 0
   191  000805  09                 	db	9
   192  000806  02                 	db	2
   193  000807  43                 	db	67
   194  000808  00                 	db	0
   195  000809  02                 	db	2
   196  00080A  01                 	db	1
   197  00080B  00                 	db	0
   198  00080C  C0                 	db	192
   199  00080D  32                 	db	50
   200  00080E  09                 	db	9
   201  00080F  04                 	db	4
   202  000810  00                 	db	0
   203  000811  00                 	db	0
   204  000812  01                 	db	1
   205  000813  02                 	db	2
   206  000814  02                 	db	2
   207  000815  01                 	db	1
   208  000816  00                 	db	0
   209  000817  05                 	db	5
   210  000818  24                 	db	36
   211  000819  00                 	db	0
   212  00081A  10                 	db	16
   213  00081B  01                 	db	1
   214  00081C  04                 	db	4
   215  00081D  24                 	db	36
   216  00081E  02                 	db	2
   217  00081F  02                 	db	2
   218  000820  05                 	db	5
   219  000821  24                 	db	36
   220  000822  06                 	db	6
   221  000823  00                 	db	0
   222  000824  01                 	db	1
   223  000825  05                 	db	5
   224  000826  24                 	db	36
   225  000827  01                 	db	1
   226  000828  00                 	db	0
   227  000829  01                 	db	1
   228  00082A  07                 	db	7
   229  00082B  05                 	db	5
   230  00082C  81                 	db	129
   231  00082D  03                 	db	3
   232  00082E  0A                 	db	10
   233  00082F  00                 	db	0
   234  000830  02                 	db	2
   235  000831  09                 	db	9
   236  000832  04                 	db	4
   237  000833  01                 	db	1
   238  000834  00                 	db	0
   239  000835  02                 	db	2
   240  000836  0A                 	db	10
   241  000837  00                 	db	0
   242  000838  00                 	db	0
   243  000839  00                 	db	0
   244  00083A  07                 	db	7
   245  00083B  05                 	db	5
   246  00083C  02                 	db	2
   247  00083D  02                 	db	2
   248  00083E  40                 	db	64
   249  00083F  00                 	db	0
   250  000840  00                 	db	0
   251  000841  07                 	db	7
   252  000842  05                 	db	5
   253  000843  82                 	db	130
   254  000844  02                 	db	2
   255  000845  40                 	db	64
   256  000846  00                 	db	0
   257  000847  00                 	db	0
   258  000848                     __end_of_configDescriptor1:
   259                           	callstack 0
   260  000848                     _sd001:
   261                           	callstack 0
   262  000848  34                 	db	52
   263  000849  03                 	db	3
   264  00084A  004D               	dw	77
   265  00084C  0069               	dw	105
   266  00084E  0063               	dw	99
   267  000850  0072               	dw	114
   268  000852  006F               	dw	111
   269  000854  0063               	dw	99
   270  000856  0068               	dw	104
   271  000858  0069               	dw	105
   272  00085A  0070               	dw	112
   273  00085C  0020               	dw	32
   274  00085E  0054               	dw	84
   275  000860  0065               	dw	101
   276  000862  0063               	dw	99
   277  000864  0068               	dw	104
   278  000866  006E               	dw	110
   279  000868  006F               	dw	111
   280  00086A  006C               	dw	108
   281  00086C  006F               	dw	111
   282  00086E  0067               	dw	103
   283  000870  0079               	dw	121
   284  000872  0020               	dw	32
   285  000874  0049               	dw	73
   286  000876  006E               	dw	110
   287  000878  0063               	dw	99
   288  00087A  002E               	dw	46
   289  00087C                     __end_of_sd001:
   290                           	callstack 0
   291  00087C                     _sd002:
   292                           	callstack 0
   293  00087C  16                 	db	22
   294  00087D  03                 	db	3
   295  00087E  0042               	dw	66
   296  000880  006F               	dw	111
   297  000882  0062               	dw	98
   298  000884  0069               	dw	105
   299  000886  006E               	dw	110
   300  000888  0061               	dw	97
   301  00088A  0064               	dw	100
   302  00088C  006F               	dw	111
   303  00088E  0072               	dw	114
   304  000890  0061               	dw	97
   305  000892                     __end_of_sd002:
   306                           	callstack 0
   307  000892                     _device_dsc:
   308                           	callstack 0
   309  000892  12                 	db	18
   310  000893  01                 	db	1
   311  000894  0200               	dw	512
   312  000896  02                 	db	2
   313  000897  00                 	db	0
   314  000898  00                 	db	0
   315  000899  08                 	db	8
   316  00089A  04D8               	dw	1240
   317  00089C  000A               	dw	10
   318  00089E  0100               	dw	256
   319  0008A0  01                 	db	1
   320  0008A1  02                 	db	2
   321  0008A2  00                 	db	0
   322  0008A3  01                 	db	1
   323  0008A4                     __end_of_device_dsc:
   324                           	callstack 0
   325  0008A4                     _sd000:
   326                           	callstack 0
   327  0008A4  04                 	db	4
   328  0008A5  03                 	db	3
   329  0008A6  0409               	dw	1033
   330  0008A8                     __end_of_sd000:
   331                           	callstack 0
   332  0000                     _CCPR2H	set	3985
   333  0000                     _EEDATA	set	4008
   334  0000                     _EEADR	set	4009
   335  0000                     _EECON2	set	4007
   336  0000                     _EECON1bits	set	4006
   337  0000                     _ADCON0	set	4034
   338  0000                     _ADRESL	set	4035
   339  0000                     _TMR0L	set	4054
   340  0000                     _TMR0H	set	4055
   341  0000                     _T1CON	set	4045
   342  0000                     _TMR1L	set	4046
   343  0000                     _TMR1H	set	4047
   344  0000                     _T3CON	set	4017
   345  0000                     _TMR3L	set	4018
   346  0000                     _TMR3H	set	4019
   347  0000                     _T3GCON	set	4020
   348  0000                     _ACTCON	set	4021
   349  0000                     _RCONbits	set	4048
   350  0000                     _IPR3bits	set	4005
   351  0000                     _USTAT	set	3937
   352  0000                     _PIR3bits	set	4004
   353  0000                     _UADDR	set	3939
   354  0000                     _UIE	set	3940
   355  0000                     _UEIE	set	3942
   356  0000                     _TMR1	set	4046
   357  0000                     _TMR3	set	4018
   358  0000                     _LATBbits	set	3978
   359  0000                     _T0CON	set	4053
   360  0000                     _T2CONbits	set	4026
   361  0000                     _T3CONbits	set	4017
   362  0000                     _UEP0bits	set	3946
   363  0000                     _UCON	set	3936
   364  0000                     _UIEbits	set	3940
   365  0000                     _UIRbits	set	3941
   366  0000                     _CCPTMRSbits	set	3929
   367  0000                     _ANSELA	set	3931
   368  0000                     _ANSELB	set	3932
   369  0000                     _ANSELC	set	3933
   370  0000                     _UCONbits	set	3936
   371  0000                     _UCFG	set	3938
   372  0000                     _UIR	set	3941
   373  0000                     _UEIR	set	3943
   374  0000                     _PIE3bits	set	4003
   375  0000                     _UEP0	set	3946
   376  0000                     _PORTBbits	set	3969
   377  0000                     _WPUB	set	3973
   378  0000                     _LATA	set	3977
   379  0000                     _OSCTUNE	set	3995
   380  0000                     _PIE1bits	set	3997
   381  0000                     _PIE2bits	set	4000
   382  0000                     _UEP1	set	3947
   383  0000                     _OSCCON2	set	4050
   384  0000                     _OSCCON	set	4051
   385  0000                     _INTCONbits	set	4082
   386  0000                     _TABLAT	set	4085
   387  0000                     _TBLPTRL	set	4086
   388  0000                     _TBLPTRH	set	4087
   389  0000                     _TBLPTRU	set	4088
   390  0000                     _PIR2bits	set	4001
   391  0000                     _PIR1bits	set	3998
   392  0000                     _T0CONbits	set	4053
   393  0000                     _T2CON	set	4026
   394  0000                     _PR2	set	4027
   395  0000                     _ADCON2	set	4032
   396  0000                     _ADCON1	set	4033
   397  0000                     _T1GCON	set	4044
   398  0000                     _TMR2	set	4028
   399  0000                     _INTCON2bits	set	4081
   400  0000                     _ADRESH	set	4036
   401  0000                     _CCPR2L	set	3984
   402  0000                     _TRISA	set	3986
   403  0000                     _LATC	set	3979
   404  0000                     _LATB	set	3978
   405  0000                     _CCP2CON	set	3991
   406  0000                     _TRISC	set	3988
   407  0000                     _TRISB	set	3987
   408  0008A8                     
   409                           ; BSR set to: 1
   410  0008A8  49                 	db	73	;'I'
   411  0008A9  4E                 	db	78	;'N'
   412  0008AA  46                 	db	70	;'F'
   413  0008AB  49                 	db	73	;'I'
   414  0008AC  4E                 	db	78	;'N'
   415  0008AD  49                 	db	73	;'I'
   416  0008AE  54                 	db	84	;'T'
   417  0008AF  59                 	db	89	;'Y'
   418  0008B0  00                 	db	0
   419  0008B1                     STR_12:
   420                           
   421                           ; BSR set to: 1
   422  0008B1  69                 	db	105	;'i'
   423  0008B2  6E                 	db	110	;'n'
   424  0008B3  66                 	db	102	;'f'
   425  0008B4  69                 	db	105	;'i'
   426  0008B5  6E                 	db	110	;'n'
   427  0008B6  69                 	db	105	;'i'
   428  0008B7  74                 	db	116	;'t'
   429  0008B8  79                 	db	121	;'y'
   430  0008B9  00                 	db	0
   431  0008BA                     
   432                           ; BSR set to: 1
   433  0008BA  25                 	db	37
   434  0008BB  73                 	db	115	;'s'
   435  0008BC  58                 	db	88	;'X'
   436  0008BD  25                 	db	37
   437  0008BE  73                 	db	115	;'s'
   438  0008BF  58                 	db	88	;'X'
   439  0008C0  25                 	db	37
   440  0008C1  64                 	db	100	;'d'
   441  0008C2  00                 	db	0
   442  0008C3                     STR_4:
   443                           
   444                           ; BSR set to: 1
   445  0008C3  25                 	db	37
   446  0008C4  73                 	db	115	;'s'
   447  0008C5  25                 	db	37
   448  0008C6  73                 	db	115	;'s'
   449  0008C7  00                 	db	0
   450  0008C8                     
   451                           ; BSR set to: 1
   452  0008C8  4E                 	db	78	;'N'
   453  0008C9  41                 	db	65	;'A'
   454  0008CA  4E                 	db	78	;'N'
   455  0008CB  00                 	db	0
   456  0008CC                     STR_14:
   457                           
   458                           ; BSR set to: 1
   459  0008CC  69                 	db	105	;'i'
   460  0008CD  6E                 	db	110	;'n'
   461  0008CE  66                 	db	102	;'f'
   462  0008CF  00                 	db	0
   463  0008D0                     STR_17:
   464                           
   465                           ; BSR set to: 1
   466  0008D0  6E                 	db	110	;'n'
   467  0008D1  61                 	db	97	;'a'
   468  0008D2  6E                 	db	110	;'n'
   469  0008D3  00                 	db	0
   470  0008D4                     STR_7:
   471                           
   472                           ; BSR set to: 1
   473  0008D4  6C                 	db	108	;'l'
   474  0008D5  6C                 	db	108	;'l'
   475  0008D6  73                 	db	115	;'s'
   476  0008D7  00                 	db	0
   477  0008D8                     STR_1:
   478                           
   479                           ; BSR set to: 1
   480  0008D8  4E                 	db	78	;'N'
   481  0008D9  30                 	db	48	;'0'
   482  0008DA  31                 	db	49	;'1'
   483  0008DB  00                 	db	0
   484  0008DC                     STR_2:
   485                           
   486                           ; BSR set to: 1
   487  0008DC  4E                 	db	78	;'N'
   488  0008DD  30                 	db	48	;'0'
   489  0008DE  32                 	db	50	;'2'
   490  0008DF  00                 	db	0
   491  0008E0                     STR_3:
   492                           
   493                           ; BSR set to: 1
   494  0008E0  4E                 	db	78	;'N'
   495  0008E1  30                 	db	48	;'0'
   496  0008E2  33                 	db	51	;'3'
   497  0008E3  00                 	db	0
   498  0008E4  00                 	db	0	; dummy byte at the end
   499  0000                     
   500                           ; #config settings
   501                           
   502                           	psect	cinit
   503  002FD0                     __pcinit:
   504                           	callstack 0
   505  002FD0                     start_initialization:
   506                           	callstack 0
   507  002FD0                     __initialization:
   508                           	callstack 0
   509                           
   510                           ; Initialize objects allocated to BANK1 (11 bytes)
   511                           ; load TBLPTR registers with __pidataBANK1
   512  002FD0  0E82               	movlw	low __pidataBANK1
   513  002FD2  6EF6               	movwf	tblptrl,c
   514  002FD4  0E36               	movlw	high __pidataBANK1
   515  002FD6  6EF7               	movwf	tblptrh,c
   516  002FD8  0E00               	movlw	low (__pidataBANK1 shr (0+16))
   517  002FDA  6EF8               	movwf	tblptru,c
   518  002FDC  EE01  F0D3         	lfsr	0,__pdataBANK1
   519  002FE0  EE10 F00B          	lfsr	1,11
   520  002FE4                     copy_data0:
   521  002FE4  0009               	tblrd		*+
   522  002FE6  CFF5 FFEE          	movff	tablat,postinc0
   523  002FEA  50E5               	movf	postdec1,w,c
   524  002FEC  50E1               	movf	fsr1l,w,c
   525  002FEE  E1FA               	bnz	copy_data0
   526                           
   527                           ; Clear objects allocated to BANK6 (200 bytes)
   528  002FF0  EE06  F000         	lfsr	0,__pbssBANK6
   529  002FF4  0EC8               	movlw	200
   530  002FF6                     clear_0:
   531  002FF6  6AEE               	clrf	postinc0,c
   532  002FF8  06E8               	decf	wreg,f,c
   533  002FFA  E1FD               	bnz	clear_0
   534                           
   535                           ; Clear objects allocated to BANK3 (100 bytes)
   536  002FFC  EE03  F000         	lfsr	0,__pbssBANK3
   537  003000  0E64               	movlw	100
   538  003002                     clear_1:
   539  003002  6AEE               	clrf	postinc0,c
   540  003004  06E8               	decf	wreg,f,c
   541  003006  E1FD               	bnz	clear_1
   542                           
   543                           ; Clear objects allocated to BANK2 (164 bytes)
   544  003008  EE02  F000         	lfsr	0,__pbssBANK2
   545  00300C  0EA4               	movlw	164
   546  00300E                     clear_2:
   547  00300E  6AEE               	clrf	postinc0,c
   548  003010  06E8               	decf	wreg,f,c
   549  003012  E1FD               	bnz	clear_2
   550                           
   551                           ; Clear objects allocated to BANK1 (183 bytes)
   552  003014  EE01  F000         	lfsr	0,__pbssBANK1
   553  003018  0EB7               	movlw	183
   554  00301A                     clear_3:
   555  00301A  6AEE               	clrf	postinc0,c
   556  00301C  06E8               	decf	wreg,f,c
   557  00301E  E1FD               	bnz	clear_3
   558                           
   559                           ; Clear objects allocated to BANK0 (37 bytes)
   560  003020  EE00  F0C1         	lfsr	0,__pbssBANK0
   561  003024  0E25               	movlw	37
   562  003026                     clear_4:
   563  003026  6AEE               	clrf	postinc0,c
   564  003028  06E8               	decf	wreg,f,c
   565  00302A  E1FD               	bnz	clear_4
   566                           
   567                           ; Clear objects allocated to COMRAM (42 bytes)
   568  00302C  EE00  F02C         	lfsr	0,__pbssCOMRAM
   569  003030  0E2A               	movlw	42
   570  003032                     clear_5:
   571  003032  6AEE               	clrf	postinc0,c
   572  003034  06E8               	decf	wreg,f,c
   573  003036  E1FD               	bnz	clear_5
   574  003038                     end_of_initialization:
   575                           	callstack 0
   576  003038                     __end_of__initialization:
   577                           	callstack 0
   578  003038  9056               	bcf	int$flags,0,c	;clear compiler interrupt flag (level 1)
   579  00303A  9256               	bcf	int$flags,1,c	;clear compiler interrupt flag (level 2)
   580  00303C  0E00               	movlw	low (__Lmediumconst shr (0+16))
   581  00303E  6EF8               	movwf	tblptru,c
   582  003040  0100               	movlb	0
   583  003042  EFDA  F009         	goto	_main	;jump to C main() function
   584                           
   585                           	psect	bssCOMRAM
   586  00002C                     __pbssCOMRAM:
   587                           	callstack 0
   588  00002C                     _pBDTEntryOut:
   589                           	callstack 0
   590  00002C                     	ds	6
   591  000032                     _brkp:
   592                           	callstack 0
   593  000032                     	ds	2
   594  000034                     ___freelist:
   595                           	callstack 0
   596  000034                     	ds	2
   597  000036                     _pasos:
   598                           	callstack 0
   599  000036                     	ds	2
   600  000038                     _timer0ReloadVal:
   601                           	callstack 0
   602  000038                     	ds	2
   603  00003A                     _pDst:
   604                           	callstack 0
   605  00003A                     	ds	2
   606  00003C                     _pBDTEntryEP0OutNext:
   607                           	callstack 0
   608  00003C                     	ds	2
   609  00003E                     _pBDTEntryEP0OutCurrent:
   610                           	callstack 0
   611  00003E                     	ds	2
   612  000040                     _busy:
   613                           	callstack 0
   614  000040                     	ds	1
   615  000041                     _control_signal_bitmap:
   616                           	callstack 0
   617  000041                     	ds	1
   618  000042                     _cdc_mem_type:
   619                           	callstack 0
   620  000042                     	ds	1
   621  000043                     _cdc_tx_len:
   622                           	callstack 0
   623  000043                     	ds	1
   624  000044                     _cdc_trf_state:
   625                           	callstack 0
   626  000044                     	ds	1
   627  000045                     _cdc_rx_len:
   628                           	callstack 0
   629  000045                     	ds	1
   630  000046                     _USBDeferOUTDataStagePackets:
   631                           	callstack 0
   632  000046                     	ds	1
   633  000047                     _USBDeferINDataStagePackets:
   634                           	callstack 0
   635  000047                     	ds	1
   636  000048                     _USBStatusStageEnabledFlag2:
   637                           	callstack 0
   638  000048                     	ds	1
   639  000049                     _USBStatusStageEnabledFlag1:
   640                           	callstack 0
   641  000049                     	ds	1
   642  00004A                     _USBDeferStatusStagePacket:
   643                           	callstack 0
   644  00004A                     	ds	1
   645  00004B                     _USBStatusStageTimeoutCounter:
   646                           	callstack 0
   647  00004B                     	ds	1
   648  00004C                     _BothEP0OutUOWNsSet:
   649                           	callstack 0
   650  00004C                     	ds	1
   651  00004D                     _endpoint_number:
   652                           	callstack 0
   653  00004D                     	ds	1
   654  00004E                     _RemoteWakeup:
   655                           	callstack 0
   656  00004E                     	ds	1
   657  00004F                     _controlTransferState:
   658                           	callstack 0
   659  00004F                     	ds	1
   660  000050                     _shortPacketStatus:
   661                           	callstack 0
   662  000050                     	ds	1
   663  000051                     _USBDeviceState:
   664                           	callstack 0
   665  000051                     	ds	1
   666  000052                     _USBAlternateInterface:
   667                           	callstack 0
   668  000052                     	ds	2
   669  000054                     _USTATcopy:
   670                           	callstack 0
   671  000054                     	ds	1
   672  000055                     _USBActiveConfiguration:
   673                           	callstack 0
   674  000055                     	ds	1
   675                           
   676                           	psect	bssBANK0
   677  0000C1                     __pbssBANK0:
   678                           	callstack 0
   679  0000C1                     _outPipes:
   680                           	callstack 0
   681  0000C1                     	ds	8
   682  0000C9                     _inPipes:
   683                           	callstack 0
   684  0000C9                     	ds	6
   685  0000CF                     _pBDTEntryIn:
   686                           	callstack 0
   687  0000CF                     	ds	6
   688  0000D5                     _ep_data_out:
   689                           	callstack 0
   690  0000D5                     	ds	3
   691  0000D8                     _ep_data_in:
   692                           	callstack 0
   693  0000D8                     	ds	3
   694  0000DB                     _prec:
   695                           	callstack 0
   696  0000DB                     	ds	2
   697  0000DD                     _flags:
   698                           	callstack 0
   699  0000DD                     	ds	2
   700  0000DF                     malloc@cur:
   701                           	callstack 0
   702  0000DF                     	ds	2
   703  0000E1                     _CDCDataInHandle:
   704                           	callstack 0
   705  0000E1                     	ds	2
   706  0000E3                     _numBytesRead:
   707                           	callstack 0
   708  0000E3                     	ds	1
   709  0000E4                     _USBTicksSinceSuspendEnd:
   710                           	callstack 0
   711  0000E4                     	ds	1
   712  0000E5                     _USBBusIsSuspended:
   713                           	callstack 0
   714  0000E5                     	ds	1
   715                           
   716                           	psect	bssBANK1
   717  000100                     __pbssBANK1:
   718                           	callstack 0
   719  000100                     _cdc_notice:
   720                           	callstack 0
   721  000100                     	ds	10
   722  00010A                     malloc@lock:
   723                           	callstack 0
   724  00010A                     	ds	4
   725  00010E                     _pos_absoluta_Z:
   726                           	callstack 0
   727  00010E                     	ds	4
   728  000112                     _pos_relativa_Z:
   729                           	callstack 0
   730  000112                     	ds	4
   731  000116                     _BaudRateGen:
   732                           	callstack 0
   733  000116                     	ds	4
   734  00011A                     _USB1msTickCount:
   735                           	callstack 0
   736  00011A                     	ds	4
   737  00011E                     _pCDCDst:
   738                           	callstack 0
   739  00011E                     	ds	3
   740  000121                     _pCDCSrc:
   741                           	callstack 0
   742  000121                     	ds	3
   743  000124                     strtok@p:
   744                           	callstack 0
   745  000124                     	ds	2
   746  000126                     _nout:
   747                           	callstack 0
   748  000126                     	ds	2
   749  000128                     _width:
   750                           	callstack 0
   751  000128                     	ds	2
   752  00012A                     _errno:
   753                           	callstack 0
   754  00012A                     	ds	2
   755  00012C                     malloc@end:
   756                           	callstack 0
   757  00012C                     	ds	2
   758  00012E                     _flag:
   759                           	callstack 0
   760  00012E                     	ds	2
   761  000130                     _ADC_InterruptHandler:
   762                           	callstack 0
   763  000130                     	ds	2
   764  000132                     _TMR0_InterruptHandler:
   765                           	callstack 0
   766  000132                     	ds	2
   767  000134                     _timer1ReloadVal:
   768                           	callstack 0
   769  000134                     	ds	2
   770  000136                     _TMR2_InterruptHandler:
   771                           	callstack 0
   772  000136                     	ds	2
   773  000138                     _TMR3_InterruptHandler:
   774                           	callstack 0
   775  000138                     	ds	2
   776  00013A                     _timer3ReloadVal:
   777                           	callstack 0
   778  00013A                     	ds	2
   779  00013C                     _CDCDataOutHandle:
   780                           	callstack 0
   781  00013C                     	ds	2
   782  00013E                     _readBuffer@example_mcc_usb_cdc$F2200:
   783                           	callstack 0
   784  00013E                     	ds	64
   785  00017E                     _dbuf:
   786                           	callstack 0
   787  00017E                     	ds	32
   788  00019E                     _lastToken:
   789                           	callstack 0
   790  00019E                     	ds	10
   791  0001A8                     _dummy_encapsulated_cmd_response:
   792                           	callstack 0
   793  0001A8                     	ds	8
   794  0001B0                     _line_coding:
   795                           	callstack 0
   796  0001B0                     	ds	7
   797                           
   798                           	psect	dataBANK1
   799  0001D3                     __pdataBANK1:
   800                           	callstack 0
   801  0001D3                     stoa@F1150:
   802                           	callstack 0
   803  0001D3                     	ds	7
   804  0001DA                     getTokens@F334:
   805                           	callstack 0
   806  0001DA                     	ds	2
   807  0001DC                     	ds	2
   808                           
   809                           	psect	bssBANK2
   810  000200                     __pbssBANK2:
   811                           	callstack 0
   812  000200                     _writeBuffer:
   813                           	callstack 0
   814  000200                     	ds	100
   815  000264                     _writeBuffer@example_mcc_usb_cdc$F2201:
   816                           	callstack 0
   817  000264                     	ds	64
   818                           
   819                           	psect	bssBANK3
   820  000300                     __pbssBANK3:
   821                           	callstack 0
   822  000300                     _readBuffer:
   823                           	callstack 0
   824  000300                     	ds	100
   825                           
   826                           	psect	bssBANK6
   827  000600                     __pbssBANK6:
   828                           	callstack 0
   829  000600                     _G:
   830                           	callstack 0
   831  000600                     	ds	200
   832                           
   833                           	psect	cstackBANK1
   834  0001B7                     __pcstackBANK1:
   835                           	callstack 0
   836  0001B7                     main@buf:
   837                           	callstack 0
   838                           
   839                           ; 20 bytes @ 0x0
   840  0001B7                     	ds	20
   841  0001CB                     main@a:
   842                           	callstack 0
   843                           
   844                           ; 2 bytes @ 0x14
   845  0001CB                     	ds	2
   846  0001CD                     main@CommandList:
   847                           	callstack 0
   848                           
   849                           ; 6 bytes @ 0x16
   850  0001CD                     	ds	6
   851                           
   852                           	psect	cstackBANK0
   853  000060                     __pcstackBANK0:
   854                           	callstack 0
   855  000060                     ?_USBTransferOnePacket:
   856                           	callstack 0
   857  000060                     ?_strlen:
   858                           	callstack 0
   859  000060                     ?___simple_search_fl:
   860                           	callstack 0
   861  000060                     ?___expand_heap:
   862                           	callstack 0
   863  000060                     ?_strncmp:
   864                           	callstack 0
   865  000060                     ?___aodiv:
   866                           	callstack 0
   867  000060                     ?___aomod:
   868                           	callstack 0
   869  000060                     USBTransferOnePacket@dir:
   870                           	callstack 0
   871  000060                     ___expand_heap@pn:
   872                           	callstack 0
   873  000060                     strncmp@_l:
   874                           	callstack 0
   875  000060                     TMR3_SetInterruptHandler@InterruptHandler:
   876                           	callstack 0
   877  000060                     TMR2_SetInterruptHandler@InterruptHandler:
   878                           	callstack 0
   879  000060                     TMR0_SetInterruptHandler@InterruptHandler:
   880                           	callstack 0
   881  000060                     Fila_Init@fila:
   882                           	callstack 0
   883  000060                     ___simple_search_fl@n:
   884                           	callstack 0
   885  000060                     free@ptr:
   886                           	callstack 0
   887  000060                     memset@dest:
   888                           	callstack 0
   889  000060                     fputc@c:
   890                           	callstack 0
   891  000060                     strcpy@dest:
   892                           	callstack 0
   893  000060                     strlen@s:
   894                           	callstack 0
   895  000060                     ___aodiv@dividend:
   896                           	callstack 0
   897  000060                     ___aomod@dividend:
   898                           	callstack 0
   899                           
   900                           ; 8 bytes @ 0x0
   901  000060                     	ds	1
   902  000061                     strncmp@_r:
   903                           	callstack 0
   904  000061                     USBTransferOnePacket@data:
   905                           	callstack 0
   906                           
   907                           ; 2 bytes @ 0x1
   908  000061                     	ds	1
   909  000062                     ??_TMR0_Initialize:
   910  000062                     ??_free:
   911  000062                     ??___simple_search_fl:
   912  000062                     ??___expand_heap:
   913  000062                     fputc@fp:
   914                           	callstack 0
   915  000062                     memset@c:
   916                           	callstack 0
   917  000062                     strcpy@src:
   918                           	callstack 0
   919  000062                     strlen@a:
   920                           	callstack 0
   921  000062                     strncmp@n:
   922                           	callstack 0
   923                           
   924                           ; 2 bytes @ 0x2
   925  000062                     	ds	1
   926  000063                     ??_fputc:
   927  000063                     USBTransferOnePacket@len:
   928                           	callstack 0
   929                           
   930                           ; 1 bytes @ 0x3
   931  000063                     	ds	1
   932  000064                     ??_USBTransferOnePacket:
   933  000064                     ??_strncmp:
   934  000064                     ___expand_heap@n:
   935                           	callstack 0
   936  000064                     memset@n:
   937                           	callstack 0
   938  000064                     strcpy@s:
   939                           	callstack 0
   940                           
   941                           ; 2 bytes @ 0x4
   942  000064                     	ds	1
   943  000065                     strncmp@l:
   944                           	callstack 0
   945                           
   946                           ; 1 bytes @ 0x5
   947  000065                     	ds	1
   948  000066                     ??_memset:
   949  000066                     USBTransferOnePacket@ep:
   950                           	callstack 0
   951  000066                     strncmp@r:
   952                           	callstack 0
   953  000066                     ___simple_search_fl@remaining_size:
   954                           	callstack 0
   955  000066                     free@cptr:
   956                           	callstack 0
   957  000066                     ___expand_heap@new_brkp:
   958                           	callstack 0
   959  000066                     strcpy@d:
   960                           	callstack 0
   961                           
   962                           ; 2 bytes @ 0x6
   963  000066                     	ds	1
   964  000067                     USBTransferOnePacket@handle:
   965                           	callstack 0
   966                           
   967                           ; 2 bytes @ 0x7
   968  000067                     	ds	1
   969  000068                     ?_stoa:
   970                           	callstack 0
   971  000068                     stoa@fp:
   972                           	callstack 0
   973  000068                     ___simple_search_fl@best_last:
   974                           	callstack 0
   975  000068                     free@c:
   976                           	callstack 0
   977  000068                     memset@k:
   978                           	callstack 0
   979  000068                     fputs@s:
   980                           	callstack 0
   981  000068                     ___aodiv@divisor:
   982                           	callstack 0
   983  000068                     ___aomod@divisor:
   984                           	callstack 0
   985                           
   986                           ; 8 bytes @ 0x8
   987  000068                     	ds	1
   988  000069                     CDCTxService@i:
   989                           	callstack 0
   990  000069                     stoa@s:
   991                           	callstack 0
   992                           
   993                           ; 2 bytes @ 0x9
   994  000069                     	ds	1
   995  00006A                     CDCTxService@byte_to_send:
   996                           	callstack 0
   997  00006A                     fputs@fp:
   998                           	callstack 0
   999  00006A                     FilaPop@str:
  1000                           	callstack 0
  1001  00006A                     ___simple_search_fl@split:
  1002                           	callstack 0
  1003  00006A                     memset@s:
  1004                           	callstack 0
  1005                           
  1006                           ; 2 bytes @ 0xA
  1007  00006A                     	ds	1
  1008  00006B                     ??_stoa:
  1009  00006B                     fputs@c:
  1010                           	callstack 0
  1011                           
  1012                           ; 1 bytes @ 0xB
  1013  00006B                     	ds	1
  1014  00006C                     USBDeviceInit@i:
  1015                           	callstack 0
  1016  00006C                     FilaPop@fila:
  1017                           	callstack 0
  1018  00006C                     ___simple_search_fl@last:
  1019                           	callstack 0
  1020  00006C                     fputs@i:
  1021                           	callstack 0
  1022  00006C                     stoa@nuls:
  1023                           	callstack 0
  1024                           
  1025                           ; 7 bytes @ 0xC
  1026  00006C                     	ds	1
  1027  00006D                     
  1028                           ; 1 bytes @ 0xD
  1029  00006D                     	ds	1
  1030  00006E                     ??_FilaPop:
  1031  00006E                     ?_pad:
  1032                           	callstack 0
  1033  00006E                     pad@fp:
  1034                           	callstack 0
  1035  00006E                     ___simple_search_fl@next:
  1036                           	callstack 0
  1037                           
  1038                           ; 2 bytes @ 0xE
  1039  00006E                     	ds	1
  1040  00006F                     pad@buf:
  1041                           	callstack 0
  1042                           
  1043                           ; 2 bytes @ 0xF
  1044  00006F                     	ds	1
  1045  000070                     ___aodiv@counter:
  1046                           	callstack 0
  1047  000070                     ___aomod@counter:
  1048                           	callstack 0
  1049  000070                     ___simple_search_fl@c:
  1050                           	callstack 0
  1051                           
  1052                           ; 2 bytes @ 0x10
  1053  000070                     	ds	1
  1054  000071                     ___aodiv@sign:
  1055                           	callstack 0
  1056  000071                     ___aomod@sign:
  1057                           	callstack 0
  1058  000071                     pad@p:
  1059                           	callstack 0
  1060                           
  1061                           ; 2 bytes @ 0x11
  1062  000071                     	ds	1
  1063  000072                     ?_abs:
  1064                           	callstack 0
  1065  000072                     FilaPop@viejo:
  1066                           	callstack 0
  1067  000072                     ___simple_search_fl@best:
  1068                           	callstack 0
  1069  000072                     abs@a:
  1070                           	callstack 0
  1071  000072                     ___aodiv@quotient:
  1072                           	callstack 0
  1073                           
  1074                           ; 8 bytes @ 0x12
  1075  000072                     	ds	1
  1076  000073                     ??_pad:
  1077  000073                     stoa@i:
  1078                           	callstack 0
  1079                           
  1080                           ; 2 bytes @ 0x13
  1081  000073                     	ds	1
  1082  000074                     ??_abs:
  1083  000074                     ?_malloc:
  1084                           	callstack 0
  1085  000074                     malloc@n:
  1086                           	callstack 0
  1087  000074                     pad@i:
  1088                           	callstack 0
  1089                           
  1090                           ; 2 bytes @ 0x14
  1091  000074                     	ds	1
  1092  000075                     stoa@w:
  1093                           	callstack 0
  1094                           
  1095                           ; 2 bytes @ 0x15
  1096  000075                     	ds	1
  1097  000076                     ??_malloc:
  1098  000076                     pad@w:
  1099                           	callstack 0
  1100                           
  1101                           ; 2 bytes @ 0x16
  1102  000076                     	ds	1
  1103  000077                     stoa@cp:
  1104                           	callstack 0
  1105                           
  1106                           ; 2 bytes @ 0x17
  1107  000077                     	ds	1
  1108  000078                     malloc@m:
  1109                           	callstack 0
  1110                           
  1111                           ; 2 bytes @ 0x18
  1112  000078                     	ds	1
  1113  000079                     stoa@p:
  1114                           	callstack 0
  1115                           
  1116                           ; 2 bytes @ 0x19
  1117  000079                     	ds	1
  1118  00007A                     ?_dtoa:
  1119                           	callstack 0
  1120  00007A                     dtoa@fp:
  1121                           	callstack 0
  1122  00007A                     malloc@sz:
  1123                           	callstack 0
  1124                           
  1125                           ; 2 bytes @ 0x1A
  1126  00007A                     	ds	1
  1127  00007B                     stoa@l:
  1128                           	callstack 0
  1129  00007B                     dtoa@d:
  1130                           	callstack 0
  1131                           
  1132                           ; 8 bytes @ 0x1B
  1133  00007B                     	ds	1
  1134  00007C                     malloc@p:
  1135                           	callstack 0
  1136                           
  1137                           ; 2 bytes @ 0x1C
  1138  00007C                     	ds	2
  1139  00007E                     malloc@new:
  1140                           	callstack 0
  1141                           
  1142                           ; 2 bytes @ 0x1E
  1143  00007E                     	ds	2
  1144  000080                     Fila_Agregar@fila:
  1145                           	callstack 0
  1146                           
  1147                           ; 2 bytes @ 0x20
  1148  000080                     	ds	2
  1149  000082                     Fila_Agregar@comando:
  1150                           	callstack 0
  1151                           
  1152                           ; 2 bytes @ 0x22
  1153  000082                     	ds	1
  1154  000083                     ??_dtoa:
  1155                           
  1156                           ; 1 bytes @ 0x23
  1157  000083                     	ds	1
  1158  000084                     Fila_Agregar@nBytes:
  1159                           	callstack 0
  1160                           
  1161                           ; 2 bytes @ 0x24
  1162  000084                     	ds	2
  1163  000086                     ??_Fila_Agregar:
  1164                           
  1165                           ; 1 bytes @ 0x26
  1166  000086                     	ds	2
  1167  000088                     Fila_Agregar@nuevo:
  1168                           	callstack 0
  1169                           
  1170                           ; 2 bytes @ 0x28
  1171  000088                     	ds	3
  1172  00008B                     _dtoa$4792:
  1173                           	callstack 0
  1174                           
  1175                           ; 2 bytes @ 0x2B
  1176  00008B                     	ds	2
  1177  00008D                     dtoa@p:
  1178                           	callstack 0
  1179                           
  1180                           ; 2 bytes @ 0x2D
  1181  00008D                     	ds	2
  1182  00008F                     dtoa@w:
  1183                           	callstack 0
  1184                           
  1185                           ; 2 bytes @ 0x2F
  1186  00008F                     	ds	2
  1187  000091                     dtoa@s:
  1188                           	callstack 0
  1189                           
  1190                           ; 2 bytes @ 0x31
  1191  000091                     	ds	2
  1192  000093                     dtoa@n:
  1193                           	callstack 0
  1194                           
  1195                           ; 8 bytes @ 0x33
  1196  000093                     	ds	8
  1197  00009B                     dtoa@i:
  1198                           	callstack 0
  1199                           
  1200                           ; 2 bytes @ 0x3B
  1201  00009B                     	ds	2
  1202  00009D                     ?_vfpfcnvrt:
  1203                           	callstack 0
  1204  00009D                     vfpfcnvrt@fp:
  1205                           	callstack 0
  1206                           
  1207                           ; 1 bytes @ 0x3D
  1208  00009D                     	ds	1
  1209  00009E                     vfpfcnvrt@fmt:
  1210                           	callstack 0
  1211                           
  1212                           ; 1 bytes @ 0x3E
  1213  00009E                     	ds	1
  1214  00009F                     vfpfcnvrt@ap:
  1215                           	callstack 0
  1216                           
  1217                           ; 1 bytes @ 0x3F
  1218  00009F                     	ds	1
  1219  0000A0                     vfpfcnvrt@ll:
  1220                           	callstack 0
  1221                           
  1222                           ; 8 bytes @ 0x40
  1223  0000A0                     	ds	8
  1224  0000A8                     vfpfcnvrt@cp:
  1225                           	callstack 0
  1226                           
  1227                           ; 2 bytes @ 0x48
  1228  0000A8                     	ds	2
  1229  0000AA                     _vfpfcnvrt$4821:
  1230                           	callstack 0
  1231                           
  1232                           ; 2 bytes @ 0x4A
  1233  0000AA                     	ds	2
  1234  0000AC                     ?_vfprintf:
  1235                           	callstack 0
  1236  0000AC                     vfprintf@fp:
  1237                           	callstack 0
  1238                           
  1239                           ; 1 bytes @ 0x4C
  1240  0000AC                     	ds	1
  1241  0000AD                     vfprintf@fmt:
  1242                           	callstack 0
  1243                           
  1244                           ; 1 bytes @ 0x4D
  1245  0000AD                     	ds	1
  1246  0000AE                     vfprintf@ap:
  1247                           	callstack 0
  1248                           
  1249                           ; 1 bytes @ 0x4E
  1250  0000AE                     	ds	1
  1251  0000AF                     vfprintf@cfmt:
  1252                           	callstack 0
  1253                           
  1254                           ; 1 bytes @ 0x4F
  1255  0000AF                     	ds	1
  1256  0000B0                     ?_sprintf:
  1257                           	callstack 0
  1258  0000B0                     sprintf@s:
  1259                           	callstack 0
  1260                           
  1261                           ; 2 bytes @ 0x50
  1262  0000B0                     	ds	2
  1263  0000B2                     sprintf@fmt:
  1264                           	callstack 0
  1265                           
  1266                           ; 1 bytes @ 0x52
  1267  0000B2                     	ds	3
  1268  0000B5                     sprintf@ap:
  1269                           	callstack 0
  1270                           
  1271                           ; 1 bytes @ 0x55
  1272  0000B5                     	ds	1
  1273  0000B6                     sprintf@f:
  1274                           	callstack 0
  1275                           
  1276                           ; 11 bytes @ 0x56
  1277  0000B6                     	ds	11
  1278  0000C1                     
  1279                           ; 1 bytes @ 0x61
  1280                           
  1281                           	psect	cstackCOMRAM
  1282  000001                     __pcstackCOMRAM:
  1283                           	callstack 0
  1284  000001                     ??_USBCheckCDCRequest:
  1285  000001                     ??_USBStdGetDscHandler:
  1286  000001                     ??_USBStdGetStatusHandler:
  1287  000001                     ?i2_USBTransferOnePacket:
  1288                           	callstack 0
  1289  000001                     USBConfigureEndpoint@direction:
  1290                           	callstack 0
  1291  000001                     USBCtrlTrfTxService@byteToSend:
  1292                           	callstack 0
  1293  000001                     USBCtrlTrfRxService@i:
  1294                           	callstack 0
  1295  000001                     TMR2_WriteTimer@timerVal:
  1296                           	callstack 0
  1297  000001                     i2USBTransferOnePacket@dir:
  1298                           	callstack 0
  1299  000001                     TMR3_WriteTimer@timerVal:
  1300                           	callstack 0
  1301  000001                     memcpy@d1:
  1302                           	callstack 0
  1303  000001                     i2memset@dest:
  1304                           	callstack 0
  1305                           
  1306                           ; 2 bytes @ 0x0
  1307  000001                     	ds	1
  1308  000002                     ??_USBConfigureEndpoint:
  1309  000002                     ??_MY_TMR2_ISR:
  1310  000002                     USBCtrlTrfRxService@byteToRead:
  1311                           	callstack 0
  1312  000002                     USBCtrlTrfInHandler@lastDTS:
  1313                           	callstack 0
  1314  000002                     i2USBTransferOnePacket@data:
  1315                           	callstack 0
  1316                           
  1317                           ; 2 bytes @ 0x1
  1318  000002                     	ds	1
  1319  000003                     USBStdGetStatusHandler@p:
  1320                           	callstack 0
  1321  000003                     memcpy@s1:
  1322                           	callstack 0
  1323  000003                     i2memset@c:
  1324                           	callstack 0
  1325                           
  1326                           ; 2 bytes @ 0x2
  1327  000003                     	ds	1
  1328  000004                     i2USBTransferOnePacket@len:
  1329                           	callstack 0
  1330                           
  1331                           ; 1 bytes @ 0x3
  1332  000004                     	ds	1
  1333  000005                     ??i2_USBTransferOnePacket:
  1334  000005                     memcpy@n:
  1335                           	callstack 0
  1336  000005                     i2memset@n:
  1337                           	callstack 0
  1338                           
  1339                           ; 2 bytes @ 0x4
  1340  000005                     	ds	1
  1341  000006                     USBConfigureEndpoint@EPNum:
  1342                           	callstack 0
  1343                           
  1344                           ; 1 bytes @ 0x5
  1345  000006                     	ds	1
  1346  000007                     ??i2_memset:
  1347  000007                     i2USBTransferOnePacket@ep:
  1348                           	callstack 0
  1349  000007                     USBConfigureEndpoint@handle:
  1350                           	callstack 0
  1351  000007                     memcpy@d:
  1352                           	callstack 0
  1353                           
  1354                           ; 2 bytes @ 0x6
  1355  000007                     	ds	1
  1356  000008                     i2USBTransferOnePacket@handle:
  1357                           	callstack 0
  1358                           
  1359                           ; 2 bytes @ 0x7
  1360  000008                     	ds	1
  1361  000009                     USBEnableEndpoint@options:
  1362                           	callstack 0
  1363  000009                     memcpy@s:
  1364                           	callstack 0
  1365  000009                     i2memset@k:
  1366                           	callstack 0
  1367                           
  1368                           ; 2 bytes @ 0x8
  1369  000009                     	ds	1
  1370  00000A                     USBEnableEndpoint@p:
  1371                           	callstack 0
  1372                           
  1373                           ; 2 bytes @ 0x9
  1374  00000A                     	ds	1
  1375  00000B                     memcpy@tmp:
  1376                           	callstack 0
  1377  00000B                     i2memset@s:
  1378                           	callstack 0
  1379                           
  1380                           ; 2 bytes @ 0xA
  1381  00000B                     	ds	1
  1382  00000C                     USBEnableEndpoint@ep:
  1383                           	callstack 0
  1384                           
  1385                           ; 1 bytes @ 0xB
  1386  00000C                     	ds	1
  1387  00000D                     i2USBDeviceInit@i:
  1388                           	callstack 0
  1389  00000D                     USER_USB_CALLBACK_EVENT_HANDLER@event:
  1390                           	callstack 0
  1391                           
  1392                           ; 2 bytes @ 0xC
  1393  00000D                     	ds	2
  1394  00000F                     USER_USB_CALLBACK_EVENT_HANDLER@pdata:
  1395                           	callstack 0
  1396                           
  1397                           ; 2 bytes @ 0xE
  1398  00000F                     	ds	2
  1399  000011                     USER_USB_CALLBACK_EVENT_HANDLER@size:
  1400                           	callstack 0
  1401                           
  1402                           ; 2 bytes @ 0x10
  1403  000011                     	ds	2
  1404  000013                     ??_USER_USB_CALLBACK_EVENT_HANDLER:
  1405                           
  1406                           ; 1 bytes @ 0x12
  1407  000013                     	ds	2
  1408  000015                     ??_USBStdFeatureReqHandler:
  1409  000015                     USBStdSetCfgHandler@i:
  1410                           	callstack 0
  1411                           
  1412                           ; 1 bytes @ 0x14
  1413  000015                     	ds	2
  1414  000017                     USBStdFeatureReqHandler@pUEP:
  1415                           	callstack 0
  1416                           
  1417                           ; 2 bytes @ 0x16
  1418  000017                     	ds	2
  1419  000019                     USBStdFeatureReqHandler@current_ep_data:
  1420                           	callstack 0
  1421                           
  1422                           ; 1 bytes @ 0x18
  1423  000019                     	ds	1
  1424  00001A                     USBStdFeatureReqHandler@p:
  1425                           	callstack 0
  1426                           
  1427                           ; 2 bytes @ 0x19
  1428  00001A                     	ds	2
  1429  00001C                     ??_USBCheckStdRequest:
  1430                           
  1431                           ; 1 bytes @ 0x1B
  1432  00001C                     	ds	2
  1433  00001E                     ??_USBCtrlEPService:
  1434  00001E                     
  1435                           ; 1 bytes @ 0x1D
  1436  00001E                     	ds	1
  1437  00001F                     USBDeviceTasks@i:
  1438                           	callstack 0
  1439                           
  1440                           ; 1 bytes @ 0x1E
  1441  00001F                     	ds	1
  1442  000020                     ??_INTERRUPT_InterruptManager:
  1443                           
  1444                           ; 1 bytes @ 0x1F
  1445  000020                     	ds	12
  1446                           
  1447 ;;
  1448 ;;Main: autosize = 0, tempsize = 0, incstack = 0, save=0
  1449 ;;
  1450 ;; *************** function _main *****************
  1451 ;; Defined at:
  1452 ;;		line 45 in file "main.c"
  1453 ;; Parameters:    Size  Location     Type
  1454 ;;		None
  1455 ;; Auto vars:     Size  Location     Type
  1456 ;;  buf            20    0[BANK1 ] unsigned char [20]
  1457 ;;  CommandList     6   22[BANK1 ] struct Fila_T
  1458 ;;  a               2   20[BANK1 ] int 
  1459 ;; Return value:  Size  Location     Type
  1460 ;;                  1    wreg      void 
  1461 ;; Registers used:
  1462 ;;		wreg, fsr1l, fsr1h, fsr2l, fsr2h, status,2, status,0, tblptrl, tblptrh, tblptru, prodl, prodh, cstack
  1463 ;; Tracked objects:
  1464 ;;		On entry : 0/0
  1465 ;;		On exit  : 3F/0
  1466 ;;		Unchanged: 0/0
  1467 ;; Data sizes:     COMRAM   BANK0   BANK1   BANK2   BANK3   BANK4   BANK5   BANK6   BANK7
  1468 ;;      Params:         0       0       0       0       0       0       0       0       0
  1469 ;;      Locals:         0       0      28       0       0       0       0       0       0
  1470 ;;      Temps:          0       0       0       0       0       0       0       0       0
  1471 ;;      Totals:         0       0      28       0       0       0       0       0       0
  1472 ;;Total ram usage:       28 bytes
  1473 ;; Hardware stack levels required when called: 18
  1474 ;; This function calls:
  1475 ;;		_CDCTxService
  1476 ;;		_FilaPop
  1477 ;;		_Fila_Agregar
  1478 ;;		_Fila_Init
  1479 ;;		_SYSTEM_Initialize
  1480 ;;		_TMR2_SetInterruptHandler
  1481 ;;		_TMR2_StopTimer
  1482 ;;		_TMR3_StopTimer
  1483 ;;		_sprintf
  1484 ;;		_strlen
  1485 ;; This function is called by:
  1486 ;;		Startup code after reset
  1487 ;; This function uses a non-reentrant model
  1488 ;;
  1489                           
  1490                           	psect	text0
  1491  0013B4                     __ptext0:
  1492                           	callstack 0
  1493  0013B4                     _main:
  1494                           	callstack 13
  1495                           
  1496                           ;main.c: 48:     SYSTEM_Initialize();
  1497                           
  1498                           ;incstack = 0
  1499  0013B4  EC3D  F01A         	call	_SYSTEM_Initialize	;wreg free
  1500                           
  1501                           ; BSR set to: 0
  1502                           ;main.c: 49:     G[0]=G_00;
  1503  0013B8  0E00               	movlw	0
  1504  0013BA  0106               	movlb	6	; () banked
  1505  0013BC  6F00               	movwf	_G& (0+255),b
  1506  0013BE  0E00               	movlw	0
  1507  0013C0  6F01               	movwf	(_G+1)& (0+255),b
  1508                           
  1509                           ; BSR set to: 6
  1510                           ;main.c: 50:     G[53]=G_53;
  1511  0013C2  0E00               	movlw	0
  1512  0013C4  6F6A               	movwf	(_G+106)& (0+255),b
  1513  0013C6  0E00               	movlw	0
  1514  0013C8  6F6B               	movwf	(_G+107)& (0+255),b
  1515                           
  1516                           ; BSR set to: 6
  1517                           ;main.c: 56:     (INTCONbits.GIE = 1);
  1518  0013CA  8EF2               	bsf	242,7,c	;volatile
  1519                           
  1520                           ; BSR set to: 6
  1521                           ;main.c: 62:     (INTCONbits.PEIE = 1);
  1522  0013CC  8CF2               	bsf	242,6,c	;volatile
  1523                           
  1524                           ; BSR set to: 6
  1525                           ;main.c: 66:     TMR3_StopTimer();
  1526  0013CE  EC5A  F01B         	call	_TMR3_StopTimer	;wreg free
  1527                           
  1528                           ; BSR set to: 6
  1529                           ;main.c: 67:     TMR2_StopTimer();
  1530  0013D2  EC5C  F01B         	call	_TMR2_StopTimer	;wreg free
  1531                           
  1532                           ; BSR set to: 6
  1533                           ;main.c: 68:     TMR2_SetInterruptHandler(MY_TMR2_ISR);
  1534  0013D6  0EAA               	movlw	low _MY_TMR2_ISR
  1535  0013D8  0100               	movlb	0	; () banked
  1536  0013DA  6F60               	movwf	TMR2_SetInterruptHandler@InterruptHandler& (0+255),b
  1537  0013DC  0E30               	movlw	high _MY_TMR2_ISR
  1538  0013DE  6F61               	movwf	(TMR2_SetInterruptHandler@InterruptHandler+1)& (0+255),b
  1539  0013E0  EC4C  F01B         	call	_TMR2_SetInterruptHandler	;wreg free
  1540                           
  1541                           ; BSR set to: 0
  1542                           ;main.c: 69:     Fila_T CommandList;;main.c: 70:     Fila_Init(&CommandList);
  1543  0013E4  0ECD               	movlw	low main@CommandList
  1544  0013E6  6F60               	movwf	Fila_Init@fila& (0+255),b
  1545  0013E8  0E01               	movlw	high main@CommandList
  1546  0013EA  6F61               	movwf	(Fila_Init@fila+1)& (0+255),b
  1547  0013EC  EC6A  F019         	call	_Fila_Init	;wreg free
  1548                           
  1549                           ; BSR set to: 0
  1550                           ;main.c: 71:     PORTBbits.RB0=0;
  1551  0013F0  9081               	bcf	129,0,c	;volatile
  1552                           
  1553                           ; BSR set to: 0
  1554                           ;main.c: 72:     PORTBbits.RB4=1;
  1555  0013F2  8881               	bsf	129,4,c	;volatile
  1556                           
  1557                           ; BSR set to: 0
  1558                           ;main.c: 73:     PORTBbits.RB5=1;
  1559  0013F4  8A81               	bsf	129,5,c	;volatile
  1560                           
  1561                           ; BSR set to: 0
  1562                           ;main.c: 74:     PORTBbits.RB1=0;
  1563  0013F6  9281               	bcf	129,1,c	;volatile
  1564                           
  1565                           ; BSR set to: 0
  1566                           ;main.c: 75:     PORTBbits.RB2=0;
  1567  0013F8  9481               	bcf	129,2,c	;volatile
  1568                           
  1569                           ; BSR set to: 0
  1570                           ;main.c: 76:     PORTBbits.RB3=0;
  1571  0013FA  9681               	bcf	129,3,c	;volatile
  1572                           
  1573                           ; BSR set to: 0
  1574                           ;main.c: 79:     numBytesRead=0;
  1575  0013FC  0E00               	movlw	0
  1576  0013FE  6FE3               	movwf	_numBytesRead& (0+255),b
  1577                           
  1578                           ; BSR set to: 0
  1579                           ;main.c: 81:     LATBbits.LATB0=1;
  1580  001400  808A               	bsf	138,0,c	;volatile
  1581                           
  1582                           ; BSR set to: 0
  1583                           ;main.c: 82:     int a=0;
  1584  001402  0E00               	movlw	0
  1585  001404  0101               	movlb	1	; () banked
  1586  001406  6FCC               	movwf	(main@a+1)& (0+255),b
  1587  001408  0E00               	movlw	0
  1588  00140A  6FCB               	movwf	main@a& (0+255),b
  1589  00140C                     l8366:
  1590                           
  1591                           ;main.c: 85:     {;main.c: 90:        if(a==0){
  1592  00140C  0101               	movlb	1	; () banked
  1593  00140E  51CB               	movf	main@a& (0+255),w,b
  1594  001410  11CC               	iorwf	(main@a+1)& (0+255),w,b
  1595  001412  A4D8               	btfss	status,2,c
  1596  001414  D05A               	goto	l8380
  1597                           
  1598                           ; BSR set to: 1
  1599                           ;main.c: 91:           sprintf(buf,"N01");
  1600  001416  0EB7               	movlw	low main@buf
  1601  001418  0100               	movlb	0	; () banked
  1602  00141A  6FB0               	movwf	sprintf@s& (0+255),b
  1603  00141C  0E01               	movlw	high main@buf
  1604  00141E  6FB1               	movwf	(sprintf@s+1)& (0+255),b
  1605  001420  0ED8               	movlw	low STR_1
  1606  001422  6FB2               	movwf	sprintf@fmt& (0+255),b
  1607  001424  EC4A  F019         	call	_sprintf	;wreg free
  1608                           
  1609                           ; BSR set to: 0
  1610                           ;main.c: 92:           Fila_Agregar(&CommandList,buf,strlen(buf));
  1611  001428  0ECD               	movlw	low main@CommandList
  1612  00142A  6F80               	movwf	Fila_Agregar@fila& (0+255),b
  1613  00142C  0E01               	movlw	high main@CommandList
  1614  00142E  6F81               	movwf	(Fila_Agregar@fila+1)& (0+255),b
  1615  001430  0EB7               	movlw	low main@buf
  1616  001432  6F82               	movwf	Fila_Agregar@comando& (0+255),b
  1617  001434  0E01               	movlw	high main@buf
  1618  001436  6F83               	movwf	(Fila_Agregar@comando+1)& (0+255),b
  1619  001438  0EB7               	movlw	low main@buf
  1620  00143A  6F60               	movwf	strlen@s& (0+255),b
  1621  00143C  0E01               	movlw	high main@buf
  1622  00143E  6F61               	movwf	(strlen@s+1)& (0+255),b
  1623  001440  ECAD  F01A         	call	_strlen	;wreg free
  1624  001444  C060  F084         	movff	?_strlen,Fila_Agregar@nBytes
  1625  001448  C061  F085         	movff	?_strlen+1,Fila_Agregar@nBytes+1
  1626  00144C  EC24  F011         	call	_Fila_Agregar	;wreg free
  1627                           
  1628                           ; BSR set to: 0
  1629                           ;main.c: 93:           sprintf(buf,"N02");
  1630  001450  0EB7               	movlw	low main@buf
  1631  001452  6FB0               	movwf	sprintf@s& (0+255),b
  1632  001454  0E01               	movlw	high main@buf
  1633  001456  6FB1               	movwf	(sprintf@s+1)& (0+255),b
  1634  001458  0EDC               	movlw	low STR_2
  1635  00145A  6FB2               	movwf	sprintf@fmt& (0+255),b
  1636  00145C  EC4A  F019         	call	_sprintf	;wreg free
  1637                           
  1638                           ;main.c: 94:           Fila_Agregar(&CommandList,buf,strlen(buf));
  1639  001460  0ECD               	movlw	low main@CommandList
  1640  001462  6F80               	movwf	Fila_Agregar@fila& (0+255),b
  1641  001464  0E01               	movlw	high main@CommandList
  1642  001466  6F81               	movwf	(Fila_Agregar@fila+1)& (0+255),b
  1643  001468  0EB7               	movlw	low main@buf
  1644  00146A  6F82               	movwf	Fila_Agregar@comando& (0+255),b
  1645  00146C  0E01               	movlw	high main@buf
  1646  00146E  6F83               	movwf	(Fila_Agregar@comando+1)& (0+255),b
  1647  001470  0EB7               	movlw	low main@buf
  1648  001472  6F60               	movwf	strlen@s& (0+255),b
  1649  001474  0E01               	movlw	high main@buf
  1650  001476  6F61               	movwf	(strlen@s+1)& (0+255),b
  1651  001478  ECAD  F01A         	call	_strlen	;wreg free
  1652  00147C  C060  F084         	movff	?_strlen,Fila_Agregar@nBytes
  1653  001480  C061  F085         	movff	?_strlen+1,Fila_Agregar@nBytes+1
  1654  001484  EC24  F011         	call	_Fila_Agregar	;wreg free
  1655                           
  1656                           ; BSR set to: 0
  1657                           ;main.c: 95:           sprintf(buf,"N03");
  1658  001488  0EB7               	movlw	low main@buf
  1659  00148A  6FB0               	movwf	sprintf@s& (0+255),b
  1660  00148C  0E01               	movlw	high main@buf
  1661  00148E  6FB1               	movwf	(sprintf@s+1)& (0+255),b
  1662  001490  0EE0               	movlw	low STR_3
  1663  001492  6FB2               	movwf	sprintf@fmt& (0+255),b
  1664  001494  EC4A  F019         	call	_sprintf	;wreg free
  1665                           
  1666                           ; BSR set to: 0
  1667                           ;main.c: 96:           Fila_Agregar(&CommandList,buf,strlen(buf));
  1668  001498  0ECD               	movlw	low main@CommandList
  1669  00149A  6F80               	movwf	Fila_Agregar@fila& (0+255),b
  1670  00149C  0E01               	movlw	high main@CommandList
  1671  00149E  6F81               	movwf	(Fila_Agregar@fila+1)& (0+255),b
  1672  0014A0  0EB7               	movlw	low main@buf
  1673  0014A2  6F82               	movwf	Fila_Agregar@comando& (0+255),b
  1674  0014A4  0E01               	movlw	high main@buf
  1675  0014A6  6F83               	movwf	(Fila_Agregar@comando+1)& (0+255),b
  1676  0014A8  0EB7               	movlw	low main@buf
  1677  0014AA  6F60               	movwf	strlen@s& (0+255),b
  1678  0014AC  0E01               	movlw	high main@buf
  1679  0014AE  6F61               	movwf	(strlen@s+1)& (0+255),b
  1680  0014B0  ECAD  F01A         	call	_strlen	;wreg free
  1681  0014B4  C060  F084         	movff	?_strlen,Fila_Agregar@nBytes
  1682  0014B8  C061  F085         	movff	?_strlen+1,Fila_Agregar@nBytes+1
  1683  0014BC  EC24  F011         	call	_Fila_Agregar	;wreg free
  1684                           
  1685                           ; BSR set to: 0
  1686                           ;main.c: 97:           a=1;
  1687  0014C0  0E00               	movlw	0
  1688  0014C2  0101               	movlb	1	; () banked
  1689  0014C4  6FCC               	movwf	(main@a+1)& (0+255),b
  1690  0014C6  0E01               	movlw	1
  1691  0014C8  6FCB               	movwf	main@a& (0+255),b
  1692  0014CA                     l8380:
  1693                           
  1694                           ; BSR set to: 1
  1695                           ;main.c: 99:        FilaPop(writeBuffer,&CommandList);
  1696  0014CA  0E00               	movlw	low _writeBuffer
  1697  0014CC  0100               	movlb	0	; () banked
  1698  0014CE  6F6A               	movwf	FilaPop@str& (0+255),b
  1699  0014D0  0E02               	movlw	high _writeBuffer
  1700  0014D2  6F6B               	movwf	(FilaPop@str+1)& (0+255),b
  1701  0014D4  0ECD               	movlw	low main@CommandList
  1702  0014D6  6F6C               	movwf	FilaPop@fila& (0+255),b
  1703  0014D8  0E01               	movlw	high main@CommandList
  1704  0014DA  6F6D               	movwf	(FilaPop@fila+1)& (0+255),b
  1705  0014DC  ECA6  F010         	call	_FilaPop	;wreg free
  1706                           
  1707                           ; BSR set to: 0
  1708                           ;main.c: 103:        CDCTxService();
  1709  0014E0  ECEE  F00D         	call	_CDCTxService	;wreg free
  1710  0014E4  D793               	goto	l8366
  1711  0014E6                     __end_of_main:
  1712                           	callstack 0
  1713                           
  1714 ;; *************** function _sprintf *****************
  1715 ;; Defined at:
  1716 ;;		line 9 in file "/Applications/microchip/xc8/v2.36/pic/sources/c99/common/nf_sprintf.c"
  1717 ;; Parameters:    Size  Location     Type
  1718 ;;  s               2   80[BANK0 ] PTR unsigned char 
  1719 ;;		 -> getTokens@buffer(20), lastToken(10), writeBuffer(100), main@buf(20), 
  1720 ;;  fmt             1   82[BANK0 ] PTR const unsigned char 
  1721 ;;		 -> STR_6(3), STR_5(9), STR_4(5), STR_3(4), 
  1722 ;;		 -> STR_2(4), STR_1(4), 
  1723 ;; Auto vars:     Size  Location     Type
  1724 ;;  f              11   86[BANK0 ] struct _IO_FILE
  1725 ;;  ret             2    0        int 
  1726 ;;  ap              1   85[BANK0 ] PTR void [1]
  1727 ;;		 -> ?_sprintf(2), 
  1728 ;; Return value:  Size  Location     Type
  1729 ;;                  2   80[BANK0 ] int 
  1730 ;; Registers used:
  1731 ;;		wreg, fsr1l, fsr1h, fsr2l, fsr2h, status,2, status,0, tblptrl, tblptrh, tblptru, cstack
  1732 ;; Tracked objects:
  1733 ;;		On entry : 3F/0
  1734 ;;		On exit  : 3F/0
  1735 ;;		Unchanged: 0/0
  1736 ;; Data sizes:     COMRAM   BANK0   BANK1   BANK2   BANK3   BANK4   BANK5   BANK6   BANK7
  1737 ;;      Params:         0       5       0       0       0       0       0       0       0
  1738 ;;      Locals:         0      12       0       0       0       0       0       0       0
  1739 ;;      Temps:          0       0       0       0       0       0       0       0       0
  1740 ;;      Totals:         0      17       0       0       0       0       0       0       0
  1741 ;;Total ram usage:       17 bytes
  1742 ;; Hardware stack levels used: 1
  1743 ;; Hardware stack levels required when called: 17
  1744 ;; This function calls:
  1745 ;;		_vfprintf
  1746 ;; This function is called by:
  1747 ;;		_main
  1748 ;;		_getTokens
  1749 ;; This function uses a non-reentrant model
  1750 ;;
  1751                           
  1752                           	psect	text1
  1753  003294                     __ptext1:
  1754                           	callstack 0
  1755  003294                     _sprintf:
  1756                           	callstack 13
  1757                           
  1758                           ; BSR set to: 0
  1759                           
  1760                           ; BSR set to: 0
  1761                           ;incstack = 0
  1762  003294  0EB3               	movlw	low (?_sprintf+3)
  1763  003296  6FB5               	movwf	sprintf@ap& (0+255),b
  1764  003298  C0B0  F0B6         	movff	sprintf@s,sprintf@f
  1765  00329C  C0B1  F0B7         	movff	sprintf@s+1,sprintf@f+1
  1766                           
  1767                           ; BSR set to: 0
  1768  0032A0  0E00               	movlw	0
  1769  0032A2  6FBA               	movwf	(sprintf@f+4)& (0+255),b
  1770  0032A4  0E00               	movlw	0
  1771  0032A6  6FB9               	movwf	(sprintf@f+3)& (0+255),b
  1772                           
  1773                           ; BSR set to: 0
  1774  0032A8  0E00               	movlw	0
  1775  0032AA  6FC0               	movwf	(sprintf@f+10)& (0+255),b
  1776  0032AC  0E00               	movlw	0
  1777  0032AE  6FBF               	movwf	(sprintf@f+9)& (0+255),b
  1778                           
  1779                           ; BSR set to: 0
  1780  0032B0  0EB6               	movlw	low sprintf@f
  1781  0032B2  6FAC               	movwf	vfprintf@fp& (0+255),b
  1782  0032B4  C0B2  F0AD         	movff	sprintf@fmt,vfprintf@fmt
  1783  0032B8  0EB5               	movlw	low sprintf@ap
  1784  0032BA  6FAE               	movwf	vfprintf@ap& (0+255),b
  1785  0032BC  ECE1  F018         	call	_vfprintf	;wreg free
  1786                           
  1787                           ; BSR set to: 1
  1788  0032C0  0100               	movlb	0	; () banked
  1789  0032C2  51B9               	movf	(sprintf@f+3)& (0+255),w,b
  1790  0032C4  25B0               	addwf	sprintf@s& (0+255),w,b
  1791  0032C6  6ED9               	movwf	fsr2l,c
  1792  0032C8  51BA               	movf	(sprintf@f+4)& (0+255),w,b
  1793  0032CA  21B1               	addwfc	(sprintf@s+1)& (0+255),w,b
  1794  0032CC  6EDA               	movwf	fsr2h,c
  1795  0032CE  0E00               	movlw	0
  1796  0032D0  6EDF               	movwf	indf2,c
  1797                           
  1798                           ; BSR set to: 0
  1799  0032D2  0012               	return		;funcret
  1800  0032D4                     __end_of_sprintf:
  1801                           	callstack 0
  1802                           
  1803 ;; *************** function _vfprintf *****************
  1804 ;; Defined at:
  1805 ;;		line 1390 in file "/Applications/microchip/xc8/v2.36/pic/sources/c99/common/doprnt.c"
  1806 ;; Parameters:    Size  Location     Type
  1807 ;;  fp              1   76[BANK0 ] PTR struct _IO_FILE
  1808 ;;		 -> sprintf@f(11), 
  1809 ;;  fmt             1   77[BANK0 ] PTR const unsigned char 
  1810 ;;		 -> STR_6(3), STR_5(9), STR_4(5), STR_3(4), 
  1811 ;;		 -> STR_2(4), STR_1(4), 
  1812 ;;  ap              1   78[BANK0 ] PTR PTR void 
  1813 ;;		 -> sprintf@ap(1), 
  1814 ;; Auto vars:     Size  Location     Type
  1815 ;;  cfmt            1   79[BANK0 ] PTR unsigned char 
  1816 ;;		 -> STR_6(3), STR_5(9), STR_4(5), STR_3(4), 
  1817 ;;		 -> STR_2(4), STR_1(4), 
  1818 ;; Return value:  Size  Location     Type
  1819 ;;                  2   76[BANK0 ] int 
  1820 ;; Registers used:
  1821 ;;		wreg, fsr1l, fsr1h, fsr2l, fsr2h, status,2, status,0, tblptrl, tblptrh, tblptru, cstack
  1822 ;; Tracked objects:
  1823 ;;		On entry : 3F/0
  1824 ;;		On exit  : 3F/1
  1825 ;;		Unchanged: 0/0
  1826 ;; Data sizes:     COMRAM   BANK0   BANK1   BANK2   BANK3   BANK4   BANK5   BANK6   BANK7
  1827 ;;      Params:         0       3       0       0       0       0       0       0       0
  1828 ;;      Locals:         0       1       0       0       0       0       0       0       0
  1829 ;;      Temps:          0       0       0       0       0       0       0       0       0
  1830 ;;      Totals:         0       4       0       0       0       0       0       0       0
  1831 ;;Total ram usage:        4 bytes
  1832 ;; Hardware stack levels used: 1
  1833 ;; Hardware stack levels required when called: 16
  1834 ;; This function calls:
  1835 ;;		_vfpfcnvrt
  1836 ;; This function is called by:
  1837 ;;		_sprintf
  1838 ;; This function uses a non-reentrant model
  1839 ;;
  1840                           
  1841                           	psect	text2
  1842  0031C2                     __ptext2:
  1843                           	callstack 0
  1844  0031C2                     _vfprintf:
  1845                           	callstack 13
  1846                           
  1847                           ; BSR set to: 0
  1848                           ;/Applications/microchip/xc8/v2.36/pic/sources/c99/common/doprnt.c: 1390: int vfprintf(F
      +                          ILE *fp, const char *fmt, va_list ap);/Applications/microchip/xc8/v2.36/pic/sources/c99/
      +                          common/doprnt.c: 1391: {;/Applications/microchip/xc8/v2.36/pic/sources/c99/common/doprnt
      +                          .c: 1393:     char *cfmt;;/Applications/microchip/xc8/v2.36/pic/sources/c99/common/doprn
      +                          t.c: 1395:     cfmt = (char *)fmt;
  1849                           
  1850                           ; BSR set to: 0
  1851                           ;incstack = 0
  1852  0031C2  C0AD  F0AF         	movff	vfprintf@fmt,vfprintf@cfmt
  1853                           
  1854                           ; BSR set to: 0
  1855                           ;/Applications/microchip/xc8/v2.36/pic/sources/c99/common/doprnt.c: 1396:     nout = 0;
  1856  0031C6  0E00               	movlw	0
  1857  0031C8  0101               	movlb	1	; () banked
  1858  0031CA  6F27               	movwf	(_nout+1)& (0+255),b
  1859  0031CC  0E00               	movlw	0
  1860  0031CE  6F26               	movwf	_nout& (0+255),b
  1861                           
  1862                           ;/Applications/microchip/xc8/v2.36/pic/sources/c99/common/doprnt.c: 1397:     while (*cf
      +                          mt) {
  1863  0031D0  D010               	goto	l7832
  1864  0031D2                     l7830:
  1865                           
  1866                           ; BSR set to: 1
  1867                           ;/Applications/microchip/xc8/v2.36/pic/sources/c99/common/doprnt.c: 1398:         nout +
      +                          = vfpfcnvrt(fp, &cfmt, ap);
  1868  0031D2  C0AC  F09D         	movff	vfprintf@fp,vfpfcnvrt@fp
  1869  0031D6  0EAF               	movlw	low vfprintf@cfmt
  1870  0031D8  0100               	movlb	0	; () banked
  1871  0031DA  6F9E               	movwf	vfpfcnvrt@fmt& (0+255),b
  1872  0031DC  C0AE  F09F         	movff	vfprintf@ap,vfpfcnvrt@ap
  1873  0031E0  ECAC  F007         	call	_vfpfcnvrt	;wreg free
  1874  0031E4  519D               	movf	?_vfpfcnvrt& (0+255),w,b
  1875  0031E6  0101               	movlb	1	; () banked
  1876  0031E8  2726               	addwf	_nout& (0+255),f,b
  1877  0031EA  0100               	movlb	0	; () banked
  1878  0031EC  519E               	movf	(?_vfpfcnvrt+1)& (0+255),w,b
  1879  0031EE  0101               	movlb	1	; () banked
  1880  0031F0  2327               	addwfc	(_nout+1)& (0+255),f,b
  1881  0031F2                     l7832:
  1882                           
  1883                           ; BSR set to: 1
  1884                           ;/Applications/microchip/xc8/v2.36/pic/sources/c99/common/doprnt.c: 1397:     while (*cf
      +                          mt) {
  1885  0031F2  C0AF  FFF6         	movff	vfprintf@cfmt,tblptrl
  1886  0031F6                     	if	1	;There is more than 1 active tblptr byte
  1887  0031F6  0E08               	movlw	high __smallconst
  1888  0031F8  6EF7               	movwf	tblptrh,c
  1889  0031FA                     	endif
  1890  0031FA                     	if	0	;tblptru may be non-zero
  1891  0031FA                     	endif
  1892  0031FA                     	if	0	;tblptru may be non-zero
  1893  0031FA                     	endif
  1894  0031FA  0008               	tblrd		*
  1895  0031FC  50F5               	movf	tablat,w,c
  1896  0031FE  0900               	iorlw	0
  1897  003200  A4D8               	btfss	status,2,c
  1898  003202  D7E7               	goto	l7830
  1899                           
  1900                           ; BSR set to: 1
  1901                           ;/Applications/microchip/xc8/v2.36/pic/sources/c99/common/doprnt.c: 1400:     return nou
      +                          t;
  1902  003204  C126  F0AC         	movff	_nout,?_vfprintf
  1903  003208  C127  F0AD         	movff	_nout+1,?_vfprintf+1
  1904                           
  1905                           ; BSR set to: 1
  1906  00320C  0012               	return		;funcret
  1907  00320E                     __end_of_vfprintf:
  1908                           	callstack 0
  1909                           
  1910 ;; *************** function _vfpfcnvrt *****************
  1911 ;; Defined at:
  1912 ;;		line 692 in file "/Applications/microchip/xc8/v2.36/pic/sources/c99/common/doprnt.c"
  1913 ;; Parameters:    Size  Location     Type
  1914 ;;  fp              1   61[BANK0 ] PTR struct _IO_FILE
  1915 ;;		 -> sprintf@f(11), 
  1916 ;;  fmt             1   62[BANK0 ] PTR PTR unsigned char 
  1917 ;;		 -> vfprintf@cfmt(1), 
  1918 ;;  ap              1   63[BANK0 ] PTR PTR void 
  1919 ;;		 -> sprintf@ap(1), 
  1920 ;; Auto vars:     Size  Location     Type
  1921 ;;  ll              8   64[BANK0 ] long long 
  1922 ;;  llu             8    0        unsigned long long 
  1923 ;;  f               4    0        unsigned long long 
  1924 ;;  vp              3    0        PTR void 
  1925 ;;  ct              3    0        unsigned char [3]
  1926 ;;  cp              2   72[BANK0 ] PTR unsigned char 
  1927 ;;		 -> ?_sprintf(2), executeCommand@strCommand(30), lastToken(10), readBuffer(100), 
  1928 ;;		 -> writeBuffer(100), NULL(0), 
  1929 ;;  i               2    0        int 
  1930 ;;  done            2    0        int 
  1931 ;;  c               1    0        unsigned char 
  1932 ;; Return value:  Size  Location     Type
  1933 ;;                  2   61[BANK0 ] int 
  1934 ;; Registers used:
  1935 ;;		wreg, fsr1l, fsr1h, fsr2l, fsr2h, status,2, status,0, tblptrl, tblptrh, tblptru, cstack
  1936 ;; Tracked objects:
  1937 ;;		On entry : 3F/0
  1938 ;;		On exit  : 3F/0
  1939 ;;		Unchanged: 0/0
  1940 ;; Data sizes:     COMRAM   BANK0   BANK1   BANK2   BANK3   BANK4   BANK5   BANK6   BANK7
  1941 ;;      Params:         0       3       0       0       0       0       0       0       0
  1942 ;;      Locals:         0      12       0       0       0       0       0       0       0
  1943 ;;      Temps:          0       0       0       0       0       0       0       0       0
  1944 ;;      Totals:         0      15       0       0       0       0       0       0       0
  1945 ;;Total ram usage:       15 bytes
  1946 ;; Hardware stack levels used: 1
  1947 ;; Hardware stack levels required when called: 15
  1948 ;; This function calls:
  1949 ;;		_dtoa
  1950 ;;		_fputc
  1951 ;;		_stoa
  1952 ;;		_strncmp
  1953 ;; This function is called by:
  1954 ;;		_vfprintf
  1955 ;; This function uses a non-reentrant model
  1956 ;;
  1957                           
  1958                           	psect	text3
  1959  000F58                     __ptext3:
  1960                           	callstack 0
  1961  000F58                     _vfpfcnvrt:
  1962                           	callstack 13
  1963                           
  1964                           ; BSR set to: 0
  1965                           ;/Applications/microchip/xc8/v2.36/pic/sources/c99/common/doprnt.c: 692: static int vfpf
      +                          cnvrt(FILE *fp, char *fmt[], va_list ap);/Applications/microchip/xc8/v2.36/pic/sources/c
      +                          99/common/doprnt.c: 693: {;/Applications/microchip/xc8/v2.36/pic/sources/c99/common/dopr
      +                          nt.c: 694:     char c, *cp, ct[3];;/Applications/microchip/xc8/v2.36/pic/sources/c99/com
      +                          mon/doprnt.c: 695:     int done, i;;/Applications/microchip/xc8/v2.36/pic/sources/c99/co
      +                          mmon/doprnt.c: 696:     long long ll;;/Applications/microchip/xc8/v2.36/pic/sources/c99/
      +                          common/doprnt.c: 697:     unsigned long long llu;
  1966                           
  1967                           ; BSR set to: 1
  1968                           ;incstack = 0
  1969  000F58  519E               	movf	vfpfcnvrt@fmt& (0+255),w,b
  1970  000F5A  6ED9               	movwf	fsr2l,c
  1971  000F5C  6ADA               	clrf	fsr2h,c
  1972  000F5E  CFDF FFF6          	movff	indf2,tblptrl
  1973  000F62                     	if	1	;There is more than 1 active tblptr byte
  1974  000F62  0E08               	movlw	high __smallconst
  1975  000F64  6EF7               	movwf	tblptrh,c
  1976  000F66                     	endif
  1977  000F66                     	if	0	;tblptru may be non-zero
  1978  000F66                     	endif
  1979  000F66                     	if	0	;tblptru may be non-zero
  1980  000F66                     	endif
  1981  000F66  0008               	tblrd		*
  1982  000F68  50F5               	movf	tablat,w,c
  1983  000F6A  0A25               	xorlw	37
  1984  000F6C  A4D8               	btfss	status,2,c
  1985  000F6E  D0CF               	goto	l7558
  1986                           
  1987                           ; BSR set to: 0
  1988                           ;/Applications/microchip/xc8/v2.36/pic/sources/c99/common/doprnt.c: 703:         ++*fmt;
  1989  000F70  519E               	movf	vfpfcnvrt@fmt& (0+255),w,b
  1990  000F72  6ED9               	movwf	fsr2l,c
  1991  000F74  6ADA               	clrf	fsr2h,c
  1992  000F76  2ADF               	incf	indf2,f,c
  1993                           
  1994                           ; BSR set to: 0
  1995                           ;/Applications/microchip/xc8/v2.36/pic/sources/c99/common/doprnt.c: 705:         flags =
      +                           width = 0;
  1996  000F78  0E00               	movlw	0
  1997  000F7A  0101               	movlb	1	; () banked
  1998  000F7C  6F29               	movwf	(_width+1)& (0+255),b
  1999  000F7E  0E00               	movlw	0
  2000  000F80  6F28               	movwf	_width& (0+255),b
  2001  000F82  C128  F0DD         	movff	_width,_flags
  2002  000F86  C129  F0DE         	movff	_width+1,_flags+1
  2003                           
  2004                           ; BSR set to: 1
  2005                           ;/Applications/microchip/xc8/v2.36/pic/sources/c99/common/doprnt.c: 706:         prec = 
      +                          -1;
  2006  000F8A  0100               	movlb	0	; () banked
  2007  000F8C  69DB               	setf	_prec& (0+255),b
  2008  000F8E  69DC               	setf	(_prec+1)& (0+255),b
  2009                           
  2010                           ; BSR set to: 0
  2011                           ;/Applications/microchip/xc8/v2.36/pic/sources/c99/common/doprnt.c: 847:         if ((*f
      +                          mt[0] == 'd') || (*fmt[0] == 'i')) {
  2012  000F90  519E               	movf	vfpfcnvrt@fmt& (0+255),w,b
  2013  000F92  6ED9               	movwf	fsr2l,c
  2014  000F94  6ADA               	clrf	fsr2h,c
  2015  000F96  CFDF FFF6          	movff	indf2,tblptrl
  2016  000F9A                     	if	1	;There is more than 1 active tblptr byte
  2017  000F9A  0E08               	movlw	high __smallconst
  2018  000F9C  6EF7               	movwf	tblptrh,c
  2019  000F9E                     	endif
  2020  000F9E                     	if	0	;tblptru may be non-zero
  2021  000F9E                     	endif
  2022  000F9E                     	if	0	;tblptru may be non-zero
  2023  000F9E                     	endif
  2024  000F9E  0008               	tblrd		*
  2025  000FA0  50F5               	movf	tablat,w,c
  2026  000FA2  0A64               	xorlw	100
  2027  000FA4  B4D8               	btfsc	status,2,c
  2028  000FA6  D00C               	goto	u6640
  2029                           
  2030                           ; BSR set to: 0
  2031  000FA8  519E               	movf	vfpfcnvrt@fmt& (0+255),w,b
  2032  000FAA  6ED9               	movwf	fsr2l,c
  2033  000FAC  6ADA               	clrf	fsr2h,c
  2034  000FAE  CFDF FFF6          	movff	indf2,tblptrl
  2035  000FB2                     	if	1	;There is more than 1 active tblptr byte
  2036  000FB2  0E08               	movlw	high __smallconst
  2037  000FB4  6EF7               	movwf	tblptrh,c
  2038  000FB6                     	endif
  2039  000FB6                     	if	0	;tblptru may be non-zero
  2040  000FB6                     	endif
  2041  000FB6                     	if	0	;tblptru may be non-zero
  2042  000FB6                     	endif
  2043  000FB6  0008               	tblrd		*
  2044  000FB8  50F5               	movf	tablat,w,c
  2045  000FBA  0A69               	xorlw	105
  2046  000FBC  A4D8               	btfss	status,2,c
  2047  000FBE  D032               	goto	l7524
  2048  000FC0                     u6640:
  2049                           
  2050                           ; BSR set to: 0
  2051                           ;/Applications/microchip/xc8/v2.36/pic/sources/c99/common/doprnt.c: 849:             ++*
      +                          fmt;
  2052  000FC0  519E               	movf	vfpfcnvrt@fmt& (0+255),w,b
  2053  000FC2  6ED9               	movwf	fsr2l,c
  2054  000FC4  6ADA               	clrf	fsr2h,c
  2055  000FC6  2ADF               	incf	indf2,f,c
  2056                           
  2057                           ; BSR set to: 0
  2058                           ;/Applications/microchip/xc8/v2.36/pic/sources/c99/common/doprnt.c: 850:             ll 
      +                          = (long long)(*(int *)__va_arg(*(int **)ap, (int)0));
  2059  000FC8  519F               	movf	vfpfcnvrt@ap& (0+255),w,b
  2060  000FCA  6ED9               	movwf	fsr2l,c
  2061  000FCC  6ADA               	clrf	fsr2h,c
  2062  000FCE  50DF               	movf	indf2,w,c
  2063  000FD0  2ADF               	incf	indf2,f,c
  2064  000FD2  2ADF               	incf	indf2,f,c
  2065  000FD4  6ED9               	movwf	fsr2l,c
  2066  000FD6  6ADA               	clrf	fsr2h,c
  2067  000FD8  CFDE F0A0          	movff	postinc2,vfpfcnvrt@ll
  2068  000FDC  CFDD F0A1          	movff	postdec2,vfpfcnvrt@ll+1
  2069  000FE0  0E00               	movlw	0
  2070  000FE2  BFA1               	btfsc	(vfpfcnvrt@ll+1)& (0+255),7,b
  2071  000FE4  0EFF               	movlw	-1
  2072  000FE6  6FA2               	movwf	(vfpfcnvrt@ll+2)& (0+255),b
  2073  000FE8  6FA3               	movwf	(vfpfcnvrt@ll+3)& (0+255),b
  2074  000FEA  6FA4               	movwf	(vfpfcnvrt@ll+4)& (0+255),b
  2075  000FEC  6FA5               	movwf	(vfpfcnvrt@ll+5)& (0+255),b
  2076  000FEE  6FA6               	movwf	(vfpfcnvrt@ll+6)& (0+255),b
  2077  000FF0  6FA7               	movwf	(vfpfcnvrt@ll+7)& (0+255),b
  2078                           
  2079                           ; BSR set to: 0
  2080                           ;/Applications/microchip/xc8/v2.36/pic/sources/c99/common/doprnt.c: 852:             ret
      +                          urn dtoa(fp, ll);
  2081  000FF2  C09D  F07A         	movff	vfpfcnvrt@fp,dtoa@fp
  2082  000FF6  C0A0  F07B         	movff	vfpfcnvrt@ll,dtoa@d
  2083  000FFA  C0A1  F07C         	movff	vfpfcnvrt@ll+1,dtoa@d+1
  2084  000FFE  C0A2  F07D         	movff	vfpfcnvrt@ll+2,dtoa@d+2
  2085  001002  C0A3  F07E         	movff	vfpfcnvrt@ll+3,dtoa@d+3
  2086  001006  C0A4  F07F         	movff	vfpfcnvrt@ll+4,dtoa@d+4
  2087  00100A  C0A5  F080         	movff	vfpfcnvrt@ll+5,dtoa@d+5
  2088  00100E  C0A6  F081         	movff	vfpfcnvrt@ll+6,dtoa@d+6
  2089  001012  C0A7  F082         	movff	vfpfcnvrt@ll+7,dtoa@d+7
  2090  001016  EC73  F004         	call	_dtoa	;wreg free
  2091  00101A  C07A  F09D         	movff	?_dtoa,?_vfpfcnvrt
  2092  00101E  C07B  F09E         	movff	?_dtoa+1,?_vfpfcnvrt+1
  2093  001022  0012               	return	
  2094  001024                     l7524:
  2095                           
  2096                           ; BSR set to: 0
  2097                           ;/Applications/microchip/xc8/v2.36/pic/sources/c99/common/doprnt.c: 1171:         if (*f
      +                          mt[0] == 's' || !strncmp(*fmt, "lls", ((sizeof("lls")/sizeof("lls"[0]))-1))) {
  2098  001024  519E               	movf	vfpfcnvrt@fmt& (0+255),w,b
  2099  001026  6ED9               	movwf	fsr2l,c
  2100  001028  6ADA               	clrf	fsr2h,c
  2101  00102A  CFDF FFF6          	movff	indf2,tblptrl
  2102  00102E                     	if	1	;There is more than 1 active tblptr byte
  2103  00102E  0E08               	movlw	high __smallconst
  2104  001030  6EF7               	movwf	tblptrh,c
  2105  001032                     	endif
  2106  001032                     	if	0	;tblptru may be non-zero
  2107  001032                     	endif
  2108  001032                     	if	0	;tblptru may be non-zero
  2109  001032                     	endif
  2110  001032  0008               	tblrd		*
  2111  001034  50F5               	movf	tablat,w,c
  2112  001036  0A73               	xorlw	115
  2113  001038  B4D8               	btfsc	status,2,c
  2114  00103A  D011               	goto	u6660
  2115                           
  2116                           ; BSR set to: 0
  2117  00103C  519E               	movf	vfpfcnvrt@fmt& (0+255),w,b
  2118  00103E  6ED9               	movwf	fsr2l,c
  2119  001040  6ADA               	clrf	fsr2h,c
  2120  001042  50DF               	movf	indf2,w,c
  2121  001044  6F60               	movwf	strncmp@_l& (0+255),b
  2122  001046  0ED4               	movlw	low STR_7
  2123  001048  6F61               	movwf	strncmp@_r& (0+255),b
  2124  00104A  0E00               	movlw	0
  2125  00104C  6F63               	movwf	(strncmp@n+1)& (0+255),b
  2126  00104E  0E03               	movlw	3
  2127  001050  6F62               	movwf	strncmp@n& (0+255),b
  2128  001052  ECA3  F015         	call	_strncmp	;wreg free
  2129  001056  5160               	movf	?_strncmp& (0+255),w,b
  2130  001058  1161               	iorwf	(?_strncmp+1)& (0+255),w,b
  2131  00105A  A4D8               	btfss	status,2,c
  2132  00105C  D032               	goto	l7542
  2133  00105E                     u6660:
  2134                           
  2135                           ; BSR set to: 0
  2136                           ;/Applications/microchip/xc8/v2.36/pic/sources/c99/common/doprnt.c: 1173:    *fmt += *fm
      +                          t[0] == 's' ? 1 : ((sizeof("lls")/sizeof("lls"[0]))-1);
  2137  00105E  519E               	movf	vfpfcnvrt@fmt& (0+255),w,b
  2138  001060  6ED9               	movwf	fsr2l,c
  2139  001062  6ADA               	clrf	fsr2h,c
  2140  001064  CFDF FFF6          	movff	indf2,tblptrl
  2141  001068                     	if	1	;There is more than 1 active tblptr byte
  2142  001068  0E08               	movlw	high __smallconst
  2143  00106A  6EF7               	movwf	tblptrh,c
  2144  00106C                     	endif
  2145  00106C                     	if	0	;tblptru may be non-zero
  2146  00106C                     	endif
  2147  00106C                     	if	0	;tblptru may be non-zero
  2148  00106C                     	endif
  2149  00106C  0008               	tblrd		*
  2150  00106E  50F5               	movf	tablat,w,c
  2151  001070  0A73               	xorlw	115
  2152  001072  B4D8               	btfsc	status,2,c
  2153  001074  D004               	goto	l7532
  2154                           
  2155                           ; BSR set to: 0
  2156  001076  0E00               	movlw	0
  2157  001078  6FAB               	movwf	(_vfpfcnvrt$4821+1)& (0+255),b
  2158  00107A  0E03               	movlw	3
  2159  00107C  D003               	goto	L1
  2160  00107E                     l7532:
  2161                           
  2162                           ; BSR set to: 0
  2163  00107E  0E00               	movlw	0
  2164  001080  6FAB               	movwf	(_vfpfcnvrt$4821+1)& (0+255),b
  2165  001082  0E01               	movlw	1
  2166  001084                     L1:
  2167  001084  6FAA               	movwf	_vfpfcnvrt$4821& (0+255),b
  2168                           
  2169                           ; BSR set to: 0
  2170  001086  519E               	movf	vfpfcnvrt@fmt& (0+255),w,b
  2171  001088  6ED9               	movwf	fsr2l,c
  2172  00108A  6ADA               	clrf	fsr2h,c
  2173  00108C  51AA               	movf	_vfpfcnvrt$4821& (0+255),w,b
  2174  00108E  26DF               	addwf	indf2,f,c
  2175                           
  2176                           ; BSR set to: 0
  2177                           ;/Applications/microchip/xc8/v2.36/pic/sources/c99/common/doprnt.c: 1174:             cp
      +                           = (*(char * *)__va_arg(*(char * **)ap, (char *)0));
  2178  001090  519F               	movf	vfpfcnvrt@ap& (0+255),w,b
  2179  001092  6ED9               	movwf	fsr2l,c
  2180  001094  6ADA               	clrf	fsr2h,c
  2181  001096  0E02               	movlw	2
  2182  001098  26DF               	addwf	indf2,f,c
  2183  00109A  5CDF               	subwf	indf2,w,c
  2184  00109C  6ED9               	movwf	fsr2l,c
  2185  00109E  6ADA               	clrf	fsr2h,c
  2186  0010A0  CFDE F0A8          	movff	postinc2,vfpfcnvrt@cp
  2187  0010A4  CFDE F0A9          	movff	postinc2,vfpfcnvrt@cp+1
  2188                           
  2189                           ; BSR set to: 0
  2190                           ;/Applications/microchip/xc8/v2.36/pic/sources/c99/common/doprnt.c: 1176:             re
      +                          turn stoa(fp, cp);
  2191  0010A8  C09D  F068         	movff	vfpfcnvrt@fp,stoa@fp
  2192  0010AC  C0A8  F069         	movff	vfpfcnvrt@cp,stoa@s
  2193  0010B0  C0A9  F06A         	movff	vfpfcnvrt@cp+1,stoa@s+1
  2194  0010B4  EC7C  F00E         	call	_stoa	;wreg free
  2195  0010B8  C068  F09D         	movff	?_stoa,?_vfpfcnvrt
  2196  0010BC  C069  F09E         	movff	?_stoa+1,?_vfpfcnvrt+1
  2197  0010C0  0012               	return	
  2198  0010C2                     l7542:
  2199                           
  2200                           ; BSR set to: 0
  2201                           ;/Applications/microchip/xc8/v2.36/pic/sources/c99/common/doprnt.c: 1372:         if ((*
      +                          fmt)[0] == '%') {
  2202  0010C2  519E               	movf	vfpfcnvrt@fmt& (0+255),w,b
  2203  0010C4  6ED9               	movwf	fsr2l,c
  2204  0010C6  6ADA               	clrf	fsr2h,c
  2205  0010C8  CFDF FFF6          	movff	indf2,tblptrl
  2206  0010CC                     	if	1	;There is more than 1 active tblptr byte
  2207  0010CC  0E08               	movlw	high __smallconst
  2208  0010CE  6EF7               	movwf	tblptrh,c
  2209  0010D0                     	endif
  2210  0010D0                     	if	0	;tblptru may be non-zero
  2211  0010D0                     	endif
  2212  0010D0                     	if	0	;tblptru may be non-zero
  2213  0010D0                     	endif
  2214  0010D0  0008               	tblrd		*
  2215  0010D2  50F5               	movf	tablat,w,c
  2216  0010D4  0A25               	xorlw	37
  2217  0010D6  A4D8               	btfss	status,2,c
  2218  0010D8  D011               	goto	l7552
  2219                           
  2220                           ; BSR set to: 0
  2221                           ;/Applications/microchip/xc8/v2.36/pic/sources/c99/common/doprnt.c: 1373:             ++
      +                          *fmt;
  2222  0010DA  519E               	movf	vfpfcnvrt@fmt& (0+255),w,b
  2223  0010DC  6ED9               	movwf	fsr2l,c
  2224  0010DE  6ADA               	clrf	fsr2h,c
  2225  0010E0  2ADF               	incf	indf2,f,c
  2226                           
  2227                           ; BSR set to: 0
  2228                           ;/Applications/microchip/xc8/v2.36/pic/sources/c99/common/doprnt.c: 1374:             fp
      +                          utc((int)'%', fp);
  2229  0010E2  0E00               	movlw	0
  2230  0010E4  6F61               	movwf	(fputc@c+1)& (0+255),b
  2231  0010E6  0E25               	movlw	37
  2232  0010E8  6F60               	movwf	fputc@c& (0+255),b
  2233  0010EA  C09D  F062         	movff	vfpfcnvrt@fp,fputc@fp
  2234  0010EE  EC8B  F016         	call	_fputc	;wreg free
  2235  0010F2                     l7548:
  2236                           
  2237                           ; BSR set to: 0
  2238                           ;/Applications/microchip/xc8/v2.36/pic/sources/c99/common/doprnt.c: 1375:             re
      +                          turn 1;
  2239  0010F2  0E00               	movlw	0
  2240  0010F4  6F9E               	movwf	(?_vfpfcnvrt+1)& (0+255),b
  2241  0010F6  0E01               	movlw	1
  2242  0010F8  6F9D               	movwf	?_vfpfcnvrt& (0+255),b
  2243  0010FA  0012               	return	
  2244  0010FC                     l7552:
  2245                           
  2246                           ; BSR set to: 0
  2247                           ;/Applications/microchip/xc8/v2.36/pic/sources/c99/common/doprnt.c: 1379:         ++*fmt
      +                          ;
  2248  0010FC  519E               	movf	vfpfcnvrt@fmt& (0+255),w,b
  2249  0010FE  6ED9               	movwf	fsr2l,c
  2250  001100  6ADA               	clrf	fsr2h,c
  2251  001102  2ADF               	incf	indf2,f,c
  2252                           
  2253                           ; BSR set to: 0
  2254                           ;/Applications/microchip/xc8/v2.36/pic/sources/c99/common/doprnt.c: 1380:         return
      +                           0;
  2255  001104  0E00               	movlw	0
  2256  001106  6F9E               	movwf	(?_vfpfcnvrt+1)& (0+255),b
  2257  001108  0E00               	movlw	0
  2258  00110A  6F9D               	movwf	?_vfpfcnvrt& (0+255),b
  2259  00110C  0012               	return	
  2260  00110E                     l7558:
  2261                           
  2262                           ; BSR set to: 0
  2263                           ;/Applications/microchip/xc8/v2.36/pic/sources/c99/common/doprnt.c: 1384:     fputc((int
      +                          )(*fmt)[0], fp);
  2264  00110E  519E               	movf	vfpfcnvrt@fmt& (0+255),w,b
  2265  001110  6ED9               	movwf	fsr2l,c
  2266  001112  6ADA               	clrf	fsr2h,c
  2267  001114  CFDF FFF6          	movff	indf2,tblptrl
  2268  001118                     	if	1	;There is more than 1 active tblptr byte
  2269  001118  0E08               	movlw	high __smallconst
  2270  00111A  6EF7               	movwf	tblptrh,c
  2271  00111C                     	endif
  2272  00111C                     	if	0	;tblptru may be non-zero
  2273  00111C                     	endif
  2274  00111C                     	if	0	;tblptru may be non-zero
  2275  00111C                     	endif
  2276  00111C  0008               	tblrd		*
  2277  00111E  50F5               	movf	tablat,w,c
  2278  001120  6F60               	movwf	fputc@c& (0+255),b
  2279  001122  6B61               	clrf	(fputc@c+1)& (0+255),b
  2280  001124  C09D  F062         	movff	vfpfcnvrt@fp,fputc@fp
  2281  001128  EC8B  F016         	call	_fputc	;wreg free
  2282                           
  2283                           ; BSR set to: 0
  2284                           ;/Applications/microchip/xc8/v2.36/pic/sources/c99/common/doprnt.c: 1385:     ++*fmt;
  2285  00112C  519E               	movf	vfpfcnvrt@fmt& (0+255),w,b
  2286  00112E  6ED9               	movwf	fsr2l,c
  2287  001130  6ADA               	clrf	fsr2h,c
  2288  001132  2ADF               	incf	indf2,f,c
  2289  001134  D7DE               	goto	l7548
  2290  001136                     __end_of_vfpfcnvrt:
  2291                           	callstack 0
  2292                           
  2293 ;; *************** function _strncmp *****************
  2294 ;; Defined at:
  2295 ;;		line 3 in file "/Applications/microchip/xc8/v2.36/pic/sources/c99/common/strncmp.c"
  2296 ;; Parameters:    Size  Location     Type
  2297 ;;  _l              1    0[BANK0 ] PTR const unsigned char 
  2298 ;;		 -> STR_6(3), STR_5(9), STR_4(5), STR_3(4), 
  2299 ;;		 -> STR_2(4), STR_1(4), 
  2300 ;;  _r              1    1[BANK0 ] PTR const unsigned char 
  2301 ;;		 -> STR_9(4), 
  2302 ;;  n               2    2[BANK0 ] unsigned int 
  2303 ;; Auto vars:     Size  Location     Type
  2304 ;;  r               1    6[BANK0 ] PTR const unsigned char 
  2305 ;;		 -> STR_9(4), 
  2306 ;;  l               1    5[BANK0 ] PTR const unsigned char 
  2307 ;;		 -> STR_6(3), STR_5(9), STR_4(5), STR_3(4), 
  2308 ;;		 -> STR_2(4), STR_1(4), 
  2309 ;; Return value:  Size  Location     Type
  2310 ;;                  2    0[BANK0 ] int 
  2311 ;; Registers used:
  2312 ;;		wreg, status,2, status,0, tblptrl, tblptrh, tblptru
  2313 ;; Tracked objects:
  2314 ;;		On entry : 3F/0
  2315 ;;		On exit  : 3F/0
  2316 ;;		Unchanged: 0/0
  2317 ;; Data sizes:     COMRAM   BANK0   BANK1   BANK2   BANK3   BANK4   BANK5   BANK6   BANK7
  2318 ;;      Params:         0       4       0       0       0       0       0       0       0
  2319 ;;      Locals:         0       2       0       0       0       0       0       0       0
  2320 ;;      Temps:          0       1       0       0       0       0       0       0       0
  2321 ;;      Totals:         0       7       0       0       0       0       0       0       0
  2322 ;;Total ram usage:        7 bytes
  2323 ;; Hardware stack levels used: 1
  2324 ;; Hardware stack levels required when called: 10
  2325 ;; This function calls:
  2326 ;;		Nothing
  2327 ;; This function is called by:
  2328 ;;		_vfpfcnvrt
  2329 ;; This function uses a non-reentrant model
  2330 ;;
  2331                           
  2332                           	psect	text4
  2333  002B46                     __ptext4:
  2334                           	callstack 0
  2335  002B46                     _strncmp:
  2336                           	callstack 17
  2337                           
  2338                           ; BSR set to: 0
  2339                           
  2340                           ; BSR set to: 0
  2341                           ;incstack = 0
  2342  002B46  C060  F065         	movff	strncmp@_l,strncmp@l
  2343  002B4A  C061  F066         	movff	strncmp@_r,strncmp@r
  2344  002B4E  0762               	decf	strncmp@n& (0+255),f,b
  2345  002B50  A0D8               	btfss	status,0,c
  2346  002B52  0763               	decf	(strncmp@n+1)& (0+255),f,b
  2347  002B54  2962               	incf	strncmp@n& (0+255),w,b
  2348  002B56  E10D               	bnz	l7372
  2349  002B58  2963               	incf	(strncmp@n+1)& (0+255),w,b
  2350  002B5A  A4D8               	btfss	status,2,c
  2351  002B5C  D00A               	goto	l7372
  2352                           
  2353                           ; BSR set to: 0
  2354  002B5E  0E00               	movlw	0
  2355  002B60  6F61               	movwf	(?_strncmp+1)& (0+255),b
  2356  002B62  0E00               	movlw	0
  2357  002B64  6F60               	movwf	?_strncmp& (0+255),b
  2358  002B66  0012               	return	
  2359  002B68                     l7370:
  2360                           
  2361                           ; BSR set to: 0
  2362  002B68  2B65               	incf	strncmp@l& (0+255),f,b
  2363  002B6A  2B66               	incf	strncmp@r& (0+255),f,b
  2364  002B6C  0762               	decf	strncmp@n& (0+255),f,b
  2365  002B6E  A0D8               	btfss	status,0,c
  2366  002B70  0763               	decf	(strncmp@n+1)& (0+255),f,b
  2367  002B72                     l7372:
  2368                           
  2369                           ; BSR set to: 0
  2370  002B72  C065  FFF6         	movff	strncmp@l,tblptrl
  2371  002B76                     	if	1	;There is more than 1 active tblptr byte
  2372  002B76  0E08               	movlw	high __smallconst
  2373  002B78  6EF7               	movwf	tblptrh,c
  2374  002B7A                     	endif
  2375  002B7A                     	if	0	;tblptru may be non-zero
  2376  002B7A                     	endif
  2377  002B7A                     	if	0	;tblptru may be non-zero
  2378  002B7A                     	endif
  2379  002B7A  0008               	tblrd		*
  2380  002B7C  50F5               	movf	tablat,w,c
  2381  002B7E  0900               	iorlw	0
  2382  002B80  B4D8               	btfsc	status,2,c
  2383  002B82  D01D               	goto	u6420
  2384                           
  2385                           ; BSR set to: 0
  2386  002B84  C066  FFF6         	movff	strncmp@r,tblptrl
  2387  002B88                     	if	1	;There is more than 1 active tblptr byte
  2388  002B88  0E08               	movlw	high __smallconst
  2389  002B8A  6EF7               	movwf	tblptrh,c
  2390  002B8C                     	endif
  2391  002B8C                     	if	0	;tblptru may be non-zero
  2392  002B8C                     	endif
  2393  002B8C                     	if	0	;tblptru may be non-zero
  2394  002B8C                     	endif
  2395  002B8C  0008               	tblrd		*
  2396  002B8E  50F5               	movf	tablat,w,c
  2397  002B90  0900               	iorlw	0
  2398  002B92  B4D8               	btfsc	status,2,c
  2399  002B94  D014               	goto	u6420
  2400                           
  2401                           ; BSR set to: 0
  2402  002B96  5162               	movf	strncmp@n& (0+255),w,b
  2403  002B98  1163               	iorwf	(strncmp@n+1)& (0+255),w,b
  2404  002B9A  B4D8               	btfsc	status,2,c
  2405  002B9C  D010               	goto	u6420
  2406                           
  2407                           ; BSR set to: 0
  2408  002B9E  C065  FFF6         	movff	strncmp@l,tblptrl
  2409  002BA2                     	if	1	;There is more than 1 active tblptr byte
  2410  002BA2  0E08               	movlw	high __smallconst
  2411  002BA4  6EF7               	movwf	tblptrh,c
  2412  002BA6                     	endif
  2413  002BA6                     	if	0	;tblptru may be non-zero
  2414  002BA6                     	endif
  2415  002BA6                     	if	0	;tblptru may be non-zero
  2416  002BA6                     	endif
  2417  002BA6  0008               	tblrd		*
  2418  002BA8  CFF5 F064          	movff	tablat,??_strncmp
  2419  002BAC  C066  FFF6         	movff	strncmp@r,tblptrl
  2420  002BB0                     	if	1	;There is more than 1 active tblptr byte
  2421  002BB0  0E08               	movlw	high __smallconst
  2422  002BB2  6EF7               	movwf	tblptrh,c
  2423  002BB4                     	endif
  2424  002BB4                     	if	0	;tblptru may be non-zero
  2425  002BB4                     	endif
  2426  002BB4                     	if	0	;tblptru may be non-zero
  2427  002BB4                     	endif
  2428  002BB4  0008               	tblrd		*
  2429  002BB6  50F5               	movf	tablat,w,c
  2430  002BB8  1964               	xorwf	??_strncmp& (0+255),w,b
  2431  002BBA  B4D8               	btfsc	status,2,c
  2432  002BBC  D7D5               	goto	l7370
  2433  002BBE                     u6420:
  2434                           
  2435                           ; BSR set to: 0
  2436  002BBE  C065  FFF6         	movff	strncmp@l,tblptrl
  2437  002BC2                     	if	1	;There is more than 1 active tblptr byte
  2438  002BC2  0E08               	movlw	high __smallconst
  2439  002BC4  6EF7               	movwf	tblptrh,c
  2440  002BC6                     	endif
  2441  002BC6                     	if	0	;tblptru may be non-zero
  2442  002BC6                     	endif
  2443  002BC6                     	if	0	;tblptru may be non-zero
  2444  002BC6                     	endif
  2445  002BC6  0008               	tblrd		*
  2446  002BC8  CFF5 F064          	movff	tablat,??_strncmp
  2447  002BCC  C066  FFF6         	movff	strncmp@r,tblptrl
  2448  002BD0                     	if	1	;There is more than 1 active tblptr byte
  2449  002BD0  0E08               	movlw	high __smallconst
  2450  002BD2  6EF7               	movwf	tblptrh,c
  2451  002BD4                     	endif
  2452  002BD4                     	if	0	;tblptru may be non-zero
  2453  002BD4                     	endif
  2454  002BD4                     	if	0	;tblptru may be non-zero
  2455  002BD4                     	endif
  2456  002BD4  0008               	tblrd		*
  2457  002BD6  50F5               	movf	tablat,w,c
  2458  002BD8  5D64               	subwf	??_strncmp& (0+255),w,b
  2459  002BDA  6F60               	movwf	?_strncmp& (0+255),b
  2460  002BDC  6B61               	clrf	(?_strncmp+1)& (0+255),b
  2461  002BDE  A0D8               	btfss	status,0,c
  2462  002BE0  0761               	decf	(?_strncmp+1)& (0+255),f,b
  2463                           
  2464                           ; BSR set to: 0
  2465  002BE2  0012               	return		;funcret
  2466  002BE4                     __end_of_strncmp:
  2467                           	callstack 0
  2468                           
  2469 ;; *************** function _stoa *****************
  2470 ;; Defined at:
  2471 ;;		line 568 in file "/Applications/microchip/xc8/v2.36/pic/sources/c99/common/doprnt.c"
  2472 ;; Parameters:    Size  Location     Type
  2473 ;;  fp              1    8[BANK0 ] PTR struct _IO_FILE
  2474 ;;		 -> sprintf@f(11), 
  2475 ;;  s               2    9[BANK0 ] PTR unsigned char 
  2476 ;;		 -> ?_sprintf(2), executeCommand@strCommand(30), lastToken(10), readBuffer(100), 
  2477 ;;		 -> writeBuffer(100), NULL(0), 
  2478 ;; Auto vars:     Size  Location     Type
  2479 ;;  nuls            7   12[BANK0 ] unsigned char [7]
  2480 ;;  l               2   27[BANK0 ] int 
  2481 ;;  p               2   25[BANK0 ] int 
  2482 ;;  cp              2   23[BANK0 ] PTR unsigned char 
  2483 ;;		 -> stoa@nuls(7), ?_sprintf(2), executeCommand@strCommand(30), lastToken(10), 
  2484 ;;		 -> readBuffer(100), writeBuffer(100), NULL(0), 
  2485 ;;  w               2   21[BANK0 ] int 
  2486 ;;  i               2   19[BANK0 ] int 
  2487 ;; Return value:  Size  Location     Type
  2488 ;;                  2    8[BANK0 ] int 
  2489 ;; Registers used:
  2490 ;;		wreg, fsr1l, fsr1h, fsr2l, fsr2h, status,2, status,0, cstack
  2491 ;; Tracked objects:
  2492 ;;		On entry : 3F/0
  2493 ;;		On exit  : 3F/0
  2494 ;;		Unchanged: 0/0
  2495 ;; Data sizes:     COMRAM   BANK0   BANK1   BANK2   BANK3   BANK4   BANK5   BANK6   BANK7
  2496 ;;      Params:         0       3       0       0       0       0       0       0       0
  2497 ;;      Locals:         0      17       0       0       0       0       0       0       0
  2498 ;;      Temps:          0       1       0       0       0       0       0       0       0
  2499 ;;      Totals:         0      21       0       0       0       0       0       0       0
  2500 ;;Total ram usage:       21 bytes
  2501 ;; Hardware stack levels used: 1
  2502 ;; Hardware stack levels required when called: 12
  2503 ;; This function calls:
  2504 ;;		_fputc
  2505 ;;		_strlen
  2506 ;; This function is called by:
  2507 ;;		_vfpfcnvrt
  2508 ;; This function uses a non-reentrant model
  2509 ;;
  2510                           
  2511                           	psect	text5
  2512  001CF8                     __ptext5:
  2513                           	callstack 0
  2514  001CF8                     _stoa:
  2515                           	callstack 15
  2516                           
  2517                           ; BSR set to: 0
  2518                           ;/Applications/microchip/xc8/v2.36/pic/sources/c99/common/doprnt.c: 568: static int stoa
      +                          (FILE *fp, char *s);/Applications/microchip/xc8/v2.36/pic/sources/c99/common/doprnt.c: 5
      +                          69: {;/Applications/microchip/xc8/v2.36/pic/sources/c99/common/doprnt.c: 570:     char *
      +                          cp, nuls[] = "(null)";
  2519                           
  2520                           ; BSR set to: 0
  2521                           ;incstack = 0
  2522  001CF8  EE21  F0D3         	lfsr	2,stoa@F1150
  2523  001CFC  EE10  F06C         	lfsr	1,stoa@nuls
  2524  001D00  0E06               	movlw	6
  2525  001D02                     u6291:
  2526  001D02  CFDB FFE3          	movff	plusw2,plusw1
  2527  001D06  06E8               	decf	wreg,f,c
  2528  001D08  E2FC               	bc	u6291
  2529                           
  2530                           ; BSR set to: 0
  2531                           ;/Applications/microchip/xc8/v2.36/pic/sources/c99/common/doprnt.c: 571:     int i, l, p
      +                          , w;;/Applications/microchip/xc8/v2.36/pic/sources/c99/common/doprnt.c: 574:     cp = s;
  2532  001D0A  C069  F077         	movff	stoa@s,stoa@cp
  2533  001D0E  C06A  F078         	movff	stoa@s+1,stoa@cp+1
  2534                           
  2535                           ; BSR set to: 0
  2536                           ;/Applications/microchip/xc8/v2.36/pic/sources/c99/common/doprnt.c: 575:     if (!cp) {
  2537  001D12  5177               	movf	stoa@cp& (0+255),w,b
  2538  001D14  1178               	iorwf	(stoa@cp+1)& (0+255),w,b
  2539  001D16  A4D8               	btfss	status,2,c
  2540  001D18  D003               	goto	l7330
  2541                           
  2542                           ; BSR set to: 0
  2543                           ;/Applications/microchip/xc8/v2.36/pic/sources/c99/common/doprnt.c: 576:         cp = nu
      +                          ls;
  2544  001D1A  0E6C               	movlw	low stoa@nuls
  2545  001D1C  6F77               	movwf	stoa@cp& (0+255),b
  2546  001D1E  6B78               	clrf	(stoa@cp+1)& (0+255),b
  2547  001D20                     l7330:
  2548                           
  2549                           ; BSR set to: 0
  2550                           ;/Applications/microchip/xc8/v2.36/pic/sources/c99/common/doprnt.c: 580:     l = (int)st
      +                          rlen(cp);
  2551  001D20  C077  F060         	movff	stoa@cp,strlen@s
  2552  001D24  C078  F061         	movff	stoa@cp+1,strlen@s+1
  2553  001D28  ECAD  F01A         	call	_strlen	;wreg free
  2554  001D2C  C060  F07B         	movff	?_strlen,stoa@l
  2555  001D30  C061  F07C         	movff	?_strlen+1,stoa@l+1
  2556                           
  2557                           ; BSR set to: 0
  2558                           ;/Applications/microchip/xc8/v2.36/pic/sources/c99/common/doprnt.c: 581:     p = prec;
  2559  001D34  C0DB  F079         	movff	_prec,stoa@p
  2560  001D38  C0DC  F07A         	movff	_prec+1,stoa@p+1
  2561                           
  2562                           ; BSR set to: 0
  2563                           ;/Applications/microchip/xc8/v2.36/pic/sources/c99/common/doprnt.c: 582:     l = (!(p < 
      +                          0) && (p < l)) ? p : l;
  2564  001D3C  BF7A               	btfsc	(stoa@p+1)& (0+255),7,b
  2565  001D3E  D00E               	goto	l2073
  2566                           
  2567                           ; BSR set to: 0
  2568  001D40  517B               	movf	stoa@l& (0+255),w,b
  2569  001D42  5D79               	subwf	stoa@p& (0+255),w,b
  2570  001D44  517A               	movf	(stoa@p+1)& (0+255),w,b
  2571  001D46  0A80               	xorlw	128
  2572  001D48  6F6B               	movwf	??_stoa& (0+255),b
  2573  001D4A  517C               	movf	(stoa@l+1)& (0+255),w,b
  2574  001D4C  0A80               	xorlw	128
  2575  001D4E  596B               	subwfb	??_stoa& (0+255),w,b
  2576  001D50  B0D8               	btfsc	status,0,c
  2577  001D52  D004               	goto	l2073
  2578                           
  2579                           ; BSR set to: 0
  2580  001D54  C079  F07B         	movff	stoa@p,stoa@l
  2581  001D58  C07A  F07C         	movff	stoa@p+1,stoa@l+1
  2582  001D5C                     l2073:
  2583                           
  2584                           ; BSR set to: 0
  2585                           ;/Applications/microchip/xc8/v2.36/pic/sources/c99/common/doprnt.c: 583:     p = l;
  2586  001D5C  C07B  F079         	movff	stoa@l,stoa@p
  2587  001D60  C07C  F07A         	movff	stoa@l+1,stoa@p+1
  2588                           
  2589                           ;/Applications/microchip/xc8/v2.36/pic/sources/c99/common/doprnt.c: 584:     w = width;
  2590  001D64  C128  F075         	movff	_width,stoa@w
  2591  001D68  C129  F076         	movff	_width+1,stoa@w+1
  2592                           
  2593                           ;/Applications/microchip/xc8/v2.36/pic/sources/c99/common/doprnt.c: 587:     if (!(flags
      +                           & (1 << 0))) {
  2594  001D6C  A1DD               	btfss	_flags& (0+255),0,b
  2595  001D6E  D00B               	goto	l7344
  2596  001D70  D014               	goto	u6340
  2597  001D72                     l7340:
  2598                           
  2599                           ; BSR set to: 0
  2600                           ;/Applications/microchip/xc8/v2.36/pic/sources/c99/common/doprnt.c: 589:             fpu
      +                          tc(' ', fp);
  2601  001D72  0E00               	movlw	0
  2602  001D74  6F61               	movwf	(fputc@c+1)& (0+255),b
  2603  001D76  0E20               	movlw	32
  2604  001D78  6F60               	movwf	fputc@c& (0+255),b
  2605  001D7A  C068  F062         	movff	stoa@fp,fputc@fp
  2606  001D7E  EC8B  F016         	call	_fputc	;wreg free
  2607                           
  2608                           ; BSR set to: 0
  2609                           ;/Applications/microchip/xc8/v2.36/pic/sources/c99/common/doprnt.c: 590:             ++l
      +                          ;
  2610  001D82  4B7B               	infsnz	stoa@l& (0+255),f,b
  2611  001D84  2B7C               	incf	(stoa@l+1)& (0+255),f,b
  2612  001D86                     l7344:
  2613                           
  2614                           ; BSR set to: 0
  2615                           ;/Applications/microchip/xc8/v2.36/pic/sources/c99/common/doprnt.c: 588:         while (
      +                          l < w) {
  2616  001D86  5175               	movf	stoa@w& (0+255),w,b
  2617  001D88  5D7B               	subwf	stoa@l& (0+255),w,b
  2618  001D8A  517C               	movf	(stoa@l+1)& (0+255),w,b
  2619  001D8C  0A80               	xorlw	128
  2620  001D8E  6F6B               	movwf	??_stoa& (0+255),b
  2621  001D90  5176               	movf	(stoa@w+1)& (0+255),w,b
  2622  001D92  0A80               	xorlw	128
  2623  001D94  596B               	subwfb	??_stoa& (0+255),w,b
  2624  001D96  A0D8               	btfss	status,0,c
  2625  001D98  D7EC               	goto	l7340
  2626  001D9A                     u6340:
  2627                           
  2628                           ; BSR set to: 0
  2629                           ;/Applications/microchip/xc8/v2.36/pic/sources/c99/common/doprnt.c: 595:     i = 0;
  2630  001D9A  0E00               	movlw	0
  2631  001D9C  6F74               	movwf	(stoa@i+1)& (0+255),b
  2632  001D9E  0E00               	movlw	0
  2633  001DA0  6F73               	movwf	stoa@i& (0+255),b
  2634                           
  2635                           ;/Applications/microchip/xc8/v2.36/pic/sources/c99/common/doprnt.c: 596:     while (i < 
      +                          p) {
  2636  001DA2  D011               	goto	l7354
  2637  001DA4                     l7348:
  2638                           
  2639                           ; BSR set to: 0
  2640                           ;/Applications/microchip/xc8/v2.36/pic/sources/c99/common/doprnt.c: 597:         fputc(*
      +                          cp, fp);
  2641  001DA4  C077  FFD9         	movff	stoa@cp,fsr2l
  2642  001DA8  C078  FFDA         	movff	stoa@cp+1,fsr2h
  2643  001DAC  50DF               	movf	indf2,w,c
  2644  001DAE  6F6B               	movwf	??_stoa& (0+255),b
  2645  001DB0  516B               	movf	??_stoa& (0+255),w,b
  2646  001DB2  6F60               	movwf	fputc@c& (0+255),b
  2647  001DB4  6B61               	clrf	(fputc@c+1)& (0+255),b
  2648  001DB6  C068  F062         	movff	stoa@fp,fputc@fp
  2649  001DBA  EC8B  F016         	call	_fputc	;wreg free
  2650                           
  2651                           ; BSR set to: 0
  2652                           ;/Applications/microchip/xc8/v2.36/pic/sources/c99/common/doprnt.c: 598:         ++cp;
  2653  001DBE  4B77               	infsnz	stoa@cp& (0+255),f,b
  2654  001DC0  2B78               	incf	(stoa@cp+1)& (0+255),f,b
  2655                           
  2656                           ; BSR set to: 0
  2657                           ;/Applications/microchip/xc8/v2.36/pic/sources/c99/common/doprnt.c: 599:         ++i;
  2658  001DC2  4B73               	infsnz	stoa@i& (0+255),f,b
  2659  001DC4  2B74               	incf	(stoa@i+1)& (0+255),f,b
  2660  001DC6                     l7354:
  2661                           
  2662                           ; BSR set to: 0
  2663                           ;/Applications/microchip/xc8/v2.36/pic/sources/c99/common/doprnt.c: 596:     while (i < 
      +                          p) {
  2664  001DC6  5179               	movf	stoa@p& (0+255),w,b
  2665  001DC8  5D73               	subwf	stoa@i& (0+255),w,b
  2666  001DCA  5174               	movf	(stoa@i+1)& (0+255),w,b
  2667  001DCC  0A80               	xorlw	128
  2668  001DCE  6F6B               	movwf	??_stoa& (0+255),b
  2669  001DD0  517A               	movf	(stoa@p+1)& (0+255),w,b
  2670  001DD2  0A80               	xorlw	128
  2671  001DD4  596B               	subwfb	??_stoa& (0+255),w,b
  2672  001DD6  A0D8               	btfss	status,0,c
  2673  001DD8  D7E5               	goto	l7348
  2674                           
  2675                           ; BSR set to: 0
  2676                           ;/Applications/microchip/xc8/v2.36/pic/sources/c99/common/doprnt.c: 603:     if (flags &
      +                           (1 << 0)) {
  2677  001DDA  B1DD               	btfsc	_flags& (0+255),0,b
  2678  001DDC  D00B               	goto	l7362
  2679  001DDE  D014               	goto	u6370
  2680  001DE0                     l7358:
  2681                           
  2682                           ; BSR set to: 0
  2683                           ;/Applications/microchip/xc8/v2.36/pic/sources/c99/common/doprnt.c: 605:             fpu
      +                          tc(' ', fp);
  2684  001DE0  0E00               	movlw	0
  2685  001DE2  6F61               	movwf	(fputc@c+1)& (0+255),b
  2686  001DE4  0E20               	movlw	32
  2687  001DE6  6F60               	movwf	fputc@c& (0+255),b
  2688  001DE8  C068  F062         	movff	stoa@fp,fputc@fp
  2689  001DEC  EC8B  F016         	call	_fputc	;wreg free
  2690                           
  2691                           ; BSR set to: 0
  2692                           ;/Applications/microchip/xc8/v2.36/pic/sources/c99/common/doprnt.c: 606:             ++l
      +                          ;
  2693  001DF0  4B7B               	infsnz	stoa@l& (0+255),f,b
  2694  001DF2  2B7C               	incf	(stoa@l+1)& (0+255),f,b
  2695  001DF4                     l7362:
  2696                           
  2697                           ; BSR set to: 0
  2698                           ;/Applications/microchip/xc8/v2.36/pic/sources/c99/common/doprnt.c: 604:         while (
      +                          l < w) {
  2699  001DF4  5175               	movf	stoa@w& (0+255),w,b
  2700  001DF6  5D7B               	subwf	stoa@l& (0+255),w,b
  2701  001DF8  517C               	movf	(stoa@l+1)& (0+255),w,b
  2702  001DFA  0A80               	xorlw	128
  2703  001DFC  6F6B               	movwf	??_stoa& (0+255),b
  2704  001DFE  5176               	movf	(stoa@w+1)& (0+255),w,b
  2705  001E00  0A80               	xorlw	128
  2706  001E02  596B               	subwfb	??_stoa& (0+255),w,b
  2707  001E04  A0D8               	btfss	status,0,c
  2708  001E06  D7EC               	goto	l7358
  2709  001E08                     u6370:
  2710                           
  2711                           ; BSR set to: 0
  2712                           ;/Applications/microchip/xc8/v2.36/pic/sources/c99/common/doprnt.c: 610:     return l;
  2713                           
  2714                           ;/Applications/microchip/xc8/v2.36/pic/sources/c99/common/doprnt.c: 608:     }
  2715  001E08  C07B  F068         	movff	stoa@l,?_stoa
  2716  001E0C  C07C  F069         	movff	stoa@l+1,?_stoa+1
  2717                           
  2718                           ; BSR set to: 0
  2719  001E10  0012               	return		;funcret
  2720  001E12                     __end_of_stoa:
  2721                           	callstack 0
  2722                           
  2723 ;; *************** function _dtoa *****************
  2724 ;; Defined at:
  2725 ;;		line 287 in file "/Applications/microchip/xc8/v2.36/pic/sources/c99/common/doprnt.c"
  2726 ;; Parameters:    Size  Location     Type
  2727 ;;  fp              1   26[BANK0 ] PTR struct _IO_FILE
  2728 ;;		 -> sprintf@f(11), 
  2729 ;;  d               8   27[BANK0 ] long long 
  2730 ;; Auto vars:     Size  Location     Type
  2731 ;;  n               8   51[BANK0 ] long long 
  2732 ;;  i               2   59[BANK0 ] int 
  2733 ;;  s               2   49[BANK0 ] int 
  2734 ;;  w               2   47[BANK0 ] int 
  2735 ;;  p               2   45[BANK0 ] int 
  2736 ;; Return value:  Size  Location     Type
  2737 ;;                  2   26[BANK0 ] int 
  2738 ;; Registers used:
  2739 ;;		wreg, fsr1l, fsr1h, fsr2l, fsr2h, status,2, status,0, cstack
  2740 ;; Tracked objects:
  2741 ;;		On entry : 3F/0
  2742 ;;		On exit  : 3F/0
  2743 ;;		Unchanged: 0/0
  2744 ;; Data sizes:     COMRAM   BANK0   BANK1   BANK2   BANK3   BANK4   BANK5   BANK6   BANK7
  2745 ;;      Params:         0       9       0       0       0       0       0       0       0
  2746 ;;      Locals:         0      18       0       0       0       0       0       0       0
  2747 ;;      Temps:          0       8       0       0       0       0       0       0       0
  2748 ;;      Totals:         0      35       0       0       0       0       0       0       0
  2749 ;;Total ram usage:       35 bytes
  2750 ;; Hardware stack levels used: 1
  2751 ;; Hardware stack levels required when called: 14
  2752 ;; This function calls:
  2753 ;;		___aodiv
  2754 ;;		___aomod
  2755 ;;		_abs
  2756 ;;		_pad
  2757 ;; This function is called by:
  2758 ;;		_vfpfcnvrt
  2759 ;; This function uses a non-reentrant model
  2760 ;;
  2761                           
  2762                           	psect	text6
  2763  0008E6                     __ptext6:
  2764                           	callstack 0
  2765  0008E6                     _dtoa:
  2766                           	callstack 13
  2767                           
  2768                           ; BSR set to: 0
  2769                           ;/Applications/microchip/xc8/v2.36/pic/sources/c99/common/doprnt.c: 287: static int dtoa
      +                          (FILE *fp, long long d);/Applications/microchip/xc8/v2.36/pic/sources/c99/common/doprnt.
      +                          c: 288: {;/Applications/microchip/xc8/v2.36/pic/sources/c99/common/doprnt.c: 289:     in
      +                          t i, p, s, w;;/Applications/microchip/xc8/v2.36/pic/sources/c99/common/doprnt.c: 290:   
      +                            long long n;;/Applications/microchip/xc8/v2.36/pic/sources/c99/common/doprnt.c: 293:  
      +                             n = d;
  2770                           
  2771                           ; BSR set to: 0
  2772                           ;incstack = 0
  2773  0008E6  C07B  F093         	movff	dtoa@d,dtoa@n
  2774  0008EA  C07C  F094         	movff	dtoa@d+1,dtoa@n+1
  2775  0008EE  C07D  F095         	movff	dtoa@d+2,dtoa@n+2
  2776  0008F2  C07E  F096         	movff	dtoa@d+3,dtoa@n+3
  2777  0008F6  C07F  F097         	movff	dtoa@d+4,dtoa@n+4
  2778  0008FA  C080  F098         	movff	dtoa@d+5,dtoa@n+5
  2779  0008FE  C081  F099         	movff	dtoa@d+6,dtoa@n+6
  2780  000902  C082  F09A         	movff	dtoa@d+7,dtoa@n+7
  2781                           
  2782                           ; BSR set to: 0
  2783                           ;/Applications/microchip/xc8/v2.36/pic/sources/c99/common/doprnt.c: 294:     s = n < 0 ?
      +                           1 : 0;
  2784  000906  AF9A               	btfss	(dtoa@n+7)& (0+255),7,b
  2785  000908  D002               	goto	u6140
  2786  00090A  0E01               	movlw	1
  2787  00090C  D001               	goto	u6150
  2788  00090E                     u6140:
  2789  00090E  0E00               	movlw	0
  2790  000910                     u6150:
  2791  000910  6F91               	movwf	dtoa@s& (0+255),b
  2792  000912  6B92               	clrf	(dtoa@s+1)& (0+255),b
  2793                           
  2794                           ;/Applications/microchip/xc8/v2.36/pic/sources/c99/common/doprnt.c: 295:     if (s) {
  2795  000914  5191               	movf	dtoa@s& (0+255),w,b
  2796  000916  1192               	iorwf	(dtoa@s+1)& (0+255),w,b
  2797  000918  B4D8               	btfsc	status,2,c
  2798  00091A  D010               	goto	l7266
  2799                           
  2800                           ; BSR set to: 0
  2801                           ;/Applications/microchip/xc8/v2.36/pic/sources/c99/common/doprnt.c: 296:         n = -n;
  2802  00091C  1F9A               	comf	(dtoa@n+7)& (0+255),f,b
  2803  00091E  1F99               	comf	(dtoa@n+6)& (0+255),f,b
  2804  000920  1F98               	comf	(dtoa@n+5)& (0+255),f,b
  2805  000922  1F97               	comf	(dtoa@n+4)& (0+255),f,b
  2806  000924  1F96               	comf	(dtoa@n+3)& (0+255),f,b
  2807  000926  1F95               	comf	(dtoa@n+2)& (0+255),f,b
  2808  000928  1F94               	comf	(dtoa@n+1)& (0+255),f,b
  2809  00092A  6D93               	negf	dtoa@n& (0+255),b
  2810  00092C  0E00               	movlw	0
  2811  00092E  2394               	addwfc	(dtoa@n+1)& (0+255),f,b
  2812  000930  2395               	addwfc	(dtoa@n+2)& (0+255),f,b
  2813  000932  2396               	addwfc	(dtoa@n+3)& (0+255),f,b
  2814  000934  2397               	addwfc	(dtoa@n+4)& (0+255),f,b
  2815  000936  2398               	addwfc	(dtoa@n+5)& (0+255),f,b
  2816  000938  2399               	addwfc	(dtoa@n+6)& (0+255),f,b
  2817  00093A  239A               	addwfc	(dtoa@n+7)& (0+255),f,b
  2818  00093C                     l7266:
  2819                           
  2820                           ; BSR set to: 0
  2821                           ;/Applications/microchip/xc8/v2.36/pic/sources/c99/common/doprnt.c: 300:     if (!(prec 
      +                          < 0)) {
  2822  00093C  AFDC               	btfss	(_prec+1)& (0+255),7,b
  2823                           
  2824                           ; BSR set to: 0
  2825                           ;/Applications/microchip/xc8/v2.36/pic/sources/c99/common/doprnt.c: 301:         flags &
      +                          = ~(1 << 1);
  2826  00093E  93DD               	bcf	_flags& (0+255),1,b
  2827                           
  2828                           ; BSR set to: 0
  2829                           ;/Applications/microchip/xc8/v2.36/pic/sources/c99/common/doprnt.c: 303:     p = (0 < pr
      +                          ec) ? prec : 1;
  2830  000940  BFDC               	btfsc	(_prec+1)& (0+255),7,b
  2831  000942  D005               	goto	u6180
  2832  000944  51DC               	movf	(_prec+1)& (0+255),w,b
  2833  000946  E108               	bnz	l2044
  2834  000948  05DB               	decf	_prec& (0+255),w,b
  2835  00094A  B0D8               	btfsc	status,0,c
  2836  00094C  D005               	goto	l2044
  2837  00094E                     u6180:
  2838                           
  2839                           ; BSR set to: 0
  2840  00094E  0E00               	movlw	0
  2841  000950  6F8E               	movwf	(dtoa@p+1)& (0+255),b
  2842  000952  0E01               	movlw	1
  2843  000954  6F8D               	movwf	dtoa@p& (0+255),b
  2844  000956  D004               	goto	l2046
  2845  000958                     l2044:
  2846                           
  2847                           ; BSR set to: 0
  2848  000958  C0DB  F08D         	movff	_prec,dtoa@p
  2849  00095C  C0DC  F08E         	movff	_prec+1,dtoa@p+1
  2850  000960                     l2046:
  2851                           
  2852                           ; BSR set to: 0
  2853                           ;/Applications/microchip/xc8/v2.36/pic/sources/c99/common/doprnt.c: 304:     w = width;
  2854  000960  C128  F08F         	movff	_width,dtoa@w
  2855  000964  C129  F090         	movff	_width+1,dtoa@w+1
  2856                           
  2857                           ; BSR set to: 0
  2858                           ;/Applications/microchip/xc8/v2.36/pic/sources/c99/common/doprnt.c: 305:     if (s || (f
      +                          lags & (1 << 2))) {
  2859  000968  5191               	movf	dtoa@s& (0+255),w,b
  2860  00096A  1192               	iorwf	(dtoa@s+1)& (0+255),w,b
  2861  00096C  A4D8               	btfss	status,2,c
  2862  00096E  D002               	goto	u6200
  2863                           
  2864                           ; BSR set to: 0
  2865  000970  A5DD               	btfss	_flags& (0+255),2,b
  2866  000972  D003               	goto	l7280
  2867  000974                     u6200:
  2868                           
  2869                           ; BSR set to: 0
  2870                           ;/Applications/microchip/xc8/v2.36/pic/sources/c99/common/doprnt.c: 306:         --w;
  2871  000974  078F               	decf	dtoa@w& (0+255),f,b
  2872  000976  A0D8               	btfss	status,0,c
  2873  000978  0790               	decf	(dtoa@w+1)& (0+255),f,b
  2874  00097A                     l7280:
  2875                           
  2876                           ; BSR set to: 0
  2877                           ;/Applications/microchip/xc8/v2.36/pic/sources/c99/common/doprnt.c: 310:     i = sizeof(
      +                          dbuf) - 1;
  2878  00097A  0E00               	movlw	0
  2879  00097C  6F9C               	movwf	(dtoa@i+1)& (0+255),b
  2880  00097E  0E1F               	movlw	31
  2881  000980  6F9B               	movwf	dtoa@i& (0+255),b
  2882                           
  2883                           ; BSR set to: 0
  2884                           ;/Applications/microchip/xc8/v2.36/pic/sources/c99/common/doprnt.c: 311:     dbuf[i] = '
      +                          \0';
  2885  000982  0E00               	movlw	0
  2886  000984  0101               	movlb	1	; () banked
  2887  000986  6F9D               	movwf	(_dbuf+31)& (0+255),b
  2888                           
  2889                           ;/Applications/microchip/xc8/v2.36/pic/sources/c99/common/doprnt.c: 312:     while (!(i 
      +                          < 1) && (n || (0 < p) || ((0 < w) && (flags & (1 << 1))))) {
  2890  000988  D07C               	goto	l7294
  2891  00098A                     l7284:
  2892                           
  2893                           ; BSR set to: 0
  2894                           ;/Applications/microchip/xc8/v2.36/pic/sources/c99/common/doprnt.c: 313:         --i;
  2895  00098A  079B               	decf	dtoa@i& (0+255),f,b
  2896  00098C  A0D8               	btfss	status,0,c
  2897  00098E  079C               	decf	(dtoa@i+1)& (0+255),f,b
  2898                           
  2899                           ; BSR set to: 0
  2900                           ;/Applications/microchip/xc8/v2.36/pic/sources/c99/common/doprnt.c: 314:         dbuf[i]
      +                           = (char)((int)'0' + abs(n % 10));
  2901  000990  0E7E               	movlw	low _dbuf
  2902  000992  259B               	addwf	dtoa@i& (0+255),w,b
  2903  000994  6ED9               	movwf	fsr2l,c
  2904  000996  0E01               	movlw	high _dbuf
  2905  000998  219C               	addwfc	(dtoa@i+1)& (0+255),w,b
  2906  00099A  6EDA               	movwf	fsr2h,c
  2907  00099C  C093  F060         	movff	dtoa@n,___aomod@dividend
  2908  0009A0  C094  F061         	movff	dtoa@n+1,___aomod@dividend+1
  2909  0009A4  C095  F062         	movff	dtoa@n+2,___aomod@dividend+2
  2910  0009A8  C096  F063         	movff	dtoa@n+3,___aomod@dividend+3
  2911  0009AC  C097  F064         	movff	dtoa@n+4,___aomod@dividend+4
  2912  0009B0  C098  F065         	movff	dtoa@n+5,___aomod@dividend+5
  2913  0009B4  C099  F066         	movff	dtoa@n+6,___aomod@dividend+6
  2914  0009B8  C09A  F067         	movff	dtoa@n+7,___aomod@dividend+7
  2915  0009BC  0E0A               	movlw	10
  2916  0009BE  6F68               	movwf	___aomod@divisor& (0+255),b
  2917  0009C0  0E00               	movlw	0
  2918  0009C2  6F69               	movwf	(___aomod@divisor+1)& (0+255),b
  2919  0009C4  0E00               	movlw	0
  2920  0009C6  6F6A               	movwf	(___aomod@divisor+2)& (0+255),b
  2921  0009C8  0E00               	movlw	0
  2922  0009CA  6F6B               	movwf	(___aomod@divisor+3)& (0+255),b
  2923  0009CC  0E00               	movlw	0
  2924  0009CE  6F6C               	movwf	(___aomod@divisor+4)& (0+255),b
  2925  0009D0  0E00               	movlw	0
  2926  0009D2  6F6D               	movwf	(___aomod@divisor+5)& (0+255),b
  2927  0009D4  0E00               	movlw	0
  2928  0009D6  6F6E               	movwf	(___aomod@divisor+6)& (0+255),b
  2929  0009D8  0E00               	movlw	0
  2930  0009DA  6F6F               	movwf	(___aomod@divisor+7)& (0+255),b
  2931  0009DC  EC3D  F00C         	call	___aomod	;wreg free
  2932  0009E0  C060  F083         	movff	?___aomod,??_dtoa
  2933  0009E4  C061  F084         	movff	?___aomod+1,??_dtoa+1
  2934  0009E8  C062  F085         	movff	?___aomod+2,??_dtoa+2
  2935  0009EC  C063  F086         	movff	?___aomod+3,??_dtoa+3
  2936  0009F0  C064  F087         	movff	?___aomod+4,??_dtoa+4
  2937  0009F4  C065  F088         	movff	?___aomod+5,??_dtoa+5
  2938  0009F8  C066  F089         	movff	?___aomod+6,??_dtoa+6
  2939  0009FC  C067  F08A         	movff	?___aomod+7,??_dtoa+7
  2940  000A00  C083  F072         	movff	??_dtoa,abs@a
  2941  000A04  C085  F073         	movff	??_dtoa+2,abs@a+1
  2942  000A08  EC0C  F01A         	call	_abs	;wreg free
  2943  000A0C  5172               	movf	?_abs& (0+255),w,b
  2944  000A0E  0F30               	addlw	48
  2945  000A10  6EDF               	movwf	indf2,c
  2946                           
  2947                           ; BSR set to: 0
  2948                           ;/Applications/microchip/xc8/v2.36/pic/sources/c99/common/doprnt.c: 315:         --p;
  2949  000A12  078D               	decf	dtoa@p& (0+255),f,b
  2950  000A14  A0D8               	btfss	status,0,c
  2951  000A16  078E               	decf	(dtoa@p+1)& (0+255),f,b
  2952                           
  2953                           ; BSR set to: 0
  2954                           ;/Applications/microchip/xc8/v2.36/pic/sources/c99/common/doprnt.c: 316:         --w;
  2955  000A18  078F               	decf	dtoa@w& (0+255),f,b
  2956  000A1A  A0D8               	btfss	status,0,c
  2957  000A1C  0790               	decf	(dtoa@w+1)& (0+255),f,b
  2958                           
  2959                           ; BSR set to: 0
  2960                           ;/Applications/microchip/xc8/v2.36/pic/sources/c99/common/doprnt.c: 317:         n = n /
      +                           10;
  2961  000A1E  C093  F060         	movff	dtoa@n,___aodiv@dividend
  2962  000A22  C094  F061         	movff	dtoa@n+1,___aodiv@dividend+1
  2963  000A26  C095  F062         	movff	dtoa@n+2,___aodiv@dividend+2
  2964  000A2A  C096  F063         	movff	dtoa@n+3,___aodiv@dividend+3
  2965  000A2E  C097  F064         	movff	dtoa@n+4,___aodiv@dividend+4
  2966  000A32  C098  F065         	movff	dtoa@n+5,___aodiv@dividend+5
  2967  000A36  C099  F066         	movff	dtoa@n+6,___aodiv@dividend+6
  2968  000A3A  C09A  F067         	movff	dtoa@n+7,___aodiv@dividend+7
  2969  000A3E  0E0A               	movlw	10
  2970  000A40  6F68               	movwf	___aodiv@divisor& (0+255),b
  2971  000A42  0E00               	movlw	0
  2972  000A44  6F69               	movwf	(___aodiv@divisor+1)& (0+255),b
  2973  000A46  0E00               	movlw	0
  2974  000A48  6F6A               	movwf	(___aodiv@divisor+2)& (0+255),b
  2975  000A4A  0E00               	movlw	0
  2976  000A4C  6F6B               	movwf	(___aodiv@divisor+3)& (0+255),b
  2977  000A4E  0E00               	movlw	0
  2978  000A50  6F6C               	movwf	(___aodiv@divisor+4)& (0+255),b
  2979  000A52  0E00               	movlw	0
  2980  000A54  6F6D               	movwf	(___aodiv@divisor+5)& (0+255),b
  2981  000A56  0E00               	movlw	0
  2982  000A58  6F6E               	movwf	(___aodiv@divisor+6)& (0+255),b
  2983  000A5A  0E00               	movlw	0
  2984  000A5C  6F6F               	movwf	(___aodiv@divisor+7)& (0+255),b
  2985  000A5E  EC9B  F008         	call	___aodiv	;wreg free
  2986  000A62  C060  F093         	movff	?___aodiv,dtoa@n
  2987  000A66  C061  F094         	movff	?___aodiv+1,dtoa@n+1
  2988  000A6A  C062  F095         	movff	?___aodiv+2,dtoa@n+2
  2989  000A6E  C063  F096         	movff	?___aodiv+3,dtoa@n+3
  2990  000A72  C064  F097         	movff	?___aodiv+4,dtoa@n+4
  2991  000A76  C065  F098         	movff	?___aodiv+5,dtoa@n+5
  2992  000A7A  C066  F099         	movff	?___aodiv+6,dtoa@n+6
  2993  000A7E  C067  F09A         	movff	?___aodiv+7,dtoa@n+7
  2994  000A82                     l7294:
  2995                           
  2996                           ;/Applications/microchip/xc8/v2.36/pic/sources/c99/common/doprnt.c: 312:     while (!(i 
      +                          < 1) && (n || (0 < p) || ((0 < w) && (flags & (1 << 1))))) {
  2997  000A82  0100               	movlb	0	; () banked
  2998  000A84  BF9C               	btfsc	(dtoa@i+1)& (0+255),7,b
  2999  000A86  D01F               	goto	u6250
  3000  000A88  519C               	movf	(dtoa@i+1)& (0+255),w,b
  3001  000A8A  E103               	bnz	u6210
  3002  000A8C  059B               	decf	dtoa@i& (0+255),w,b
  3003  000A8E  A0D8               	btfss	status,0,c
  3004  000A90  D01A               	goto	u6250
  3005  000A92                     u6210:
  3006                           
  3007                           ; BSR set to: 0
  3008  000A92  5193               	movf	dtoa@n& (0+255),w,b
  3009  000A94  1194               	iorwf	(dtoa@n+1)& (0+255),w,b
  3010  000A96  1195               	iorwf	(dtoa@n+2)& (0+255),w,b
  3011  000A98  1196               	iorwf	(dtoa@n+3)& (0+255),w,b
  3012  000A9A  1197               	iorwf	(dtoa@n+4)& (0+255),w,b
  3013  000A9C  1198               	iorwf	(dtoa@n+5)& (0+255),w,b
  3014  000A9E  1199               	iorwf	(dtoa@n+6)& (0+255),w,b
  3015  000AA0  119A               	iorwf	(dtoa@n+7)& (0+255),w,b
  3016  000AA2  A4D8               	btfss	status,2,c
  3017  000AA4  D772               	goto	l7284
  3018                           
  3019                           ; BSR set to: 0
  3020  000AA6  BF8E               	btfsc	(dtoa@p+1)& (0+255),7,b
  3021  000AA8  D005               	goto	u6230
  3022  000AAA  518E               	movf	(dtoa@p+1)& (0+255),w,b
  3023  000AAC  E102               	bnz	u6231
  3024  000AAE  058D               	decf	dtoa@p& (0+255),w,b
  3025  000AB0  B0D8               	btfsc	status,0,c
  3026  000AB2                     u6231:
  3027  000AB2  D76B               	goto	l7284
  3028  000AB4                     u6230:
  3029                           
  3030                           ; BSR set to: 0
  3031  000AB4  BF90               	btfsc	(dtoa@w+1)& (0+255),7,b
  3032  000AB6  D007               	goto	u6250
  3033  000AB8  5190               	movf	(dtoa@w+1)& (0+255),w,b
  3034  000ABA  E103               	bnz	u6240
  3035  000ABC  058F               	decf	dtoa@w& (0+255),w,b
  3036  000ABE  A0D8               	btfss	status,0,c
  3037  000AC0  D002               	goto	u6250
  3038  000AC2                     u6240:
  3039                           
  3040                           ; BSR set to: 0
  3041  000AC2  B3DD               	btfsc	_flags& (0+255),1,b
  3042  000AC4  D762               	goto	l7284
  3043  000AC6                     u6250:
  3044                           
  3045                           ; BSR set to: 0
  3046                           ;/Applications/microchip/xc8/v2.36/pic/sources/c99/common/doprnt.c: 321:     if (s || (f
      +                          lags & (1 << 2))) {
  3047  000AC6  5191               	movf	dtoa@s& (0+255),w,b
  3048  000AC8  1192               	iorwf	(dtoa@s+1)& (0+255),w,b
  3049  000ACA  A4D8               	btfss	status,2,c
  3050  000ACC  D002               	goto	u6270
  3051                           
  3052                           ; BSR set to: 0
  3053  000ACE  A5DD               	btfss	_flags& (0+255),2,b
  3054  000AD0  D017               	goto	l7318
  3055  000AD2                     u6270:
  3056                           
  3057                           ; BSR set to: 0
  3058                           ;/Applications/microchip/xc8/v2.36/pic/sources/c99/common/doprnt.c: 322:         --i;
  3059  000AD2  079B               	decf	dtoa@i& (0+255),f,b
  3060  000AD4  A0D8               	btfss	status,0,c
  3061  000AD6  079C               	decf	(dtoa@i+1)& (0+255),f,b
  3062                           
  3063                           ; BSR set to: 0
  3064                           ;/Applications/microchip/xc8/v2.36/pic/sources/c99/common/doprnt.c: 323:         dbuf[i]
      +                           = s ? '-' : '+';
  3065  000AD8  5191               	movf	dtoa@s& (0+255),w,b
  3066  000ADA  1192               	iorwf	(dtoa@s+1)& (0+255),w,b
  3067  000ADC  A4D8               	btfss	status,2,c
  3068  000ADE  D004               	goto	l7314
  3069                           
  3070                           ; BSR set to: 0
  3071  000AE0  0E00               	movlw	0
  3072  000AE2  6F8C               	movwf	(_dtoa$4792+1)& (0+255),b
  3073  000AE4  0E2B               	movlw	43
  3074  000AE6  D003               	goto	L2
  3075  000AE8                     l7314:
  3076                           
  3077                           ; BSR set to: 0
  3078  000AE8  0E00               	movlw	0
  3079  000AEA  6F8C               	movwf	(_dtoa$4792+1)& (0+255),b
  3080  000AEC  0E2D               	movlw	45
  3081  000AEE                     L2:
  3082  000AEE  6F8B               	movwf	_dtoa$4792& (0+255),b
  3083                           
  3084                           ; BSR set to: 0
  3085  000AF0  0E7E               	movlw	low _dbuf
  3086  000AF2  259B               	addwf	dtoa@i& (0+255),w,b
  3087  000AF4  6ED9               	movwf	fsr2l,c
  3088  000AF6  0E01               	movlw	high _dbuf
  3089  000AF8  219C               	addwfc	(dtoa@i+1)& (0+255),w,b
  3090  000AFA  6EDA               	movwf	fsr2h,c
  3091  000AFC  C08B  FFDF         	movff	_dtoa$4792,indf2
  3092  000B00                     l7318:
  3093                           
  3094                           ; BSR set to: 0
  3095                           ;/Applications/microchip/xc8/v2.36/pic/sources/c99/common/doprnt.c: 327:     return pad(
      +                          fp, &dbuf[i], w);
  3096  000B00  C07A  F06E         	movff	dtoa@fp,pad@fp
  3097  000B04  0E7E               	movlw	low _dbuf
  3098  000B06  259B               	addwf	dtoa@i& (0+255),w,b
  3099  000B08  6F6F               	movwf	pad@buf& (0+255),b
  3100  000B0A  0E01               	movlw	high _dbuf
  3101  000B0C  219C               	addwfc	(dtoa@i+1)& (0+255),w,b
  3102  000B0E  6F70               	movwf	(pad@buf+1)& (0+255),b
  3103  000B10  C08F  F071         	movff	dtoa@w,pad@p
  3104  000B14  C090  F072         	movff	dtoa@w+1,pad@p+1
  3105  000B18  EC60  F017         	call	_pad	;wreg free
  3106  000B1C  C06E  F07A         	movff	?_pad,?_dtoa
  3107  000B20  C06F  F07B         	movff	?_pad+1,?_dtoa+1
  3108                           
  3109                           ; BSR set to: 0
  3110  000B24  0012               	return		;funcret
  3111  000B26                     __end_of_dtoa:
  3112                           	callstack 0
  3113                           
  3114 ;; *************** function _pad *****************
  3115 ;; Defined at:
  3116 ;;		line 72 in file "/Applications/microchip/xc8/v2.36/pic/sources/c99/common/doprnt.c"
  3117 ;; Parameters:    Size  Location     Type
  3118 ;;  fp              1   14[BANK0 ] PTR struct _IO_FILE
  3119 ;;		 -> sprintf@f(11), 
  3120 ;;  buf             2   15[BANK0 ] PTR unsigned char 
  3121 ;;		 -> dbuf(32), 
  3122 ;;  p               2   17[BANK0 ] int 
  3123 ;; Auto vars:     Size  Location     Type
  3124 ;;  w               2   22[BANK0 ] int 
  3125 ;;  i               2   20[BANK0 ] int 
  3126 ;; Return value:  Size  Location     Type
  3127 ;;                  2   14[BANK0 ] int 
  3128 ;; Registers used:
  3129 ;;		wreg, fsr1l, fsr1h, fsr2l, fsr2h, status,2, status,0, cstack
  3130 ;; Tracked objects:
  3131 ;;		On entry : 3F/0
  3132 ;;		On exit  : 3F/0
  3133 ;;		Unchanged: 0/0
  3134 ;; Data sizes:     COMRAM   BANK0   BANK1   BANK2   BANK3   BANK4   BANK5   BANK6   BANK7
  3135 ;;      Params:         0       5       0       0       0       0       0       0       0
  3136 ;;      Locals:         0       4       0       0       0       0       0       0       0
  3137 ;;      Temps:          0       1       0       0       0       0       0       0       0
  3138 ;;      Totals:         0      10       0       0       0       0       0       0       0
  3139 ;;Total ram usage:       10 bytes
  3140 ;; Hardware stack levels used: 1
  3141 ;; Hardware stack levels required when called: 13
  3142 ;; This function calls:
  3143 ;;		_fputc
  3144 ;;		_fputs
  3145 ;;		_strlen
  3146 ;; This function is called by:
  3147 ;;		_dtoa
  3148 ;; This function uses a non-reentrant model
  3149 ;;
  3150                           
  3151                           	psect	text7
  3152  002EC0                     __ptext7:
  3153                           	callstack 0
  3154  002EC0                     _pad:
  3155                           	callstack 13
  3156                           
  3157                           ; BSR set to: 0
  3158                           ;/Applications/microchip/xc8/v2.36/pic/sources/c99/common/doprnt.c: 72: static int pad(F
      +                          ILE *fp, char *buf, int p);/Applications/microchip/xc8/v2.36/pic/sources/c99/common/dopr
      +                          nt.c: 73: {;/Applications/microchip/xc8/v2.36/pic/sources/c99/common/doprnt.c: 74:     i
      +                          nt i, w;;/Applications/microchip/xc8/v2.36/pic/sources/c99/common/doprnt.c: 77:     if (
      +                          flags & (1 << 0)) {
  3159                           
  3160                           ; BSR set to: 0
  3161                           ;incstack = 0
  3162  002EC0  A1DD               	btfss	_flags& (0+255),0,b
  3163  002EC2  D008               	goto	l7238
  3164                           
  3165                           ; BSR set to: 0
  3166                           ;/Applications/microchip/xc8/v2.36/pic/sources/c99/common/doprnt.c: 78:         fputs((c
      +                          onst char *)buf, fp);
  3167  002EC4  C06F  F068         	movff	pad@buf,fputs@s
  3168  002EC8  C070  F069         	movff	pad@buf+1,fputs@s+1
  3169  002ECC  C06E  F06A         	movff	pad@fp,fputs@fp
  3170  002ED0  ECBE  F019         	call	_fputs	;wreg free
  3171  002ED4                     l7238:
  3172                           
  3173                           ; BSR set to: 0
  3174                           ;/Applications/microchip/xc8/v2.36/pic/sources/c99/common/doprnt.c: 82:     w = (p < 0) 
      +                          ? 0 : p;
  3175  002ED4  BF72               	btfsc	(pad@p+1)& (0+255),7,b
  3176  002ED6  D005               	goto	l7242
  3177                           
  3178                           ; BSR set to: 0
  3179  002ED8  C071  F076         	movff	pad@p,pad@w
  3180  002EDC  C072  F077         	movff	pad@p+1,pad@w+1
  3181  002EE0  D004               	goto	l2033
  3182  002EE2                     l7242:
  3183                           
  3184                           ; BSR set to: 0
  3185  002EE2  0E00               	movlw	0
  3186  002EE4  6F77               	movwf	(pad@w+1)& (0+255),b
  3187  002EE6  0E00               	movlw	0
  3188  002EE8  6F76               	movwf	pad@w& (0+255),b
  3189  002EEA                     l2033:
  3190                           
  3191                           ; BSR set to: 0
  3192                           ;/Applications/microchip/xc8/v2.36/pic/sources/c99/common/doprnt.c: 83:     i = 0;
  3193  002EEA  0E00               	movlw	0
  3194  002EEC  6F75               	movwf	(pad@i+1)& (0+255),b
  3195  002EEE  0E00               	movlw	0
  3196  002EF0  6F74               	movwf	pad@i& (0+255),b
  3197                           
  3198                           ;/Applications/microchip/xc8/v2.36/pic/sources/c99/common/doprnt.c: 84:     while (i < w
      +                          ) {
  3199  002EF2  D00A               	goto	l7248
  3200  002EF4                     l7244:
  3201                           
  3202                           ; BSR set to: 0
  3203                           ;/Applications/microchip/xc8/v2.36/pic/sources/c99/common/doprnt.c: 85:         fputc(' 
      +                          ', fp);
  3204  002EF4  0E00               	movlw	0
  3205  002EF6  6F61               	movwf	(fputc@c+1)& (0+255),b
  3206  002EF8  0E20               	movlw	32
  3207  002EFA  6F60               	movwf	fputc@c& (0+255),b
  3208  002EFC  C06E  F062         	movff	pad@fp,fputc@fp
  3209  002F00  EC8B  F016         	call	_fputc	;wreg free
  3210                           
  3211                           ; BSR set to: 0
  3212                           ;/Applications/microchip/xc8/v2.36/pic/sources/c99/common/doprnt.c: 86:         ++i;
  3213  002F04  4B74               	infsnz	pad@i& (0+255),f,b
  3214  002F06  2B75               	incf	(pad@i+1)& (0+255),f,b
  3215  002F08                     l7248:
  3216                           
  3217                           ; BSR set to: 0
  3218                           ;/Applications/microchip/xc8/v2.36/pic/sources/c99/common/doprnt.c: 84:     while (i < w
      +                          ) {
  3219  002F08  5176               	movf	pad@w& (0+255),w,b
  3220  002F0A  5D74               	subwf	pad@i& (0+255),w,b
  3221  002F0C  5175               	movf	(pad@i+1)& (0+255),w,b
  3222  002F0E  0A80               	xorlw	128
  3223  002F10  6F73               	movwf	??_pad& (0+255),b
  3224  002F12  5177               	movf	(pad@w+1)& (0+255),w,b
  3225  002F14  0A80               	xorlw	128
  3226  002F16  5973               	subwfb	??_pad& (0+255),w,b
  3227  002F18  A0D8               	btfss	status,0,c
  3228  002F1A  D7EC               	goto	l7244
  3229                           
  3230                           ; BSR set to: 0
  3231                           ;/Applications/microchip/xc8/v2.36/pic/sources/c99/common/doprnt.c: 90:     if (!(flags 
      +                          & (1 << 0))) {
  3232  002F1C  B1DD               	btfsc	_flags& (0+255),0,b
  3233  002F1E  D008               	goto	l7252
  3234                           
  3235                           ; BSR set to: 0
  3236                           ;/Applications/microchip/xc8/v2.36/pic/sources/c99/common/doprnt.c: 91:         fputs((c
      +                          onst char *)buf, fp);
  3237  002F20  C06F  F068         	movff	pad@buf,fputs@s
  3238  002F24  C070  F069         	movff	pad@buf+1,fputs@s+1
  3239  002F28  C06E  F06A         	movff	pad@fp,fputs@fp
  3240  002F2C  ECBE  F019         	call	_fputs	;wreg free
  3241  002F30                     l7252:
  3242                           
  3243                           ; BSR set to: 0
  3244                           ;/Applications/microchip/xc8/v2.36/pic/sources/c99/common/doprnt.c: 94:     return (int)
      +                          (strlen(buf) + (size_t)w);
  3245  002F30  C06F  F060         	movff	pad@buf,strlen@s
  3246  002F34  C070  F061         	movff	pad@buf+1,strlen@s+1
  3247  002F38  ECAD  F01A         	call	_strlen	;wreg free
  3248  002F3C  5176               	movf	pad@w& (0+255),w,b
  3249  002F3E  2560               	addwf	?_strlen& (0+255),w,b
  3250  002F40  6F6E               	movwf	?_pad& (0+255),b
  3251  002F42  5177               	movf	(pad@w+1)& (0+255),w,b
  3252  002F44  2161               	addwfc	(?_strlen+1)& (0+255),w,b
  3253  002F46  6F6F               	movwf	(?_pad+1)& (0+255),b
  3254                           
  3255                           ; BSR set to: 0
  3256  002F48  0012               	return		;funcret
  3257  002F4A                     __end_of_pad:
  3258                           	callstack 0
  3259                           
  3260 ;; *************** function _strlen *****************
  3261 ;; Defined at:
  3262 ;;		line 5 in file "/Applications/microchip/xc8/v2.36/pic/sources/c99/common/strlen.c"
  3263 ;; Parameters:    Size  Location     Type
  3264 ;;  s               2    0[BANK0 ] PTR const unsigned char 
  3265 ;;		 -> stoa@nuls(7), dbuf(32), ?_sprintf(2), executeCommand@strCommand(30), 
  3266 ;;		 -> lastToken(10), readBuffer(100), writeBuffer(100), main@buf(20), 
  3267 ;;		 -> NULL(0), 
  3268 ;; Auto vars:     Size  Location     Type
  3269 ;;  a               2    2[BANK0 ] PTR const unsigned char 
  3270 ;;		 -> stoa@nuls(7), dbuf(32), ?_sprintf(2), executeCommand@strCommand(30), 
  3271 ;;		 -> lastToken(10), readBuffer(100), writeBuffer(100), main@buf(20), 
  3272 ;;		 -> NULL(0), 
  3273 ;; Return value:  Size  Location     Type
  3274 ;;                  2    0[BANK0 ] unsigned int 
  3275 ;; Registers used:
  3276 ;;		wreg, fsr2l, fsr2h, status,2, status,0
  3277 ;; Tracked objects:
  3278 ;;		On entry : 3F/0
  3279 ;;		On exit  : 3F/0
  3280 ;;		Unchanged: 0/0
  3281 ;; Data sizes:     COMRAM   BANK0   BANK1   BANK2   BANK3   BANK4   BANK5   BANK6   BANK7
  3282 ;;      Params:         0       2       0       0       0       0       0       0       0
  3283 ;;      Locals:         0       2       0       0       0       0       0       0       0
  3284 ;;      Temps:          0       0       0       0       0       0       0       0       0
  3285 ;;      Totals:         0       4       0       0       0       0       0       0       0
  3286 ;;Total ram usage:        4 bytes
  3287 ;; Hardware stack levels used: 1
  3288 ;; Hardware stack levels required when called: 10
  3289 ;; This function calls:
  3290 ;;		Nothing
  3291 ;; This function is called by:
  3292 ;;		_main
  3293 ;;		_pad
  3294 ;;		_stoa
  3295 ;; This function uses a non-reentrant model
  3296 ;;
  3297                           
  3298                           	psect	text8
  3299  00355A                     __ptext8:
  3300                           	callstack 0
  3301  00355A                     _strlen:
  3302                           	callstack 20
  3303                           
  3304                           ; BSR set to: 0
  3305                           
  3306                           ; BSR set to: 0
  3307                           ;incstack = 0
  3308  00355A  C060  F062         	movff	strlen@s,strlen@a
  3309  00355E  C061  F063         	movff	strlen@s+1,strlen@a+1
  3310  003562  D002               	goto	l7140
  3311  003564                     l7138:
  3312                           
  3313                           ; BSR set to: 0
  3314  003564  4B60               	infsnz	strlen@s& (0+255),f,b
  3315  003566  2B61               	incf	(strlen@s+1)& (0+255),f,b
  3316  003568                     l7140:
  3317                           
  3318                           ; BSR set to: 0
  3319  003568  C060  FFD9         	movff	strlen@s,fsr2l
  3320  00356C  C061  FFDA         	movff	strlen@s+1,fsr2h
  3321  003570  50DF               	movf	indf2,w,c
  3322  003572  A4D8               	btfss	status,2,c
  3323  003574  D7F7               	goto	l7138
  3324                           
  3325                           ; BSR set to: 0
  3326  003576  5162               	movf	strlen@a& (0+255),w,b
  3327  003578  5D60               	subwf	strlen@s& (0+255),w,b
  3328  00357A  6F60               	movwf	?_strlen& (0+255),b
  3329  00357C  5163               	movf	(strlen@a+1)& (0+255),w,b
  3330  00357E  5961               	subwfb	(strlen@s+1)& (0+255),w,b
  3331  003580  6F61               	movwf	(?_strlen+1)& (0+255),b
  3332                           
  3333                           ; BSR set to: 0
  3334  003582  0012               	return		;funcret
  3335  003584                     __end_of_strlen:
  3336                           	callstack 0
  3337                           
  3338 ;; *************** function _fputs *****************
  3339 ;; Defined at:
  3340 ;;		line 8 in file "/Applications/microchip/xc8/v2.36/pic/sources/c99/common/nf_fputs.c"
  3341 ;; Parameters:    Size  Location     Type
  3342 ;;  s               2    8[BANK0 ] PTR const unsigned char 
  3343 ;;		 -> dbuf(32), 
  3344 ;;  fp              1   10[BANK0 ] PTR struct _IO_FILE
  3345 ;;		 -> sprintf@f(11), 
  3346 ;; Auto vars:     Size  Location     Type
  3347 ;;  i               2   12[BANK0 ] int 
  3348 ;;  c               1   11[BANK0 ] unsigned char 
  3349 ;; Return value:  Size  Location     Type
  3350 ;;                  2    8[BANK0 ] int 
  3351 ;; Registers used:
  3352 ;;		wreg, fsr1l, fsr1h, fsr2l, fsr2h, status,2, status,0, cstack
  3353 ;; Tracked objects:
  3354 ;;		On entry : 3F/0
  3355 ;;		On exit  : 3F/0
  3356 ;;		Unchanged: 0/0
  3357 ;; Data sizes:     COMRAM   BANK0   BANK1   BANK2   BANK3   BANK4   BANK5   BANK6   BANK7
  3358 ;;      Params:         0       3       0       0       0       0       0       0       0
  3359 ;;      Locals:         0       3       0       0       0       0       0       0       0
  3360 ;;      Temps:          0       0       0       0       0       0       0       0       0
  3361 ;;      Totals:         0       6       0       0       0       0       0       0       0
  3362 ;;Total ram usage:        6 bytes
  3363 ;; Hardware stack levels used: 1
  3364 ;; Hardware stack levels required when called: 12
  3365 ;; This function calls:
  3366 ;;		_fputc
  3367 ;; This function is called by:
  3368 ;;		_pad
  3369 ;; This function uses a non-reentrant model
  3370 ;;
  3371                           
  3372                           	psect	text9
  3373  00337C                     __ptext9:
  3374                           	callstack 0
  3375  00337C                     _fputs:
  3376                           	callstack 13
  3377                           
  3378                           ; BSR set to: 0
  3379                           
  3380                           ; BSR set to: 0
  3381                           ;incstack = 0
  3382  00337C  0E00               	movlw	0
  3383  00337E  6F6D               	movwf	(fputs@i+1)& (0+255),b
  3384  003380  0E00               	movlw	0
  3385  003382  6F6C               	movwf	fputs@i& (0+255),b
  3386  003384  D009               	goto	l7152
  3387  003386                     l7148:
  3388                           
  3389                           ; BSR set to: 0
  3390  003386  C06B  F060         	movff	fputs@c,fputc@c
  3391  00338A  6B61               	clrf	(fputc@c+1)& (0+255),b
  3392  00338C  C06A  F062         	movff	fputs@fp,fputc@fp
  3393  003390  EC8B  F016         	call	_fputc	;wreg free
  3394                           
  3395                           ; BSR set to: 0
  3396  003394  4B6C               	infsnz	fputs@i& (0+255),f,b
  3397  003396  2B6D               	incf	(fputs@i+1)& (0+255),f,b
  3398  003398                     l7152:
  3399                           
  3400                           ; BSR set to: 0
  3401  003398  516C               	movf	fputs@i& (0+255),w,b
  3402  00339A  2568               	addwf	fputs@s& (0+255),w,b
  3403  00339C  6ED9               	movwf	fsr2l,c
  3404  00339E  516D               	movf	(fputs@i+1)& (0+255),w,b
  3405  0033A0  2169               	addwfc	(fputs@s+1)& (0+255),w,b
  3406  0033A2  6EDA               	movwf	fsr2h,c
  3407  0033A4  50DF               	movf	indf2,w,c
  3408  0033A6  6F6B               	movwf	fputs@c& (0+255),b
  3409  0033A8  516B               	movf	fputs@c& (0+255),w,b
  3410  0033AA  B4D8               	btfsc	status,2,c
  3411  0033AC  0012               	return	
  3412  0033AE  D7EB               	goto	l7148
  3413  0033B0                     __end_of_fputs:
  3414                           	callstack 0
  3415                           
  3416 ;; *************** function _fputc *****************
  3417 ;; Defined at:
  3418 ;;		line 8 in file "/Applications/microchip/xc8/v2.36/pic/sources/c99/common/nf_fputc.c"
  3419 ;; Parameters:    Size  Location     Type
  3420 ;;  c               2    0[BANK0 ] int 
  3421 ;;  fp              1    2[BANK0 ] PTR struct _IO_FILE
  3422 ;;		 -> sprintf@f(11), 
  3423 ;; Auto vars:     Size  Location     Type
  3424 ;;		None
  3425 ;; Return value:  Size  Location     Type
  3426 ;;                  2    0[BANK0 ] int 
  3427 ;; Registers used:
  3428 ;;		wreg, fsr1l, fsr1h, fsr2l, fsr2h, status,2, status,0, cstack
  3429 ;; Tracked objects:
  3430 ;;		On entry : 3F/0
  3431 ;;		On exit  : 3F/0
  3432 ;;		Unchanged: 0/0
  3433 ;; Data sizes:     COMRAM   BANK0   BANK1   BANK2   BANK3   BANK4   BANK5   BANK6   BANK7
  3434 ;;      Params:         0       3       0       0       0       0       0       0       0
  3435 ;;      Locals:         0       0       0       0       0       0       0       0       0
  3436 ;;      Temps:          0       5       0       0       0       0       0       0       0
  3437 ;;      Totals:         0       8       0       0       0       0       0       0       0
  3438 ;;Total ram usage:        8 bytes
  3439 ;; Hardware stack levels used: 1
  3440 ;; Hardware stack levels required when called: 11
  3441 ;; This function calls:
  3442 ;;		_putch
  3443 ;; This function is called by:
  3444 ;;		_pad
  3445 ;;		_stoa
  3446 ;;		_vfpfcnvrt
  3447 ;;		_fputs
  3448 ;; This function uses a non-reentrant model
  3449 ;;
  3450                           
  3451                           	psect	text10
  3452  002D16                     __ptext10:
  3453                           	callstack 0
  3454  002D16                     _fputc:
  3455                           	callstack 15
  3456                           
  3457                           ; BSR set to: 0
  3458                           
  3459                           ; BSR set to: 0
  3460                           ;incstack = 0
  3461  002D16  5162               	movf	fputc@fp& (0+255),w,b
  3462  002D18  B4D8               	btfsc	status,2,c
  3463  002D1A  D003               	goto	u5910
  3464                           
  3465                           ; BSR set to: 0
  3466  002D1C  5162               	movf	fputc@fp& (0+255),w,b
  3467  002D1E  A4D8               	btfss	status,2,c
  3468  002D20  D004               	goto	l7128
  3469  002D22                     u5910:
  3470                           
  3471                           ; BSR set to: 0
  3472  002D22  5160               	movf	fputc@c& (0+255),w,b
  3473  002D24  EC62  F01B         	call	_putch
  3474  002D28  0012               	return	
  3475  002D2A                     l7128:
  3476                           
  3477                           ; BSR set to: 0
  3478  002D2A  5162               	movf	fputc@fp& (0+255),w,b
  3479  002D2C  6ED9               	movwf	fsr2l,c
  3480  002D2E  6ADA               	clrf	fsr2h,c
  3481  002D30  0E09               	movlw	9
  3482  002D32  26D9               	addwf	fsr2l,f,c
  3483  002D34  50DE               	movf	postinc2,w,c
  3484  002D36  10DE               	iorwf	postinc2,w,c
  3485  002D38  B4D8               	btfsc	status,2,c
  3486  002D3A  D014               	goto	u5930
  3487                           
  3488                           ; BSR set to: 0
  3489  002D3C  5162               	movf	fputc@fp& (0+255),w,b
  3490  002D3E  6ED9               	movwf	fsr2l,c
  3491  002D40  6ADA               	clrf	fsr2h,c
  3492  002D42  0E09               	movlw	9
  3493  002D44  26D9               	addwf	fsr2l,f,c
  3494  002D46  5162               	movf	fputc@fp& (0+255),w,b
  3495  002D48  6EE1               	movwf	fsr1l,c
  3496  002D4A  6AE2               	clrf	fsr1h,c
  3497  002D4C  0E03               	movlw	3
  3498  002D4E  26E1               	addwf	fsr1l,f,c
  3499  002D50  50DE               	movf	postinc2,w,c
  3500  002D52  5CE6               	subwf	postinc1,w,c
  3501  002D54  50E6               	movf	postinc1,w,c
  3502  002D56  0A80               	xorlw	128
  3503  002D58  6F67               	movwf	(??_fputc+4)& (0+255),b
  3504  002D5A  50DE               	movf	postinc2,w,c
  3505  002D5C  0A80               	xorlw	128
  3506  002D5E  5967               	subwfb	(??_fputc+4)& (0+255),w,b
  3507  002D60  B0D8               	btfsc	status,0,c
  3508  002D62  0012               	return	
  3509  002D64                     u5930:
  3510                           
  3511                           ; BSR set to: 0
  3512  002D64  5162               	movf	fputc@fp& (0+255),w,b
  3513  002D66  6ED9               	movwf	fsr2l,c
  3514  002D68  6ADA               	clrf	fsr2h,c
  3515  002D6A  0E03               	movlw	3
  3516  002D6C  26D9               	addwf	fsr2l,f,c
  3517  002D6E  CFDE F063          	movff	postinc2,??_fputc
  3518  002D72  CFDD F064          	movff	postdec2,??_fputc+1
  3519  002D76  5162               	movf	fputc@fp& (0+255),w,b
  3520  002D78  6ED9               	movwf	fsr2l,c
  3521  002D7A  6ADA               	clrf	fsr2h,c
  3522  002D7C  CFDE F065          	movff	postinc2,??_fputc+2
  3523  002D80  CFDD F066          	movff	postdec2,??_fputc+3
  3524  002D84  5163               	movf	??_fputc& (0+255),w,b
  3525  002D86  2565               	addwf	(??_fputc+2)& (0+255),w,b
  3526  002D88  6ED9               	movwf	fsr2l,c
  3527  002D8A  5164               	movf	(??_fputc+1)& (0+255),w,b
  3528  002D8C  2166               	addwfc	(??_fputc+3)& (0+255),w,b
  3529  002D8E  6EDA               	movwf	fsr2h,c
  3530  002D90  C060  FFDF         	movff	fputc@c,indf2
  3531  002D94  5162               	movf	fputc@fp& (0+255),w,b
  3532  002D96  6ED9               	movwf	fsr2l,c
  3533  002D98  6ADA               	clrf	fsr2h,c
  3534  002D9A  0E03               	movlw	3
  3535  002D9C  26D9               	addwf	fsr2l,f,c
  3536  002D9E  2ADE               	incf	postinc2,f,c
  3537  002DA0  0E00               	movlw	0
  3538  002DA2  22DD               	addwfc	postdec2,f,c
  3539                           
  3540                           ; BSR set to: 0
  3541  002DA4  0012               	return		;funcret
  3542  002DA6                     __end_of_fputc:
  3543                           	callstack 0
  3544                           
  3545 ;; *************** function _putch *****************
  3546 ;; Defined at:
  3547 ;;		line 7 in file "/Applications/microchip/xc8/v2.36/pic/sources/c99/common/putch.c"
  3548 ;; Parameters:    Size  Location     Type
  3549 ;;  c               1    wreg     unsigned char 
  3550 ;; Auto vars:     Size  Location     Type
  3551 ;;  c               1    0[COMRAM] unsigned char 
  3552 ;; Return value:  Size  Location     Type
  3553 ;;                  1    wreg      void 
  3554 ;; Registers used:
  3555 ;;		wreg
  3556 ;; Tracked objects:
  3557 ;;		On entry : 3F/0
  3558 ;;		On exit  : 3F/0
  3559 ;;		Unchanged: 3F/0
  3560 ;; Data sizes:     COMRAM   BANK0   BANK1   BANK2   BANK3   BANK4   BANK5   BANK6   BANK7
  3561 ;;      Params:         0       0       0       0       0       0       0       0       0
  3562 ;;      Locals:         0       0       0       0       0       0       0       0       0
  3563 ;;      Temps:          0       0       0       0       0       0       0       0       0
  3564 ;;      Totals:         0       0       0       0       0       0       0       0       0
  3565 ;;Total ram usage:        0 bytes
  3566 ;; Hardware stack levels used: 1
  3567 ;; Hardware stack levels required when called: 10
  3568 ;; This function calls:
  3569 ;;		Nothing
  3570 ;; This function is called by:
  3571 ;;		_fputc
  3572 ;; This function uses a non-reentrant model
  3573 ;;
  3574                           
  3575                           	psect	text11
  3576  0036C4                     __ptext11:
  3577                           	callstack 0
  3578  0036C4                     _putch:
  3579                           	callstack 15
  3580                           
  3581                           ; BSR set to: 0
  3582                           
  3583                           ; BSR set to: 0
  3584                           ;incstack = 0
  3585  0036C4  0012               	return		;funcret
  3586  0036C6                     __end_of_putch:
  3587                           	callstack 0
  3588                           
  3589 ;; *************** function _abs *****************
  3590 ;; Defined at:
  3591 ;;		line 1 in file "/Applications/microchip/xc8/v2.36/pic/sources/c99/common/abs.c"
  3592 ;; Parameters:    Size  Location     Type
  3593 ;;  a               2   18[BANK0 ] int 
  3594 ;; Auto vars:     Size  Location     Type
  3595 ;;		None
  3596 ;; Return value:  Size  Location     Type
  3597 ;;                  2   18[BANK0 ] int 
  3598 ;; Registers used:
  3599 ;;		wreg, status,2, status,0
  3600 ;; Tracked objects:
  3601 ;;		On entry : 3F/0
  3602 ;;		On exit  : 3F/0
  3603 ;;		Unchanged: 0/0
  3604 ;; Data sizes:     COMRAM   BANK0   BANK1   BANK2   BANK3   BANK4   BANK5   BANK6   BANK7
  3605 ;;      Params:         0       2       0       0       0       0       0       0       0
  3606 ;;      Locals:         0       0       0       0       0       0       0       0       0
  3607 ;;      Temps:          0       2       0       0       0       0       0       0       0
  3608 ;;      Totals:         0       4       0       0       0       0       0       0       0
  3609 ;;Total ram usage:        4 bytes
  3610 ;; Hardware stack levels used: 1
  3611 ;; Hardware stack levels required when called: 10
  3612 ;; This function calls:
  3613 ;;		Nothing
  3614 ;; This function is called by:
  3615 ;;		_dtoa
  3616 ;; This function uses a non-reentrant model
  3617 ;;
  3618                           
  3619                           	psect	text12
  3620  003418                     __ptext12:
  3621                           	callstack 0
  3622  003418                     _abs:
  3623                           	callstack 16
  3624                           
  3625                           ; BSR set to: 0
  3626                           
  3627                           ; BSR set to: 0
  3628                           ;incstack = 0
  3629  003418  BF73               	btfsc	(abs@a+1)& (0+255),7,b
  3630  00341A  D005               	goto	u6130
  3631  00341C  5173               	movf	(abs@a+1)& (0+255),w,b
  3632  00341E  E110               	bnz	l2112
  3633  003420  0572               	decf	abs@a& (0+255),w,b
  3634  003422  B0D8               	btfsc	status,0,c
  3635  003424  D00D               	goto	l2112
  3636  003426                     u6130:
  3637                           
  3638                           ; BSR set to: 0
  3639  003426  C072  F074         	movff	abs@a,??_abs
  3640  00342A  C073  F075         	movff	abs@a+1,??_abs+1
  3641  00342E  1F74               	comf	??_abs& (0+255),f,b
  3642  003430  1F75               	comf	(??_abs+1)& (0+255),f,b
  3643  003432  4B74               	infsnz	??_abs& (0+255),f,b
  3644  003434  2B75               	incf	(??_abs+1)& (0+255),f,b
  3645  003436  C074  F072         	movff	??_abs,?_abs
  3646  00343A  C075  F073         	movff	??_abs+1,?_abs+1
  3647  00343E  0012               	return	
  3648  003440                     l2112:
  3649                           
  3650                           ; BSR set to: 0
  3651  003440  C072  F072         	movff	abs@a,?_abs
  3652  003444  C073  F073         	movff	abs@a+1,?_abs+1
  3653                           
  3654                           ; BSR set to: 0
  3655  003448  0012               	return		;funcret
  3656  00344A                     __end_of_abs:
  3657                           	callstack 0
  3658                           
  3659 ;; *************** function ___aomod *****************
  3660 ;; Defined at:
  3661 ;;		line 9 in file "/Applications/microchip/xc8/v2.36/pic/sources/c99/common/aomod.c"
  3662 ;; Parameters:    Size  Location     Type
  3663 ;;  dividend        8    0[BANK0 ] long long 
  3664 ;;  divisor         8    8[BANK0 ] long long 
  3665 ;; Auto vars:     Size  Location     Type
  3666 ;;  sign            1   17[BANK0 ] unsigned char 
  3667 ;;  counter         1   16[BANK0 ] unsigned char 
  3668 ;; Return value:  Size  Location     Type
  3669 ;;                  8    0[BANK0 ] long long 
  3670 ;; Registers used:
  3671 ;;		wreg, status,2, status,0
  3672 ;; Tracked objects:
  3673 ;;		On entry : 3F/0
  3674 ;;		On exit  : 3F/0
  3675 ;;		Unchanged: 0/0
  3676 ;; Data sizes:     COMRAM   BANK0   BANK1   BANK2   BANK3   BANK4   BANK5   BANK6   BANK7
  3677 ;;      Params:         0      16       0       0       0       0       0       0       0
  3678 ;;      Locals:         0       2       0       0       0       0       0       0       0
  3679 ;;      Temps:          0       0       0       0       0       0       0       0       0
  3680 ;;      Totals:         0      18       0       0       0       0       0       0       0
  3681 ;;Total ram usage:       18 bytes
  3682 ;; Hardware stack levels used: 1
  3683 ;; Hardware stack levels required when called: 10
  3684 ;; This function calls:
  3685 ;;		Nothing
  3686 ;; This function is called by:
  3687 ;;		_dtoa
  3688 ;; This function uses a non-reentrant model
  3689 ;;
  3690                           
  3691                           	psect	text13
  3692  00187A                     __ptext13:
  3693                           	callstack 0
  3694  00187A                     ___aomod:
  3695                           	callstack 16
  3696                           
  3697                           ; BSR set to: 0
  3698                           
  3699                           ; BSR set to: 0
  3700                           ;incstack = 0
  3701  00187A  0E00               	movlw	0
  3702  00187C  6F71               	movwf	___aomod@sign& (0+255),b
  3703                           
  3704                           ; BSR set to: 0
  3705  00187E  AF67               	btfss	(___aomod@dividend+7)& (0+255),7,b
  3706  001880  D012               	goto	l7206
  3707                           
  3708                           ; BSR set to: 0
  3709  001882  1F67               	comf	(___aomod@dividend+7)& (0+255),f,b
  3710  001884  1F66               	comf	(___aomod@dividend+6)& (0+255),f,b
  3711  001886  1F65               	comf	(___aomod@dividend+5)& (0+255),f,b
  3712  001888  1F64               	comf	(___aomod@dividend+4)& (0+255),f,b
  3713  00188A  1F63               	comf	(___aomod@dividend+3)& (0+255),f,b
  3714  00188C  1F62               	comf	(___aomod@dividend+2)& (0+255),f,b
  3715  00188E  1F61               	comf	(___aomod@dividend+1)& (0+255),f,b
  3716  001890  6D60               	negf	___aomod@dividend& (0+255),b
  3717  001892  0E00               	movlw	0
  3718  001894  2361               	addwfc	(___aomod@dividend+1)& (0+255),f,b
  3719  001896  2362               	addwfc	(___aomod@dividend+2)& (0+255),f,b
  3720  001898  2363               	addwfc	(___aomod@dividend+3)& (0+255),f,b
  3721  00189A  2364               	addwfc	(___aomod@dividend+4)& (0+255),f,b
  3722  00189C  2365               	addwfc	(___aomod@dividend+5)& (0+255),f,b
  3723  00189E  2366               	addwfc	(___aomod@dividend+6)& (0+255),f,b
  3724  0018A0  2367               	addwfc	(___aomod@dividend+7)& (0+255),f,b
  3725                           
  3726                           ; BSR set to: 0
  3727  0018A2  0E01               	movlw	1
  3728  0018A4  6F71               	movwf	___aomod@sign& (0+255),b
  3729  0018A6                     l7206:
  3730                           
  3731                           ; BSR set to: 0
  3732  0018A6  AF6F               	btfss	(___aomod@divisor+7)& (0+255),7,b
  3733  0018A8  D010               	goto	l7210
  3734                           
  3735                           ; BSR set to: 0
  3736  0018AA  1F6F               	comf	(___aomod@divisor+7)& (0+255),f,b
  3737  0018AC  1F6E               	comf	(___aomod@divisor+6)& (0+255),f,b
  3738  0018AE  1F6D               	comf	(___aomod@divisor+5)& (0+255),f,b
  3739  0018B0  1F6C               	comf	(___aomod@divisor+4)& (0+255),f,b
  3740  0018B2  1F6B               	comf	(___aomod@divisor+3)& (0+255),f,b
  3741  0018B4  1F6A               	comf	(___aomod@divisor+2)& (0+255),f,b
  3742  0018B6  1F69               	comf	(___aomod@divisor+1)& (0+255),f,b
  3743  0018B8  6D68               	negf	___aomod@divisor& (0+255),b
  3744  0018BA  0E00               	movlw	0
  3745  0018BC  2369               	addwfc	(___aomod@divisor+1)& (0+255),f,b
  3746  0018BE  236A               	addwfc	(___aomod@divisor+2)& (0+255),f,b
  3747  0018C0  236B               	addwfc	(___aomod@divisor+3)& (0+255),f,b
  3748  0018C2  236C               	addwfc	(___aomod@divisor+4)& (0+255),f,b
  3749  0018C4  236D               	addwfc	(___aomod@divisor+5)& (0+255),f,b
  3750  0018C6  236E               	addwfc	(___aomod@divisor+6)& (0+255),f,b
  3751  0018C8  236F               	addwfc	(___aomod@divisor+7)& (0+255),f,b
  3752  0018CA                     l7210:
  3753                           
  3754                           ; BSR set to: 0
  3755  0018CA  5168               	movf	___aomod@divisor& (0+255),w,b
  3756  0018CC  1169               	iorwf	(___aomod@divisor+1)& (0+255),w,b
  3757  0018CE  116A               	iorwf	(___aomod@divisor+2)& (0+255),w,b
  3758  0018D0  116B               	iorwf	(___aomod@divisor+3)& (0+255),w,b
  3759  0018D2  116C               	iorwf	(___aomod@divisor+4)& (0+255),w,b
  3760  0018D4  116D               	iorwf	(___aomod@divisor+5)& (0+255),w,b
  3761  0018D6  116E               	iorwf	(___aomod@divisor+6)& (0+255),w,b
  3762  0018D8  116F               	iorwf	(___aomod@divisor+7)& (0+255),w,b
  3763  0018DA  B4D8               	btfsc	status,2,c
  3764  0018DC  D03C               	goto	l7226
  3765                           
  3766                           ; BSR set to: 0
  3767  0018DE  0E01               	movlw	1
  3768  0018E0  6F70               	movwf	___aomod@counter& (0+255),b
  3769  0018E2  D00A               	goto	l7216
  3770  0018E4                     l7214:
  3771                           
  3772                           ; BSR set to: 0
  3773  0018E4  90D8               	bcf	status,0,c
  3774  0018E6  3768               	rlcf	___aomod@divisor& (0+255),f,b
  3775  0018E8  3769               	rlcf	(___aomod@divisor+1)& (0+255),f,b
  3776  0018EA  376A               	rlcf	(___aomod@divisor+2)& (0+255),f,b
  3777  0018EC  376B               	rlcf	(___aomod@divisor+3)& (0+255),f,b
  3778  0018EE  376C               	rlcf	(___aomod@divisor+4)& (0+255),f,b
  3779  0018F0  376D               	rlcf	(___aomod@divisor+5)& (0+255),f,b
  3780  0018F2  376E               	rlcf	(___aomod@divisor+6)& (0+255),f,b
  3781  0018F4  376F               	rlcf	(___aomod@divisor+7)& (0+255),f,b
  3782  0018F6  2B70               	incf	___aomod@counter& (0+255),f,b
  3783  0018F8                     l7216:
  3784                           
  3785                           ; BSR set to: 0
  3786  0018F8  AF6F               	btfss	(___aomod@divisor+7)& (0+255),7,b
  3787  0018FA  D7F4               	goto	l7214
  3788  0018FC                     u6060:
  3789                           
  3790                           ; BSR set to: 0
  3791  0018FC  5168               	movf	___aomod@divisor& (0+255),w,b
  3792  0018FE  5D60               	subwf	___aomod@dividend& (0+255),w,b
  3793  001900  5169               	movf	(___aomod@divisor+1)& (0+255),w,b
  3794  001902  5961               	subwfb	(___aomod@dividend+1)& (0+255),w,b
  3795  001904  516A               	movf	(___aomod@divisor+2)& (0+255),w,b
  3796  001906  5962               	subwfb	(___aomod@dividend+2)& (0+255),w,b
  3797  001908  516B               	movf	(___aomod@divisor+3)& (0+255),w,b
  3798  00190A  5963               	subwfb	(___aomod@dividend+3)& (0+255),w,b
  3799  00190C  516C               	movf	(___aomod@divisor+4)& (0+255),w,b
  3800  00190E  5964               	subwfb	(___aomod@dividend+4)& (0+255),w,b
  3801  001910  516D               	movf	(___aomod@divisor+5)& (0+255),w,b
  3802  001912  5965               	subwfb	(___aomod@dividend+5)& (0+255),w,b
  3803  001914  516E               	movf	(___aomod@divisor+6)& (0+255),w,b
  3804  001916  5966               	subwfb	(___aomod@dividend+6)& (0+255),w,b
  3805  001918  516F               	movf	(___aomod@divisor+7)& (0+255),w,b
  3806  00191A  5967               	subwfb	(___aomod@dividend+7)& (0+255),w,b
  3807  00191C  A0D8               	btfss	status,0,c
  3808  00191E  D010               	goto	l7222
  3809                           
  3810                           ; BSR set to: 0
  3811  001920  5168               	movf	___aomod@divisor& (0+255),w,b
  3812  001922  5F60               	subwf	___aomod@dividend& (0+255),f,b
  3813  001924  5169               	movf	(___aomod@divisor+1)& (0+255),w,b
  3814  001926  5B61               	subwfb	(___aomod@dividend+1)& (0+255),f,b
  3815  001928  516A               	movf	(___aomod@divisor+2)& (0+255),w,b
  3816  00192A  5B62               	subwfb	(___aomod@dividend+2)& (0+255),f,b
  3817  00192C  516B               	movf	(___aomod@divisor+3)& (0+255),w,b
  3818  00192E  5B63               	subwfb	(___aomod@dividend+3)& (0+255),f,b
  3819  001930  516C               	movf	(___aomod@divisor+4)& (0+255),w,b
  3820  001932  5B64               	subwfb	(___aomod@dividend+4)& (0+255),f,b
  3821  001934  516D               	movf	(___aomod@divisor+5)& (0+255),w,b
  3822  001936  5B65               	subwfb	(___aomod@dividend+5)& (0+255),f,b
  3823  001938  516E               	movf	(___aomod@divisor+6)& (0+255),w,b
  3824  00193A  5B66               	subwfb	(___aomod@dividend+6)& (0+255),f,b
  3825  00193C  516F               	movf	(___aomod@divisor+7)& (0+255),w,b
  3826  00193E  5B67               	subwfb	(___aomod@dividend+7)& (0+255),f,b
  3827  001940                     l7222:
  3828                           
  3829                           ; BSR set to: 0
  3830  001940  90D8               	bcf	status,0,c
  3831  001942  336F               	rrcf	(___aomod@divisor+7)& (0+255),f,b
  3832  001944  336E               	rrcf	(___aomod@divisor+6)& (0+255),f,b
  3833  001946  336D               	rrcf	(___aomod@divisor+5)& (0+255),f,b
  3834  001948  336C               	rrcf	(___aomod@divisor+4)& (0+255),f,b
  3835  00194A  336B               	rrcf	(___aomod@divisor+3)& (0+255),f,b
  3836  00194C  336A               	rrcf	(___aomod@divisor+2)& (0+255),f,b
  3837  00194E  3369               	rrcf	(___aomod@divisor+1)& (0+255),f,b
  3838  001950  3368               	rrcf	___aomod@divisor& (0+255),f,b
  3839                           
  3840                           ; BSR set to: 0
  3841  001952  2F70               	decfsz	___aomod@counter& (0+255),f,b
  3842  001954  D7D3               	goto	u6060
  3843  001956                     l7226:
  3844                           
  3845                           ; BSR set to: 0
  3846  001956  5171               	movf	___aomod@sign& (0+255),w,b
  3847  001958  B4D8               	btfsc	status,2,c
  3848  00195A  D010               	goto	l7230
  3849                           
  3850                           ; BSR set to: 0
  3851  00195C  1F67               	comf	(___aomod@dividend+7)& (0+255),f,b
  3852  00195E  1F66               	comf	(___aomod@dividend+6)& (0+255),f,b
  3853  001960  1F65               	comf	(___aomod@dividend+5)& (0+255),f,b
  3854  001962  1F64               	comf	(___aomod@dividend+4)& (0+255),f,b
  3855  001964  1F63               	comf	(___aomod@dividend+3)& (0+255),f,b
  3856  001966  1F62               	comf	(___aomod@dividend+2)& (0+255),f,b
  3857  001968  1F61               	comf	(___aomod@dividend+1)& (0+255),f,b
  3858  00196A  6D60               	negf	___aomod@dividend& (0+255),b
  3859  00196C  0E00               	movlw	0
  3860  00196E  2361               	addwfc	(___aomod@dividend+1)& (0+255),f,b
  3861  001970  2362               	addwfc	(___aomod@dividend+2)& (0+255),f,b
  3862  001972  2363               	addwfc	(___aomod@dividend+3)& (0+255),f,b
  3863  001974  2364               	addwfc	(___aomod@dividend+4)& (0+255),f,b
  3864  001976  2365               	addwfc	(___aomod@dividend+5)& (0+255),f,b
  3865  001978  2366               	addwfc	(___aomod@dividend+6)& (0+255),f,b
  3866  00197A  2367               	addwfc	(___aomod@dividend+7)& (0+255),f,b
  3867  00197C                     l7230:
  3868                           
  3869                           ; BSR set to: 0
  3870  00197C  C060  F060         	movff	___aomod@dividend,?___aomod
  3871  001980  C061  F061         	movff	___aomod@dividend+1,?___aomod+1
  3872  001984  C062  F062         	movff	___aomod@dividend+2,?___aomod+2
  3873  001988  C063  F063         	movff	___aomod@dividend+3,?___aomod+3
  3874  00198C  C064  F064         	movff	___aomod@dividend+4,?___aomod+4
  3875  001990  C065  F065         	movff	___aomod@dividend+5,?___aomod+5
  3876  001994  C066  F066         	movff	___aomod@dividend+6,?___aomod+6
  3877  001998  C067  F067         	movff	___aomod@dividend+7,?___aomod+7
  3878                           
  3879                           ; BSR set to: 0
  3880  00199C  0012               	return		;funcret
  3881  00199E                     __end_of___aomod:
  3882                           	callstack 0
  3883                           
  3884 ;; *************** function ___aodiv *****************
  3885 ;; Defined at:
  3886 ;;		line 9 in file "/Applications/microchip/xc8/v2.36/pic/sources/c99/common/aodiv.c"
  3887 ;; Parameters:    Size  Location     Type
  3888 ;;  dividend        8    0[BANK0 ] long long 
  3889 ;;  divisor         8    8[BANK0 ] long long 
  3890 ;; Auto vars:     Size  Location     Type
  3891 ;;  quotient        8   18[BANK0 ] long long 
  3892 ;;  sign            1   17[BANK0 ] unsigned char 
  3893 ;;  counter         1   16[BANK0 ] unsigned char 
  3894 ;; Return value:  Size  Location     Type
  3895 ;;                  8    0[BANK0 ] long long 
  3896 ;; Registers used:
  3897 ;;		wreg, fsr2l, fsr2h, status,2, status,0
  3898 ;; Tracked objects:
  3899 ;;		On entry : 3F/0
  3900 ;;		On exit  : 3F/0
  3901 ;;		Unchanged: 0/0
  3902 ;; Data sizes:     COMRAM   BANK0   BANK1   BANK2   BANK3   BANK4   BANK5   BANK6   BANK7
  3903 ;;      Params:         0      16       0       0       0       0       0       0       0
  3904 ;;      Locals:         0      10       0       0       0       0       0       0       0
  3905 ;;      Temps:          0       0       0       0       0       0       0       0       0
  3906 ;;      Totals:         0      26       0       0       0       0       0       0       0
  3907 ;;Total ram usage:       26 bytes
  3908 ;; Hardware stack levels used: 1
  3909 ;; Hardware stack levels required when called: 10
  3910 ;; This function calls:
  3911 ;;		Nothing
  3912 ;; This function is called by:
  3913 ;;		_dtoa
  3914 ;; This function uses a non-reentrant model
  3915 ;;
  3916                           
  3917                           	psect	text14
  3918  001136                     __ptext14:
  3919                           	callstack 0
  3920  001136                     ___aodiv:
  3921                           	callstack 16
  3922                           
  3923                           ; BSR set to: 0
  3924                           
  3925                           ; BSR set to: 0
  3926                           ;incstack = 0
  3927  001136  0E00               	movlw	0
  3928  001138  6F71               	movwf	___aodiv@sign& (0+255),b
  3929                           
  3930                           ; BSR set to: 0
  3931  00113A  AF6F               	btfss	(___aodiv@divisor+7)& (0+255),7,b
  3932  00113C  D012               	goto	l7162
  3933                           
  3934                           ; BSR set to: 0
  3935  00113E  1F6F               	comf	(___aodiv@divisor+7)& (0+255),f,b
  3936  001140  1F6E               	comf	(___aodiv@divisor+6)& (0+255),f,b
  3937  001142  1F6D               	comf	(___aodiv@divisor+5)& (0+255),f,b
  3938  001144  1F6C               	comf	(___aodiv@divisor+4)& (0+255),f,b
  3939  001146  1F6B               	comf	(___aodiv@divisor+3)& (0+255),f,b
  3940  001148  1F6A               	comf	(___aodiv@divisor+2)& (0+255),f,b
  3941  00114A  1F69               	comf	(___aodiv@divisor+1)& (0+255),f,b
  3942  00114C  6D68               	negf	___aodiv@divisor& (0+255),b
  3943  00114E  0E00               	movlw	0
  3944  001150  2369               	addwfc	(___aodiv@divisor+1)& (0+255),f,b
  3945  001152  236A               	addwfc	(___aodiv@divisor+2)& (0+255),f,b
  3946  001154  236B               	addwfc	(___aodiv@divisor+3)& (0+255),f,b
  3947  001156  236C               	addwfc	(___aodiv@divisor+4)& (0+255),f,b
  3948  001158  236D               	addwfc	(___aodiv@divisor+5)& (0+255),f,b
  3949  00115A  236E               	addwfc	(___aodiv@divisor+6)& (0+255),f,b
  3950  00115C  236F               	addwfc	(___aodiv@divisor+7)& (0+255),f,b
  3951                           
  3952                           ; BSR set to: 0
  3953  00115E  0E01               	movlw	1
  3954  001160  6F71               	movwf	___aodiv@sign& (0+255),b
  3955  001162                     l7162:
  3956                           
  3957                           ; BSR set to: 0
  3958  001162  AF67               	btfss	(___aodiv@dividend+7)& (0+255),7,b
  3959  001164  D012               	goto	l7168
  3960                           
  3961                           ; BSR set to: 0
  3962  001166  1F67               	comf	(___aodiv@dividend+7)& (0+255),f,b
  3963  001168  1F66               	comf	(___aodiv@dividend+6)& (0+255),f,b
  3964  00116A  1F65               	comf	(___aodiv@dividend+5)& (0+255),f,b
  3965  00116C  1F64               	comf	(___aodiv@dividend+4)& (0+255),f,b
  3966  00116E  1F63               	comf	(___aodiv@dividend+3)& (0+255),f,b
  3967  001170  1F62               	comf	(___aodiv@dividend+2)& (0+255),f,b
  3968  001172  1F61               	comf	(___aodiv@dividend+1)& (0+255),f,b
  3969  001174  6D60               	negf	___aodiv@dividend& (0+255),b
  3970  001176  0E00               	movlw	0
  3971  001178  2361               	addwfc	(___aodiv@dividend+1)& (0+255),f,b
  3972  00117A  2362               	addwfc	(___aodiv@dividend+2)& (0+255),f,b
  3973  00117C  2363               	addwfc	(___aodiv@dividend+3)& (0+255),f,b
  3974  00117E  2364               	addwfc	(___aodiv@dividend+4)& (0+255),f,b
  3975  001180  2365               	addwfc	(___aodiv@dividend+5)& (0+255),f,b
  3976  001182  2366               	addwfc	(___aodiv@dividend+6)& (0+255),f,b
  3977  001184  2367               	addwfc	(___aodiv@dividend+7)& (0+255),f,b
  3978                           
  3979                           ; BSR set to: 0
  3980  001186  0E01               	movlw	1
  3981  001188  1B71               	xorwf	___aodiv@sign& (0+255),f,b
  3982  00118A                     l7168:
  3983                           
  3984                           ; BSR set to: 0
  3985  00118A  EE20  F072         	lfsr	2,___aodiv@quotient
  3986  00118E  0E07               	movlw	7
  3987  001190                     u5981:
  3988  001190  6ADE               	clrf	postinc2,c
  3989  001192  06E8               	decf	wreg,f,c
  3990  001194  E2FD               	bc	u5981
  3991                           
  3992                           ; BSR set to: 0
  3993  001196  5168               	movf	___aodiv@divisor& (0+255),w,b
  3994  001198  1169               	iorwf	(___aodiv@divisor+1)& (0+255),w,b
  3995  00119A  116A               	iorwf	(___aodiv@divisor+2)& (0+255),w,b
  3996  00119C  116B               	iorwf	(___aodiv@divisor+3)& (0+255),w,b
  3997  00119E  116C               	iorwf	(___aodiv@divisor+4)& (0+255),w,b
  3998  0011A0  116D               	iorwf	(___aodiv@divisor+5)& (0+255),w,b
  3999  0011A2  116E               	iorwf	(___aodiv@divisor+6)& (0+255),w,b
  4000  0011A4  116F               	iorwf	(___aodiv@divisor+7)& (0+255),w,b
  4001  0011A6  B4D8               	btfsc	status,2,c
  4002  0011A8  D046               	goto	l7190
  4003                           
  4004                           ; BSR set to: 0
  4005  0011AA  0E01               	movlw	1
  4006  0011AC  6F70               	movwf	___aodiv@counter& (0+255),b
  4007  0011AE  D00A               	goto	l7176
  4008  0011B0                     l7174:
  4009                           
  4010                           ; BSR set to: 0
  4011  0011B0  90D8               	bcf	status,0,c
  4012  0011B2  3768               	rlcf	___aodiv@divisor& (0+255),f,b
  4013  0011B4  3769               	rlcf	(___aodiv@divisor+1)& (0+255),f,b
  4014  0011B6  376A               	rlcf	(___aodiv@divisor+2)& (0+255),f,b
  4015  0011B8  376B               	rlcf	(___aodiv@divisor+3)& (0+255),f,b
  4016  0011BA  376C               	rlcf	(___aodiv@divisor+4)& (0+255),f,b
  4017  0011BC  376D               	rlcf	(___aodiv@divisor+5)& (0+255),f,b
  4018  0011BE  376E               	rlcf	(___aodiv@divisor+6)& (0+255),f,b
  4019  0011C0  376F               	rlcf	(___aodiv@divisor+7)& (0+255),f,b
  4020  0011C2  2B70               	incf	___aodiv@counter& (0+255),f,b
  4021  0011C4                     l7176:
  4022                           
  4023                           ; BSR set to: 0
  4024  0011C4  AF6F               	btfss	(___aodiv@divisor+7)& (0+255),7,b
  4025  0011C6  D7F4               	goto	l7174
  4026  0011C8                     u6000:
  4027                           
  4028                           ; BSR set to: 0
  4029  0011C8  90D8               	bcf	status,0,c
  4030  0011CA  3772               	rlcf	___aodiv@quotient& (0+255),f,b
  4031  0011CC  3773               	rlcf	(___aodiv@quotient+1)& (0+255),f,b
  4032  0011CE  3774               	rlcf	(___aodiv@quotient+2)& (0+255),f,b
  4033  0011D0  3775               	rlcf	(___aodiv@quotient+3)& (0+255),f,b
  4034  0011D2  3776               	rlcf	(___aodiv@quotient+4)& (0+255),f,b
  4035  0011D4  3777               	rlcf	(___aodiv@quotient+5)& (0+255),f,b
  4036  0011D6  3778               	rlcf	(___aodiv@quotient+6)& (0+255),f,b
  4037  0011D8  3779               	rlcf	(___aodiv@quotient+7)& (0+255),f,b
  4038                           
  4039                           ; BSR set to: 0
  4040  0011DA  5168               	movf	___aodiv@divisor& (0+255),w,b
  4041  0011DC  5D60               	subwf	___aodiv@dividend& (0+255),w,b
  4042  0011DE  5169               	movf	(___aodiv@divisor+1)& (0+255),w,b
  4043  0011E0  5961               	subwfb	(___aodiv@dividend+1)& (0+255),w,b
  4044  0011E2  516A               	movf	(___aodiv@divisor+2)& (0+255),w,b
  4045  0011E4  5962               	subwfb	(___aodiv@dividend+2)& (0+255),w,b
  4046  0011E6  516B               	movf	(___aodiv@divisor+3)& (0+255),w,b
  4047  0011E8  5963               	subwfb	(___aodiv@dividend+3)& (0+255),w,b
  4048  0011EA  516C               	movf	(___aodiv@divisor+4)& (0+255),w,b
  4049  0011EC  5964               	subwfb	(___aodiv@dividend+4)& (0+255),w,b
  4050  0011EE  516D               	movf	(___aodiv@divisor+5)& (0+255),w,b
  4051  0011F0  5965               	subwfb	(___aodiv@dividend+5)& (0+255),w,b
  4052  0011F2  516E               	movf	(___aodiv@divisor+6)& (0+255),w,b
  4053  0011F4  5966               	subwfb	(___aodiv@dividend+6)& (0+255),w,b
  4054  0011F6  516F               	movf	(___aodiv@divisor+7)& (0+255),w,b
  4055  0011F8  5967               	subwfb	(___aodiv@dividend+7)& (0+255),w,b
  4056  0011FA  A0D8               	btfss	status,0,c
  4057  0011FC  D011               	goto	l7186
  4058                           
  4059                           ; BSR set to: 0
  4060  0011FE  5168               	movf	___aodiv@divisor& (0+255),w,b
  4061  001200  5F60               	subwf	___aodiv@dividend& (0+255),f,b
  4062  001202  5169               	movf	(___aodiv@divisor+1)& (0+255),w,b
  4063  001204  5B61               	subwfb	(___aodiv@dividend+1)& (0+255),f,b
  4064  001206  516A               	movf	(___aodiv@divisor+2)& (0+255),w,b
  4065  001208  5B62               	subwfb	(___aodiv@dividend+2)& (0+255),f,b
  4066  00120A  516B               	movf	(___aodiv@divisor+3)& (0+255),w,b
  4067  00120C  5B63               	subwfb	(___aodiv@dividend+3)& (0+255),f,b
  4068  00120E  516C               	movf	(___aodiv@divisor+4)& (0+255),w,b
  4069  001210  5B64               	subwfb	(___aodiv@dividend+4)& (0+255),f,b
  4070  001212  516D               	movf	(___aodiv@divisor+5)& (0+255),w,b
  4071  001214  5B65               	subwfb	(___aodiv@dividend+5)& (0+255),f,b
  4072  001216  516E               	movf	(___aodiv@divisor+6)& (0+255),w,b
  4073  001218  5B66               	subwfb	(___aodiv@dividend+6)& (0+255),f,b
  4074  00121A  516F               	movf	(___aodiv@divisor+7)& (0+255),w,b
  4075  00121C  5B67               	subwfb	(___aodiv@dividend+7)& (0+255),f,b
  4076                           
  4077                           ; BSR set to: 0
  4078  00121E  8172               	bsf	___aodiv@quotient& (0+255),0,b
  4079  001220                     l7186:
  4080                           
  4081                           ; BSR set to: 0
  4082  001220  90D8               	bcf	status,0,c
  4083  001222  336F               	rrcf	(___aodiv@divisor+7)& (0+255),f,b
  4084  001224  336E               	rrcf	(___aodiv@divisor+6)& (0+255),f,b
  4085  001226  336D               	rrcf	(___aodiv@divisor+5)& (0+255),f,b
  4086  001228  336C               	rrcf	(___aodiv@divisor+4)& (0+255),f,b
  4087  00122A  336B               	rrcf	(___aodiv@divisor+3)& (0+255),f,b
  4088  00122C  336A               	rrcf	(___aodiv@divisor+2)& (0+255),f,b
  4089  00122E  3369               	rrcf	(___aodiv@divisor+1)& (0+255),f,b
  4090  001230  3368               	rrcf	___aodiv@divisor& (0+255),f,b
  4091                           
  4092                           ; BSR set to: 0
  4093  001232  2F70               	decfsz	___aodiv@counter& (0+255),f,b
  4094  001234  D7C9               	goto	u6000
  4095  001236                     l7190:
  4096                           
  4097                           ; BSR set to: 0
  4098  001236  5171               	movf	___aodiv@sign& (0+255),w,b
  4099  001238  B4D8               	btfsc	status,2,c
  4100  00123A  D010               	goto	l7194
  4101                           
  4102                           ; BSR set to: 0
  4103  00123C  1F79               	comf	(___aodiv@quotient+7)& (0+255),f,b
  4104  00123E  1F78               	comf	(___aodiv@quotient+6)& (0+255),f,b
  4105  001240  1F77               	comf	(___aodiv@quotient+5)& (0+255),f,b
  4106  001242  1F76               	comf	(___aodiv@quotient+4)& (0+255),f,b
  4107  001244  1F75               	comf	(___aodiv@quotient+3)& (0+255),f,b
  4108  001246  1F74               	comf	(___aodiv@quotient+2)& (0+255),f,b
  4109  001248  1F73               	comf	(___aodiv@quotient+1)& (0+255),f,b
  4110  00124A  6D72               	negf	___aodiv@quotient& (0+255),b
  4111  00124C  0E00               	movlw	0
  4112  00124E  2373               	addwfc	(___aodiv@quotient+1)& (0+255),f,b
  4113  001250  2374               	addwfc	(___aodiv@quotient+2)& (0+255),f,b
  4114  001252  2375               	addwfc	(___aodiv@quotient+3)& (0+255),f,b
  4115  001254  2376               	addwfc	(___aodiv@quotient+4)& (0+255),f,b
  4116  001256  2377               	addwfc	(___aodiv@quotient+5)& (0+255),f,b
  4117  001258  2378               	addwfc	(___aodiv@quotient+6)& (0+255),f,b
  4118  00125A  2379               	addwfc	(___aodiv@quotient+7)& (0+255),f,b
  4119  00125C                     l7194:
  4120                           
  4121                           ; BSR set to: 0
  4122  00125C  C072  F060         	movff	___aodiv@quotient,?___aodiv
  4123  001260  C073  F061         	movff	___aodiv@quotient+1,?___aodiv+1
  4124  001264  C074  F062         	movff	___aodiv@quotient+2,?___aodiv+2
  4125  001268  C075  F063         	movff	___aodiv@quotient+3,?___aodiv+3
  4126  00126C  C076  F064         	movff	___aodiv@quotient+4,?___aodiv+4
  4127  001270  C077  F065         	movff	___aodiv@quotient+5,?___aodiv+5
  4128  001274  C078  F066         	movff	___aodiv@quotient+6,?___aodiv+6
  4129  001278  C079  F067         	movff	___aodiv@quotient+7,?___aodiv+7
  4130                           
  4131                           ; BSR set to: 0
  4132  00127C  0012               	return		;funcret
  4133  00127E                     __end_of___aodiv:
  4134                           	callstack 0
  4135                           
  4136 ;; *************** function _TMR3_StopTimer *****************
  4137 ;; Defined at:
  4138 ;;		line 99 in file "mcc_generated_files/tmr3.c"
  4139 ;; Parameters:    Size  Location     Type
  4140 ;;		None
  4141 ;; Auto vars:     Size  Location     Type
  4142 ;;		None
  4143 ;; Return value:  Size  Location     Type
  4144 ;;                  1    wreg      void 
  4145 ;; Registers used:
  4146 ;;		None
  4147 ;; Tracked objects:
  4148 ;;		On entry : 3F/6
  4149 ;;		On exit  : 3F/6
  4150 ;;		Unchanged: 3F/0
  4151 ;; Data sizes:     COMRAM   BANK0   BANK1   BANK2   BANK3   BANK4   BANK5   BANK6   BANK7
  4152 ;;      Params:         0       0       0       0       0       0       0       0       0
  4153 ;;      Locals:         0       0       0       0       0       0       0       0       0
  4154 ;;      Temps:          0       0       0       0       0       0       0       0       0
  4155 ;;      Totals:         0       0       0       0       0       0       0       0       0
  4156 ;;Total ram usage:        0 bytes
  4157 ;; Hardware stack levels used: 1
  4158 ;; Hardware stack levels required when called: 10
  4159 ;; This function calls:
  4160 ;;		Nothing
  4161 ;; This function is called by:
  4162 ;;		_main
  4163 ;; This function uses a non-reentrant model
  4164 ;;
  4165                           
  4166                           	psect	text15
  4167  0036B4                     __ptext15:
  4168                           	callstack 0
  4169  0036B4                     _TMR3_StopTimer:
  4170                           	callstack 20
  4171                           
  4172                           ; BSR set to: 6
  4173                           ;mcc_generated_files/tmr3.c: 102:     T3CONbits.TMR3ON = 0;
  4174                           
  4175                           ; BSR set to: 0
  4176                           ;incstack = 0
  4177  0036B4  90B1               	bcf	177,0,c	;volatile
  4178                           
  4179                           ; BSR set to: 6
  4180  0036B6  0012               	return		;funcret
  4181  0036B8                     __end_of_TMR3_StopTimer:
  4182                           	callstack 0
  4183                           
  4184 ;; *************** function _TMR2_StopTimer *****************
  4185 ;; Defined at:
  4186 ;;		line 93 in file "mcc_generated_files/tmr2.c"
  4187 ;; Parameters:    Size  Location     Type
  4188 ;;		None
  4189 ;; Auto vars:     Size  Location     Type
  4190 ;;		None
  4191 ;; Return value:  Size  Location     Type
  4192 ;;                  1    wreg      void 
  4193 ;; Registers used:
  4194 ;;		None
  4195 ;; Tracked objects:
  4196 ;;		On entry : 3F/6
  4197 ;;		On exit  : 3F/6
  4198 ;;		Unchanged: 3F/0
  4199 ;; Data sizes:     COMRAM   BANK0   BANK1   BANK2   BANK3   BANK4   BANK5   BANK6   BANK7
  4200 ;;      Params:         0       0       0       0       0       0       0       0       0
  4201 ;;      Locals:         0       0       0       0       0       0       0       0       0
  4202 ;;      Temps:          0       0       0       0       0       0       0       0       0
  4203 ;;      Totals:         0       0       0       0       0       0       0       0       0
  4204 ;;Total ram usage:        0 bytes
  4205 ;; Hardware stack levels used: 1
  4206 ;; Hardware stack levels required when called: 10
  4207 ;; This function calls:
  4208 ;;		Nothing
  4209 ;; This function is called by:
  4210 ;;		_main
  4211 ;; This function uses a non-reentrant model
  4212 ;;
  4213                           
  4214                           	psect	text16
  4215  0036B8                     __ptext16:
  4216                           	callstack 0
  4217  0036B8                     _TMR2_StopTimer:
  4218                           	callstack 20
  4219                           
  4220                           ; BSR set to: 6
  4221                           ;mcc_generated_files/tmr2.c: 96:     T2CONbits.TMR2ON = 0;
  4222                           
  4223                           ; BSR set to: 6
  4224                           ;incstack = 0
  4225  0036B8  94BA               	bcf	186,2,c	;volatile
  4226                           
  4227                           ; BSR set to: 6
  4228  0036BA  0012               	return		;funcret
  4229  0036BC                     __end_of_TMR2_StopTimer:
  4230                           	callstack 0
  4231                           
  4232 ;; *************** function _SYSTEM_Initialize *****************
  4233 ;; Defined at:
  4234 ;;		line 50 in file "mcc_generated_files/mcc.c"
  4235 ;; Parameters:    Size  Location     Type
  4236 ;;		None
  4237 ;; Auto vars:     Size  Location     Type
  4238 ;;		None
  4239 ;; Return value:  Size  Location     Type
  4240 ;;                  1    wreg      void 
  4241 ;; Registers used:
  4242 ;;		wreg, fsr2l, fsr2h, status,2, status,0, prodl, prodh, cstack
  4243 ;; Tracked objects:
  4244 ;;		On entry : 0/0
  4245 ;;		On exit  : 3F/0
  4246 ;;		Unchanged: 0/0
  4247 ;; Data sizes:     COMRAM   BANK0   BANK1   BANK2   BANK3   BANK4   BANK5   BANK6   BANK7
  4248 ;;      Params:         0       0       0       0       0       0       0       0       0
  4249 ;;      Locals:         0       0       0       0       0       0       0       0       0
  4250 ;;      Temps:          0       0       0       0       0       0       0       0       0
  4251 ;;      Totals:         0       0       0       0       0       0       0       0       0
  4252 ;;Total ram usage:        0 bytes
  4253 ;; Hardware stack levels used: 1
  4254 ;; Hardware stack levels required when called: 12
  4255 ;; This function calls:
  4256 ;;		_ADC_Initialize
  4257 ;;		_CCP2_Initialize
  4258 ;;		_INTERRUPT_Initialize
  4259 ;;		_OSCILLATOR_Initialize
  4260 ;;		_PIN_MANAGER_Initialize
  4261 ;;		_TMR0_Initialize
  4262 ;;		_TMR1_Initialize
  4263 ;;		_TMR2_Initialize
  4264 ;;		_TMR3_Initialize
  4265 ;;		_USBDeviceAttach
  4266 ;;		_USBDeviceInit
  4267 ;; This function is called by:
  4268 ;;		_main
  4269 ;; This function uses a non-reentrant model
  4270 ;;
  4271                           
  4272                           	psect	text17
  4273  00347A                     __ptext17:
  4274                           	callstack 0
  4275  00347A                     _SYSTEM_Initialize:
  4276                           	callstack 18
  4277                           
  4278                           ;mcc_generated_files/mcc.c: 53:     INTERRUPT_Initialize();
  4279                           
  4280                           ; BSR set to: 6
  4281                           ;incstack = 0
  4282  00347A  EC5E  F01B         	call	_INTERRUPT_Initialize	;wreg free
  4283                           
  4284                           ;mcc_generated_files/mcc.c: 54:     PIN_MANAGER_Initialize();
  4285  00347E  EC81  F01A         	call	_PIN_MANAGER_Initialize	;wreg free
  4286                           
  4287                           ; BSR set to: 15
  4288                           ;mcc_generated_files/mcc.c: 55:     OSCILLATOR_Initialize();
  4289  003482  EC30  F01B         	call	_OSCILLATOR_Initialize	;wreg free
  4290                           
  4291                           ; BSR set to: 15
  4292                           ;mcc_generated_files/mcc.c: 56:     CCP2_Initialize();
  4293  003486  EC39  F01B         	call	_CCP2_Initialize	;wreg free
  4294                           
  4295                           ; BSR set to: 15
  4296                           ;mcc_generated_files/mcc.c: 57:     USBDeviceInit();
  4297  00348A  EC5F  F00D         	call	_USBDeviceInit	;wreg free
  4298                           
  4299                           ; BSR set to: 0
  4300                           ;mcc_generated_files/mcc.c: 58:     ADC_Initialize();
  4301  00348E  EC25  F01B         	call	_ADC_Initialize	;wreg free
  4302                           
  4303                           ; BSR set to: 0
  4304                           ;mcc_generated_files/mcc.c: 59:     TMR3_Initialize();
  4305  003492  ECC2  F01A         	call	_TMR3_Initialize	;wreg free
  4306                           
  4307                           ; BSR set to: 0
  4308                           ;mcc_generated_files/mcc.c: 60:     TMR2_Initialize();
  4309  003496  ECFA  F01A         	call	_TMR2_Initialize	;wreg free
  4310                           
  4311                           ; BSR set to: 0
  4312                           ;mcc_generated_files/mcc.c: 61:     TMR1_Initialize();
  4313  00349A  EC09  F01B         	call	_TMR1_Initialize	;wreg free
  4314                           
  4315                           ; BSR set to: 0
  4316                           ;mcc_generated_files/mcc.c: 62:     TMR0_Initialize();
  4317  00349E  ECD8  F019         	call	_TMR0_Initialize	;wreg free
  4318                           
  4319                           ; BSR set to: 0
  4320                           ;mcc_generated_files/mcc.c: 63:     USBDeviceAttach();
  4321  0034A2  EC6B  F01A         	call	_USBDeviceAttach	;wreg free
  4322                           
  4323                           ; BSR set to: 0
  4324  0034A6  0012               	return		;funcret
  4325  0034A8                     __end_of_SYSTEM_Initialize:
  4326                           	callstack 0
  4327                           
  4328 ;; *************** function _USBDeviceInit *****************
  4329 ;; Defined at:
  4330 ;;		line 281 in file "mcc_generated_files/usb/usb_device.c"
  4331 ;; Parameters:    Size  Location     Type
  4332 ;;		None
  4333 ;; Auto vars:     Size  Location     Type
  4334 ;;  i               1   12[BANK0 ] unsigned char 
  4335 ;; Return value:  Size  Location     Type
  4336 ;;                  1    wreg      void 
  4337 ;; Registers used:
  4338 ;;		wreg, fsr2l, fsr2h, status,2, status,0, prodl, prodh, cstack
  4339 ;; Tracked objects:
  4340 ;;		On entry : 3F/F
  4341 ;;		On exit  : 3F/0
  4342 ;;		Unchanged: 0/0
  4343 ;; Data sizes:     COMRAM   BANK0   BANK1   BANK2   BANK3   BANK4   BANK5   BANK6   BANK7
  4344 ;;      Params:         0       0       0       0       0       0       0       0       0
  4345 ;;      Locals:         0       1       0       0       0       0       0       0       0
  4346 ;;      Temps:          0       0       0       0       0       0       0       0       0
  4347 ;;      Totals:         0       1       0       0       0       0       0       0       0
  4348 ;;Total ram usage:        1 bytes
  4349 ;; Hardware stack levels used: 1
  4350 ;; Hardware stack levels required when called: 11
  4351 ;; This function calls:
  4352 ;;		_memset
  4353 ;; This function is called by:
  4354 ;;		_SYSTEM_Initialize
  4355 ;; This function uses a non-reentrant model
  4356 ;;
  4357                           
  4358                           	psect	text18
  4359  001ABE                     __ptext18:
  4360                           	callstack 0
  4361  001ABE                     _USBDeviceInit:
  4362                           	callstack 18
  4363                           
  4364                           ; BSR set to: 15
  4365                           ;mcc_generated_files/usb/usb_device.c: 283:     uint8_t i;;mcc_generated_files/usb/usb_d
      +                          evice.c: 285:     {PIE3bits.USBIE = 0;};
  4366                           
  4367                           ; BSR set to: 0
  4368                           ;incstack = 0
  4369  001ABE  94A3               	bcf	163,2,c	;volatile
  4370                           
  4371                           ; BSR set to: 15
  4372                           ;mcc_generated_files/usb/usb_device.c: 292:     {UEIR = 0;};
  4373  001AC0  0E00               	movlw	0
  4374  001AC2  6E67               	movwf	103,c	;volatile
  4375                           
  4376                           ;mcc_generated_files/usb/usb_device.c: 295:     {UIR = 0;};
  4377  001AC4  0E00               	movlw	0
  4378  001AC6  6E65               	movwf	101,c	;volatile
  4379                           
  4380                           ;mcc_generated_files/usb/usb_device.c: 298:     UEP0 = 0;
  4381  001AC8  0E00               	movlw	0
  4382  001ACA  6E6A               	movwf	106,c	;volatile
  4383                           
  4384                           ; BSR set to: 15
  4385                           ;mcc_generated_files/usb/usb_device.c: 300:     memset((void*)&UEP1,0x00,(2));;
  4386  001ACC  0E6B               	movlw	107
  4387  001ACE  0100               	movlb	0	; () banked
  4388  001AD0  6F60               	movwf	memset@dest& (0+255),b
  4389  001AD2  0E0F               	movlw	15
  4390  001AD4  6F61               	movwf	(memset@dest+1)& (0+255),b
  4391  001AD6  0E00               	movlw	0
  4392  001AD8  6F63               	movwf	(memset@c+1)& (0+255),b
  4393  001ADA  0E00               	movlw	0
  4394  001ADC  6F62               	movwf	memset@c& (0+255),b
  4395  001ADE  0E00               	movlw	0
  4396  001AE0  6F65               	movwf	(memset@n+1)& (0+255),b
  4397  001AE2  0E02               	movlw	2
  4398  001AE4  6F64               	movwf	memset@n& (0+255),b
  4399  001AE6  EC73  F00A         	call	_memset	;wreg free
  4400                           
  4401                           ; BSR set to: 0
  4402                           ;mcc_generated_files/usb/usb_device.c: 302:     { UCFG = 0x10 | 0x00 | 0x04 | 0x02; UEIE
      +                           = 0x9F; UIE = 0x39 | 0x40 | 0x02; };
  4403  001AEA  0E16               	movlw	22
  4404  001AEC  6E62               	movwf	98,c	;volatile
  4405                           
  4406                           ; BSR set to: 0
  4407  001AEE  0E9F               	movlw	159
  4408  001AF0  6E66               	movwf	102,c	;volatile
  4409                           
  4410                           ; BSR set to: 0
  4411  001AF2  0E7B               	movlw	123
  4412  001AF4  6E64               	movwf	100,c	;volatile
  4413                           
  4414                           ; BSR set to: 0
  4415                           ;mcc_generated_files/usb/usb_device.c: 311:     for(i = 0; i < (sizeof(BDT)/sizeof(BDT_E
      +                          NTRY)); i++)
  4416  001AF6  0E00               	movlw	0
  4417  001AF8  6F6C               	movwf	USBDeviceInit@i& (0+255),b
  4418  001AFA                     l7584:
  4419                           
  4420                           ; BSR set to: 0
  4421                           ;mcc_generated_files/usb/usb_device.c: 312:     {;mcc_generated_files/usb/usb_device.c: 
      +                          313:         BDT[i].Val = 0x00;
  4422  001AFA  516C               	movf	USBDeviceInit@i& (0+255),w,b
  4423  001AFC  0D04               	mullw	4
  4424  001AFE  0E00               	movlw	0
  4425  001B00  24F3               	addwf	243,w,c
  4426  001B02  6ED9               	movwf	fsr2l,c
  4427  001B04  0E04               	movlw	4
  4428  001B06  20F4               	addwfc	prodh,w,c
  4429  001B08  6EDA               	movwf	fsr2h,c
  4430  001B0A  6ADE               	clrf	postinc2,c
  4431  001B0C  6ADE               	clrf	postinc2,c
  4432  001B0E  6ADE               	clrf	postinc2,c
  4433  001B10  6ADD               	clrf	postdec2,c
  4434                           
  4435                           ; BSR set to: 0
  4436                           ;mcc_generated_files/usb/usb_device.c: 314:     }
  4437  001B12  2B6C               	incf	USBDeviceInit@i& (0+255),f,b
  4438                           
  4439                           ; BSR set to: 0
  4440  001B14  0E0B               	movlw	11
  4441  001B16  656C               	cpfsgt	USBDeviceInit@i& (0+255),b
  4442  001B18  D7F0               	goto	l7584
  4443                           
  4444                           ; BSR set to: 0
  4445                           ;mcc_generated_files/usb/usb_device.c: 317:     UCONbits.PPBRST = 1;
  4446  001B1A  8C60               	bsf	96,6,c	;volatile
  4447                           
  4448                           ; BSR set to: 0
  4449                           ;mcc_generated_files/usb/usb_device.c: 320:     UADDR = 0x00;
  4450  001B1C  0E00               	movlw	0
  4451  001B1E  6E63               	movwf	99,c	;volatile
  4452                           
  4453                           ; BSR set to: 0
  4454                           ;mcc_generated_files/usb/usb_device.c: 323:     UCONbits.PKTDIS = 0;
  4455  001B20  9860               	bcf	96,4,c	;volatile
  4456                           
  4457                           ; BSR set to: 0
  4458                           ;mcc_generated_files/usb/usb_device.c: 326:     UCONbits.PPBRST = 0;
  4459  001B22  9C60               	bcf	96,6,c	;volatile
  4460  001B24                     l7596:
  4461                           
  4462                           ; BSR set to: 0
  4463                           ;mcc_generated_files/usb/usb_device.c: 330:     {;mcc_generated_files/usb/usb_device.c: 
      +                          331:         (UIR &= 0xF7);
  4464  001B24  9665               	bcf	101,3,c	;volatile
  4465                           
  4466                           ; BSR set to: 0
  4467                           ;mcc_generated_files/usb/usb_device.c: 333:         inPipes[0].info.Val = 0;
  4468  001B26  0E00               	movlw	0
  4469  001B28  6FCC               	movwf	(_inPipes+3)& (0+255),b	;volatile
  4470                           
  4471                           ; BSR set to: 0
  4472                           ;mcc_generated_files/usb/usb_device.c: 334:         outPipes[0].info.Val = 0;
  4473  001B2A  0E00               	movlw	0
  4474  001B2C  6FC4               	movwf	(_outPipes+3)& (0+255),b	;volatile
  4475                           
  4476                           ; BSR set to: 0
  4477                           ;mcc_generated_files/usb/usb_device.c: 335:         outPipes[0].wCount.Val = 0;
  4478  001B2E  0E00               	movlw	0
  4479  001B30  6FC6               	movwf	(_outPipes+5)& (0+255),b	;volatile
  4480  001B32  0E00               	movlw	0
  4481  001B34  6FC5               	movwf	(_outPipes+4)& (0+255),b	;volatile
  4482                           
  4483                           ; BSR set to: 0
  4484                           ;mcc_generated_files/usb/usb_device.c: 336:     }while(UIRbits.TRNIF == 1);
  4485  001B36  B665               	btfsc	101,3,c	;volatile
  4486  001B38  D7F5               	goto	l7596
  4487                           
  4488                           ; BSR set to: 0
  4489                           ;mcc_generated_files/usb/usb_device.c: 340:     USBStatusStageEnabledFlag1 = 1;
  4490  001B3A  0E01               	movlw	1
  4491  001B3C  6E49               	movwf	_USBStatusStageEnabledFlag1^0,c	;volatile
  4492                           
  4493                           ;mcc_generated_files/usb/usb_device.c: 341:     USBStatusStageEnabledFlag2 = 1;
  4494  001B3E  0E01               	movlw	1
  4495  001B40  6E48               	movwf	_USBStatusStageEnabledFlag2^0,c	;volatile
  4496                           
  4497                           ;mcc_generated_files/usb/usb_device.c: 343:     USBDeferINDataStagePackets = 0;
  4498  001B42  0E00               	movlw	0
  4499  001B44  6E47               	movwf	_USBDeferINDataStagePackets^0,c	;volatile
  4500                           
  4501                           ;mcc_generated_files/usb/usb_device.c: 344:     USBDeferOUTDataStagePackets = 0;
  4502  001B46  0E00               	movlw	0
  4503  001B48  6E46               	movwf	_USBDeferOUTDataStagePackets^0,c	;volatile
  4504                           
  4505                           ;mcc_generated_files/usb/usb_device.c: 345:     USBBusIsSuspended = 0;
  4506  001B4A  0E00               	movlw	0
  4507  001B4C  6FE5               	movwf	_USBBusIsSuspended& (0+255),b	;volatile
  4508                           
  4509                           ;mcc_generated_files/usb/usb_device.c: 349:     for(i = 0; i < (uint8_t)(2 +1u); i++)
  4510  001B4E  0E00               	movlw	0
  4511  001B50  6F6C               	movwf	USBDeviceInit@i& (0+255),b
  4512  001B52                     l7612:
  4513                           
  4514                           ; BSR set to: 0
  4515                           ;mcc_generated_files/usb/usb_device.c: 350:     {;mcc_generated_files/usb/usb_device.c: 
      +                          351:         pBDTEntryIn[i] = 0u;
  4516  001B52  516C               	movf	USBDeviceInit@i& (0+255),w,b
  4517  001B54  0D02               	mullw	2
  4518  001B56  50F3               	movf	243,w,c
  4519  001B58  0FCF               	addlw	low _pBDTEntryIn
  4520  001B5A  6ED9               	movwf	fsr2l,c
  4521  001B5C  6ADA               	clrf	fsr2h,c
  4522  001B5E  0E00               	movlw	0
  4523  001B60  6EDE               	movwf	postinc2,c
  4524  001B62  0E00               	movlw	0
  4525  001B64  6EDD               	movwf	postdec2,c
  4526                           
  4527                           ;mcc_generated_files/usb/usb_device.c: 352:         pBDTEntryOut[i] = 0u;
  4528  001B66  516C               	movf	USBDeviceInit@i& (0+255),w,b
  4529  001B68  0D02               	mullw	2
  4530  001B6A  50F3               	movf	243,w,c
  4531  001B6C  0F2C               	addlw	low _pBDTEntryOut
  4532  001B6E  6ED9               	movwf	fsr2l,c
  4533  001B70  6ADA               	clrf	fsr2h,c
  4534  001B72  0E00               	movlw	0
  4535  001B74  6EDE               	movwf	postinc2,c
  4536  001B76  0E00               	movlw	0
  4537  001B78  6EDD               	movwf	postdec2,c
  4538                           
  4539                           ; BSR set to: 0
  4540                           ;mcc_generated_files/usb/usb_device.c: 353:         ep_data_in[i].Val = 0u;
  4541  001B7A  516C               	movf	USBDeviceInit@i& (0+255),w,b
  4542  001B7C  0FD8               	addlw	low _ep_data_in
  4543  001B7E  6ED9               	movwf	fsr2l,c
  4544  001B80  6ADA               	clrf	fsr2h,c
  4545  001B82  0E00               	movlw	0
  4546  001B84  6EDF               	movwf	indf2,c
  4547                           
  4548                           ; BSR set to: 0
  4549                           ;mcc_generated_files/usb/usb_device.c: 354:         ep_data_out[i].Val = 0u;
  4550  001B86  516C               	movf	USBDeviceInit@i& (0+255),w,b
  4551  001B88  0FD5               	addlw	low _ep_data_out
  4552  001B8A  6ED9               	movwf	fsr2l,c
  4553  001B8C  6ADA               	clrf	fsr2h,c
  4554  001B8E  0E00               	movlw	0
  4555  001B90  6EDF               	movwf	indf2,c
  4556                           
  4557                           ; BSR set to: 0
  4558                           ;mcc_generated_files/usb/usb_device.c: 355:     }
  4559  001B92  2B6C               	incf	USBDeviceInit@i& (0+255),f,b
  4560                           
  4561                           ; BSR set to: 0
  4562  001B94  0E02               	movlw	2
  4563  001B96  656C               	cpfsgt	USBDeviceInit@i& (0+255),b
  4564  001B98  D7DC               	goto	l7612
  4565                           
  4566                           ; BSR set to: 0
  4567                           ;mcc_generated_files/usb/usb_device.c: 358:     pBDTEntryIn[0] = (volatile BDT_ENTRY*)&B
      +                          DT[2];
  4568  001B9A  0E08               	movlw	8
  4569  001B9C  6FCF               	movwf	_pBDTEntryIn& (0+255),b
  4570  001B9E  0E04               	movlw	4
  4571  001BA0  6FD0               	movwf	(_pBDTEntryIn+1)& (0+255),b
  4572                           
  4573                           ; BSR set to: 0
  4574                           ;mcc_generated_files/usb/usb_device.c: 360:     UEP0 = 0x06|0x10;
  4575  001BA2  0E16               	movlw	22
  4576  001BA4  6E6A               	movwf	106,c	;volatile
  4577                           
  4578                           ; BSR set to: 0
  4579                           ;mcc_generated_files/usb/usb_device.c: 362:     BDT[0].ADR = ((uint16_t)(&SetupPkt));
  4580  001BA6  0E04               	movlw	4
  4581  001BA8  0104               	movlb	4	; () banked
  4582  001BAA  6F03               	movwf	3,b	;volatile
  4583  001BAC  0E30               	movlw	48
  4584  001BAE  6F02               	movwf	2,b	;volatile
  4585                           
  4586                           ; BSR set to: 4
  4587                           ;mcc_generated_files/usb/usb_device.c: 363:     BDT[0].CNT = 8;
  4588  001BB0  0E08               	movlw	8
  4589  001BB2  6F01               	movwf	1,b	;volatile
  4590                           
  4591                           ; BSR set to: 4
  4592                           ;mcc_generated_files/usb/usb_device.c: 364:     BDT[0].STAT.Val = 0x00|0x04;
  4593  001BB4  0E04               	movlw	4
  4594  001BB6  6F00               	movwf	0,b	;volatile
  4595                           
  4596                           ; BSR set to: 4
  4597                           ;mcc_generated_files/usb/usb_device.c: 365:     BDT[0].STAT.Val |= 0x80;
  4598  001BB8  8F00               	bsf	0,7,b	;volatile
  4599                           
  4600                           ; BSR set to: 4
  4601                           ;mcc_generated_files/usb/usb_device.c: 368:     USBActiveConfiguration = 0;
  4602  001BBA  0E00               	movlw	0
  4603  001BBC  6E55               	movwf	_USBActiveConfiguration^0,c	;volatile
  4604                           
  4605                           ; BSR set to: 4
  4606                           ;mcc_generated_files/usb/usb_device.c: 370:     USB1msTickCount = 0;
  4607  001BBE  0E00               	movlw	0
  4608  001BC0  0101               	movlb	1	; () banked
  4609  001BC2  6F1A               	movwf	_USB1msTickCount& (0+255),b	;volatile
  4610  001BC4  0E00               	movlw	0
  4611  001BC6  6F1B               	movwf	(_USB1msTickCount+1)& (0+255),b	;volatile
  4612  001BC8  0E00               	movlw	0
  4613  001BCA  6F1C               	movwf	(_USB1msTickCount+2)& (0+255),b	;volatile
  4614  001BCC  0E00               	movlw	0
  4615  001BCE  6F1D               	movwf	(_USB1msTickCount+3)& (0+255),b	;volatile
  4616                           
  4617                           ; BSR set to: 1
  4618                           ;mcc_generated_files/usb/usb_device.c: 371:     USBTicksSinceSuspendEnd = 0;
  4619  001BD0  0E00               	movlw	0
  4620  001BD2  0100               	movlb	0	; () banked
  4621  001BD4  6FE4               	movwf	_USBTicksSinceSuspendEnd& (0+255),b	;volatile
  4622                           
  4623                           ; BSR set to: 0
  4624                           ;mcc_generated_files/usb/usb_device.c: 374:     USBDeviceState = DETACHED_STATE;
  4625  001BD6  0E00               	movlw	0
  4626  001BD8  6E51               	movwf	_USBDeviceState^0,c	;volatile
  4627                           
  4628                           ; BSR set to: 0
  4629  001BDA  0012               	return		;funcret
  4630  001BDC                     __end_of_USBDeviceInit:
  4631                           	callstack 0
  4632                           
  4633 ;; *************** function _memset *****************
  4634 ;; Defined at:
  4635 ;;		line 4 in file "/Applications/microchip/xc8/v2.36/pic/sources/c99/common/memset.c"
  4636 ;; Parameters:    Size  Location     Type
  4637 ;;  dest            2    0[BANK0 ] PTR void 
  4638 ;;		 -> USBAlternateInterface(2), BDT(48), UEP1(1), 
  4639 ;;  c               2    2[BANK0 ] int 
  4640 ;;  n               2    4[BANK0 ] unsigned int 
  4641 ;; Auto vars:     Size  Location     Type
  4642 ;;  s               2   10[BANK0 ] PTR unsigned char 
  4643 ;;		 -> USBAlternateInterface(2), BDT(48), UEP1(1), 
  4644 ;;  k               2    8[BANK0 ] unsigned int 
  4645 ;; Return value:  Size  Location     Type
  4646 ;;                  2    0[BANK0 ] PTR void 
  4647 ;; Registers used:
  4648 ;;		wreg, fsr2l, fsr2h, status,2, status,0
  4649 ;; Tracked objects:
  4650 ;;		On entry : 3F/0
  4651 ;;		On exit  : 3F/0
  4652 ;;		Unchanged: 0/0
  4653 ;; Data sizes:     COMRAM   BANK0   BANK1   BANK2   BANK3   BANK4   BANK5   BANK6   BANK7
  4654 ;;      Params:         0       6       0       0       0       0       0       0       0
  4655 ;;      Locals:         0       4       0       0       0       0       0       0       0
  4656 ;;      Temps:          0       2       0       0       0       0       0       0       0
  4657 ;;      Totals:         0      12       0       0       0       0       0       0       0
  4658 ;;Total ram usage:       12 bytes
  4659 ;; Hardware stack levels used: 1
  4660 ;; Hardware stack levels required when called: 10
  4661 ;; This function calls:
  4662 ;;		Nothing
  4663 ;; This function is called by:
  4664 ;;		_USBDeviceInit
  4665 ;; This function uses a non-reentrant model
  4666 ;;
  4667                           
  4668                           	psect	text19
  4669  0014E6                     __ptext19:
  4670                           	callstack 0
  4671  0014E6                     _memset:
  4672                           	callstack 18
  4673                           
  4674                           ; BSR set to: 0
  4675                           
  4676                           ; BSR set to: 0
  4677                           ;incstack = 0
  4678  0014E6  C060  F06A         	movff	memset@dest,memset@s
  4679  0014EA  C061  F06B         	movff	memset@dest+1,memset@s+1
  4680  0014EE  5164               	movf	memset@n& (0+255),w,b
  4681  0014F0  1165               	iorwf	(memset@n+1)& (0+255),w,b
  4682  0014F2  B4D8               	btfsc	status,2,c
  4683  0014F4  0012               	return	
  4684                           
  4685                           ; BSR set to: 0
  4686  0014F6  C06A  FFD9         	movff	memset@s,fsr2l
  4687  0014FA  C06B  FFDA         	movff	memset@s+1,fsr2h
  4688  0014FE  C062  FFDF         	movff	memset@c,indf2
  4689                           
  4690                           ; BSR set to: 0
  4691  001502  5164               	movf	memset@n& (0+255),w,b
  4692  001504  256A               	addwf	memset@s& (0+255),w,b
  4693  001506  6F66               	movwf	??_memset& (0+255),b
  4694  001508  5165               	movf	(memset@n+1)& (0+255),w,b
  4695  00150A  216B               	addwfc	(memset@s+1)& (0+255),w,b
  4696  00150C  6F67               	movwf	(??_memset+1)& (0+255),b
  4697  00150E  0EFF               	movlw	255
  4698  001510  2566               	addwf	??_memset& (0+255),w,b
  4699  001512  6ED9               	movwf	fsr2l,c
  4700  001514  0EFF               	movlw	255
  4701  001516  2167               	addwfc	(??_memset+1)& (0+255),w,b
  4702  001518  6EDA               	movwf	fsr2h,c
  4703  00151A  C062  FFDF         	movff	memset@c,indf2
  4704  00151E  5165               	movf	(memset@n+1)& (0+255),w,b
  4705  001520  E104               	bnz	l7394
  4706  001522  0E03               	movlw	3
  4707  001524  5D64               	subwf	memset@n& (0+255),w,b
  4708  001526  A0D8               	btfss	status,0,c
  4709  001528  0012               	return	
  4710  00152A                     l7394:
  4711                           
  4712                           ; BSR set to: 0
  4713  00152A  EE20 F001          	lfsr	2,1
  4714  00152E  516A               	movf	memset@s& (0+255),w,b
  4715  001530  26D9               	addwf	fsr2l,f,c
  4716  001532  516B               	movf	(memset@s+1)& (0+255),w,b
  4717  001534  22DA               	addwfc	fsr2h,f,c
  4718  001536  C062  FFDF         	movff	memset@c,indf2
  4719  00153A  EE20 F002          	lfsr	2,2
  4720  00153E  516A               	movf	memset@s& (0+255),w,b
  4721  001540  26D9               	addwf	fsr2l,f,c
  4722  001542  516B               	movf	(memset@s+1)& (0+255),w,b
  4723  001544  22DA               	addwfc	fsr2h,f,c
  4724  001546  C062  FFDF         	movff	memset@c,indf2
  4725  00154A  5164               	movf	memset@n& (0+255),w,b
  4726  00154C  256A               	addwf	memset@s& (0+255),w,b
  4727  00154E  6F66               	movwf	??_memset& (0+255),b
  4728  001550  5165               	movf	(memset@n+1)& (0+255),w,b
  4729  001552  216B               	addwfc	(memset@s+1)& (0+255),w,b
  4730  001554  6F67               	movwf	(??_memset+1)& (0+255),b
  4731  001556  0EFE               	movlw	254
  4732  001558  2566               	addwf	??_memset& (0+255),w,b
  4733  00155A  6ED9               	movwf	fsr2l,c
  4734  00155C  0EFF               	movlw	255
  4735  00155E  2167               	addwfc	(??_memset+1)& (0+255),w,b
  4736  001560  6EDA               	movwf	fsr2h,c
  4737  001562  C062  FFDF         	movff	memset@c,indf2
  4738  001566  5164               	movf	memset@n& (0+255),w,b
  4739  001568  256A               	addwf	memset@s& (0+255),w,b
  4740  00156A  6F66               	movwf	??_memset& (0+255),b
  4741  00156C  5165               	movf	(memset@n+1)& (0+255),w,b
  4742  00156E  216B               	addwfc	(memset@s+1)& (0+255),w,b
  4743  001570  6F67               	movwf	(??_memset+1)& (0+255),b
  4744  001572  0EFD               	movlw	253
  4745  001574  2566               	addwf	??_memset& (0+255),w,b
  4746  001576  6ED9               	movwf	fsr2l,c
  4747  001578  0EFF               	movlw	255
  4748  00157A  2167               	addwfc	(??_memset+1)& (0+255),w,b
  4749  00157C  6EDA               	movwf	fsr2h,c
  4750  00157E  C062  FFDF         	movff	memset@c,indf2
  4751                           
  4752                           ; BSR set to: 0
  4753  001582  5165               	movf	(memset@n+1)& (0+255),w,b
  4754  001584  E104               	bnz	l7400
  4755  001586  0E07               	movlw	7
  4756  001588  5D64               	subwf	memset@n& (0+255),w,b
  4757  00158A  A0D8               	btfss	status,0,c
  4758  00158C  0012               	return	
  4759  00158E                     l7400:
  4760                           
  4761                           ; BSR set to: 0
  4762  00158E  EE20 F003          	lfsr	2,3
  4763  001592  516A               	movf	memset@s& (0+255),w,b
  4764  001594  26D9               	addwf	fsr2l,f,c
  4765  001596  516B               	movf	(memset@s+1)& (0+255),w,b
  4766  001598  22DA               	addwfc	fsr2h,f,c
  4767  00159A  C062  FFDF         	movff	memset@c,indf2
  4768  00159E  5164               	movf	memset@n& (0+255),w,b
  4769  0015A0  256A               	addwf	memset@s& (0+255),w,b
  4770  0015A2  6F66               	movwf	??_memset& (0+255),b
  4771  0015A4  5165               	movf	(memset@n+1)& (0+255),w,b
  4772  0015A6  216B               	addwfc	(memset@s+1)& (0+255),w,b
  4773  0015A8  6F67               	movwf	(??_memset+1)& (0+255),b
  4774  0015AA  0EFC               	movlw	252
  4775  0015AC  2566               	addwf	??_memset& (0+255),w,b
  4776  0015AE  6ED9               	movwf	fsr2l,c
  4777  0015B0  0EFF               	movlw	255
  4778  0015B2  2167               	addwfc	(??_memset+1)& (0+255),w,b
  4779  0015B4  6EDA               	movwf	fsr2h,c
  4780  0015B6  C062  FFDF         	movff	memset@c,indf2
  4781                           
  4782                           ; BSR set to: 0
  4783  0015BA  5165               	movf	(memset@n+1)& (0+255),w,b
  4784  0015BC  E104               	bnz	l7406
  4785  0015BE  0E09               	movlw	9
  4786  0015C0  5D64               	subwf	memset@n& (0+255),w,b
  4787  0015C2  A0D8               	btfss	status,0,c
  4788  0015C4  0012               	return	
  4789  0015C6                     l7406:
  4790                           
  4791                           ; BSR set to: 0
  4792  0015C6  C06A  F066         	movff	memset@s,??_memset
  4793  0015CA  C06B  F067         	movff	memset@s+1,??_memset+1
  4794  0015CE  1F66               	comf	??_memset& (0+255),f,b
  4795  0015D0  1F67               	comf	(??_memset+1)& (0+255),f,b
  4796  0015D2  4B66               	infsnz	??_memset& (0+255),f,b
  4797  0015D4  2B67               	incf	(??_memset+1)& (0+255),f,b
  4798  0015D6  0E03               	movlw	3
  4799  0015D8  1566               	andwf	??_memset& (0+255),w,b
  4800  0015DA  6F68               	movwf	memset@k& (0+255),b
  4801  0015DC  6B69               	clrf	(memset@k+1)& (0+255),b
  4802  0015DE  5168               	movf	memset@k& (0+255),w,b
  4803  0015E0  276A               	addwf	memset@s& (0+255),f,b
  4804  0015E2  5169               	movf	(memset@k+1)& (0+255),w,b
  4805  0015E4  236B               	addwfc	(memset@s+1)& (0+255),f,b
  4806  0015E6  5168               	movf	memset@k& (0+255),w,b
  4807  0015E8  5F64               	subwf	memset@n& (0+255),f,b
  4808  0015EA  5169               	movf	(memset@k+1)& (0+255),w,b
  4809  0015EC  5B65               	subwfb	(memset@n+1)& (0+255),f,b
  4810  0015EE  0EFC               	movlw	252
  4811  0015F0  1764               	andwf	memset@n& (0+255),f,b
  4812  0015F2  0EFF               	movlw	255
  4813  0015F4  1765               	andwf	(memset@n+1)& (0+255),f,b
  4814  0015F6  D00B               	goto	l7414
  4815  0015F8                     l7408:
  4816                           
  4817                           ; BSR set to: 0
  4818  0015F8  C06A  FFD9         	movff	memset@s,fsr2l
  4819  0015FC  C06B  FFDA         	movff	memset@s+1,fsr2h
  4820  001600  C062  FFDF         	movff	memset@c,indf2
  4821                           
  4822                           ; BSR set to: 0
  4823  001604  0764               	decf	memset@n& (0+255),f,b
  4824  001606  A0D8               	btfss	status,0,c
  4825  001608  0765               	decf	(memset@n+1)& (0+255),f,b
  4826                           
  4827                           ; BSR set to: 0
  4828  00160A  4B6A               	infsnz	memset@s& (0+255),f,b
  4829  00160C  2B6B               	incf	(memset@s+1)& (0+255),f,b
  4830  00160E                     l7414:
  4831                           
  4832                           ; BSR set to: 0
  4833  00160E  5164               	movf	memset@n& (0+255),w,b
  4834  001610  1165               	iorwf	(memset@n+1)& (0+255),w,b
  4835  001612  B4D8               	btfsc	status,2,c
  4836  001614  0012               	return	
  4837  001616  D7F0               	goto	l7408
  4838  001618                     __end_of_memset:
  4839                           	callstack 0
  4840                           
  4841 ;; *************** function _USBDeviceAttach *****************
  4842 ;; Defined at:
  4843 ;;		line 1356 in file "mcc_generated_files/usb/usb_device.c"
  4844 ;; Parameters:    Size  Location     Type
  4845 ;;		None
  4846 ;; Auto vars:     Size  Location     Type
  4847 ;;		None
  4848 ;; Return value:  Size  Location     Type
  4849 ;;                  1    wreg      void 
  4850 ;; Registers used:
  4851 ;;		wreg, status,2
  4852 ;; Tracked objects:
  4853 ;;		On entry : 3F/0
  4854 ;;		On exit  : 3F/0
  4855 ;;		Unchanged: 3F/0
  4856 ;; Data sizes:     COMRAM   BANK0   BANK1   BANK2   BANK3   BANK4   BANK5   BANK6   BANK7
  4857 ;;      Params:         0       0       0       0       0       0       0       0       0
  4858 ;;      Locals:         0       0       0       0       0       0       0       0       0
  4859 ;;      Temps:          0       0       0       0       0       0       0       0       0
  4860 ;;      Totals:         0       0       0       0       0       0       0       0       0
  4861 ;;Total ram usage:        0 bytes
  4862 ;; Hardware stack levels used: 1
  4863 ;; Hardware stack levels required when called: 10
  4864 ;; This function calls:
  4865 ;;		Nothing
  4866 ;; This function is called by:
  4867 ;;		_SYSTEM_Initialize
  4868 ;; This function uses a non-reentrant model
  4869 ;;
  4870                           
  4871                           	psect	text20
  4872  0034D6                     __ptext20:
  4873                           	callstack 0
  4874  0034D6                     _USBDeviceAttach:
  4875                           	callstack 19
  4876                           
  4877                           ; BSR set to: 0
  4878                           ;mcc_generated_files/usb/usb_device.c: 1360:     {;mcc_generated_files/usb/usb_device.c:
      +                           1361:         if(1 == 1)
  4879                           
  4880                           ; BSR set to: 0
  4881                           ;incstack = 0
  4882  0034D6  5051               	movf	_USBDeviceState^0,w,c
  4883  0034D8  A4D8               	btfss	status,2,c
  4884  0034DA  0012               	return	
  4885                           
  4886                           ; BSR set to: 0
  4887                           ;mcc_generated_files/usb/usb_device.c: 1362:         {;mcc_generated_files/usb/usb_devic
      +                          e.c: 1364:             UCON = 0;
  4888  0034DC  0E00               	movlw	0
  4889  0034DE  6E60               	movwf	96,c	;volatile
  4890                           
  4891                           ;mcc_generated_files/usb/usb_device.c: 1367:             UIE = 0;
  4892  0034E0  0E00               	movlw	0
  4893  0034E2  6E64               	movwf	100,c	;volatile
  4894                           
  4895                           ;mcc_generated_files/usb/usb_device.c: 1371:             { UCFG = 0x10 | 0x00 | 0x04 | 0
      +                          x02; UEIE = 0x9F; UIE = 0x39 | 0x40 | 0x02; };
  4896  0034E4  0E16               	movlw	22
  4897  0034E6  6E62               	movwf	98,c	;volatile
  4898  0034E8  0E9F               	movlw	159
  4899  0034EA  6E66               	movwf	102,c	;volatile
  4900  0034EC  0E7B               	movlw	123
  4901  0034EE  6E64               	movwf	100,c	;volatile
  4902                           
  4903                           ; BSR set to: 0
  4904                           ;mcc_generated_files/usb/usb_device.c: 1373:             {IPR3bits.USBIP = 1;PIE3bits.US
      +                          BIE = 1;};
  4905  0034F0  84A5               	bsf	165,2,c	;volatile
  4906                           
  4907                           ; BSR set to: 0
  4908  0034F2  84A3               	bsf	163,2,c	;volatile
  4909                           
  4910                           ;mcc_generated_files/usb/usb_device.c: 1376:             while(!UCONbits.USBEN){UCONbits
      +                          .USBEN = 1;}
  4911  0034F4  D001               	goto	l196
  4912  0034F6                     l197:
  4913                           
  4914                           ; BSR set to: 0
  4915  0034F6  8660               	bsf	96,3,c	;volatile
  4916  0034F8                     l196:
  4917                           
  4918                           ; BSR set to: 0
  4919  0034F8  A660               	btfss	96,3,c	;volatile
  4920  0034FA  D7FD               	goto	l197
  4921                           
  4922                           ; BSR set to: 0
  4923                           ;mcc_generated_files/usb/usb_device.c: 1379:             USBDeviceState = ATTACHED_STATE
      +                          ;
  4924  0034FC  0E01               	movlw	1
  4925  0034FE  6E51               	movwf	_USBDeviceState^0,c	;volatile
  4926                           
  4927                           ; BSR set to: 0
  4928  003500  0012               	return		;funcret
  4929  003502                     __end_of_USBDeviceAttach:
  4930                           	callstack 0
  4931                           
  4932 ;; *************** function _TMR3_Initialize *****************
  4933 ;; Defined at:
  4934 ;;		line 64 in file "mcc_generated_files/tmr3.c"
  4935 ;; Parameters:    Size  Location     Type
  4936 ;;		None
  4937 ;; Auto vars:     Size  Location     Type
  4938 ;;		None
  4939 ;; Return value:  Size  Location     Type
  4940 ;;                  1    wreg      void 
  4941 ;; Registers used:
  4942 ;;		wreg, status,2, status,0, cstack
  4943 ;; Tracked objects:
  4944 ;;		On entry : 3F/0
  4945 ;;		On exit  : 3F/0
  4946 ;;		Unchanged: 0/0
  4947 ;; Data sizes:     COMRAM   BANK0   BANK1   BANK2   BANK3   BANK4   BANK5   BANK6   BANK7
  4948 ;;      Params:         0       0       0       0       0       0       0       0       0
  4949 ;;      Locals:         0       0       0       0       0       0       0       0       0
  4950 ;;      Temps:          0       0       0       0       0       0       0       0       0
  4951 ;;      Totals:         0       0       0       0       0       0       0       0       0
  4952 ;;Total ram usage:        0 bytes
  4953 ;; Hardware stack levels used: 1
  4954 ;; Hardware stack levels required when called: 11
  4955 ;; This function calls:
  4956 ;;		_TMR3_SetInterruptHandler
  4957 ;; This function is called by:
  4958 ;;		_SYSTEM_Initialize
  4959 ;; This function uses a non-reentrant model
  4960 ;;
  4961                           
  4962                           	psect	text21
  4963  003584                     __ptext21:
  4964                           	callstack 0
  4965  003584                     _TMR3_Initialize:
  4966                           	callstack 18
  4967                           
  4968                           ; BSR set to: 0
  4969                           ;mcc_generated_files/tmr3.c: 69:     T3GCON = 0x00;
  4970                           
  4971                           ; BSR set to: 0
  4972                           ;incstack = 0
  4973  003584  0E00               	movlw	0
  4974  003586  6EB4               	movwf	180,c	;volatile
  4975                           
  4976                           ;mcc_generated_files/tmr3.c: 72:     TMR3H = 0x44;
  4977  003588  0E44               	movlw	68
  4978  00358A  6EB3               	movwf	179,c	;volatile
  4979                           
  4980                           ;mcc_generated_files/tmr3.c: 75:     TMR3L = 0x80;
  4981  00358C  0E80               	movlw	128
  4982  00358E  6EB2               	movwf	178,c	;volatile
  4983                           
  4984                           ; BSR set to: 0
  4985                           ;mcc_generated_files/tmr3.c: 78:     timer3ReloadVal=TMR3;
  4986  003590  CFB2 F13A          	movff	4018,_timer3ReloadVal	;volatile
  4987  003594  CFB3 F13B          	movff	4019,_timer3ReloadVal+1	;volatile
  4988                           
  4989                           ; BSR set to: 0
  4990                           ;mcc_generated_files/tmr3.c: 81:     PIR2bits.TMR3IF = 0;
  4991  003598  92A1               	bcf	161,1,c	;volatile
  4992                           
  4993                           ; BSR set to: 0
  4994                           ;mcc_generated_files/tmr3.c: 84:     PIE2bits.TMR3IE = 1;
  4995  00359A  82A0               	bsf	160,1,c	;volatile
  4996                           
  4997                           ; BSR set to: 0
  4998                           ;mcc_generated_files/tmr3.c: 87:     TMR3_SetInterruptHandler(TMR3_DefaultInterruptHandl
      +                          er);
  4999  00359C  0EC6               	movlw	low _TMR3_DefaultInterruptHandler
  5000  00359E  6F60               	movwf	TMR3_SetInterruptHandler@InterruptHandler& (0+255),b
  5001  0035A0  0E36               	movlw	high _TMR3_DefaultInterruptHandler
  5002  0035A2  6F61               	movwf	(TMR3_SetInterruptHandler@InterruptHandler+1)& (0+255),b
  5003  0035A4  EC47  F01B         	call	_TMR3_SetInterruptHandler	;wreg free
  5004                           
  5005                           ; BSR set to: 0
  5006                           ;mcc_generated_files/tmr3.c: 90:     T3CON = 0x01;
  5007  0035A8  0E01               	movlw	1
  5008  0035AA  6EB1               	movwf	177,c	;volatile
  5009                           
  5010                           ; BSR set to: 0
  5011  0035AC  0012               	return		;funcret
  5012  0035AE                     __end_of_TMR3_Initialize:
  5013                           	callstack 0
  5014                           
  5015 ;; *************** function _TMR3_SetInterruptHandler *****************
  5016 ;; Defined at:
  5017 ;;		line 172 in file "mcc_generated_files/tmr3.c"
  5018 ;; Parameters:    Size  Location     Type
  5019 ;;  InterruptHan    2    0[BANK0 ] PTR FTN()void 
  5020 ;;		 -> TMR3_DefaultInterruptHandler(1), 
  5021 ;; Auto vars:     Size  Location     Type
  5022 ;;		None
  5023 ;; Return value:  Size  Location     Type
  5024 ;;                  1    wreg      void 
  5025 ;; Registers used:
  5026 ;;		wreg, status,2, status,0
  5027 ;; Tracked objects:
  5028 ;;		On entry : 3F/0
  5029 ;;		On exit  : 3F/0
  5030 ;;		Unchanged: 3F/0
  5031 ;; Data sizes:     COMRAM   BANK0   BANK1   BANK2   BANK3   BANK4   BANK5   BANK6   BANK7
  5032 ;;      Params:         0       2       0       0       0       0       0       0       0
  5033 ;;      Locals:         0       0       0       0       0       0       0       0       0
  5034 ;;      Temps:          0       0       0       0       0       0       0       0       0
  5035 ;;      Totals:         0       2       0       0       0       0       0       0       0
  5036 ;;Total ram usage:        2 bytes
  5037 ;; Hardware stack levels used: 1
  5038 ;; Hardware stack levels required when called: 10
  5039 ;; This function calls:
  5040 ;;		Nothing
  5041 ;; This function is called by:
  5042 ;;		_TMR3_Initialize
  5043 ;; This function uses a non-reentrant model
  5044 ;;
  5045                           
  5046                           	psect	text22
  5047  00368E                     __ptext22:
  5048                           	callstack 0
  5049  00368E                     _TMR3_SetInterruptHandler:
  5050                           	callstack 18
  5051                           
  5052                           ; BSR set to: 0
  5053                           ;mcc_generated_files/tmr3.c: 173:     TMR3_InterruptHandler = InterruptHandler;
  5054                           
  5055                           ; BSR set to: 0
  5056                           ;incstack = 0
  5057  00368E  C060  F138         	movff	TMR3_SetInterruptHandler@InterruptHandler,_TMR3_InterruptHandler
  5058  003692  C061  F139         	movff	TMR3_SetInterruptHandler@InterruptHandler+1,_TMR3_InterruptHandler+1
  5059                           
  5060                           ; BSR set to: 0
  5061  003696  0012               	return		;funcret
  5062  003698                     __end_of_TMR3_SetInterruptHandler:
  5063                           	callstack 0
  5064                           
  5065 ;; *************** function _TMR2_Initialize *****************
  5066 ;; Defined at:
  5067 ;;		line 64 in file "mcc_generated_files/tmr2.c"
  5068 ;; Parameters:    Size  Location     Type
  5069 ;;		None
  5070 ;; Auto vars:     Size  Location     Type
  5071 ;;		None
  5072 ;; Return value:  Size  Location     Type
  5073 ;;                  1    wreg      void 
  5074 ;; Registers used:
  5075 ;;		wreg, status,2, status,0, cstack
  5076 ;; Tracked objects:
  5077 ;;		On entry : 3F/0
  5078 ;;		On exit  : 3F/0
  5079 ;;		Unchanged: 0/0
  5080 ;; Data sizes:     COMRAM   BANK0   BANK1   BANK2   BANK3   BANK4   BANK5   BANK6   BANK7
  5081 ;;      Params:         0       0       0       0       0       0       0       0       0
  5082 ;;      Locals:         0       0       0       0       0       0       0       0       0
  5083 ;;      Temps:          0       0       0       0       0       0       0       0       0
  5084 ;;      Totals:         0       0       0       0       0       0       0       0       0
  5085 ;;Total ram usage:        0 bytes
  5086 ;; Hardware stack levels used: 1
  5087 ;; Hardware stack levels required when called: 11
  5088 ;; This function calls:
  5089 ;;		_TMR2_SetInterruptHandler
  5090 ;; This function is called by:
  5091 ;;		_SYSTEM_Initialize
  5092 ;; This function uses a non-reentrant model
  5093 ;;
  5094                           
  5095                           	psect	text23
  5096  0035F4                     __ptext23:
  5097                           	callstack 0
  5098  0035F4                     _TMR2_Initialize:
  5099                           	callstack 18
  5100                           
  5101                           ; BSR set to: 0
  5102                           ;mcc_generated_files/tmr2.c: 69:     PR2 = 0xBB;
  5103                           
  5104                           ; BSR set to: 0
  5105                           ;incstack = 0
  5106  0035F4  0EBB               	movlw	187
  5107  0035F6  6EBB               	movwf	187,c	;volatile
  5108                           
  5109                           ;mcc_generated_files/tmr2.c: 72:     TMR2 = 0x00;
  5110  0035F8  0E00               	movlw	0
  5111  0035FA  6EBC               	movwf	188,c	;volatile
  5112                           
  5113                           ; BSR set to: 0
  5114                           ;mcc_generated_files/tmr2.c: 75:     PIR1bits.TMR2IF = 0;
  5115  0035FC  929E               	bcf	158,1,c	;volatile
  5116                           
  5117                           ; BSR set to: 0
  5118                           ;mcc_generated_files/tmr2.c: 78:     PIE1bits.TMR2IE = 1;
  5119  0035FE  829D               	bsf	157,1,c	;volatile
  5120                           
  5121                           ; BSR set to: 0
  5122                           ;mcc_generated_files/tmr2.c: 81:     TMR2_SetInterruptHandler(TMR2_DefaultInterruptHandl
      +                          er);
  5123  003600  0EC8               	movlw	low _TMR2_DefaultInterruptHandler
  5124  003602  6F60               	movwf	TMR2_SetInterruptHandler@InterruptHandler& (0+255),b
  5125  003604  0E36               	movlw	high _TMR2_DefaultInterruptHandler
  5126  003606  6F61               	movwf	(TMR2_SetInterruptHandler@InterruptHandler+1)& (0+255),b
  5127  003608  EC4C  F01B         	call	_TMR2_SetInterruptHandler	;wreg free
  5128                           
  5129                           ; BSR set to: 0
  5130                           ;mcc_generated_files/tmr2.c: 84:     T2CON = 0x7E;
  5131  00360C  0E7E               	movlw	126
  5132  00360E  6EBA               	movwf	186,c	;volatile
  5133                           
  5134                           ; BSR set to: 0
  5135  003610  0012               	return		;funcret
  5136  003612                     __end_of_TMR2_Initialize:
  5137                           	callstack 0
  5138                           
  5139 ;; *************** function _TMR2_SetInterruptHandler *****************
  5140 ;; Defined at:
  5141 ;;		line 132 in file "mcc_generated_files/tmr2.c"
  5142 ;; Parameters:    Size  Location     Type
  5143 ;;  InterruptHan    2    0[BANK0 ] PTR FTN()void 
  5144 ;;		 -> MY_TMR2_ISR(1), TMR2_DefaultInterruptHandler(1), 
  5145 ;; Auto vars:     Size  Location     Type
  5146 ;;		None
  5147 ;; Return value:  Size  Location     Type
  5148 ;;                  1    wreg      void 
  5149 ;; Registers used:
  5150 ;;		wreg, status,2, status,0
  5151 ;; Tracked objects:
  5152 ;;		On entry : 3F/0
  5153 ;;		On exit  : 3F/0
  5154 ;;		Unchanged: 3F/0
  5155 ;; Data sizes:     COMRAM   BANK0   BANK1   BANK2   BANK3   BANK4   BANK5   BANK6   BANK7
  5156 ;;      Params:         0       2       0       0       0       0       0       0       0
  5157 ;;      Locals:         0       0       0       0       0       0       0       0       0
  5158 ;;      Temps:          0       0       0       0       0       0       0       0       0
  5159 ;;      Totals:         0       2       0       0       0       0       0       0       0
  5160 ;;Total ram usage:        2 bytes
  5161 ;; Hardware stack levels used: 1
  5162 ;; Hardware stack levels required when called: 10
  5163 ;; This function calls:
  5164 ;;		Nothing
  5165 ;; This function is called by:
  5166 ;;		_TMR2_Initialize
  5167 ;;		_main
  5168 ;; This function uses a non-reentrant model
  5169 ;;
  5170                           
  5171                           	psect	text24
  5172  003698                     __ptext24:
  5173                           	callstack 0
  5174  003698                     _TMR2_SetInterruptHandler:
  5175                           	callstack 20
  5176                           
  5177                           ; BSR set to: 0
  5178                           ;mcc_generated_files/tmr2.c: 133:     TMR2_InterruptHandler = InterruptHandler;
  5179                           
  5180                           ; BSR set to: 0
  5181                           ;incstack = 0
  5182  003698  C060  F136         	movff	TMR2_SetInterruptHandler@InterruptHandler,_TMR2_InterruptHandler
  5183  00369C  C061  F137         	movff	TMR2_SetInterruptHandler@InterruptHandler+1,_TMR2_InterruptHandler+1
  5184                           
  5185                           ; BSR set to: 0
  5186  0036A0  0012               	return		;funcret
  5187  0036A2                     __end_of_TMR2_SetInterruptHandler:
  5188                           	callstack 0
  5189                           
  5190 ;; *************** function _TMR1_Initialize *****************
  5191 ;; Defined at:
  5192 ;;		line 63 in file "mcc_generated_files/tmr1.c"
  5193 ;; Parameters:    Size  Location     Type
  5194 ;;		None
  5195 ;; Auto vars:     Size  Location     Type
  5196 ;;		None
  5197 ;; Return value:  Size  Location     Type
  5198 ;;                  1    wreg      void 
  5199 ;; Registers used:
  5200 ;;		wreg, status,2
  5201 ;; Tracked objects:
  5202 ;;		On entry : 3F/0
  5203 ;;		On exit  : 3F/0
  5204 ;;		Unchanged: 3F/0
  5205 ;; Data sizes:     COMRAM   BANK0   BANK1   BANK2   BANK3   BANK4   BANK5   BANK6   BANK7
  5206 ;;      Params:         0       0       0       0       0       0       0       0       0
  5207 ;;      Locals:         0       0       0       0       0       0       0       0       0
  5208 ;;      Temps:          0       0       0       0       0       0       0       0       0
  5209 ;;      Totals:         0       0       0       0       0       0       0       0       0
  5210 ;;Total ram usage:        0 bytes
  5211 ;; Hardware stack levels used: 1
  5212 ;; Hardware stack levels required when called: 10
  5213 ;; This function calls:
  5214 ;;		Nothing
  5215 ;; This function is called by:
  5216 ;;		_SYSTEM_Initialize
  5217 ;; This function uses a non-reentrant model
  5218 ;;
  5219                           
  5220                           	psect	text25
  5221  003612                     __ptext25:
  5222                           	callstack 0
  5223  003612                     _TMR1_Initialize:
  5224                           	callstack 19
  5225                           
  5226                           ; BSR set to: 0
  5227                           ;mcc_generated_files/tmr1.c: 68:     T1GCON = 0x00;
  5228                           
  5229                           ; BSR set to: 0
  5230                           ;incstack = 0
  5231  003612  0E00               	movlw	0
  5232  003614  6ECC               	movwf	204,c	;volatile
  5233                           
  5234                           ;mcc_generated_files/tmr1.c: 71:     TMR1H = 0x00;
  5235  003616  0E00               	movlw	0
  5236  003618  6ECF               	movwf	207,c	;volatile
  5237                           
  5238                           ;mcc_generated_files/tmr1.c: 74:     TMR1L = 0x00;
  5239  00361A  0E00               	movlw	0
  5240  00361C  6ECE               	movwf	206,c	;volatile
  5241                           
  5242                           ; BSR set to: 0
  5243                           ;mcc_generated_files/tmr1.c: 77:     timer1ReloadVal=TMR1;
  5244  00361E  CFCE F134          	movff	4046,_timer1ReloadVal	;volatile
  5245  003622  CFCF F135          	movff	4047,_timer1ReloadVal+1	;volatile
  5246                           
  5247                           ; BSR set to: 0
  5248                           ;mcc_generated_files/tmr1.c: 80:     PIR1bits.TMR1IF = 0;
  5249  003626  909E               	bcf	158,0,c	;volatile
  5250                           
  5251                           ;mcc_generated_files/tmr1.c: 83:     T1CON = 0x01;
  5252  003628  0E01               	movlw	1
  5253  00362A  6ECD               	movwf	205,c	;volatile
  5254                           
  5255                           ; BSR set to: 0
  5256  00362C  0012               	return		;funcret
  5257  00362E                     __end_of_TMR1_Initialize:
  5258                           	callstack 0
  5259                           
  5260 ;; *************** function _TMR0_Initialize *****************
  5261 ;; Defined at:
  5262 ;;		line 67 in file "mcc_generated_files/tmr0.c"
  5263 ;; Parameters:    Size  Location     Type
  5264 ;;		None
  5265 ;; Auto vars:     Size  Location     Type
  5266 ;;		None
  5267 ;; Return value:  Size  Location     Type
  5268 ;;                  1    wreg      void 
  5269 ;; Registers used:
  5270 ;;		wreg, status,2, status,0, cstack
  5271 ;; Tracked objects:
  5272 ;;		On entry : 3F/0
  5273 ;;		On exit  : 3F/0
  5274 ;;		Unchanged: 0/0
  5275 ;; Data sizes:     COMRAM   BANK0   BANK1   BANK2   BANK3   BANK4   BANK5   BANK6   BANK7
  5276 ;;      Params:         0       0       0       0       0       0       0       0       0
  5277 ;;      Locals:         0       0       0       0       0       0       0       0       0
  5278 ;;      Temps:          0       2       0       0       0       0       0       0       0
  5279 ;;      Totals:         0       2       0       0       0       0       0       0       0
  5280 ;;Total ram usage:        2 bytes
  5281 ;; Hardware stack levels used: 1
  5282 ;; Hardware stack levels required when called: 11
  5283 ;; This function calls:
  5284 ;;		_TMR0_SetInterruptHandler
  5285 ;; This function is called by:
  5286 ;;		_SYSTEM_Initialize
  5287 ;; This function uses a non-reentrant model
  5288 ;;
  5289                           
  5290                           	psect	text26
  5291  0033B0                     __ptext26:
  5292                           	callstack 0
  5293  0033B0                     _TMR0_Initialize:
  5294                           	callstack 18
  5295                           
  5296                           ; BSR set to: 0
  5297                           ;mcc_generated_files/tmr0.c: 72:     T0CONbits.T08BIT = 0;
  5298                           
  5299                           ; BSR set to: 0
  5300                           ;incstack = 0
  5301  0033B0  9CD5               	bcf	213,6,c	;volatile
  5302                           
  5303                           ; BSR set to: 0
  5304                           ;mcc_generated_files/tmr0.c: 75:     TMR0H = 0xFE;
  5305  0033B2  0EFE               	movlw	254
  5306  0033B4  6ED7               	movwf	215,c	;volatile
  5307                           
  5308                           ; BSR set to: 0
  5309                           ;mcc_generated_files/tmr0.c: 78:     TMR0L = 0xFF;
  5310  0033B6  68D6               	setf	214,c	;volatile
  5311                           
  5312                           ; BSR set to: 0
  5313                           ;mcc_generated_files/tmr0.c: 82:     timer0ReloadVal = (uint16_t)((TMR0H << 8) | TMR0L);
  5314  0033B8  50D6               	movf	214,w,c	;volatile
  5315  0033BA  CFD7 F062          	movff	4055,??_TMR0_Initialize	;volatile
  5316  0033BE  6B63               	clrf	(??_TMR0_Initialize+1)& (0+255),b
  5317  0033C0  C062  F063         	movff	??_TMR0_Initialize,??_TMR0_Initialize+1
  5318  0033C4  6B62               	clrf	??_TMR0_Initialize& (0+255),b
  5319  0033C6  1162               	iorwf	??_TMR0_Initialize& (0+255),w,b
  5320  0033C8  6E38               	movwf	_timer0ReloadVal^0,c	;volatile
  5321  0033CA  5163               	movf	(??_TMR0_Initialize+1)& (0+255),w,b
  5322  0033CC  6E39               	movwf	(_timer0ReloadVal+1)^0,c	;volatile
  5323                           
  5324                           ; BSR set to: 0
  5325                           ;mcc_generated_files/tmr0.c: 85:     INTCONbits.TMR0IF = 0;
  5326  0033CE  94F2               	bcf	242,2,c	;volatile
  5327                           
  5328                           ; BSR set to: 0
  5329                           ;mcc_generated_files/tmr0.c: 88:     INTCONbits.TMR0IE = 1;
  5330  0033D0  8AF2               	bsf	242,5,c	;volatile
  5331                           
  5332                           ; BSR set to: 0
  5333                           ;mcc_generated_files/tmr0.c: 91:     TMR0_SetInterruptHandler(TMR0_DefaultInterruptHandl
      +                          er);
  5334  0033D2  0ECA               	movlw	low _TMR0_DefaultInterruptHandler
  5335  0033D4  6F60               	movwf	TMR0_SetInterruptHandler@InterruptHandler& (0+255),b
  5336  0033D6  0E36               	movlw	high _TMR0_DefaultInterruptHandler
  5337  0033D8  6F61               	movwf	(TMR0_SetInterruptHandler@InterruptHandler+1)& (0+255),b
  5338  0033DA  EC51  F01B         	call	_TMR0_SetInterruptHandler	;wreg free
  5339                           
  5340                           ; BSR set to: 0
  5341                           ;mcc_generated_files/tmr0.c: 94:     T0CON = 0xBF;
  5342  0033DE  0EBF               	movlw	191
  5343  0033E0  6ED5               	movwf	213,c	;volatile
  5344                           
  5345                           ; BSR set to: 0
  5346  0033E2  0012               	return		;funcret
  5347  0033E4                     __end_of_TMR0_Initialize:
  5348                           	callstack 0
  5349                           
  5350 ;; *************** function _TMR0_SetInterruptHandler *****************
  5351 ;; Defined at:
  5352 ;;		line 156 in file "mcc_generated_files/tmr0.c"
  5353 ;; Parameters:    Size  Location     Type
  5354 ;;  InterruptHan    2    0[BANK0 ] PTR FTN()void 
  5355 ;;		 -> TMR0_DefaultInterruptHandler(1), 
  5356 ;; Auto vars:     Size  Location     Type
  5357 ;;		None
  5358 ;; Return value:  Size  Location     Type
  5359 ;;                  1    wreg      void 
  5360 ;; Registers used:
  5361 ;;		wreg, status,2, status,0
  5362 ;; Tracked objects:
  5363 ;;		On entry : 3F/0
  5364 ;;		On exit  : 3F/0
  5365 ;;		Unchanged: 3F/0
  5366 ;; Data sizes:     COMRAM   BANK0   BANK1   BANK2   BANK3   BANK4   BANK5   BANK6   BANK7
  5367 ;;      Params:         0       2       0       0       0       0       0       0       0
  5368 ;;      Locals:         0       0       0       0       0       0       0       0       0
  5369 ;;      Temps:          0       0       0       0       0       0       0       0       0
  5370 ;;      Totals:         0       2       0       0       0       0       0       0       0
  5371 ;;Total ram usage:        2 bytes
  5372 ;; Hardware stack levels used: 1
  5373 ;; Hardware stack levels required when called: 10
  5374 ;; This function calls:
  5375 ;;		Nothing
  5376 ;; This function is called by:
  5377 ;;		_TMR0_Initialize
  5378 ;; This function uses a non-reentrant model
  5379 ;;
  5380                           
  5381                           	psect	text27
  5382  0036A2                     __ptext27:
  5383                           	callstack 0
  5384  0036A2                     _TMR0_SetInterruptHandler:
  5385                           	callstack 18
  5386                           
  5387                           ; BSR set to: 0
  5388                           ;mcc_generated_files/tmr0.c: 157:     TMR0_InterruptHandler = InterruptHandler;
  5389                           
  5390                           ; BSR set to: 0
  5391                           ;incstack = 0
  5392  0036A2  C060  F132         	movff	TMR0_SetInterruptHandler@InterruptHandler,_TMR0_InterruptHandler
  5393  0036A6  C061  F133         	movff	TMR0_SetInterruptHandler@InterruptHandler+1,_TMR0_InterruptHandler+1
  5394                           
  5395                           ; BSR set to: 0
  5396  0036AA  0012               	return		;funcret
  5397  0036AC                     __end_of_TMR0_SetInterruptHandler:
  5398                           	callstack 0
  5399                           
  5400 ;; *************** function _PIN_MANAGER_Initialize *****************
  5401 ;; Defined at:
  5402 ;;		line 55 in file "mcc_generated_files/pin_manager.c"
  5403 ;; Parameters:    Size  Location     Type
  5404 ;;		None
  5405 ;; Auto vars:     Size  Location     Type
  5406 ;;		None
  5407 ;; Return value:  Size  Location     Type
  5408 ;;                  1    wreg      void 
  5409 ;; Registers used:
  5410 ;;		wreg, status,2
  5411 ;; Tracked objects:
  5412 ;;		On entry : 0/0
  5413 ;;		On exit  : 3F/F
  5414 ;;		Unchanged: 0/0
  5415 ;; Data sizes:     COMRAM   BANK0   BANK1   BANK2   BANK3   BANK4   BANK5   BANK6   BANK7
  5416 ;;      Params:         0       0       0       0       0       0       0       0       0
  5417 ;;      Locals:         0       0       0       0       0       0       0       0       0
  5418 ;;      Temps:          0       0       0       0       0       0       0       0       0
  5419 ;;      Totals:         0       0       0       0       0       0       0       0       0
  5420 ;;Total ram usage:        0 bytes
  5421 ;; Hardware stack levels used: 1
  5422 ;; Hardware stack levels required when called: 10
  5423 ;; This function calls:
  5424 ;;		Nothing
  5425 ;; This function is called by:
  5426 ;;		_SYSTEM_Initialize
  5427 ;; This function uses a non-reentrant model
  5428 ;;
  5429                           
  5430                           	psect	text28
  5431  003502                     __ptext28:
  5432                           	callstack 0
  5433  003502                     _PIN_MANAGER_Initialize:
  5434                           	callstack 19
  5435                           
  5436                           ;mcc_generated_files/pin_manager.c: 60:     LATA = 0x00;
  5437                           
  5438                           ; BSR set to: 0
  5439                           ;incstack = 0
  5440  003502  0E00               	movlw	0
  5441  003504  6E89               	movwf	137,c	;volatile
  5442                           
  5443                           ;mcc_generated_files/pin_manager.c: 61:     LATB = 0x00;
  5444  003506  0E00               	movlw	0
  5445  003508  6E8A               	movwf	138,c	;volatile
  5446                           
  5447                           ;mcc_generated_files/pin_manager.c: 62:     LATC = 0x00;
  5448  00350A  0E00               	movlw	0
  5449  00350C  6E8B               	movwf	139,c	;volatile
  5450                           
  5451                           ;mcc_generated_files/pin_manager.c: 67:     TRISA = 0xFF;
  5452  00350E  6892               	setf	146,c	;volatile
  5453                           
  5454                           ;mcc_generated_files/pin_manager.c: 68:     TRISB = 0x00;
  5455  003510  0E00               	movlw	0
  5456  003512  6E93               	movwf	147,c	;volatile
  5457                           
  5458                           ;mcc_generated_files/pin_manager.c: 69:     TRISC = 0xC7;
  5459  003514  0EC7               	movlw	199
  5460  003516  6E94               	movwf	148,c	;volatile
  5461                           
  5462                           ;mcc_generated_files/pin_manager.c: 74:     ANSELC = 0xC4;
  5463  003518  0EC4               	movlw	196
  5464  00351A  010F               	movlb	15	; () banked
  5465  00351C  6F5D               	movwf	93,b	;volatile
  5466                           
  5467                           ;mcc_generated_files/pin_manager.c: 75:     ANSELB = 0x00;
  5468  00351E  0E00               	movlw	0
  5469  003520  6F5C               	movwf	92,b	;volatile
  5470                           
  5471                           ;mcc_generated_files/pin_manager.c: 76:     ANSELA = 0x2F;
  5472  003522  0E2F               	movlw	47
  5473  003524  6F5B               	movwf	91,b	;volatile
  5474                           
  5475                           ;mcc_generated_files/pin_manager.c: 81:     WPUB = 0x00;
  5476  003526  0E00               	movlw	0
  5477  003528  6E85               	movwf	133,c	;volatile
  5478                           
  5479                           ; BSR set to: 15
  5480                           ;mcc_generated_files/pin_manager.c: 82:     INTCON2bits.nRBPU = 1;
  5481  00352A  8EF1               	bsf	241,7,c	;volatile
  5482                           
  5483                           ; BSR set to: 15
  5484  00352C  0012               	return		;funcret
  5485  00352E                     __end_of_PIN_MANAGER_Initialize:
  5486                           	callstack 0
  5487                           
  5488 ;; *************** function _OSCILLATOR_Initialize *****************
  5489 ;; Defined at:
  5490 ;;		line 66 in file "mcc_generated_files/mcc.c"
  5491 ;; Parameters:    Size  Location     Type
  5492 ;;		None
  5493 ;; Auto vars:     Size  Location     Type
  5494 ;;		None
  5495 ;; Return value:  Size  Location     Type
  5496 ;;                  1    wreg      void 
  5497 ;; Registers used:
  5498 ;;		wreg, status,2
  5499 ;; Tracked objects:
  5500 ;;		On entry : 3F/F
  5501 ;;		On exit  : 3F/F
  5502 ;;		Unchanged: 3E/0
  5503 ;; Data sizes:     COMRAM   BANK0   BANK1   BANK2   BANK3   BANK4   BANK5   BANK6   BANK7
  5504 ;;      Params:         0       0       0       0       0       0       0       0       0
  5505 ;;      Locals:         0       0       0       0       0       0       0       0       0
  5506 ;;      Temps:          0       0       0       0       0       0       0       0       0
  5507 ;;      Totals:         0       0       0       0       0       0       0       0       0
  5508 ;;Total ram usage:        0 bytes
  5509 ;; Hardware stack levels used: 1
  5510 ;; Hardware stack levels required when called: 10
  5511 ;; This function calls:
  5512 ;;		Nothing
  5513 ;; This function is called by:
  5514 ;;		_SYSTEM_Initialize
  5515 ;; This function uses a non-reentrant model
  5516 ;;
  5517                           
  5518                           	psect	text29
  5519  003660                     __ptext29:
  5520                           	callstack 0
  5521  003660                     _OSCILLATOR_Initialize:
  5522                           	callstack 19
  5523                           
  5524                           ; BSR set to: 15
  5525                           ;mcc_generated_files/mcc.c: 69:     OSCCON = 0x70;
  5526                           
  5527                           ; BSR set to: 15
  5528                           ;incstack = 0
  5529  003660  0E70               	movlw	112
  5530  003662  6ED3               	movwf	211,c	;volatile
  5531                           
  5532                           ;mcc_generated_files/mcc.c: 71:     OSCCON2 = 0x00;
  5533  003664  0E00               	movlw	0
  5534  003666  6ED2               	movwf	210,c	;volatile
  5535                           
  5536                           ;mcc_generated_files/mcc.c: 73:     OSCTUNE = 0x80;
  5537  003668  0E80               	movlw	128
  5538  00366A  6E9B               	movwf	155,c	;volatile
  5539                           
  5540                           ;mcc_generated_files/mcc.c: 75:     ACTCON = 0x00;
  5541  00366C  0E00               	movlw	0
  5542  00366E  6EB5               	movwf	181,c	;volatile
  5543                           
  5544                           ; BSR set to: 15
  5545  003670  0012               	return		;funcret
  5546  003672                     __end_of_OSCILLATOR_Initialize:
  5547                           	callstack 0
  5548                           
  5549 ;; *************** function _INTERRUPT_Initialize *****************
  5550 ;; Defined at:
  5551 ;;		line 52 in file "mcc_generated_files/interrupt_manager.c"
  5552 ;; Parameters:    Size  Location     Type
  5553 ;;		None
  5554 ;; Auto vars:     Size  Location     Type
  5555 ;;		None
  5556 ;; Return value:  Size  Location     Type
  5557 ;;                  1    wreg      void 
  5558 ;; Registers used:
  5559 ;;		None
  5560 ;; Tracked objects:
  5561 ;;		On entry : 0/0
  5562 ;;		On exit  : 0/0
  5563 ;;		Unchanged: 0/0
  5564 ;; Data sizes:     COMRAM   BANK0   BANK1   BANK2   BANK3   BANK4   BANK5   BANK6   BANK7
  5565 ;;      Params:         0       0       0       0       0       0       0       0       0
  5566 ;;      Locals:         0       0       0       0       0       0       0       0       0
  5567 ;;      Temps:          0       0       0       0       0       0       0       0       0
  5568 ;;      Totals:         0       0       0       0       0       0       0       0       0
  5569 ;;Total ram usage:        0 bytes
  5570 ;; Hardware stack levels used: 1
  5571 ;; Hardware stack levels required when called: 10
  5572 ;; This function calls:
  5573 ;;		Nothing
  5574 ;; This function is called by:
  5575 ;;		_SYSTEM_Initialize
  5576 ;; This function uses a non-reentrant model
  5577 ;;
  5578                           
  5579                           	psect	text30
  5580  0036BC                     __ptext30:
  5581                           	callstack 0
  5582  0036BC                     _INTERRUPT_Initialize:
  5583                           	callstack 19
  5584                           
  5585                           ;mcc_generated_files/interrupt_manager.c: 55:     RCONbits.IPEN = 0;
  5586                           
  5587                           ; BSR set to: 15
  5588                           ;incstack = 0
  5589  0036BC  9ED0               	bcf	208,7,c	;volatile
  5590  0036BE  0012               	return		;funcret
  5591  0036C0                     __end_of_INTERRUPT_Initialize:
  5592                           	callstack 0
  5593                           
  5594 ;; *************** function _CCP2_Initialize *****************
  5595 ;; Defined at:
  5596 ;;		line 60 in file "mcc_generated_files/ccp2.c"
  5597 ;; Parameters:    Size  Location     Type
  5598 ;;		None
  5599 ;; Auto vars:     Size  Location     Type
  5600 ;;		None
  5601 ;; Return value:  Size  Location     Type
  5602 ;;                  1    wreg      void 
  5603 ;; Registers used:
  5604 ;;		wreg, status,2
  5605 ;; Tracked objects:
  5606 ;;		On entry : 3F/F
  5607 ;;		On exit  : 3F/F
  5608 ;;		Unchanged: 0/0
  5609 ;; Data sizes:     COMRAM   BANK0   BANK1   BANK2   BANK3   BANK4   BANK5   BANK6   BANK7
  5610 ;;      Params:         0       0       0       0       0       0       0       0       0
  5611 ;;      Locals:         0       0       0       0       0       0       0       0       0
  5612 ;;      Temps:          0       0       0       0       0       0       0       0       0
  5613 ;;      Totals:         0       0       0       0       0       0       0       0       0
  5614 ;;Total ram usage:        0 bytes
  5615 ;; Hardware stack levels used: 1
  5616 ;; Hardware stack levels required when called: 10
  5617 ;; This function calls:
  5618 ;;		Nothing
  5619 ;; This function is called by:
  5620 ;;		_SYSTEM_Initialize
  5621 ;; This function uses a non-reentrant model
  5622 ;;
  5623                           
  5624                           	psect	text31
  5625  003672                     __ptext31:
  5626                           	callstack 0
  5627  003672                     _CCP2_Initialize:
  5628                           	callstack 19
  5629                           
  5630                           ; BSR set to: 15
  5631                           ;mcc_generated_files/ccp2.c: 65:  CCP2CON = 0x04;
  5632                           
  5633                           ;incstack = 0
  5634  003672  0E04               	movlw	4
  5635  003674  6E97               	movwf	151,c	;volatile
  5636                           
  5637                           ;mcc_generated_files/ccp2.c: 68:  CCPR2L = 0x00;
  5638  003676  0E00               	movlw	0
  5639  003678  6E90               	movwf	144,c	;volatile
  5640                           
  5641                           ;mcc_generated_files/ccp2.c: 71:  CCPR2H = 0x00;
  5642  00367A  0E00               	movlw	0
  5643  00367C  6E91               	movwf	145,c	;volatile
  5644                           
  5645                           ; BSR set to: 15
  5646                           ;mcc_generated_files/ccp2.c: 75:  CCPTMRSbits.C2TSEL = 0x0;
  5647  00367E  9759               	bcf	89,3,b	;volatile
  5648                           
  5649                           ; BSR set to: 15
  5650  003680  0012               	return		;funcret
  5651  003682                     __end_of_CCP2_Initialize:
  5652                           	callstack 0
  5653                           
  5654 ;; *************** function _ADC_Initialize *****************
  5655 ;; Defined at:
  5656 ;;		line 62 in file "mcc_generated_files/adc.c"
  5657 ;; Parameters:    Size  Location     Type
  5658 ;;		None
  5659 ;; Auto vars:     Size  Location     Type
  5660 ;;		None
  5661 ;; Return value:  Size  Location     Type
  5662 ;;                  1    wreg      void 
  5663 ;; Registers used:
  5664 ;;		wreg, status,2
  5665 ;; Tracked objects:
  5666 ;;		On entry : 3F/0
  5667 ;;		On exit  : 3F/0
  5668 ;;		Unchanged: 3F/0
  5669 ;; Data sizes:     COMRAM   BANK0   BANK1   BANK2   BANK3   BANK4   BANK5   BANK6   BANK7
  5670 ;;      Params:         0       0       0       0       0       0       0       0       0
  5671 ;;      Locals:         0       0       0       0       0       0       0       0       0
  5672 ;;      Temps:          0       0       0       0       0       0       0       0       0
  5673 ;;      Totals:         0       0       0       0       0       0       0       0       0
  5674 ;;Total ram usage:        0 bytes
  5675 ;; Hardware stack levels used: 1
  5676 ;; Hardware stack levels required when called: 10
  5677 ;; This function calls:
  5678 ;;		Nothing
  5679 ;; This function is called by:
  5680 ;;		_SYSTEM_Initialize
  5681 ;; This function uses a non-reentrant model
  5682 ;;
  5683                           
  5684                           	psect	text32
  5685  00364A                     __ptext32:
  5686                           	callstack 0
  5687  00364A                     _ADC_Initialize:
  5688                           	callstack 19
  5689                           
  5690                           ; BSR set to: 0
  5691                           ;mcc_generated_files/adc.c: 67:     ADCON1 = 0x00;
  5692                           
  5693                           ; BSR set to: 15
  5694                           ;incstack = 0
  5695  00364A  0E00               	movlw	0
  5696  00364C  6EC1               	movwf	193,c	;volatile
  5697                           
  5698                           ;mcc_generated_files/adc.c: 70:     ADCON2 = 0x06;
  5699  00364E  0E06               	movlw	6
  5700  003650  6EC0               	movwf	192,c	;volatile
  5701                           
  5702                           ;mcc_generated_files/adc.c: 73:     ADRESL = 0x00;
  5703  003652  0E00               	movlw	0
  5704  003654  6EC3               	movwf	195,c	;volatile
  5705                           
  5706                           ;mcc_generated_files/adc.c: 76:     ADRESH = 0x00;
  5707  003656  0E00               	movlw	0
  5708  003658  6EC4               	movwf	196,c	;volatile
  5709                           
  5710                           ;mcc_generated_files/adc.c: 79:     ADCON0 = 0x01;
  5711  00365A  0E01               	movlw	1
  5712  00365C  6EC2               	movwf	194,c	;volatile
  5713                           
  5714                           ; BSR set to: 0
  5715  00365E  0012               	return		;funcret
  5716  003660                     __end_of_ADC_Initialize:
  5717                           	callstack 0
  5718                           
  5719 ;; *************** function _Fila_Init *****************
  5720 ;; Defined at:
  5721 ;;		line 6 in file "fila.c"
  5722 ;; Parameters:    Size  Location     Type
  5723 ;;  fila            2    0[BANK0 ] PTR struct Fila_T
  5724 ;;		 -> main@CommandList(6), 
  5725 ;; Auto vars:     Size  Location     Type
  5726 ;;		None
  5727 ;; Return value:  Size  Location     Type
  5728 ;;                  1    wreg      void 
  5729 ;; Registers used:
  5730 ;;		wreg, fsr2l, fsr2h, status,2, status,0
  5731 ;; Tracked objects:
  5732 ;;		On entry : 3F/0
  5733 ;;		On exit  : 3F/0
  5734 ;;		Unchanged: 0/0
  5735 ;; Data sizes:     COMRAM   BANK0   BANK1   BANK2   BANK3   BANK4   BANK5   BANK6   BANK7
  5736 ;;      Params:         0       2       0       0       0       0       0       0       0
  5737 ;;      Locals:         0       0       0       0       0       0       0       0       0
  5738 ;;      Temps:          0       0       0       0       0       0       0       0       0
  5739 ;;      Totals:         0       2       0       0       0       0       0       0       0
  5740 ;;Total ram usage:        2 bytes
  5741 ;; Hardware stack levels used: 1
  5742 ;; Hardware stack levels required when called: 10
  5743 ;; This function calls:
  5744 ;;		Nothing
  5745 ;; This function is called by:
  5746 ;;		_main
  5747 ;; This function uses a non-reentrant model
  5748 ;;
  5749                           
  5750                           	psect	text33
  5751  0032D4                     __ptext33:
  5752                           	callstack 0
  5753  0032D4                     _Fila_Init:
  5754                           	callstack 20
  5755                           
  5756                           ; BSR set to: 0
  5757                           ;fila.c: 7:    fila->cabeza=0;
  5758                           
  5759                           ; BSR set to: 0
  5760                           ;incstack = 0
  5761  0032D4  C060  FFD9         	movff	Fila_Init@fila,fsr2l
  5762  0032D8  C061  FFDA         	movff	Fila_Init@fila+1,fsr2h
  5763  0032DC  0E00               	movlw	0
  5764  0032DE  6EDE               	movwf	postinc2,c
  5765  0032E0  0E00               	movlw	0
  5766  0032E2  6EDD               	movwf	postdec2,c
  5767                           
  5768                           ; BSR set to: 0
  5769                           ;fila.c: 8:    fila->cola=0;
  5770  0032E4  EE20 F002          	lfsr	2,2
  5771  0032E8  5160               	movf	Fila_Init@fila& (0+255),w,b
  5772  0032EA  26D9               	addwf	fsr2l,f,c
  5773  0032EC  5161               	movf	(Fila_Init@fila+1)& (0+255),w,b
  5774  0032EE  22DA               	addwfc	fsr2h,f,c
  5775  0032F0  0E00               	movlw	0
  5776  0032F2  6EDE               	movwf	postinc2,c
  5777  0032F4  0E00               	movlw	0
  5778  0032F6  6EDD               	movwf	postdec2,c
  5779                           
  5780                           ; BSR set to: 0
  5781                           ;fila.c: 9:    fila->size=0;
  5782  0032F8  EE20 F004          	lfsr	2,4
  5783  0032FC  5160               	movf	Fila_Init@fila& (0+255),w,b
  5784  0032FE  26D9               	addwf	fsr2l,f,c
  5785  003300  5161               	movf	(Fila_Init@fila+1)& (0+255),w,b
  5786  003302  22DA               	addwfc	fsr2h,f,c
  5787  003304  0E00               	movlw	0
  5788  003306  6EDE               	movwf	postinc2,c
  5789  003308  0E00               	movlw	0
  5790  00330A  6EDD               	movwf	postdec2,c
  5791                           
  5792                           ; BSR set to: 0
  5793  00330C  0012               	return		;funcret
  5794  00330E                     __end_of_Fila_Init:
  5795                           	callstack 0
  5796                           
  5797 ;; *************** function _Fila_Agregar *****************
  5798 ;; Defined at:
  5799 ;;		line 12 in file "fila.c"
  5800 ;; Parameters:    Size  Location     Type
  5801 ;;  fila            2   32[BANK0 ] PTR struct Fila_T
  5802 ;;		 -> main@CommandList(6), 
  5803 ;;  comando         2   34[BANK0 ] PTR unsigned char 
  5804 ;;		 -> executeCommand@strCommand(30), lastToken(10), readBuffer(100), main@buf(20), 
  5805 ;;		 -> NULL(0), 
  5806 ;;  nBytes          2   36[BANK0 ] int 
  5807 ;; Auto vars:     Size  Location     Type
  5808 ;;  nuevo           2   40[BANK0 ] PTR struct NodoComando_T
  5809 ;;		 -> __heap_hi..(3), __heap_hi(0), RAM(2047), NULL(0), 
  5810 ;; Return value:  Size  Location     Type
  5811 ;;                  2   32[BANK0 ] int 
  5812 ;; Registers used:
  5813 ;;		wreg, fsr1l, fsr1h, fsr2l, fsr2h, status,2, status,0, cstack
  5814 ;; Tracked objects:
  5815 ;;		On entry : 3F/0
  5816 ;;		On exit  : 3F/0
  5817 ;;		Unchanged: 0/0
  5818 ;; Data sizes:     COMRAM   BANK0   BANK1   BANK2   BANK3   BANK4   BANK5   BANK6   BANK7
  5819 ;;      Params:         0       6       0       0       0       0       0       0       0
  5820 ;;      Locals:         0       2       0       0       0       0       0       0       0
  5821 ;;      Temps:          0       2       0       0       0       0       0       0       0
  5822 ;;      Totals:         0      10       0       0       0       0       0       0       0
  5823 ;;Total ram usage:       10 bytes
  5824 ;; Hardware stack levels used: 1
  5825 ;; Hardware stack levels required when called: 12
  5826 ;; This function calls:
  5827 ;;		_malloc
  5828 ;;		_strcpy
  5829 ;; This function is called by:
  5830 ;;		_main
  5831 ;; This function uses a non-reentrant model
  5832 ;;
  5833                           
  5834                           	psect	text34
  5835  002248                     __ptext34:
  5836                           	callstack 0
  5837  002248                     _Fila_Agregar:
  5838                           	callstack 18
  5839                           
  5840                           ; BSR set to: 0
  5841                           ;fila.c: 14:    if(comando==((void*)0))return 1;
  5842                           
  5843                           ; BSR set to: 0
  5844                           ;incstack = 0
  5845  002248  5182               	movf	Fila_Agregar@comando& (0+255),w,b
  5846  00224A  1183               	iorwf	(Fila_Agregar@comando+1)& (0+255),w,b
  5847  00224C  B4D8               	btfsc	status,2,c
  5848  00224E  0012               	return	
  5849                           
  5850                           ; BSR set to: 0
  5851                           ;fila.c: 16:    NodoComando_T* nuevo=((void*)0);
  5852  002250  0E00               	movlw	0
  5853  002252  6F88               	movwf	Fila_Agregar@nuevo& (0+255),b
  5854  002254  0E00               	movlw	0
  5855  002256  6F89               	movwf	(Fila_Agregar@nuevo+1)& (0+255),b
  5856                           
  5857                           ;fila.c: 17:    while(nuevo==((void*)0)){
  5858  002258  D00A               	goto	l8282
  5859  00225A                     l8280:
  5860                           
  5861                           ; BSR set to: 0
  5862                           ;fila.c: 18:       nuevo = (NodoComando_T*)malloc(sizeof(NodoComando_T));
  5863  00225A  0E00               	movlw	0
  5864  00225C  6F75               	movwf	(malloc@n+1)& (0+255),b
  5865  00225E  0E20               	movlw	32
  5866  002260  6F74               	movwf	malloc@n& (0+255),b
  5867  002262  EC09  F00F         	call	_malloc	;wreg free
  5868  002266  C074  F088         	movff	?_malloc,Fila_Agregar@nuevo
  5869  00226A  C075  F089         	movff	?_malloc+1,Fila_Agregar@nuevo+1
  5870  00226E                     l8282:
  5871                           
  5872                           ; BSR set to: 0
  5873                           ;fila.c: 17:    while(nuevo==((void*)0)){
  5874  00226E  5188               	movf	Fila_Agregar@nuevo& (0+255),w,b
  5875  002270  1189               	iorwf	(Fila_Agregar@nuevo+1)& (0+255),w,b
  5876  002272  B4D8               	btfsc	status,2,c
  5877  002274  D7F2               	goto	l8280
  5878                           
  5879                           ; BSR set to: 0
  5880                           ;fila.c: 22:    strcpy(nuevo->comando,comando);
  5881  002276  C088  F060         	movff	Fila_Agregar@nuevo,strcpy@dest
  5882  00227A  C089  F061         	movff	Fila_Agregar@nuevo+1,strcpy@dest+1
  5883  00227E  C082  F062         	movff	Fila_Agregar@comando,strcpy@src
  5884  002282  C083  F063         	movff	Fila_Agregar@comando+1,strcpy@src+1
  5885  002286  ECF2  F019         	call	_strcpy	;wreg free
  5886                           
  5887                           ; BSR set to: 0
  5888                           ;fila.c: 24:    if(fila->size>0){
  5889  00228A  EE20 F004          	lfsr	2,4
  5890  00228E  5180               	movf	Fila_Agregar@fila& (0+255),w,b
  5891  002290  26D9               	addwf	fsr2l,f,c
  5892  002292  5181               	movf	(Fila_Agregar@fila+1)& (0+255),w,b
  5893  002294  22DA               	addwfc	fsr2h,f,c
  5894  002296  0E01               	movlw	1
  5895  002298  BEDB               	btfsc	plusw2,7,c
  5896  00229A  D01D               	goto	l8294
  5897  00229C  0E01               	movlw	1
  5898  00229E  50DB               	movf	plusw2,w,c
  5899  0022A0  E103               	bnz	u7190
  5900  0022A2  04DE               	decf	postinc2,w,c
  5901  0022A4  A0D8               	btfss	status,0,c
  5902  0022A6  D017               	goto	l8294
  5903  0022A8                     u7190:
  5904                           
  5905                           ; BSR set to: 0
  5906                           ;fila.c: 25:       fila->cola->next = nuevo;
  5907  0022A8  EE20 F002          	lfsr	2,2
  5908  0022AC  5180               	movf	Fila_Agregar@fila& (0+255),w,b
  5909  0022AE  26D9               	addwf	fsr2l,f,c
  5910  0022B0  5181               	movf	(Fila_Agregar@fila+1)& (0+255),w,b
  5911  0022B2  22DA               	addwfc	fsr2h,f,c
  5912  0022B4  EE10 F01E          	lfsr	1,30
  5913  0022B8  50DE               	movf	postinc2,w,c
  5914  0022BA  26E1               	addwf	fsr1l,f,c
  5915  0022BC  50DD               	movf	postdec2,w,c
  5916  0022BE  22E2               	addwfc	fsr1h,f,c
  5917  0022C0  C088  FFE6         	movff	Fila_Agregar@nuevo,postinc1
  5918  0022C4  C089  FFE5         	movff	Fila_Agregar@nuevo+1,postdec1
  5919                           
  5920                           ; BSR set to: 0
  5921                           ;fila.c: 26:       fila->cola= nuevo;
  5922  0022C8  EE20 F002          	lfsr	2,2
  5923  0022CC  5180               	movf	Fila_Agregar@fila& (0+255),w,b
  5924  0022CE  26D9               	addwf	fsr2l,f,c
  5925  0022D0  5181               	movf	(Fila_Agregar@fila+1)& (0+255),w,b
  5926  0022D2  22DA               	addwfc	fsr2h,f,c
  5927  0022D4  D00E               	goto	L19
  5928  0022D6                     l8294:
  5929                           
  5930                           ; BSR set to: 0
  5931                           ;fila.c: 30:       fila->cola= nuevo;
  5932  0022D6  EE20 F002          	lfsr	2,2
  5933  0022DA  5180               	movf	Fila_Agregar@fila& (0+255),w,b
  5934  0022DC  26D9               	addwf	fsr2l,f,c
  5935  0022DE  5181               	movf	(Fila_Agregar@fila+1)& (0+255),w,b
  5936  0022E0  22DA               	addwfc	fsr2h,f,c
  5937  0022E2  C088  FFDE         	movff	Fila_Agregar@nuevo,postinc2
  5938  0022E6  C089  FFDD         	movff	Fila_Agregar@nuevo+1,postdec2
  5939                           
  5940                           ; BSR set to: 0
  5941                           ;fila.c: 31:       fila->cabeza=nuevo;
  5942  0022EA  C080  FFD9         	movff	Fila_Agregar@fila,fsr2l
  5943  0022EE  C081  FFDA         	movff	Fila_Agregar@fila+1,fsr2h
  5944  0022F2                     L19:
  5945  0022F2  C088  FFDE         	movff	Fila_Agregar@nuevo,postinc2
  5946  0022F6  C089  FFDD         	movff	Fila_Agregar@nuevo+1,postdec2
  5947                           
  5948                           ; BSR set to: 0
  5949                           ;fila.c: 32:       nuevo->next=((void*)0);
  5950  0022FA  EE20 F01E          	lfsr	2,30
  5951  0022FE  5188               	movf	Fila_Agregar@nuevo& (0+255),w,b
  5952  002300  26D9               	addwf	fsr2l,f,c
  5953  002302  5189               	movf	(Fila_Agregar@nuevo+1)& (0+255),w,b
  5954  002304  22DA               	addwfc	fsr2h,f,c
  5955  002306  0E00               	movlw	0
  5956  002308  6EDE               	movwf	postinc2,c
  5957  00230A  0E00               	movlw	0
  5958  00230C  6EDD               	movwf	postdec2,c
  5959                           
  5960                           ; BSR set to: 0
  5961                           ;fila.c: 34:    fila->size=fila->size+1;
  5962  00230E  EE20 F004          	lfsr	2,4
  5963  002312  5180               	movf	Fila_Agregar@fila& (0+255),w,b
  5964  002314  26D9               	addwf	fsr2l,f,c
  5965  002316  5181               	movf	(Fila_Agregar@fila+1)& (0+255),w,b
  5966  002318  22DA               	addwfc	fsr2h,f,c
  5967  00231A  CFDE F086          	movff	postinc2,??_Fila_Agregar
  5968  00231E  CFDD F087          	movff	postdec2,??_Fila_Agregar+1
  5969  002322  0E01               	movlw	1
  5970  002324  2786               	addwf	??_Fila_Agregar& (0+255),f,b
  5971  002326  0E00               	movlw	0
  5972  002328  2387               	addwfc	(??_Fila_Agregar+1)& (0+255),f,b
  5973  00232A  EE20 F004          	lfsr	2,4
  5974  00232E  5180               	movf	Fila_Agregar@fila& (0+255),w,b
  5975  002330  26D9               	addwf	fsr2l,f,c
  5976  002332  5181               	movf	(Fila_Agregar@fila+1)& (0+255),w,b
  5977  002334  22DA               	addwfc	fsr2h,f,c
  5978  002336  C086  FFDE         	movff	??_Fila_Agregar,postinc2
  5979  00233A  C087  FFDD         	movff	??_Fila_Agregar+1,postdec2
  5980                           
  5981                           ; BSR set to: 0
  5982  00233E  0012               	return		;funcret
  5983  002340                     __end_of_Fila_Agregar:
  5984                           	callstack 0
  5985                           
  5986 ;; *************** function _malloc *****************
  5987 ;; Defined at:
  5988 ;;		line 16 in file "/Applications/microchip/xc8/v2.36/pic/sources/c99/common/lite_malloc.c"
  5989 ;; Parameters:    Size  Location     Type
  5990 ;;  n               2   20[BANK0 ] unsigned int 
  5991 ;; Auto vars:     Size  Location     Type
  5992 ;;  sz              2   26[BANK0 ] PTR unsigned int 
  5993 ;;		 -> __heap_hi..(3), __heap_hi(0), RAM(2047), NULL(0), 
  5994 ;;  new             2   30[BANK0 ] PTR unsigned char 
  5995 ;;		 -> __heap_hi(0), RAM(2047), NULL(0), 
  5996 ;;  m               2   24[BANK0 ] unsigned int 
  5997 ;;  p               2   28[BANK0 ] PTR void 
  5998 ;;		 -> __heap_hi..(3), __heap_hi(0), RAM(2047), NULL(0), 
  5999 ;;  size            2    0        unsigned int 
  6000 ;; Return value:  Size  Location     Type
  6001 ;;                  2   20[BANK0 ] PTR void 
  6002 ;; Registers used:
  6003 ;;		wreg, fsr1l, fsr1h, fsr2l, fsr2h, status,2, status,0, cstack
  6004 ;; Tracked objects:
  6005 ;;		On entry : 3F/0
  6006 ;;		On exit  : 3F/0
  6007 ;;		Unchanged: 0/0
  6008 ;; Data sizes:     COMRAM   BANK0   BANK1   BANK2   BANK3   BANK4   BANK5   BANK6   BANK7
  6009 ;;      Params:         0       2       0       0       0       0       0       0       0
  6010 ;;      Locals:         0       8       0       0       0       0       0       0       0
  6011 ;;      Temps:          0       2       0       0       0       0       0       0       0
  6012 ;;      Totals:         0      12       0       0       0       0       0       0       0
  6013 ;;Total ram usage:       12 bytes
  6014 ;; Hardware stack levels used: 1
  6015 ;; Hardware stack levels required when called: 11
  6016 ;; This function calls:
  6017 ;;		___expand_heap
  6018 ;;		___simple_search_fl
  6019 ;; This function is called by:
  6020 ;;		_Fila_Agregar
  6021 ;; This function uses a non-reentrant model
  6022 ;;
  6023                           
  6024                           	psect	text35
  6025  001E12                     __ptext35:
  6026                           	callstack 0
  6027  001E12                     _malloc:
  6028                           	callstack 18
  6029                           
  6030                           ; BSR set to: 0
  6031                           
  6032                           ; BSR set to: 0
  6033                           
  6034                           ; BSR set to: 0
  6035                           
  6036                           ; BSR set to: 0
  6037                           ;incstack = 0
  6038  001E12  5174               	movf	malloc@n& (0+255),w,b
  6039  001E14  1175               	iorwf	(malloc@n+1)& (0+255),w,b
  6040  001E16  A4D8               	btfss	status,2,c
  6041  001E18  D002               	goto	l7754
  6042                           
  6043                           ; BSR set to: 0
  6044  001E1A  4B74               	infsnz	malloc@n& (0+255),f,b
  6045  001E1C  2B75               	incf	(malloc@n+1)& (0+255),f,b
  6046  001E1E                     l7754:
  6047                           
  6048                           ; BSR set to: 0
  6049  001E1E  C0DF  F0DF         	movff	malloc@cur,malloc@cur
  6050  001E22  C0E0  F0E0         	movff	malloc@cur+1,malloc@cur+1
  6051                           
  6052                           ; BSR set to: 0
  6053                           
  6054                           ; BSR set to: 0
  6055  001E26  5175               	movf	(malloc@n+1)& (0+255),w,b
  6056  001E28  E108               	bnz	l7762
  6057  001E2A  0E04               	movlw	4
  6058  001E2C  5D74               	subwf	malloc@n& (0+255),w,b
  6059  001E2E  B0D8               	btfsc	status,0,c
  6060  001E30  D004               	goto	l7762
  6061                           
  6062                           ; BSR set to: 0
  6063  001E32  0E00               	movlw	0
  6064  001E34  6F75               	movwf	(malloc@n+1)& (0+255),b
  6065  001E36  0E04               	movlw	4
  6066  001E38  6F74               	movwf	malloc@n& (0+255),b
  6067  001E3A                     l7762:
  6068                           
  6069                           ; BSR set to: 0
  6070  001E3A  C074  F060         	movff	malloc@n,___simple_search_fl@n
  6071  001E3E  C075  F061         	movff	malloc@n+1,___simple_search_fl@n+1
  6072  001E42  ECA8  F006         	call	___simple_search_fl	;wreg free
  6073  001E46  C060  F07C         	movff	?___simple_search_fl,malloc@p
  6074  001E4A  C061  F07D         	movff	?___simple_search_fl+1,malloc@p+1
  6075                           
  6076                           ; BSR set to: 0
  6077  001E4E  517C               	movf	malloc@p& (0+255),w,b
  6078  001E50  117D               	iorwf	(malloc@p+1)& (0+255),w,b
  6079  001E52  A4D8               	btfss	status,2,c
  6080  001E54  D066               	goto	l7792
  6081                           
  6082                           ; BSR set to: 0
  6083  001E56  51DF               	movf	malloc@cur& (0+255),w,b
  6084  001E58  0101               	movlb	1	; () banked
  6085  001E5A  5D2C               	subwf	malloc@end& (0+255),w,b
  6086  001E5C  0100               	movlb	0	; () banked
  6087  001E5E  6F76               	movwf	??_malloc& (0+255),b
  6088  001E60  51E0               	movf	(malloc@cur+1)& (0+255),w,b
  6089  001E62  0101               	movlb	1	; () banked
  6090  001E64  592D               	subwfb	(malloc@end+1)& (0+255),w,b
  6091  001E66  0100               	movlb	0	; () banked
  6092  001E68  6F77               	movwf	(??_malloc+1)& (0+255),b
  6093  001E6A  5174               	movf	malloc@n& (0+255),w,b
  6094  001E6C  5D76               	subwf	??_malloc& (0+255),w,b
  6095  001E6E  5175               	movf	(malloc@n+1)& (0+255),w,b
  6096  001E70  5977               	subwfb	(??_malloc+1)& (0+255),w,b
  6097  001E72  B0D8               	btfsc	status,0,c
  6098  001E74  D033               	goto	l1959
  6099                           
  6100                           ; BSR set to: 0
  6101  001E76  0E02               	movlw	2
  6102  001E78  2574               	addwf	malloc@n& (0+255),w,b
  6103  001E7A  6F78               	movwf	malloc@m& (0+255),b
  6104  001E7C  0E00               	movlw	0
  6105  001E7E  2175               	addwfc	(malloc@n+1)& (0+255),w,b
  6106  001E80  6F79               	movwf	(malloc@m+1)& (0+255),b
  6107                           
  6108                           ; BSR set to: 0
  6109  001E82  0E78               	movlw	low malloc@m
  6110  001E84  6F60               	movwf	___expand_heap@pn& (0+255),b
  6111  001E86  ECA5  F017         	call	___expand_heap	;wreg free
  6112  001E8A  C060  F07E         	movff	?___expand_heap,malloc@new
  6113  001E8E  C061  F07F         	movff	?___expand_heap+1,malloc@new+1
  6114                           
  6115                           ; BSR set to: 0
  6116  001E92  517E               	movf	malloc@new& (0+255),w,b
  6117  001E94  117F               	iorwf	(malloc@new+1)& (0+255),w,b
  6118  001E96  A4D8               	btfss	status,2,c
  6119  001E98  D005               	goto	l7778
  6120                           
  6121                           ; BSR set to: 0
  6122  001E9A  0E00               	movlw	0
  6123  001E9C  6F74               	movwf	?_malloc& (0+255),b
  6124  001E9E  0E00               	movlw	0
  6125  001EA0  6F75               	movwf	(?_malloc+1)& (0+255),b
  6126  001EA2  0012               	return	
  6127  001EA4                     l7778:
  6128                           
  6129                           ; BSR set to: 0
  6130  001EA4  C07E  F07E         	movff	malloc@new,malloc@new
  6131  001EA8  C07F  F07F         	movff	malloc@new+1,malloc@new+1
  6132  001EAC  0101               	movlb	1	; () banked
  6133  001EAE  512C               	movf	malloc@end& (0+255),w,b
  6134  001EB0  0100               	movlb	0	; () banked
  6135  001EB2  197E               	xorwf	malloc@new& (0+255),w,b
  6136  001EB4  E106               	bnz	u6830
  6137  001EB6  0101               	movlb	1	; () banked
  6138  001EB8  512D               	movf	(malloc@end+1)& (0+255),w,b
  6139  001EBA  0100               	movlb	0	; () banked
  6140  001EBC  197F               	xorwf	(malloc@new+1)& (0+255),w,b
  6141  001EBE  B4D8               	btfsc	status,2,c
  6142  001EC0  D004               	goto	l1962
  6143  001EC2                     u6830:
  6144                           
  6145                           ; BSR set to: 0
  6146  001EC2  C07E  F0DF         	movff	malloc@new,malloc@cur
  6147  001EC6  C07F  F0E0         	movff	malloc@new+1,malloc@cur+1
  6148  001ECA                     l1962:
  6149                           
  6150                           ; BSR set to: 0
  6151  001ECA  5178               	movf	malloc@m& (0+255),w,b
  6152  001ECC  257E               	addwf	malloc@new& (0+255),w,b
  6153  001ECE  0101               	movlb	1	; () banked
  6154  001ED0  6F2C               	movwf	malloc@end& (0+255),b
  6155  001ED2  0100               	movlb	0	; () banked
  6156  001ED4  5179               	movf	(malloc@m+1)& (0+255),w,b
  6157  001ED6  217F               	addwfc	(malloc@new+1)& (0+255),w,b
  6158  001ED8  0101               	movlb	1	; () banked
  6159  001EDA  6F2D               	movwf	(malloc@end+1)& (0+255),b
  6160  001EDC                     l1959:
  6161  001EDC  C0DF  F07C         	movff	malloc@cur,malloc@p
  6162  001EE0  C0E0  F07D         	movff	malloc@cur+1,malloc@p+1
  6163  001EE4  C07C  F07A         	movff	malloc@p,malloc@sz
  6164  001EE8  C07D  F07B         	movff	malloc@p+1,malloc@sz+1
  6165  001EEC  C07A  FFD9         	movff	malloc@sz,fsr2l
  6166  001EF0  C07B  FFDA         	movff	malloc@sz+1,fsr2h
  6167  001EF4  C074  FFDE         	movff	malloc@n,postinc2
  6168  001EF8  C075  FFDD         	movff	malloc@n+1,postdec2
  6169  001EFC  0E02               	movlw	2
  6170  001EFE  0100               	movlb	0	; () banked
  6171  001F00  277A               	addwf	malloc@sz& (0+255),f,b
  6172  001F02  0E00               	movlw	0
  6173  001F04  237B               	addwfc	(malloc@sz+1)& (0+255),f,b
  6174                           
  6175                           ; BSR set to: 0
  6176  001F06  C07A  F07C         	movff	malloc@sz,malloc@p
  6177  001F0A  C07B  F07D         	movff	malloc@sz+1,malloc@p+1
  6178                           
  6179                           ; BSR set to: 0
  6180  001F0E  0E02               	movlw	2
  6181  001F10  2574               	addwf	malloc@n& (0+255),w,b
  6182  001F12  6F76               	movwf	??_malloc& (0+255),b
  6183  001F14  0E00               	movlw	0
  6184  001F16  2175               	addwfc	(malloc@n+1)& (0+255),w,b
  6185  001F18  6F77               	movwf	(??_malloc+1)& (0+255),b
  6186  001F1A  5176               	movf	??_malloc& (0+255),w,b
  6187  001F1C  27DF               	addwf	malloc@cur& (0+255),f,b
  6188  001F1E  5177               	movf	(??_malloc+1)& (0+255),w,b
  6189  001F20  23E0               	addwfc	(malloc@cur+1)& (0+255),f,b
  6190  001F22                     l7792:
  6191                           
  6192                           ; BSR set to: 0
  6193  001F22  C07C  F074         	movff	malloc@p,?_malloc
  6194  001F26  C07D  F075         	movff	malloc@p+1,?_malloc+1
  6195                           
  6196                           ; BSR set to: 0
  6197  001F2A  0012               	return		;funcret
  6198  001F2C                     __end_of_malloc:
  6199                           	callstack 0
  6200                           
  6201 ;; *************** function ___simple_search_fl *****************
  6202 ;; Defined at:
  6203 ;;		line 19 in file "/Applications/microchip/xc8/v2.36/pic/sources/c99/common/lite_free.c"
  6204 ;; Parameters:    Size  Location     Type
  6205 ;;  n               2    0[BANK0 ] unsigned int 
  6206 ;; Auto vars:     Size  Location     Type
  6207 ;;  split           2   10[BANK0 ] PTR struct chunk
  6208 ;;		 -> __heap_hi..(3), __heap_hi(0), RAM(2047), NULL(0), 
  6209 ;;  remaining_si    2    6[BANK0 ] unsigned int 
  6210 ;;  next            2   14[BANK0 ] PTR struct chunk
  6211 ;;		 -> __heap_hi..(3), __heap_hi(0), RAM(2047), NULL(0), 
  6212 ;;  best            2   18[BANK0 ] PTR struct chunk
  6213 ;;		 -> __heap_hi..(3), __heap_hi(0), RAM(2047), NULL(0), 
  6214 ;;  c               2   16[BANK0 ] PTR struct chunk
  6215 ;;		 -> __heap_hi..(3), __heap_hi(0), RAM(2047), NULL(0), 
  6216 ;;  last            2   12[BANK0 ] PTR struct chunk
  6217 ;;		 -> __heap_hi..(3), __heap_hi(0), RAM(2047), NULL(0), 
  6218 ;;  best_last       2    8[BANK0 ] PTR struct chunk
  6219 ;;		 -> __heap_hi..(3), __heap_hi(0), RAM(2047), NULL(0), 
  6220 ;; Return value:  Size  Location     Type
  6221 ;;                  2    0[BANK0 ] PTR void 
  6222 ;; Registers used:
  6223 ;;		wreg, fsr1l, fsr1h, fsr2l, fsr2h, status,2, status,0
  6224 ;; Tracked objects:
  6225 ;;		On entry : 3F/0
  6226 ;;		On exit  : 3F/0
  6227 ;;		Unchanged: 0/0
  6228 ;; Data sizes:     COMRAM   BANK0   BANK1   BANK2   BANK3   BANK4   BANK5   BANK6   BANK7
  6229 ;;      Params:         0       2       0       0       0       0       0       0       0
  6230 ;;      Locals:         0      14       0       0       0       0       0       0       0
  6231 ;;      Temps:          0       4       0       0       0       0       0       0       0
  6232 ;;      Totals:         0      20       0       0       0       0       0       0       0
  6233 ;;Total ram usage:       20 bytes
  6234 ;; Hardware stack levels used: 1
  6235 ;; Hardware stack levels required when called: 10
  6236 ;; This function calls:
  6237 ;;		Nothing
  6238 ;; This function is called by:
  6239 ;;		_malloc
  6240 ;; This function uses a non-reentrant model
  6241 ;;
  6242                           
  6243                           	psect	text36
  6244  000D50                     __ptext36:
  6245                           	callstack 0
  6246  000D50                     ___simple_search_fl:
  6247                           	callstack 18
  6248                           
  6249                           ; BSR set to: 0
  6250                           
  6251                           ; BSR set to: 0
  6252                           ;incstack = 0
  6253  000D50  0E00               	movlw	0
  6254  000D52  6F72               	movwf	___simple_search_fl@best& (0+255),b
  6255  000D54  0E00               	movlw	0
  6256  000D56  6F73               	movwf	(___simple_search_fl@best+1)& (0+255),b
  6257  000D58  0E00               	movlw	0
  6258  000D5A  6F68               	movwf	___simple_search_fl@best_last& (0+255),b
  6259  000D5C  0E00               	movlw	0
  6260  000D5E  6F69               	movwf	(___simple_search_fl@best_last+1)& (0+255),b
  6261  000D60  0E00               	movlw	0
  6262  000D62  6F6C               	movwf	___simple_search_fl@last& (0+255),b
  6263  000D64  0E00               	movlw	0
  6264  000D66  6F6D               	movwf	(___simple_search_fl@last+1)& (0+255),b
  6265  000D68  5034               	movf	___freelist^0,w,c
  6266  000D6A  1035               	iorwf	(___freelist+1)^0,w,c
  6267  000D6C  A4D8               	btfss	status,2,c
  6268  000D6E  D005               	goto	l7428
  6269  000D70                     u6480:
  6270                           
  6271                           ; BSR set to: 0
  6272  000D70  0E00               	movlw	0
  6273  000D72  6F60               	movwf	?___simple_search_fl& (0+255),b
  6274  000D74  0E00               	movlw	0
  6275  000D76  6F61               	movwf	(?___simple_search_fl+1)& (0+255),b
  6276  000D78  0012               	return	
  6277  000D7A                     l7428:
  6278                           
  6279                           ; BSR set to: 0
  6280  000D7A  C034  F070         	movff	___freelist,___simple_search_fl@c
  6281  000D7E  C035  F071         	movff	___freelist+1,___simple_search_fl@c+1
  6282  000D82  D063               	goto	l7454
  6283  000D84                     l7430:
  6284                           
  6285                           ; BSR set to: 0
  6286  000D84  C070  FFD9         	movff	___simple_search_fl@c,fsr2l
  6287  000D88  C071  FFDA         	movff	___simple_search_fl@c+1,fsr2h
  6288  000D8C  5160               	movf	___simple_search_fl@n& (0+255),w,b
  6289  000D8E  18DE               	xorwf	postinc2,w,c
  6290  000D90  E12A               	bnz	l7442
  6291  000D92  5161               	movf	(___simple_search_fl@n+1)& (0+255),w,b
  6292  000D94  18DE               	xorwf	postinc2,w,c
  6293  000D96  A4D8               	btfss	status,2,c
  6294  000D98  D026               	goto	l7442
  6295                           
  6296                           ; BSR set to: 0
  6297  000D9A  516C               	movf	___simple_search_fl@last& (0+255),w,b
  6298  000D9C  116D               	iorwf	(___simple_search_fl@last+1)& (0+255),w,b
  6299  000D9E  B4D8               	btfsc	status,2,c
  6300  000DA0  D011               	goto	l7436
  6301                           
  6302                           ; BSR set to: 0
  6303  000DA2  EE20 F002          	lfsr	2,2
  6304  000DA6  5170               	movf	___simple_search_fl@c& (0+255),w,b
  6305  000DA8  26D9               	addwf	fsr2l,f,c
  6306  000DAA  5171               	movf	(___simple_search_fl@c+1)& (0+255),w,b
  6307  000DAC  22DA               	addwfc	fsr2h,f,c
  6308  000DAE  EE10 F002          	lfsr	1,2
  6309  000DB2  516C               	movf	___simple_search_fl@last& (0+255),w,b
  6310  000DB4  26E1               	addwf	fsr1l,f,c
  6311  000DB6  516D               	movf	(___simple_search_fl@last+1)& (0+255),w,b
  6312  000DB8  22E2               	addwfc	fsr1h,f,c
  6313  000DBA  CFDE FFE6          	movff	postinc2,postinc1
  6314  000DBE  CFDD FFE5          	movff	postdec2,postdec1
  6315  000DC2  D00A               	goto	l7438
  6316  000DC4                     l7436:
  6317                           
  6318                           ; BSR set to: 0
  6319  000DC4  EE20 F002          	lfsr	2,2
  6320  000DC8  5170               	movf	___simple_search_fl@c& (0+255),w,b
  6321  000DCA  26D9               	addwf	fsr2l,f,c
  6322  000DCC  5171               	movf	(___simple_search_fl@c+1)& (0+255),w,b
  6323  000DCE  22DA               	addwfc	fsr2h,f,c
  6324  000DD0  CFDE F034          	movff	postinc2,___freelist
  6325  000DD4  CFDD F035          	movff	postdec2,___freelist+1
  6326  000DD8                     l7438:
  6327                           
  6328                           ; BSR set to: 0
  6329  000DD8  0E02               	movlw	2
  6330  000DDA  2570               	addwf	___simple_search_fl@c& (0+255),w,b
  6331  000DDC  6F60               	movwf	?___simple_search_fl& (0+255),b
  6332  000DDE  0E00               	movlw	0
  6333  000DE0  2171               	addwfc	(___simple_search_fl@c+1)& (0+255),w,b
  6334  000DE2  6F61               	movwf	(?___simple_search_fl+1)& (0+255),b
  6335  000DE4  0012               	return	
  6336  000DE6                     l7442:
  6337                           
  6338                           ; BSR set to: 0
  6339  000DE6  C070  FFD9         	movff	___simple_search_fl@c,fsr2l
  6340  000DEA  C071  FFDA         	movff	___simple_search_fl@c+1,fsr2h
  6341  000DEE  50DE               	movf	postinc2,w,c
  6342  000DF0  5D60               	subwf	___simple_search_fl@n& (0+255),w,b
  6343  000DF2  50DE               	movf	postinc2,w,c
  6344  000DF4  5961               	subwfb	(___simple_search_fl@n+1)& (0+255),w,b
  6345  000DF6  B0D8               	btfsc	status,0,c
  6346  000DF8  D01A               	goto	l1926
  6347                           
  6348                           ; BSR set to: 0
  6349  000DFA  5172               	movf	___simple_search_fl@best& (0+255),w,b
  6350  000DFC  1173               	iorwf	(___simple_search_fl@best+1)& (0+255),w,b
  6351  000DFE  B4D8               	btfsc	status,2,c
  6352  000E00  D00E               	goto	l7450
  6353                           
  6354                           ; BSR set to: 0
  6355  000E02  C072  FFD9         	movff	___simple_search_fl@best,fsr2l
  6356  000E06  C073  FFDA         	movff	___simple_search_fl@best+1,fsr2h
  6357  000E0A  C070  FFE1         	movff	___simple_search_fl@c,fsr1l
  6358  000E0E  C071  FFE2         	movff	___simple_search_fl@c+1,fsr1h
  6359  000E12  50DE               	movf	postinc2,w,c
  6360  000E14  5CE6               	subwf	postinc1,w,c
  6361  000E16  50DE               	movf	postinc2,w,c
  6362  000E18  58E6               	subwfb	postinc1,w,c
  6363  000E1A  B0D8               	btfsc	status,0,c
  6364  000E1C  D008               	goto	l1926
  6365  000E1E                     l7450:
  6366                           
  6367                           ; BSR set to: 0
  6368  000E1E  C070  F072         	movff	___simple_search_fl@c,___simple_search_fl@best
  6369  000E22  C071  F073         	movff	___simple_search_fl@c+1,___simple_search_fl@best+1
  6370  000E26  C06C  F068         	movff	___simple_search_fl@last,___simple_search_fl@best_last
  6371  000E2A  C06D  F069         	movff	___simple_search_fl@last+1,___simple_search_fl@best_last+1
  6372  000E2E                     l1926:
  6373                           
  6374                           ; BSR set to: 0
  6375  000E2E  C070  F06C         	movff	___simple_search_fl@c,___simple_search_fl@last
  6376  000E32  C071  F06D         	movff	___simple_search_fl@c+1,___simple_search_fl@last+1
  6377                           
  6378                           ; BSR set to: 0
  6379  000E36  EE20 F002          	lfsr	2,2
  6380  000E3A  5170               	movf	___simple_search_fl@c& (0+255),w,b
  6381  000E3C  26D9               	addwf	fsr2l,f,c
  6382  000E3E  5171               	movf	(___simple_search_fl@c+1)& (0+255),w,b
  6383  000E40  22DA               	addwfc	fsr2h,f,c
  6384  000E42  CFDE F070          	movff	postinc2,___simple_search_fl@c
  6385  000E46  CFDD F071          	movff	postdec2,___simple_search_fl@c+1
  6386  000E4A                     l7454:
  6387                           
  6388                           ; BSR set to: 0
  6389  000E4A  5170               	movf	___simple_search_fl@c& (0+255),w,b
  6390  000E4C  1171               	iorwf	(___simple_search_fl@c+1)& (0+255),w,b
  6391  000E4E  A4D8               	btfss	status,2,c
  6392  000E50  D799               	goto	l7430
  6393                           
  6394                           ; BSR set to: 0
  6395  000E52  5172               	movf	___simple_search_fl@best& (0+255),w,b
  6396  000E54  1173               	iorwf	(___simple_search_fl@best+1)& (0+255),w,b
  6397  000E56  B4D8               	btfsc	status,2,c
  6398  000E58  D78B               	goto	u6480
  6399                           
  6400                           ; BSR set to: 0
  6401  000E5A  EE20 F002          	lfsr	2,2
  6402  000E5E  5172               	movf	___simple_search_fl@best& (0+255),w,b
  6403  000E60  26D9               	addwf	fsr2l,f,c
  6404  000E62  5173               	movf	(___simple_search_fl@best+1)& (0+255),w,b
  6405  000E64  22DA               	addwfc	fsr2h,f,c
  6406  000E66  CFDE F06E          	movff	postinc2,___simple_search_fl@next
  6407  000E6A  CFDD F06F          	movff	postdec2,___simple_search_fl@next+1
  6408  000E6E  C072  FFD9         	movff	___simple_search_fl@best,fsr2l
  6409  000E72  C073  FFDA         	movff	___simple_search_fl@best+1,fsr2h
  6410  000E76  CFDE F062          	movff	postinc2,??___simple_search_fl
  6411  000E7A  CFDD F063          	movff	postdec2,??___simple_search_fl+1
  6412  000E7E  5160               	movf	___simple_search_fl@n& (0+255),w,b
  6413  000E80  5F62               	subwf	??___simple_search_fl& (0+255),f,b
  6414  000E82  5161               	movf	(___simple_search_fl@n+1)& (0+255),w,b
  6415  000E84  5B63               	subwfb	(??___simple_search_fl+1)& (0+255),f,b
  6416  000E86  5163               	movf	(??___simple_search_fl+1)& (0+255),w,b
  6417  000E88  E104               	bnz	u6560
  6418  000E8A  0E05               	movlw	5
  6419  000E8C  5D62               	subwf	??___simple_search_fl& (0+255),w,b
  6420  000E8E  A0D8               	btfss	status,0,c
  6421  000E90  D046               	goto	l1929
  6422  000E92                     u6560:
  6423                           
  6424                           ; BSR set to: 0
  6425  000E92  C072  FFD9         	movff	___simple_search_fl@best,fsr2l
  6426  000E96  C073  FFDA         	movff	___simple_search_fl@best+1,fsr2h
  6427  000E9A  CFDE F062          	movff	postinc2,??___simple_search_fl
  6428  000E9E  CFDD F063          	movff	postdec2,??___simple_search_fl+1
  6429  000EA2  5160               	movf	___simple_search_fl@n& (0+255),w,b
  6430  000EA4  5F62               	subwf	??___simple_search_fl& (0+255),f,b
  6431  000EA6  5161               	movf	(___simple_search_fl@n+1)& (0+255),w,b
  6432  000EA8  5B63               	subwfb	(??___simple_search_fl+1)& (0+255),f,b
  6433  000EAA  0EFE               	movlw	254
  6434  000EAC  2562               	addwf	??___simple_search_fl& (0+255),w,b
  6435  000EAE  6F66               	movwf	___simple_search_fl@remaining_size& (0+255),b
  6436  000EB0  0EFF               	movlw	255
  6437  000EB2  2163               	addwfc	(??___simple_search_fl+1)& (0+255),w,b
  6438  000EB4  6F67               	movwf	(___simple_search_fl@remaining_size+1)& (0+255),b
  6439                           
  6440                           ; BSR set to: 0
  6441  000EB6  C072  FFD9         	movff	___simple_search_fl@best,fsr2l
  6442  000EBA  C073  FFDA         	movff	___simple_search_fl@best+1,fsr2h
  6443  000EBE  C060  FFDE         	movff	___simple_search_fl@n,postinc2
  6444  000EC2  C061  FFDD         	movff	___simple_search_fl@n+1,postdec2
  6445                           
  6446                           ; BSR set to: 0
  6447  000EC6  C072  FFD9         	movff	___simple_search_fl@best,fsr2l
  6448  000ECA  C073  FFDA         	movff	___simple_search_fl@best+1,fsr2h
  6449  000ECE  CFDE F062          	movff	postinc2,??___simple_search_fl
  6450  000ED2  CFDD F063          	movff	postdec2,??___simple_search_fl+1
  6451  000ED6  C072  F064         	movff	___simple_search_fl@best,??___simple_search_fl+2
  6452  000EDA  C073  F065         	movff	___simple_search_fl@best+1,??___simple_search_fl+3
  6453  000EDE  5162               	movf	??___simple_search_fl& (0+255),w,b
  6454  000EE0  2764               	addwf	(??___simple_search_fl+2)& (0+255),f,b
  6455  000EE2  5163               	movf	(??___simple_search_fl+1)& (0+255),w,b
  6456  000EE4  2365               	addwfc	(??___simple_search_fl+3)& (0+255),f,b
  6457  000EE6  0E02               	movlw	2
  6458  000EE8  2564               	addwf	(??___simple_search_fl+2)& (0+255),w,b
  6459  000EEA  6F6A               	movwf	___simple_search_fl@split& (0+255),b
  6460  000EEC  0E00               	movlw	0
  6461  000EEE  2165               	addwfc	(??___simple_search_fl+3)& (0+255),w,b
  6462  000EF0  6F6B               	movwf	(___simple_search_fl@split+1)& (0+255),b
  6463  000EF2  C06A  FFD9         	movff	___simple_search_fl@split,fsr2l
  6464  000EF6  C06B  FFDA         	movff	___simple_search_fl@split+1,fsr2h
  6465  000EFA  C066  FFDE         	movff	___simple_search_fl@remaining_size,postinc2
  6466  000EFE  C067  FFDD         	movff	___simple_search_fl@remaining_size+1,postdec2
  6467                           
  6468                           ; BSR set to: 0
  6469  000F02  EE20 F002          	lfsr	2,2
  6470  000F06  516A               	movf	___simple_search_fl@split& (0+255),w,b
  6471  000F08  26D9               	addwf	fsr2l,f,c
  6472  000F0A  516B               	movf	(___simple_search_fl@split+1)& (0+255),w,b
  6473  000F0C  22DA               	addwfc	fsr2h,f,c
  6474  000F0E  C06E  FFDE         	movff	___simple_search_fl@next,postinc2
  6475  000F12  C06F  FFDD         	movff	___simple_search_fl@next+1,postdec2
  6476  000F16  C06A  F06E         	movff	___simple_search_fl@split,___simple_search_fl@next
  6477  000F1A  C06B  F06F         	movff	___simple_search_fl@split+1,___simple_search_fl@next+1
  6478  000F1E                     l1929:
  6479                           
  6480                           ; BSR set to: 0
  6481  000F1E  5172               	movf	___simple_search_fl@best& (0+255),w,b
  6482  000F20  1834               	xorwf	___freelist^0,w,c
  6483  000F22  E109               	bnz	l7470
  6484  000F24  5173               	movf	(___simple_search_fl@best+1)& (0+255),w,b
  6485  000F26  1835               	xorwf	(___freelist+1)^0,w,c
  6486  000F28  A4D8               	btfss	status,2,c
  6487  000F2A  D005               	goto	l7470
  6488                           
  6489                           ; BSR set to: 0
  6490  000F2C  C06E  F034         	movff	___simple_search_fl@next,___freelist
  6491  000F30  C06F  F035         	movff	___simple_search_fl@next+1,___freelist+1
  6492  000F34  D00A               	goto	l7472
  6493  000F36                     l7470:
  6494                           
  6495                           ; BSR set to: 0
  6496  000F36  EE20 F002          	lfsr	2,2
  6497  000F3A  5168               	movf	___simple_search_fl@best_last& (0+255),w,b
  6498  000F3C  26D9               	addwf	fsr2l,f,c
  6499  000F3E  5169               	movf	(___simple_search_fl@best_last+1)& (0+255),w,b
  6500  000F40  22DA               	addwfc	fsr2h,f,c
  6501  000F42  C06E  FFDE         	movff	___simple_search_fl@next,postinc2
  6502  000F46  C06F  FFDD         	movff	___simple_search_fl@next+1,postdec2
  6503  000F4A                     l7472:
  6504                           
  6505                           ; BSR set to: 0
  6506  000F4A  0E02               	movlw	2
  6507  000F4C  2572               	addwf	___simple_search_fl@best& (0+255),w,b
  6508  000F4E  6F60               	movwf	?___simple_search_fl& (0+255),b
  6509  000F50  0E00               	movlw	0
  6510  000F52  2173               	addwfc	(___simple_search_fl@best+1)& (0+255),w,b
  6511  000F54  6F61               	movwf	(?___simple_search_fl+1)& (0+255),b
  6512                           
  6513                           ; BSR set to: 0
  6514  000F56  0012               	return		;funcret
  6515  000F58                     __end_of___simple_search_fl:
  6516                           	callstack 0
  6517                           
  6518 ;; *************** function ___expand_heap *****************
  6519 ;; Defined at:
  6520 ;;		line 14 in file "/Applications/microchip/xc8/v2.36/pic/sources/c99/common/expand_heap.c"
  6521 ;; Parameters:    Size  Location     Type
  6522 ;;  pn              1    0[BANK0 ] PTR unsigned int 
  6523 ;;		 -> malloc@m(2), 
  6524 ;; Auto vars:     Size  Location     Type
  6525 ;;  new_brkp        2    6[BANK0 ] PTR unsigned char 
  6526 ;;		 -> __heap_hi(0), NULL(0), 
  6527 ;;  n               2    4[BANK0 ] unsigned int 
  6528 ;; Return value:  Size  Location     Type
  6529 ;;                  2    0[BANK0 ] PTR void 
  6530 ;; Registers used:
  6531 ;;		wreg, fsr2l, fsr2h, status,2, status,0
  6532 ;; Tracked objects:
  6533 ;;		On entry : 3F/0
  6534 ;;		On exit  : 3F/0
  6535 ;;		Unchanged: 0/0
  6536 ;; Data sizes:     COMRAM   BANK0   BANK1   BANK2   BANK3   BANK4   BANK5   BANK6   BANK7
  6537 ;;      Params:         0       2       0       0       0       0       0       0       0
  6538 ;;      Locals:         0       4       0       0       0       0       0       0       0
  6539 ;;      Temps:          0       2       0       0       0       0       0       0       0
  6540 ;;      Totals:         0       8       0       0       0       0       0       0       0
  6541 ;;Total ram usage:        8 bytes
  6542 ;; Hardware stack levels used: 1
  6543 ;; Hardware stack levels required when called: 10
  6544 ;; This function calls:
  6545 ;;		Nothing
  6546 ;; This function is called by:
  6547 ;;		_malloc
  6548 ;; This function uses a non-reentrant model
  6549 ;;
  6550                           
  6551                           	psect	text37
  6552  002F4A                     __ptext37:
  6553                           	callstack 0
  6554  002F4A                     ___expand_heap:
  6555                           	callstack 18
  6556                           
  6557                           ; BSR set to: 0
  6558                           
  6559                           ; BSR set to: 0
  6560                           ;incstack = 0
  6561  002F4A  5160               	movf	___expand_heap@pn& (0+255),w,b
  6562  002F4C  6ED9               	movwf	fsr2l,c
  6563  002F4E  6ADA               	clrf	fsr2h,c
  6564  002F50  CFDE F064          	movff	postinc2,___expand_heap@n
  6565  002F54  CFDD F065          	movff	postdec2,___expand_heap@n+1
  6566                           
  6567                           ; BSR set to: 0
  6568  002F58  5032               	movf	_brkp^0,w,c
  6569  002F5A  1033               	iorwf	(_brkp+1)^0,w,c
  6570  002F5C  A4D8               	btfss	status,2,c
  6571  002F5E  D004               	goto	l1974
  6572                           
  6573                           ; BSR set to: 0
  6574  002F60  0E00               	movlw	low ___heap_hi
  6575  002F62  6E32               	movwf	_brkp^0,c
  6576  002F64  0E08               	movlw	high ___heap_hi
  6577  002F66  6E33               	movwf	(_brkp+1)^0,c
  6578  002F68                     l1974:
  6579                           
  6580                           ; BSR set to: 0
  6581  002F68  5165               	movf	(___expand_heap@n+1)& (0+255),w,b
  6582  002F6A  E108               	bnz	l7488
  6583  002F6C  0E06               	movlw	6
  6584  002F6E  5D64               	subwf	___expand_heap@n& (0+255),w,b
  6585  002F70  B0D8               	btfsc	status,0,c
  6586  002F72  D004               	goto	l7488
  6587                           
  6588                           ; BSR set to: 0
  6589  002F74  0E00               	movlw	0
  6590  002F76  6F65               	movwf	(___expand_heap@n+1)& (0+255),b
  6591  002F78  0E06               	movlw	6
  6592  002F7A  6F64               	movwf	___expand_heap@n& (0+255),b
  6593  002F7C                     l7488:
  6594                           
  6595                           ; BSR set to: 0
  6596  002F7C  5164               	movf	___expand_heap@n& (0+255),w,b
  6597  002F7E  5C32               	subwf	_brkp^0,w,c
  6598  002F80  6F66               	movwf	___expand_heap@new_brkp& (0+255),b
  6599  002F82  5165               	movf	(___expand_heap@n+1)& (0+255),w,b
  6600  002F84  5833               	subwfb	(_brkp+1)^0,w,c
  6601  002F86  6F67               	movwf	(___expand_heap@new_brkp+1)& (0+255),b
  6602                           
  6603                           ; BSR set to: 0
  6604  002F88  0EC8               	movlw	low ___heap_lo
  6605  002F8A  6F62               	movwf	??___expand_heap& (0+255),b
  6606  002F8C  0E06               	movlw	high ___heap_lo
  6607  002F8E  6F63               	movwf	(??___expand_heap+1)& (0+255),b
  6608  002F90  5162               	movf	??___expand_heap& (0+255),w,b
  6609  002F92  5D66               	subwf	___expand_heap@new_brkp& (0+255),w,b
  6610  002F94  5163               	movf	(??___expand_heap+1)& (0+255),w,b
  6611  002F96  5967               	subwfb	(___expand_heap@new_brkp+1)& (0+255),w,b
  6612  002F98  A0D8               	btfss	status,0,c
  6613  002F9A  D006               	goto	u6610
  6614                           
  6615                           ; BSR set to: 0
  6616  002F9C  5032               	movf	_brkp^0,w,c
  6617  002F9E  5D66               	subwf	___expand_heap@new_brkp& (0+255),w,b
  6618  002FA0  5033               	movf	(_brkp+1)^0,w,c
  6619  002FA2  5967               	subwfb	(___expand_heap@new_brkp+1)& (0+255),w,b
  6620  002FA4  A0D8               	btfss	status,0,c
  6621  002FA6  D00B               	goto	l7500
  6622  002FA8                     u6610:
  6623                           
  6624                           ; BSR set to: 0
  6625  002FA8  0E00               	movlw	0
  6626  002FAA  0101               	movlb	1	; () banked
  6627  002FAC  6F2B               	movwf	(_errno+1)& (0+255),b
  6628  002FAE  0E0C               	movlw	12
  6629  002FB0  6F2A               	movwf	_errno& (0+255),b
  6630                           
  6631                           ; BSR set to: 1
  6632  002FB2  0E00               	movlw	0
  6633  002FB4  0100               	movlb	0	; () banked
  6634  002FB6  6F60               	movwf	?___expand_heap& (0+255),b
  6635  002FB8  0E00               	movlw	0
  6636  002FBA  6F61               	movwf	(?___expand_heap+1)& (0+255),b
  6637  002FBC  0012               	return	
  6638  002FBE                     l7500:
  6639                           
  6640                           ; BSR set to: 0
  6641  002FBE  C066  F032         	movff	___expand_heap@new_brkp,_brkp
  6642  002FC2  C067  F033         	movff	___expand_heap@new_brkp+1,_brkp+1
  6643  002FC6  C032  F060         	movff	_brkp,?___expand_heap
  6644  002FCA  C033  F061         	movff	_brkp+1,?___expand_heap+1
  6645                           
  6646                           ; BSR set to: 0
  6647  002FCE  0012               	return		;funcret
  6648  002FD0                     __end_of___expand_heap:
  6649                           	callstack 0
  6650                           
  6651 ;; *************** function _FilaPop *****************
  6652 ;; Defined at:
  6653 ;;		line 38 in file "fila.c"
  6654 ;; Parameters:    Size  Location     Type
  6655 ;;  str             2   10[BANK0 ] PTR unsigned char 
  6656 ;;		 -> executeCommand@strCommand(30), writeBuffer(100), 
  6657 ;;  fila            2   12[BANK0 ] PTR struct Fila_T
  6658 ;;		 -> main@CommandList(6), 
  6659 ;; Auto vars:     Size  Location     Type
  6660 ;;  viejo           2   18[BANK0 ] PTR struct NodoComando_T
  6661 ;;		 -> __heap_hi(0), RAM(2047), NULL(0), 
  6662 ;; Return value:  Size  Location     Type
  6663 ;;                  2   10[BANK0 ] int 
  6664 ;; Registers used:
  6665 ;;		wreg, fsr1l, fsr1h, fsr2l, fsr2h, status,2, status,0, cstack
  6666 ;; Tracked objects:
  6667 ;;		On entry : 3F/0
  6668 ;;		On exit  : 3F/0
  6669 ;;		Unchanged: 0/0
  6670 ;; Data sizes:     COMRAM   BANK0   BANK1   BANK2   BANK3   BANK4   BANK5   BANK6   BANK7
  6671 ;;      Params:         0       4       0       0       0       0       0       0       0
  6672 ;;      Locals:         0       2       0       0       0       0       0       0       0
  6673 ;;      Temps:          0       4       0       0       0       0       0       0       0
  6674 ;;      Totals:         0      10       0       0       0       0       0       0       0
  6675 ;;Total ram usage:       10 bytes
  6676 ;; Hardware stack levels used: 1
  6677 ;; Hardware stack levels required when called: 11
  6678 ;; This function calls:
  6679 ;;		_free
  6680 ;;		_strcpy
  6681 ;; This function is called by:
  6682 ;;		_main
  6683 ;; This function uses a non-reentrant model
  6684 ;;
  6685                           
  6686                           	psect	text38
  6687  00214C                     __ptext38:
  6688                           	callstack 0
  6689  00214C                     _FilaPop:
  6690                           	callstack 19
  6691                           
  6692                           ; BSR set to: 0
  6693                           ;fila.c: 40:    NodoComando_T* viejo;;fila.c: 41:    if(fila->size>0){
  6694                           
  6695                           ; BSR set to: 0
  6696                           ;incstack = 0
  6697  00214C  EE20 F004          	lfsr	2,4
  6698  002150  516C               	movf	FilaPop@fila& (0+255),w,b
  6699  002152  26D9               	addwf	fsr2l,f,c
  6700  002154  516D               	movf	(FilaPop@fila+1)& (0+255),w,b
  6701  002156  22DA               	addwfc	fsr2h,f,c
  6702  002158  0E01               	movlw	1
  6703  00215A  BEDB               	btfsc	plusw2,7,c
  6704  00215C  D06E               	goto	l8326
  6705  00215E  0E01               	movlw	1
  6706  002160  50DB               	movf	plusw2,w,c
  6707  002162  E103               	bnz	u7200
  6708  002164  04DE               	decf	postinc2,w,c
  6709  002166  A0D8               	btfss	status,0,c
  6710  002168  D068               	goto	l8326
  6711  00216A                     u7200:
  6712                           
  6713                           ; BSR set to: 0
  6714                           ;fila.c: 42:       fila->size=fila->size-1;
  6715  00216A  0EFF               	movlw	255
  6716  00216C  6F6E               	movwf	??_FilaPop& (0+255),b
  6717  00216E  0EFF               	movlw	255
  6718  002170  6F6F               	movwf	(??_FilaPop+1)& (0+255),b
  6719  002172  EE20 F004          	lfsr	2,4
  6720  002176  516C               	movf	FilaPop@fila& (0+255),w,b
  6721  002178  26D9               	addwf	fsr2l,f,c
  6722  00217A  516D               	movf	(FilaPop@fila+1)& (0+255),w,b
  6723  00217C  22DA               	addwfc	fsr2h,f,c
  6724  00217E  CFDE F070          	movff	postinc2,??_FilaPop+2
  6725  002182  CFDD F071          	movff	postdec2,??_FilaPop+3
  6726  002186  516E               	movf	??_FilaPop& (0+255),w,b
  6727  002188  2770               	addwf	(??_FilaPop+2)& (0+255),f,b
  6728  00218A  516F               	movf	(??_FilaPop+1)& (0+255),w,b
  6729  00218C  2371               	addwfc	(??_FilaPop+3)& (0+255),f,b
  6730  00218E  EE20 F004          	lfsr	2,4
  6731  002192  516C               	movf	FilaPop@fila& (0+255),w,b
  6732  002194  26D9               	addwf	fsr2l,f,c
  6733  002196  516D               	movf	(FilaPop@fila+1)& (0+255),w,b
  6734  002198  22DA               	addwfc	fsr2h,f,c
  6735  00219A  C070  FFDE         	movff	??_FilaPop+2,postinc2
  6736  00219E  C071  FFDD         	movff	??_FilaPop+3,postdec2
  6737                           
  6738                           ; BSR set to: 0
  6739                           ;fila.c: 43:       strcpy(str,fila->cabeza->comando);
  6740  0021A2  C06A  F060         	movff	FilaPop@str,strcpy@dest
  6741  0021A6  C06B  F061         	movff	FilaPop@str+1,strcpy@dest+1
  6742  0021AA  C06C  FFD9         	movff	FilaPop@fila,fsr2l
  6743  0021AE  C06D  FFDA         	movff	FilaPop@fila+1,fsr2h
  6744  0021B2  CFDE F062          	movff	postinc2,strcpy@src
  6745  0021B6  CFDD F063          	movff	postdec2,strcpy@src+1
  6746  0021BA  ECF2  F019         	call	_strcpy	;wreg free
  6747                           
  6748                           ; BSR set to: 0
  6749                           ;fila.c: 44:       viejo=fila->cabeza;
  6750  0021BE  C06C  FFD9         	movff	FilaPop@fila,fsr2l
  6751  0021C2  C06D  FFDA         	movff	FilaPop@fila+1,fsr2h
  6752  0021C6  CFDE F072          	movff	postinc2,FilaPop@viejo
  6753  0021CA  CFDD F073          	movff	postdec2,FilaPop@viejo+1
  6754                           
  6755                           ; BSR set to: 0
  6756                           ;fila.c: 45:       if(fila->size==0){
  6757  0021CE  EE20 F004          	lfsr	2,4
  6758  0021D2  516C               	movf	FilaPop@fila& (0+255),w,b
  6759  0021D4  26D9               	addwf	fsr2l,f,c
  6760  0021D6  516D               	movf	(FilaPop@fila+1)& (0+255),w,b
  6761  0021D8  22DA               	addwfc	fsr2h,f,c
  6762  0021DA  50DE               	movf	postinc2,w,c
  6763  0021DC  10DE               	iorwf	postinc2,w,c
  6764  0021DE  A4D8               	btfss	status,2,c
  6765  0021E0  D013               	goto	l8318
  6766                           
  6767                           ; BSR set to: 0
  6768                           ;fila.c: 46:          fila->cola=((void*)0);
  6769  0021E2  EE20 F002          	lfsr	2,2
  6770  0021E6  516C               	movf	FilaPop@fila& (0+255),w,b
  6771  0021E8  26D9               	addwf	fsr2l,f,c
  6772  0021EA  516D               	movf	(FilaPop@fila+1)& (0+255),w,b
  6773  0021EC  22DA               	addwfc	fsr2h,f,c
  6774  0021EE  0E00               	movlw	0
  6775  0021F0  6EDE               	movwf	postinc2,c
  6776  0021F2  0E00               	movlw	0
  6777  0021F4  6EDD               	movwf	postdec2,c
  6778                           
  6779                           ; BSR set to: 0
  6780                           ;fila.c: 47:          fila->cabeza=((void*)0);
  6781  0021F6  C06C  FFD9         	movff	FilaPop@fila,fsr2l
  6782  0021FA  C06D  FFDA         	movff	FilaPop@fila+1,fsr2h
  6783  0021FE  0E00               	movlw	0
  6784  002200  6EDE               	movwf	postinc2,c
  6785  002202  0E00               	movlw	0
  6786  002204  6EDD               	movwf	postdec2,c
  6787                           
  6788                           ;fila.c: 48:       }
  6789  002206  D012               	goto	l8320
  6790  002208                     l8318:
  6791                           
  6792                           ; BSR set to: 0
  6793                           ;fila.c: 50:          fila->cabeza=fila->cabeza->next;
  6794  002208  C06C  FFD9         	movff	FilaPop@fila,fsr2l
  6795  00220C  C06D  FFDA         	movff	FilaPop@fila+1,fsr2h
  6796  002210  EE10 F01E          	lfsr	1,30
  6797  002214  50DE               	movf	postinc2,w,c
  6798  002216  26E1               	addwf	fsr1l,f,c
  6799  002218  50DD               	movf	postdec2,w,c
  6800  00221A  22E2               	addwfc	fsr1h,f,c
  6801  00221C  C06C  FFD9         	movff	FilaPop@fila,fsr2l
  6802  002220  C06D  FFDA         	movff	FilaPop@fila+1,fsr2h
  6803  002224  CFE6 FFDE          	movff	postinc1,postinc2
  6804  002228  CFE5 FFDD          	movff	postdec1,postdec2
  6805  00222C                     l8320:
  6806                           
  6807                           ; BSR set to: 0
  6808                           ;fila.c: 52:       free(viejo);
  6809  00222C  C072  F060         	movff	FilaPop@viejo,free@ptr
  6810  002230  C073  F061         	movff	FilaPop@viejo+1,free@ptr+1
  6811  002234  ECA5  F00B         	call	_free	;wreg free
  6812  002238  0012               	return	
  6813  00223A                     l8326:
  6814                           
  6815                           ; BSR set to: 0
  6816  00223A  C06A  FFD9         	movff	FilaPop@str,fsr2l
  6817  00223E  C06B  FFDA         	movff	FilaPop@str+1,fsr2h
  6818  002242  0E00               	movlw	0
  6819  002244  6EDF               	movwf	indf2,c
  6820                           
  6821                           ; BSR set to: 0
  6822  002246  0012               	return		;funcret
  6823  002248                     __end_of_FilaPop:
  6824                           	callstack 0
  6825                           
  6826 ;; *************** function _strcpy *****************
  6827 ;; Defined at:
  6828 ;;		line 3 in file "/Applications/microchip/xc8/v2.36/pic/sources/c99/common/strcpy.c"
  6829 ;; Parameters:    Size  Location     Type
  6830 ;;  dest            2    0[BANK0 ] PTR unsigned char 
  6831 ;;		 -> __heap_hi..(3), __heap_hi(0), getComands@buff(10), getTokens@buffer(20), 
  6832 ;;		 -> executeCommand@strCommand(30), lastToken(10), writeBuffer(100), RAM(2047), 
  6833 ;;		 -> NULL(0), 
  6834 ;;  src             2    2[BANK0 ] PTR const unsigned char 
  6835 ;;		 -> __heap_hi.comando(30), __heap_hi(0), executeCommand@strCommand(30), lastToken(10), 
  6836 ;;		 -> readBuffer(100), main@buf(20), RAM(2047), NULL(0), 
  6837 ;; Auto vars:     Size  Location     Type
  6838 ;;  d               2    6[BANK0 ] PTR unsigned char 
  6839 ;;		 -> __heap_hi..(3), __heap_hi(0), getComands@buff(10), getTokens@buffer(20), 
  6840 ;;		 -> executeCommand@strCommand(30), lastToken(10), writeBuffer(100), RAM(2047), 
  6841 ;;		 -> NULL(0), 
  6842 ;;  s               2    4[BANK0 ] PTR const unsigned char 
  6843 ;;		 -> __heap_hi.comando(30), __heap_hi(0), executeCommand@strCommand(30), lastToken(10), 
  6844 ;;		 -> readBuffer(100), main@buf(20), RAM(2047), NULL(0), 
  6845 ;; Return value:  Size  Location     Type
  6846 ;;                  2    0[BANK0 ] PTR unsigned char 
  6847 ;; Registers used:
  6848 ;;		wreg, fsr1l, fsr1h, fsr2l, fsr2h, status,2, status,0
  6849 ;; Tracked objects:
  6850 ;;		On entry : 3F/0
  6851 ;;		On exit  : 3F/0
  6852 ;;		Unchanged: 0/0
  6853 ;; Data sizes:     COMRAM   BANK0   BANK1   BANK2   BANK3   BANK4   BANK5   BANK6   BANK7
  6854 ;;      Params:         0       4       0       0       0       0       0       0       0
  6855 ;;      Locals:         0       4       0       0       0       0       0       0       0
  6856 ;;      Temps:          0       0       0       0       0       0       0       0       0
  6857 ;;      Totals:         0       8       0       0       0       0       0       0       0
  6858 ;;Total ram usage:        8 bytes
  6859 ;; Hardware stack levels used: 1
  6860 ;; Hardware stack levels required when called: 10
  6861 ;; This function calls:
  6862 ;;		Nothing
  6863 ;; This function is called by:
  6864 ;;		_Fila_Agregar
  6865 ;;		_FilaPop
  6866 ;;		_getTokens
  6867 ;; This function uses a non-reentrant model
  6868 ;;
  6869                           
  6870                           	psect	text39
  6871  0033E4                     __ptext39:
  6872                           	callstack 0
  6873  0033E4                     _strcpy:
  6874                           	callstack 19
  6875                           
  6876                           ; BSR set to: 0
  6877                           
  6878                           ; BSR set to: 0
  6879                           ;incstack = 0
  6880  0033E4  C062  F064         	movff	strcpy@src,strcpy@s
  6881  0033E8  C063  F065         	movff	strcpy@src+1,strcpy@s+1
  6882  0033EC  C060  F066         	movff	strcpy@dest,strcpy@d
  6883  0033F0  C061  F067         	movff	strcpy@dest+1,strcpy@d+1
  6884  0033F4                     l7744:
  6885                           
  6886                           ; BSR set to: 0
  6887  0033F4  C064  FFD9         	movff	strcpy@s,fsr2l
  6888  0033F8  C065  FFDA         	movff	strcpy@s+1,fsr2h
  6889  0033FC  4B64               	infsnz	strcpy@s& (0+255),f,b
  6890  0033FE  2B65               	incf	(strcpy@s+1)& (0+255),f,b
  6891  003400  C066  FFE1         	movff	strcpy@d,fsr1l
  6892  003404  C067  FFE2         	movff	strcpy@d+1,fsr1h
  6893  003408  4B66               	infsnz	strcpy@d& (0+255),f,b
  6894  00340A  2B67               	incf	(strcpy@d+1)& (0+255),f,b
  6895  00340C  CFDF FFE7          	movff	indf2,indf1
  6896  003410  50E7               	movf	indf1,w,c
  6897  003412  B4D8               	btfsc	status,2,c
  6898  003414  0012               	return	
  6899  003416  D7EE               	goto	l7744
  6900  003418                     __end_of_strcpy:
  6901                           	callstack 0
  6902                           
  6903 ;; *************** function _free *****************
  6904 ;; Defined at:
  6905 ;;		line 67 in file "/Applications/microchip/xc8/v2.36/pic/sources/c99/common/lite_free.c"
  6906 ;; Parameters:    Size  Location     Type
  6907 ;;  ptr             2    0[BANK0 ] PTR void 
  6908 ;;		 -> __heap_hi(0), RAM(2047), NULL(0), 
  6909 ;; Auto vars:     Size  Location     Type
  6910 ;;  c               2    8[BANK0 ] PTR struct chunk
  6911 ;;		 -> __heap_hi(0), RAM(2047), NULL(0), 
  6912 ;;  cptr            2    6[BANK0 ] PTR unsigned char 
  6913 ;;		 -> __heap_hi(0), RAM(2047), NULL(0), 
  6914 ;; Return value:  Size  Location     Type
  6915 ;;                  1    wreg      void 
  6916 ;; Registers used:
  6917 ;;		wreg, fsr1l, fsr1h, fsr2l, fsr2h, status,2, status,0
  6918 ;; Tracked objects:
  6919 ;;		On entry : 3F/0
  6920 ;;		On exit  : 3F/0
  6921 ;;		Unchanged: 0/0
  6922 ;; Data sizes:     COMRAM   BANK0   BANK1   BANK2   BANK3   BANK4   BANK5   BANK6   BANK7
  6923 ;;      Params:         0       2       0       0       0       0       0       0       0
  6924 ;;      Locals:         0       4       0       0       0       0       0       0       0
  6925 ;;      Temps:          0       4       0       0       0       0       0       0       0
  6926 ;;      Totals:         0      10       0       0       0       0       0       0       0
  6927 ;;Total ram usage:       10 bytes
  6928 ;; Hardware stack levels used: 1
  6929 ;; Hardware stack levels required when called: 10
  6930 ;; This function calls:
  6931 ;;		Nothing
  6932 ;; This function is called by:
  6933 ;;		_FilaPop
  6934 ;; This function uses a non-reentrant model
  6935 ;;
  6936                           
  6937                           	psect	text40
  6938  00174A                     __ptext40:
  6939                           	callstack 0
  6940  00174A                     _free:
  6941                           	callstack 19
  6942                           
  6943                           ; BSR set to: 0
  6944                           
  6945                           ; BSR set to: 0
  6946                           ;incstack = 0
  6947  00174A  C060  F066         	movff	free@ptr,free@cptr
  6948  00174E  C061  F067         	movff	free@ptr+1,free@cptr+1
  6949  001752  5160               	movf	free@ptr& (0+255),w,b
  6950  001754  1161               	iorwf	(free@ptr+1)& (0+255),w,b
  6951  001756  B4D8               	btfsc	status,2,c
  6952  001758  0012               	return	
  6953                           
  6954                           ; BSR set to: 0
  6955  00175A  0EFE               	movlw	254
  6956  00175C  2566               	addwf	free@cptr& (0+255),w,b
  6957  00175E  6F68               	movwf	free@c& (0+255),b
  6958  001760  0EFF               	movlw	255
  6959  001762  2167               	addwfc	(free@cptr+1)& (0+255),w,b
  6960  001764  6F69               	movwf	(free@c+1)& (0+255),b
  6961  001766  5034               	movf	___freelist^0,w,c
  6962  001768  1035               	iorwf	(___freelist+1)^0,w,c
  6963  00176A  B4D8               	btfsc	status,2,c
  6964  00176C  D07B               	goto	l7822
  6965                           
  6966                           ; BSR set to: 0
  6967  00176E  C068  FFD9         	movff	free@c,fsr2l
  6968  001772  C069  FFDA         	movff	free@c+1,fsr2h
  6969  001776  CFDE F062          	movff	postinc2,??_free
  6970  00177A  CFDD F063          	movff	postdec2,??_free+1
  6971  00177E  C066  F064         	movff	free@cptr,??_free+2
  6972  001782  C067  F065         	movff	free@cptr+1,??_free+3
  6973  001786  5162               	movf	??_free& (0+255),w,b
  6974  001788  2764               	addwf	(??_free+2)& (0+255),f,b
  6975  00178A  5163               	movf	(??_free+1)& (0+255),w,b
  6976  00178C  2365               	addwfc	(??_free+3)& (0+255),f,b
  6977  00178E  5034               	movf	___freelist^0,w,c
  6978  001790  1964               	xorwf	(??_free+2)& (0+255),w,b
  6979  001792  E12D               	bnz	l7814
  6980  001794  5035               	movf	(___freelist+1)^0,w,c
  6981  001796  1965               	xorwf	(??_free+3)& (0+255),w,b
  6982  001798  A4D8               	btfss	status,2,c
  6983  00179A  D029               	goto	l7814
  6984                           
  6985                           ; BSR set to: 0
  6986  00179C  EE20 F002          	lfsr	2,2
  6987  0017A0  5034               	movf	___freelist^0,w,c
  6988  0017A2  26D9               	addwf	fsr2l,f,c
  6989  0017A4  5035               	movf	(___freelist+1)^0,w,c
  6990  0017A6  22DA               	addwfc	fsr2h,f,c
  6991  0017A8  EE10 F002          	lfsr	1,2
  6992  0017AC  5168               	movf	free@c& (0+255),w,b
  6993  0017AE  26E1               	addwf	fsr1l,f,c
  6994  0017B0  5169               	movf	(free@c+1)& (0+255),w,b
  6995  0017B2  22E2               	addwfc	fsr1h,f,c
  6996  0017B4  CFDE FFE6          	movff	postinc2,postinc1
  6997  0017B8  CFDD FFE5          	movff	postdec2,postdec1
  6998                           
  6999                           ; BSR set to: 0
  7000  0017BC  C034  FFD9         	movff	___freelist,fsr2l
  7001  0017C0  C035  FFDA         	movff	___freelist+1,fsr2h
  7002  0017C4  CFDE F062          	movff	postinc2,??_free
  7003  0017C8  CFDD F063          	movff	postdec2,??_free+1
  7004  0017CC  0E02               	movlw	2
  7005  0017CE  2762               	addwf	??_free& (0+255),f,b
  7006  0017D0  0E00               	movlw	0
  7007  0017D2  2363               	addwfc	(??_free+1)& (0+255),f,b
  7008  0017D4  C068  FFD9         	movff	free@c,fsr2l
  7009  0017D8  C069  FFDA         	movff	free@c+1,fsr2h
  7010  0017DC  5162               	movf	??_free& (0+255),w,b
  7011  0017DE  26DE               	addwf	postinc2,f,c
  7012  0017E0  5163               	movf	(??_free+1)& (0+255),w,b
  7013  0017E2  22DD               	addwfc	postdec2,f,c
  7014  0017E4                     l7808:
  7015                           
  7016                           ; BSR set to: 0
  7017  0017E4  C068  F034         	movff	free@c,___freelist
  7018  0017E8  C069  F035         	movff	free@c+1,___freelist+1
  7019  0017EC  0012               	return	
  7020  0017EE                     l7814:
  7021                           
  7022                           ; BSR set to: 0
  7023  0017EE  C034  FFD9         	movff	___freelist,fsr2l
  7024  0017F2  C035  FFDA         	movff	___freelist+1,fsr2h
  7025  0017F6  CFDE F062          	movff	postinc2,??_free
  7026  0017FA  CFDD F063          	movff	postdec2,??_free+1
  7027  0017FE  C034  F064         	movff	___freelist,??_free+2
  7028  001802  C035  F065         	movff	___freelist+1,??_free+3
  7029  001806  5162               	movf	??_free& (0+255),w,b
  7030  001808  2764               	addwf	(??_free+2)& (0+255),f,b
  7031  00180A  5163               	movf	(??_free+1)& (0+255),w,b
  7032  00180C  2365               	addwfc	(??_free+3)& (0+255),f,b
  7033  00180E  0E02               	movlw	2
  7034  001810  2764               	addwf	(??_free+2)& (0+255),f,b
  7035  001812  0E00               	movlw	0
  7036  001814  2365               	addwfc	(??_free+3)& (0+255),f,b
  7037  001816  5168               	movf	free@c& (0+255),w,b
  7038  001818  1964               	xorwf	(??_free+2)& (0+255),w,b
  7039  00181A  E119               	bnz	l7820
  7040  00181C  5169               	movf	(free@c+1)& (0+255),w,b
  7041  00181E  1965               	xorwf	(??_free+3)& (0+255),w,b
  7042  001820  A4D8               	btfss	status,2,c
  7043  001822  D015               	goto	l7820
  7044                           
  7045                           ; BSR set to: 0
  7046  001824  C068  FFD9         	movff	free@c,fsr2l
  7047  001828  C069  FFDA         	movff	free@c+1,fsr2h
  7048  00182C  CFDE F062          	movff	postinc2,??_free
  7049  001830  CFDD F063          	movff	postdec2,??_free+1
  7050  001834  0E02               	movlw	2
  7051  001836  2762               	addwf	??_free& (0+255),f,b
  7052  001838  0E00               	movlw	0
  7053  00183A  2363               	addwfc	(??_free+1)& (0+255),f,b
  7054  00183C  C034  FFD9         	movff	___freelist,fsr2l
  7055  001840  C035  FFDA         	movff	___freelist+1,fsr2h
  7056  001844  5162               	movf	??_free& (0+255),w,b
  7057  001846  26DE               	addwf	postinc2,f,c
  7058  001848  5163               	movf	(??_free+1)& (0+255),w,b
  7059  00184A  22DD               	addwfc	postdec2,f,c
  7060  00184C  0012               	return	
  7061  00184E                     l7820:
  7062                           
  7063                           ; BSR set to: 0
  7064  00184E  EE20 F002          	lfsr	2,2
  7065  001852  5168               	movf	free@c& (0+255),w,b
  7066  001854  26D9               	addwf	fsr2l,f,c
  7067  001856  5169               	movf	(free@c+1)& (0+255),w,b
  7068  001858  22DA               	addwfc	fsr2h,f,c
  7069  00185A  C034  FFDE         	movff	___freelist,postinc2
  7070  00185E  C035  FFDD         	movff	___freelist+1,postdec2
  7071  001862  D7C0               	goto	l7808
  7072  001864                     l7822:
  7073                           
  7074                           ; BSR set to: 0
  7075  001864  EE20 F002          	lfsr	2,2
  7076  001868  5168               	movf	free@c& (0+255),w,b
  7077  00186A  26D9               	addwf	fsr2l,f,c
  7078  00186C  5169               	movf	(free@c+1)& (0+255),w,b
  7079  00186E  22DA               	addwfc	fsr2h,f,c
  7080  001870  0E00               	movlw	0
  7081  001872  6EDE               	movwf	postinc2,c
  7082  001874  0E00               	movlw	0
  7083  001876  6EDD               	movwf	postdec2,c
  7084  001878  D7B5               	goto	l7808
  7085  00187A                     __end_of_free:
  7086                           	callstack 0
  7087                           
  7088 ;; *************** function _CDCTxService *****************
  7089 ;; Defined at:
  7090 ;;		line 854 in file "mcc_generated_files/usb/usb_device_cdc.c"
  7091 ;; Parameters:    Size  Location     Type
  7092 ;;		None
  7093 ;; Auto vars:     Size  Location     Type
  7094 ;;  byte_to_send    1   10[BANK0 ] unsigned char 
  7095 ;;  i               1    9[BANK0 ] unsigned char 
  7096 ;; Return value:  Size  Location     Type
  7097 ;;                  1    wreg      void 
  7098 ;; Registers used:
  7099 ;;		wreg, fsr1l, fsr1h, fsr2l, fsr2h, status,2, status,0, prodl, prodh, cstack
  7100 ;; Tracked objects:
  7101 ;;		On entry : 3F/0
  7102 ;;		On exit  : 3F/0
  7103 ;;		Unchanged: 0/0
  7104 ;; Data sizes:     COMRAM   BANK0   BANK1   BANK2   BANK3   BANK4   BANK5   BANK6   BANK7
  7105 ;;      Params:         0       0       0       0       0       0       0       0       0
  7106 ;;      Locals:         0       2       0       0       0       0       0       0       0
  7107 ;;      Temps:          0       0       0       0       0       0       0       0       0
  7108 ;;      Totals:         0       2       0       0       0       0       0       0       0
  7109 ;;Total ram usage:        2 bytes
  7110 ;; Hardware stack levels used: 1
  7111 ;; Hardware stack levels required when called: 11
  7112 ;; This function calls:
  7113 ;;		_USBTransferOnePacket
  7114 ;; This function is called by:
  7115 ;;		_main
  7116 ;; This function uses a non-reentrant model
  7117 ;;
  7118                           
  7119                           	psect	text41
  7120  001BDC                     __ptext41:
  7121                           	callstack 0
  7122  001BDC                     _CDCTxService:
  7123                           	callstack 19
  7124                           
  7125                           ; BSR set to: 0
  7126                           ;mcc_generated_files/usb/usb_device_cdc.c: 856:     uint8_t byte_to_send;;mcc_generated_
      +                          files/usb/usb_device_cdc.c: 857:     uint8_t i;;mcc_generated_files/usb/usb_device_cdc.c
      +                          : 859:     {PIE3bits.USBIE = 0;};
  7127                           
  7128                           ; BSR set to: 0
  7129                           ;incstack = 0
  7130  001BDC  94A3               	bcf	163,2,c	;volatile
  7131                           
  7132                           ; BSR set to: 0
  7133                           ;mcc_generated_files/usb/usb_device_cdc.c: 861:     {};;mcc_generated_files/usb/usb_devi
      +                          ce_cdc.c: 863:     if(((CDCDataInHandle != 0x0000) && ((*(volatile uint8_t*)CDCDataInHan
      +                          dle & 0x80) != 0x00)))
  7134  001BDE  51E1               	movf	_CDCDataInHandle& (0+255),w,b
  7135  001BE0  11E2               	iorwf	(_CDCDataInHandle+1)& (0+255),w,b
  7136  001BE2  B4D8               	btfsc	status,2,c
  7137  001BE4  D008               	goto	l7880
  7138                           
  7139                           ; BSR set to: 0
  7140  001BE6  C0E1  FFD9         	movff	_CDCDataInHandle,fsr2l
  7141  001BEA  C0E2  FFDA         	movff	_CDCDataInHandle+1,fsr2h
  7142  001BEE  AEDF               	btfss	indf2,7,c
  7143  001BF0  D002               	goto	l7880
  7144                           
  7145                           ; BSR set to: 0
  7146                           ;mcc_generated_files/usb/usb_device_cdc.c: 864:     {;mcc_generated_files/usb/usb_device
      +                          _cdc.c: 865:         {PIE3bits.USBIE = 1;};
  7147  001BF2  84A3               	bsf	163,2,c	;volatile
  7148                           
  7149                           ;mcc_generated_files/usb/usb_device_cdc.c: 866:         return;
  7150  001BF4  0012               	return	
  7151  001BF6                     l7880:
  7152                           
  7153                           ; BSR set to: 0
  7154                           ;mcc_generated_files/usb/usb_device_cdc.c: 874:     if(cdc_trf_state == 3)
  7155  001BF6  0E03               	movlw	3
  7156  001BF8  1844               	xorwf	_cdc_trf_state^0,w,c
  7157  001BFA  A4D8               	btfss	status,2,c
  7158  001BFC  D002               	goto	l528
  7159                           
  7160                           ; BSR set to: 0
  7161                           ;mcc_generated_files/usb/usb_device_cdc.c: 875:         cdc_trf_state = 0;
  7162  001BFE  0E00               	movlw	0
  7163  001C00  6E44               	movwf	_cdc_trf_state^0,c
  7164  001C02                     l528:
  7165                           
  7166                           ; BSR set to: 0
  7167                           ;mcc_generated_files/usb/usb_device_cdc.c: 880:     if(cdc_trf_state == 0)
  7168  001C02  5044               	movf	_cdc_trf_state^0,w,c
  7169  001C04  A4D8               	btfss	status,2,c
  7170  001C06  D002               	goto	l7886
  7171                           
  7172                           ; BSR set to: 0
  7173                           ;mcc_generated_files/usb/usb_device_cdc.c: 881:     {;mcc_generated_files/usb/usb_device
      +                          _cdc.c: 882:         {PIE3bits.USBIE = 1;};
  7174  001C08  84A3               	bsf	163,2,c	;volatile
  7175                           
  7176                           ;mcc_generated_files/usb/usb_device_cdc.c: 883:         return;
  7177  001C0A  0012               	return	
  7178  001C0C                     l7886:
  7179                           
  7180                           ; BSR set to: 0
  7181                           ;mcc_generated_files/usb/usb_device_cdc.c: 889:     if(cdc_trf_state == 2)
  7182  001C0C  0E02               	movlw	2
  7183  001C0E  1844               	xorwf	_cdc_trf_state^0,w,c
  7184  001C10  A4D8               	btfss	status,2,c
  7185  001C12  D012               	goto	l7892
  7186                           
  7187                           ; BSR set to: 0
  7188                           ;mcc_generated_files/usb/usb_device_cdc.c: 890:     {;mcc_generated_files/usb/usb_device
      +                          _cdc.c: 891:         CDCDataInHandle = USBTransferOnePacket(2,1,((void*)0),0);
  7189  001C14  0E01               	movlw	1
  7190  001C16  6F60               	movwf	USBTransferOnePacket@dir& (0+255),b
  7191  001C18  0E00               	movlw	0
  7192  001C1A  6F61               	movwf	USBTransferOnePacket@data& (0+255),b
  7193  001C1C  0E00               	movlw	0
  7194  001C1E  6F62               	movwf	(USBTransferOnePacket@data+1)& (0+255),b
  7195  001C20  0E00               	movlw	0
  7196  001C22  6F63               	movwf	USBTransferOnePacket@len& (0+255),b
  7197  001C24  0E02               	movlw	2
  7198  001C26  ECA0  F011         	call	_USBTransferOnePacket
  7199  001C2A  C060  F0E1         	movff	?_USBTransferOnePacket,_CDCDataInHandle
  7200  001C2E  C061  F0E2         	movff	?_USBTransferOnePacket+1,_CDCDataInHandle+1
  7201                           
  7202                           ; BSR set to: 0
  7203                           ;mcc_generated_files/usb/usb_device_cdc.c: 893:         cdc_trf_state = 3;
  7204  001C32  0E03               	movlw	3
  7205  001C34  6E44               	movwf	_cdc_trf_state^0,c
  7206                           
  7207                           ;mcc_generated_files/usb/usb_device_cdc.c: 894:     }
  7208  001C36  D05E               	goto	l7936
  7209  001C38                     l7892:
  7210                           
  7211                           ; BSR set to: 0
  7212  001C38  0444               	decf	_cdc_trf_state^0,w,c
  7213  001C3A  A4D8               	btfss	status,2,c
  7214  001C3C  D05B               	goto	l7936
  7215                           
  7216                           ; BSR set to: 0
  7217                           ;mcc_generated_files/usb/usb_device_cdc.c: 896:     {;mcc_generated_files/usb/usb_device
      +                          _cdc.c: 900:      if(cdc_tx_len > sizeof(cdc_data_tx))
  7218  001C3E  0E40               	movlw	64
  7219  001C40  6443               	cpfsgt	_cdc_tx_len^0,c
  7220  001C42  D003               	goto	l533
  7221                           
  7222                           ; BSR set to: 0
  7223                           ;mcc_generated_files/usb/usb_device_cdc.c: 901:          byte_to_send = sizeof(cdc_data_
      +                          tx);
  7224  001C44  0E40               	movlw	64
  7225  001C46  6F6A               	movwf	CDCTxService@byte_to_send& (0+255),b
  7226  001C48  D002               	goto	l7898
  7227  001C4A                     l533:
  7228                           
  7229                           ; BSR set to: 0
  7230                           ;mcc_generated_files/usb/usb_device_cdc.c: 903:          byte_to_send = cdc_tx_len;
  7231  001C4A  C043  F06A         	movff	_cdc_tx_len,CDCTxService@byte_to_send
  7232  001C4E                     l7898:
  7233                           
  7234                           ; BSR set to: 0
  7235                           ;mcc_generated_files/usb/usb_device_cdc.c: 908:      cdc_tx_len = cdc_tx_len - byte_to_s
      +                          end;
  7236  001C4E  516A               	movf	CDCTxService@byte_to_send& (0+255),w,b
  7237  001C50  5C43               	subwf	_cdc_tx_len^0,w,c
  7238  001C52  6E43               	movwf	_cdc_tx_len^0,c
  7239                           
  7240                           ;mcc_generated_files/usb/usb_device_cdc.c: 910:         pCDCDst.bRam = (uint8_t*)&cdc_da
      +                          ta_tx;
  7241  001C54  0E00               	movlw	0
  7242  001C56  0101               	movlb	1	; () banked
  7243  001C58  6F1E               	movwf	_pCDCDst& (0+255),b
  7244  001C5A  0E05               	movlw	5
  7245  001C5C  6F1F               	movwf	(_pCDCDst+1)& (0+255),b
  7246                           
  7247                           ; BSR set to: 1
  7248                           ;mcc_generated_files/usb/usb_device_cdc.c: 912:         i = byte_to_send;
  7249  001C5E  C06A  F069         	movff	CDCTxService@byte_to_send,CDCTxService@i
  7250                           
  7251                           ; BSR set to: 1
  7252                           ;mcc_generated_files/usb/usb_device_cdc.c: 913:         if(cdc_mem_type == 0x00)
  7253  001C62  5042               	movf	_cdc_mem_type^0,w,c
  7254  001C64  B4D8               	btfsc	status,2,c
  7255  001C66  D012               	goto	l7914
  7256  001C68  D027               	goto	l7924
  7257  001C6A                     l7906:
  7258                           
  7259                           ; BSR set to: 0
  7260                           ;mcc_generated_files/usb/usb_device_cdc.c: 916:             {;mcc_generated_files/usb/us
      +                          b_device_cdc.c: 917:                 *pCDCDst.bRam = *pCDCSrc.bRom;
  7261  001C6A  C121  FFD9         	movff	_pCDCSrc,fsr2l
  7262  001C6E  C122  FFDA         	movff	_pCDCSrc+1,fsr2h
  7263  001C72  C11E  FFE1         	movff	_pCDCDst,fsr1l
  7264  001C76  C11F  FFE2         	movff	_pCDCDst+1,fsr1h
  7265  001C7A  CFDF FFE7          	movff	indf2,indf1
  7266                           
  7267                           ; BSR set to: 0
  7268                           ;mcc_generated_files/usb/usb_device_cdc.c: 918:                 pCDCDst.bRam++;
  7269  001C7E  0101               	movlb	1	; () banked
  7270  001C80  4B1E               	infsnz	_pCDCDst& (0+255),f,b
  7271  001C82  2B1F               	incf	(_pCDCDst+1)& (0+255),f,b
  7272                           
  7273                           ; BSR set to: 1
  7274                           ;mcc_generated_files/usb/usb_device_cdc.c: 919:                 pCDCSrc.bRom++;
  7275  001C84  4B21               	infsnz	_pCDCSrc& (0+255),f,b
  7276  001C86  2B22               	incf	(_pCDCSrc+1)& (0+255),f,b
  7277                           
  7278                           ; BSR set to: 1
  7279                           ;mcc_generated_files/usb/usb_device_cdc.c: 920:                 i--;
  7280  001C88  0100               	movlb	0	; () banked
  7281  001C8A  0769               	decf	CDCTxService@i& (0+255),f,b
  7282  001C8C                     l7914:
  7283                           
  7284                           ;mcc_generated_files/usb/usb_device_cdc.c: 915:             while(i)
  7285  001C8C  0100               	movlb	0	; () banked
  7286  001C8E  5169               	movf	CDCTxService@i& (0+255),w,b
  7287  001C90  B4D8               	btfsc	status,2,c
  7288  001C92  D016               	goto	u7030
  7289  001C94  D7EA               	goto	l7906
  7290  001C96                     l7916:
  7291                           
  7292                           ; BSR set to: 0
  7293                           ;mcc_generated_files/usb/usb_device_cdc.c: 926:             {;mcc_generated_files/usb/us
      +                          b_device_cdc.c: 927:                 *pCDCDst.bRam = *pCDCSrc.bRam;
  7294  001C96  C121  FFD9         	movff	_pCDCSrc,fsr2l
  7295  001C9A  C122  FFDA         	movff	_pCDCSrc+1,fsr2h
  7296  001C9E  C11E  FFE1         	movff	_pCDCDst,fsr1l
  7297  001CA2  C11F  FFE2         	movff	_pCDCDst+1,fsr1h
  7298  001CA6  CFDF FFE7          	movff	indf2,indf1
  7299                           
  7300                           ; BSR set to: 0
  7301                           ;mcc_generated_files/usb/usb_device_cdc.c: 928:                 pCDCDst.bRam++;
  7302  001CAA  0101               	movlb	1	; () banked
  7303  001CAC  4B1E               	infsnz	_pCDCDst& (0+255),f,b
  7304  001CAE  2B1F               	incf	(_pCDCDst+1)& (0+255),f,b
  7305                           
  7306                           ; BSR set to: 1
  7307                           ;mcc_generated_files/usb/usb_device_cdc.c: 929:                 pCDCSrc.bRam++;
  7308  001CB0  4B21               	infsnz	_pCDCSrc& (0+255),f,b
  7309  001CB2  2B22               	incf	(_pCDCSrc+1)& (0+255),f,b
  7310                           
  7311                           ; BSR set to: 1
  7312                           ;mcc_generated_files/usb/usb_device_cdc.c: 930:                 i--;
  7313  001CB4  0100               	movlb	0	; () banked
  7314  001CB6  0769               	decf	CDCTxService@i& (0+255),f,b
  7315  001CB8                     l7924:
  7316                           
  7317                           ;mcc_generated_files/usb/usb_device_cdc.c: 925:             while(i)
  7318  001CB8  0100               	movlb	0	; () banked
  7319  001CBA  5169               	movf	CDCTxService@i& (0+255),w,b
  7320  001CBC  A4D8               	btfss	status,2,c
  7321  001CBE  D7EB               	goto	l7916
  7322  001CC0                     u7030:
  7323                           
  7324                           ; BSR set to: 0
  7325                           ;mcc_generated_files/usb/usb_device_cdc.c: 938:         if(cdc_tx_len == 0)
  7326  001CC0  5043               	movf	_cdc_tx_len^0,w,c
  7327  001CC2  A4D8               	btfss	status,2,c
  7328  001CC4  D008               	goto	l7934
  7329                           
  7330                           ; BSR set to: 0
  7331                           ;mcc_generated_files/usb/usb_device_cdc.c: 939:         {;mcc_generated_files/usb/usb_de
      +                          vice_cdc.c: 940:             if(byte_to_send == 64)
  7332  001CC6  0E40               	movlw	64
  7333  001CC8  196A               	xorwf	CDCTxService@byte_to_send& (0+255),w,b
  7334  001CCA  A4D8               	btfss	status,2,c
  7335  001CCC  D002               	goto	l7932
  7336                           
  7337                           ; BSR set to: 0
  7338                           ;mcc_generated_files/usb/usb_device_cdc.c: 941:                 cdc_trf_state = 2;
  7339  001CCE  0E02               	movlw	2
  7340  001CD0  D001               	goto	L3
  7341  001CD2                     l7932:
  7342                           
  7343                           ; BSR set to: 0
  7344                           ;mcc_generated_files/usb/usb_device_cdc.c: 943:                 cdc_trf_state = 3;
  7345  001CD2  0E03               	movlw	3
  7346  001CD4                     L3:
  7347  001CD4  6E44               	movwf	_cdc_trf_state^0,c
  7348  001CD6                     l7934:
  7349                           
  7350                           ; BSR set to: 0
  7351                           ;mcc_generated_files/usb/usb_device_cdc.c: 945:         CDCDataInHandle = USBTransferOne
      +                          Packet(2,1,(uint8_t*)&cdc_data_tx,byte_to_send);
  7352  001CD6  0E01               	movlw	1
  7353  001CD8  6F60               	movwf	USBTransferOnePacket@dir& (0+255),b
  7354  001CDA  0E00               	movlw	0
  7355  001CDC  6F61               	movwf	USBTransferOnePacket@data& (0+255),b
  7356  001CDE  0E05               	movlw	5
  7357  001CE0  6F62               	movwf	(USBTransferOnePacket@data+1)& (0+255),b
  7358  001CE2  C06A  F063         	movff	CDCTxService@byte_to_send,USBTransferOnePacket@len
  7359  001CE6  0E02               	movlw	2
  7360  001CE8  ECA0  F011         	call	_USBTransferOnePacket
  7361  001CEC  C060  F0E1         	movff	?_USBTransferOnePacket,_CDCDataInHandle
  7362  001CF0  C061  F0E2         	movff	?_USBTransferOnePacket+1,_CDCDataInHandle+1
  7363  001CF4                     l7936:
  7364                           
  7365                           ; BSR set to: 0
  7366                           ;mcc_generated_files/usb/usb_device_cdc.c: 949:     {PIE3bits.USBIE = 1;};
  7367  001CF4  84A3               	bsf	163,2,c	;volatile
  7368                           
  7369                           ; BSR set to: 0
  7370  001CF6  0012               	return		;funcret
  7371  001CF8                     __end_of_CDCTxService:
  7372                           	callstack 0
  7373                           
  7374 ;; *************** function _USBTransferOnePacket *****************
  7375 ;; Defined at:
  7376 ;;		line 999 in file "mcc_generated_files/usb/usb_device.c"
  7377 ;; Parameters:    Size  Location     Type
  7378 ;;  ep              1    wreg     unsigned char 
  7379 ;;  dir             1    0[BANK0 ] unsigned char 
  7380 ;;  data            2    1[BANK0 ] PTR unsigned char 
  7381 ;;		 -> cdc_data_tx(64), cdc_data_rx(64), NULL(0), 
  7382 ;;  len             1    3[BANK0 ] unsigned char 
  7383 ;; Auto vars:     Size  Location     Type
  7384 ;;  ep              1    6[BANK0 ] unsigned char 
  7385 ;;  handle          2    7[BANK0 ] PTR volatile struct __BD
  7386 ;;		 -> RAM(2047), NULL(0), BDT(48), 
  7387 ;; Return value:  Size  Location     Type
  7388 ;;                  2    0[BANK0 ] PTR void 
  7389 ;; Registers used:
  7390 ;;		wreg, fsr2l, fsr2h, status,2, status,0, prodl, prodh
  7391 ;; Tracked objects:
  7392 ;;		On entry : 3F/0
  7393 ;;		On exit  : 3F/0
  7394 ;;		Unchanged: 0/0
  7395 ;; Data sizes:     COMRAM   BANK0   BANK1   BANK2   BANK3   BANK4   BANK5   BANK6   BANK7
  7396 ;;      Params:         0       4       0       0       0       0       0       0       0
  7397 ;;      Locals:         0       3       0       0       0       0       0       0       0
  7398 ;;      Temps:          0       2       0       0       0       0       0       0       0
  7399 ;;      Totals:         0       9       0       0       0       0       0       0       0
  7400 ;;Total ram usage:        9 bytes
  7401 ;; Hardware stack levels used: 1
  7402 ;; Hardware stack levels required when called: 10
  7403 ;; This function calls:
  7404 ;;		Nothing
  7405 ;; This function is called by:
  7406 ;;		_CDCTxService
  7407 ;;		_getsUSBUSART
  7408 ;; This function uses a non-reentrant model
  7409 ;;
  7410                           
  7411                           	psect	text42
  7412  002340                     __ptext42:
  7413                           	callstack 0
  7414  002340                     _USBTransferOnePacket:
  7415                           	callstack 19
  7416                           
  7417                           ; BSR set to: 0
  7418                           ;incstack = 0
  7419                           ;USBTransferOnePacket@ep stored from wreg
  7420  002340  6F66               	movwf	USBTransferOnePacket@ep& (0+255),b
  7421                           
  7422                           ;mcc_generated_files/usb/usb_device.c: 999: void* USBTransferOnePacket(uint8_t ep,uint8_
      +                          t dir,uint8_t* data,uint8_t len);mcc_generated_files/usb/usb_device.c: 1000: {;mcc_gener
      +                          ated_files/usb/usb_device.c: 1001:     volatile BDT_ENTRY* handle;;mcc_generated_files/u
      +                          sb/usb_device.c: 1004:     if(dir != 0)
  7423  002342  0100               	movlb	0	; () banked
  7424  002344  5160               	movf	USBTransferOnePacket@dir& (0+255),w,b
  7425  002346  B4D8               	btfsc	status,2,c
  7426  002348  D005               	goto	l7646
  7427                           
  7428                           ; BSR set to: 0
  7429                           ;mcc_generated_files/usb/usb_device.c: 1005:     {;mcc_generated_files/usb/usb_device.c:
      +                           1007:         handle = pBDTEntryIn[ep];
  7430  00234A  5166               	movf	USBTransferOnePacket@ep& (0+255),w,b
  7431  00234C  0D02               	mullw	2
  7432  00234E  50F3               	movf	243,w,c
  7433  002350  0FCF               	addlw	low _pBDTEntryIn
  7434  002352  D004               	goto	L4
  7435  002354                     l7646:
  7436                           
  7437                           ; BSR set to: 0
  7438                           ;mcc_generated_files/usb/usb_device.c: 1010:     {;mcc_generated_files/usb/usb_device.c:
      +                           1012:         handle = pBDTEntryOut[ep];
  7439  002354  5166               	movf	USBTransferOnePacket@ep& (0+255),w,b
  7440  002356  0D02               	mullw	2
  7441  002358  50F3               	movf	243,w,c
  7442  00235A  0F2C               	addlw	low _pBDTEntryOut
  7443  00235C                     L4:
  7444  00235C  6ED9               	movwf	fsr2l,c
  7445  00235E  6ADA               	clrf	fsr2h,c
  7446  002360  CFDE F067          	movff	postinc2,USBTransferOnePacket@handle
  7447  002364  CFDD F068          	movff	postdec2,USBTransferOnePacket@handle+1
  7448                           
  7449                           ; BSR set to: 0
  7450                           ;mcc_generated_files/usb/usb_device.c: 1017:     if(handle == 0)
  7451  002368  5167               	movf	USBTransferOnePacket@handle& (0+255),w,b
  7452  00236A  1168               	iorwf	(USBTransferOnePacket@handle+1)& (0+255),w,b
  7453  00236C  A4D8               	btfss	status,2,c
  7454  00236E  D005               	goto	l7654
  7455                           
  7456                           ; BSR set to: 0
  7457                           ;mcc_generated_files/usb/usb_device.c: 1018:     {;mcc_generated_files/usb/usb_device.c:
      +                           1019:         return 0;
  7458  002370  0E00               	movlw	0
  7459  002372  6F60               	movwf	?_USBTransferOnePacket& (0+255),b
  7460  002374  0E00               	movlw	0
  7461  002376  6F61               	movwf	(?_USBTransferOnePacket+1)& (0+255),b
  7462  002378  0012               	return	
  7463  00237A                     l7654:
  7464                           
  7465                           ; BSR set to: 0
  7466                           ;mcc_generated_files/usb/usb_device.c: 1033:     handle->ADR = ((uint16_t)(data));
  7467  00237A  EE20 F002          	lfsr	2,2
  7468  00237E  5167               	movf	USBTransferOnePacket@handle& (0+255),w,b
  7469  002380  26D9               	addwf	fsr2l,f,c
  7470  002382  5168               	movf	(USBTransferOnePacket@handle+1)& (0+255),w,b
  7471  002384  22DA               	addwfc	fsr2h,f,c
  7472  002386  C061  FFDE         	movff	USBTransferOnePacket@data,postinc2
  7473  00238A  C062  FFDD         	movff	USBTransferOnePacket@data+1,postdec2
  7474                           
  7475                           ;mcc_generated_files/usb/usb_device.c: 1034:     handle->CNT = len;
  7476  00238E  EE20 F001          	lfsr	2,1
  7477  002392  5167               	movf	USBTransferOnePacket@handle& (0+255),w,b
  7478  002394  26D9               	addwf	fsr2l,f,c
  7479  002396  5168               	movf	(USBTransferOnePacket@handle+1)& (0+255),w,b
  7480  002398  22DA               	addwfc	fsr2h,f,c
  7481  00239A  C063  FFDF         	movff	USBTransferOnePacket@len,indf2
  7482                           
  7483                           ; BSR set to: 0
  7484                           ;mcc_generated_files/usb/usb_device.c: 1035:     handle->STAT.Val &= 0x40;
  7485  00239E  C067  FFD9         	movff	USBTransferOnePacket@handle,fsr2l
  7486  0023A2  C068  FFDA         	movff	USBTransferOnePacket@handle+1,fsr2h
  7487  0023A6  0E40               	movlw	64
  7488  0023A8  16DF               	andwf	indf2,f,c
  7489                           
  7490                           ; BSR set to: 0
  7491                           ;mcc_generated_files/usb/usb_device.c: 1036:     handle->STAT.Val |= (0x08 & 0x08);
  7492  0023AA  C067  FFD9         	movff	USBTransferOnePacket@handle,fsr2l
  7493  0023AE  C068  FFDA         	movff	USBTransferOnePacket@handle+1,fsr2h
  7494  0023B2  0E00               	movlw	0
  7495  0023B4  86DB               	bsf	plusw2,3,c
  7496                           
  7497                           ; BSR set to: 0
  7498                           ;mcc_generated_files/usb/usb_device.c: 1037:     handle->STAT.Val |= 0x80;
  7499  0023B6  C067  FFD9         	movff	USBTransferOnePacket@handle,fsr2l
  7500  0023BA  C068  FFDA         	movff	USBTransferOnePacket@handle+1,fsr2h
  7501  0023BE  0E00               	movlw	0
  7502  0023C0  8EDB               	bsf	plusw2,7,c
  7503                           
  7504                           ; BSR set to: 0
  7505                           ;mcc_generated_files/usb/usb_device.c: 1040:     if(dir != 0)
  7506  0023C2  5160               	movf	USBTransferOnePacket@dir& (0+255),w,b
  7507  0023C4  B4D8               	btfsc	status,2,c
  7508  0023C6  D013               	goto	l7666
  7509                           
  7510                           ; BSR set to: 0
  7511                           ;mcc_generated_files/usb/usb_device.c: 1041:     {;mcc_generated_files/usb/usb_device.c:
      +                           1043:         pBDTEntryIn[ep] = (BDT_ENTRY*)(((uint16_t)pBDTEntryIn[ep]) ^ 0x0004);
  7512  0023C8  5166               	movf	USBTransferOnePacket@ep& (0+255),w,b
  7513  0023CA  0D02               	mullw	2
  7514  0023CC  50F3               	movf	243,w,c
  7515  0023CE  0FCF               	addlw	low _pBDTEntryIn
  7516  0023D0  6ED9               	movwf	fsr2l,c
  7517  0023D2  6ADA               	clrf	fsr2h,c
  7518  0023D4  CFDE F064          	movff	postinc2,??_USBTransferOnePacket
  7519  0023D8  CFDD F065          	movff	postdec2,??_USBTransferOnePacket+1
  7520  0023DC  0E04               	movlw	4
  7521  0023DE  1B64               	xorwf	??_USBTransferOnePacket& (0+255),f,b
  7522  0023E0  0E00               	movlw	0
  7523  0023E2  1B65               	xorwf	(??_USBTransferOnePacket+1)& (0+255),f,b
  7524  0023E4  5166               	movf	USBTransferOnePacket@ep& (0+255),w,b
  7525  0023E6  0D02               	mullw	2
  7526  0023E8  50F3               	movf	243,w,c
  7527  0023EA  0FCF               	addlw	low _pBDTEntryIn
  7528  0023EC  D012               	goto	L5
  7529  0023EE                     l7666:
  7530                           
  7531                           ; BSR set to: 0
  7532                           ;mcc_generated_files/usb/usb_device.c: 1046:     {;mcc_generated_files/usb/usb_device.c:
      +                           1048:         pBDTEntryOut[ep] = (BDT_ENTRY*)(((uint16_t)pBDTEntryOut[ep]) ^ 0x0004);
  7533  0023EE  5166               	movf	USBTransferOnePacket@ep& (0+255),w,b
  7534  0023F0  0D02               	mullw	2
  7535  0023F2  50F3               	movf	243,w,c
  7536  0023F4  0F2C               	addlw	low _pBDTEntryOut
  7537  0023F6  6ED9               	movwf	fsr2l,c
  7538  0023F8  6ADA               	clrf	fsr2h,c
  7539  0023FA  CFDE F064          	movff	postinc2,??_USBTransferOnePacket
  7540  0023FE  CFDD F065          	movff	postdec2,??_USBTransferOnePacket+1
  7541  002402  0E04               	movlw	4
  7542  002404  1B64               	xorwf	??_USBTransferOnePacket& (0+255),f,b
  7543  002406  0E00               	movlw	0
  7544  002408  1B65               	xorwf	(??_USBTransferOnePacket+1)& (0+255),f,b
  7545  00240A  5166               	movf	USBTransferOnePacket@ep& (0+255),w,b
  7546  00240C  0D02               	mullw	2
  7547  00240E  50F3               	movf	243,w,c
  7548  002410  0F2C               	addlw	low _pBDTEntryOut
  7549  002412                     L5:
  7550  002412  6ED9               	movwf	fsr2l,c
  7551  002414  6ADA               	clrf	fsr2h,c
  7552  002416  C064  FFDE         	movff	??_USBTransferOnePacket,postinc2
  7553  00241A  C065  FFDD         	movff	??_USBTransferOnePacket+1,postdec2
  7554                           
  7555                           ; BSR set to: 0
  7556                           ;mcc_generated_files/usb/usb_device.c: 1050:     return (void*)handle;
  7557  00241E  C067  F060         	movff	USBTransferOnePacket@handle,?_USBTransferOnePacket
  7558  002422  C068  F061         	movff	USBTransferOnePacket@handle+1,?_USBTransferOnePacket+1
  7559                           
  7560                           ; BSR set to: 0
  7561  002426  0012               	return		;funcret
  7562  002428                     __end_of_USBTransferOnePacket:
  7563                           	callstack 0
  7564                           
  7565 ;; *************** function _INTERRUPT_InterruptManager *****************
  7566 ;; Defined at:
  7567 ;;		line 58 in file "mcc_generated_files/interrupt_manager.c"
  7568 ;; Parameters:    Size  Location     Type
  7569 ;;		None
  7570 ;; Auto vars:     Size  Location     Type
  7571 ;;		None
  7572 ;; Return value:  Size  Location     Type
  7573 ;;                  1    wreg      void 
  7574 ;; Registers used:
  7575 ;;		wreg, fsr1l, fsr1h, fsr2l, fsr2h, status,2, status,0, pcl, pclath, pclatu, tosl, tblptrl, tblptrh, tblptru, prodl, p
      +rodh, cstack
  7576 ;; Tracked objects:
  7577 ;;		On entry : 0/0
  7578 ;;		On exit  : 0/0
  7579 ;;		Unchanged: 0/0
  7580 ;; Data sizes:     COMRAM   BANK0   BANK1   BANK2   BANK3   BANK4   BANK5   BANK6   BANK7
  7581 ;;      Params:         0       0       0       0       0       0       0       0       0
  7582 ;;      Locals:         0       0       0       0       0       0       0       0       0
  7583 ;;      Temps:         12       0       0       0       0       0       0       0       0
  7584 ;;      Totals:        12       0       0       0       0       0       0       0       0
  7585 ;;Total ram usage:       12 bytes
  7586 ;; Hardware stack levels used: 1
  7587 ;; Hardware stack levels required when called: 9
  7588 ;; This function calls:
  7589 ;;		_TMR0_ISR
  7590 ;;		_TMR2_ISR
  7591 ;;		_TMR3_ISR
  7592 ;;		_USBDeviceTasks
  7593 ;; This function is called by:
  7594 ;;		Interrupt level 2
  7595 ;; This function uses a non-reentrant model
  7596 ;;
  7597                           
  7598                           	psect	intcode
  7599  000008                     __pintcode:
  7600                           	callstack 0
  7601  000008                     _INTERRUPT_InterruptManager:
  7602                           	callstack 13
  7603                           
  7604                           ; BSR set to: 0
  7605                           ;incstack = 0
  7606  000008  8256               	bsf	btemp,1,c	;set compiler interrupt flag (level 2)
  7607  00000A  CFFA F020          	movff	pclath,??_INTERRUPT_InterruptManager
  7608  00000E  CFFB F021          	movff	pclatu,??_INTERRUPT_InterruptManager+1
  7609  000012  CFE1 F022          	movff	fsr1l,??_INTERRUPT_InterruptManager+2
  7610  000016  CFE2 F023          	movff	fsr1h,??_INTERRUPT_InterruptManager+3
  7611  00001A  CFD9 F024          	movff	fsr2l,??_INTERRUPT_InterruptManager+4
  7612  00001E  CFDA F025          	movff	fsr2h,??_INTERRUPT_InterruptManager+5
  7613  000022  CFF3 F026          	movff	prodl,??_INTERRUPT_InterruptManager+6
  7614  000026  CFF4 F027          	movff	prodh,??_INTERRUPT_InterruptManager+7
  7615  00002A  CFF6 F028          	movff	tblptrl,??_INTERRUPT_InterruptManager+8
  7616  00002E  CFF7 F029          	movff	tblptrh,??_INTERRUPT_InterruptManager+9
  7617  000032  CFF8 F02A          	movff	tblptru,??_INTERRUPT_InterruptManager+10
  7618  000036  CFF5 F02B          	movff	tablat,??_INTERRUPT_InterruptManager+11
  7619                           
  7620                           ;mcc_generated_files/interrupt_manager.c: 61:     if(INTCONbits.TMR0IE == 1 && INTCONbit
      +                          s.TMR0IF == 1)
  7621  00003A  BAF2               	btfsc	242,5,c	;volatile
  7622  00003C  A4F2               	btfss	242,2,c	;volatile
  7623  00003E  D003               	goto	i2l608
  7624                           
  7625                           ;mcc_generated_files/interrupt_manager.c: 62:     {;mcc_generated_files/interrupt_manage
      +                          r.c: 63:         TMR0_ISR();
  7626  000040  EC97  F01A         	call	_TMR0_ISR	;wreg free
  7627                           
  7628                           ;mcc_generated_files/interrupt_manager.c: 64:     }
  7629  000044  D013               	goto	i2l612
  7630  000046                     i2l608:
  7631  000046  ACF2               	btfss	242,6,c	;volatile
  7632  000048  D011               	goto	i2l612
  7633                           
  7634                           ;mcc_generated_files/interrupt_manager.c: 66:     {;mcc_generated_files/interrupt_manage
      +                          r.c: 67:         if(PIE3bits.USBIE == 1 && PIR3bits.USBIF == 1)
  7635  00004A  B4A3               	btfsc	163,2,c	;volatile
  7636  00004C  A4A4               	btfss	164,2,c	;volatile
  7637  00004E  D003               	goto	i2l611
  7638                           
  7639                           ;mcc_generated_files/interrupt_manager.c: 68:         {;mcc_generated_files/interrupt_ma
      +                          nager.c: 69:             USBDeviceTasks();
  7640  000050  EC96  F00F         	call	_USBDeviceTasks	;wreg free
  7641                           
  7642                           ;mcc_generated_files/interrupt_manager.c: 70:         }
  7643  000054  D00B               	goto	i2l612
  7644  000056                     i2l611:
  7645  000056  B2A0               	btfsc	160,1,c	;volatile
  7646  000058  A2A1               	btfss	161,1,c	;volatile
  7647  00005A  D003               	goto	i2l613
  7648                           
  7649                           ;mcc_generated_files/interrupt_manager.c: 72:         {;mcc_generated_files/interrupt_ma
      +                          nager.c: 73:             TMR3_ISR();
  7650  00005C  EC25  F01A         	call	_TMR3_ISR	;wreg free
  7651                           
  7652                           ;mcc_generated_files/interrupt_manager.c: 74:         }
  7653  000060  D005               	goto	i2l612
  7654  000062                     i2l613:
  7655  000062  B29D               	btfsc	157,1,c	;volatile
  7656  000064  A29E               	btfss	158,1,c	;volatile
  7657  000066  D002               	goto	i2l612
  7658                           
  7659                           ;mcc_generated_files/interrupt_manager.c: 76:         {;mcc_generated_files/interrupt_ma
      +                          nager.c: 77:             TMR2_ISR();
  7660  000068  ECD7  F01A         	call	_TMR2_ISR	;wreg free
  7661  00006C                     i2l612:
  7662                           
  7663                           ;mcc_generated_files/interrupt_manager.c: 83:     }
  7664  00006C  C02B  FFF5         	movff	??_INTERRUPT_InterruptManager+11,tablat
  7665  000070  C02A  FFF8         	movff	??_INTERRUPT_InterruptManager+10,tblptru
  7666  000074  C029  FFF7         	movff	??_INTERRUPT_InterruptManager+9,tblptrh
  7667  000078  C028  FFF6         	movff	??_INTERRUPT_InterruptManager+8,tblptrl
  7668  00007C  C027  FFF4         	movff	??_INTERRUPT_InterruptManager+7,prodh
  7669  000080  C026  FFF3         	movff	??_INTERRUPT_InterruptManager+6,prodl
  7670  000084  C025  FFDA         	movff	??_INTERRUPT_InterruptManager+5,fsr2h
  7671  000088  C024  FFD9         	movff	??_INTERRUPT_InterruptManager+4,fsr2l
  7672  00008C  C023  FFE2         	movff	??_INTERRUPT_InterruptManager+3,fsr1h
  7673  000090  C022  FFE1         	movff	??_INTERRUPT_InterruptManager+2,fsr1l
  7674  000094  C021  FFFB         	movff	??_INTERRUPT_InterruptManager+1,pclatu
  7675  000098  C020  FFFA         	movff	??_INTERRUPT_InterruptManager,pclath
  7676  00009C  9256               	bcf	btemp,1,c	;clear compiler interrupt flag (level 2)
  7677  00009E  0011               	retfie		f
  7678  0000A0                     __end_of_INTERRUPT_InterruptManager:
  7679                           	callstack 0
  7680                           
  7681 ;; *************** function _USBDeviceTasks *****************
  7682 ;; Defined at:
  7683 ;;		line 481 in file "mcc_generated_files/usb/usb_device.c"
  7684 ;; Parameters:    Size  Location     Type
  7685 ;;		None
  7686 ;; Auto vars:     Size  Location     Type
  7687 ;;  i               1   30[COMRAM] unsigned char 
  7688 ;; Return value:  Size  Location     Type
  7689 ;;                  1    wreg      void 
  7690 ;; Registers used:
  7691 ;;		wreg, fsr1l, fsr1h, fsr2l, fsr2h, status,2, status,0, tblptrl, tblptrh, tblptru, prodl, prodh, cstack
  7692 ;; Tracked objects:
  7693 ;;		On entry : 0/0
  7694 ;;		On exit  : 0/0
  7695 ;;		Unchanged: 0/0
  7696 ;; Data sizes:     COMRAM   BANK0   BANK1   BANK2   BANK3   BANK4   BANK5   BANK6   BANK7
  7697 ;;      Params:         0       0       0       0       0       0       0       0       0
  7698 ;;      Locals:         1       0       0       0       0       0       0       0       0
  7699 ;;      Temps:          0       0       0       0       0       0       0       0       0
  7700 ;;      Totals:         1       0       0       0       0       0       0       0       0
  7701 ;;Total ram usage:        1 bytes
  7702 ;; Hardware stack levels used: 1
  7703 ;; Hardware stack levels required when called: 8
  7704 ;; This function calls:
  7705 ;;		_USBCtrlEPAllowStatusStage
  7706 ;;		_USBCtrlEPService
  7707 ;;		_USBIncrement1msInternalTimers
  7708 ;;		_USBStallHandler
  7709 ;;		_USBSuspend
  7710 ;;		_USBWakeFromSuspend
  7711 ;;		_USER_USB_CALLBACK_EVENT_HANDLER
  7712 ;;		i2_USBDeviceInit
  7713 ;; This function is called by:
  7714 ;;		_INTERRUPT_InterruptManager
  7715 ;; This function uses a non-reentrant model
  7716 ;;
  7717                           
  7718                           	psect	text44
  7719  001F2C                     __ptext44:
  7720                           	callstack 0
  7721  001F2C                     _USBDeviceTasks:
  7722                           	callstack 13
  7723                           
  7724                           ;mcc_generated_files/usb/usb_device.c: 483:     uint8_t i;;mcc_generated_files/usb/usb_d
      +                          evice.c: 594:     if(USBDeviceState == ATTACHED_STATE)
  7725                           
  7726                           ;incstack = 0
  7727  001F2C  0451               	decf	_USBDeviceState^0,w,c
  7728  001F2E  B4D8               	btfsc	status,2,c
  7729                           
  7730                           ;mcc_generated_files/usb/usb_device.c: 595:     {;mcc_generated_files/usb/usb_device.c: 
      +                          605:         if(!UCONbits.SE0)
  7731  001F30  BA60               	btfsc	96,5,c	;volatile
  7732  001F32  D006               	goto	i2l6218
  7733                           
  7734                           ;mcc_generated_files/usb/usb_device.c: 606:         {;mcc_generated_files/usb/usb_device
      +                          .c: 612:                 {UIR = 0;};
  7735  001F34  0E00               	movlw	0
  7736  001F36  6E65               	movwf	101,c	;volatile
  7737                           
  7738                           ;mcc_generated_files/usb/usb_device.c: 618:             UIEbits.URSTIE = 1;
  7739  001F38  8064               	bsf	100,0,c	;volatile
  7740                           
  7741                           ;mcc_generated_files/usb/usb_device.c: 619:             UIEbits.IDLEIE = 1;
  7742  001F3A  8864               	bsf	100,4,c	;volatile
  7743                           
  7744                           ;mcc_generated_files/usb/usb_device.c: 620:             USBDeviceState = POWERED_STATE;
  7745  001F3C  0E02               	movlw	2
  7746  001F3E  6E51               	movwf	_USBDeviceState^0,c	;volatile
  7747  001F40                     i2l6218:
  7748                           
  7749                           ;mcc_generated_files/usb/usb_device.c: 638:     if(UIRbits.ACTVIF && UIEbits.ACTVIE)
  7750  001F40  B465               	btfsc	101,2,c	;volatile
  7751  001F42  A464               	btfss	100,2,c	;volatile
  7752  001F44  D003               	goto	i2l6226
  7753                           
  7754                           ;mcc_generated_files/usb/usb_device.c: 639:     {;mcc_generated_files/usb/usb_device.c: 
      +                          640:         (UIR &= 0xFB);
  7755  001F46  9465               	bcf	101,2,c	;volatile
  7756                           
  7757                           ;mcc_generated_files/usb/usb_device.c: 644:             USBWakeFromSuspend();
  7758  001F48  ECA3  F019         	call	_USBWakeFromSuspend	;wreg free
  7759  001F4C                     i2l6226:
  7760                           
  7761                           ;mcc_generated_files/usb/usb_device.c: 651:     if(UCONbits.SUSPND==1)
  7762  001F4C  A260               	btfss	96,1,c	;volatile
  7763  001F4E  D002               	goto	i2l147
  7764                           
  7765                           ;mcc_generated_files/usb/usb_device.c: 652:     {;mcc_generated_files/usb/usb_device.c: 
      +                          653:         PIR3bits.USBIF = 0;;
  7766  001F50  94A4               	bcf	164,2,c	;volatile
  7767                           
  7768                           ;mcc_generated_files/usb/usb_device.c: 654:         return;
  7769  001F52  0012               	return	
  7770  001F54                     i2l147:
  7771                           
  7772                           ;mcc_generated_files/usb/usb_device.c: 667:     if(UIRbits.URSTIF && UIEbits.URSTIE)
  7773  001F54  B065               	btfsc	101,0,c	;volatile
  7774  001F56  A064               	btfss	100,0,c	;volatile
  7775  001F58  D006               	goto	i2l6240
  7776                           
  7777                           ;mcc_generated_files/usb/usb_device.c: 668:     {;mcc_generated_files/usb/usb_device.c: 
      +                          669:         USBDeviceInit();
  7778  001F5A  ECCF  F00C         	call	i2_USBDeviceInit	;wreg free
  7779                           
  7780                           ; BSR set to: 0
  7781                           ;mcc_generated_files/usb/usb_device.c: 673:         {PIE3bits.USBIE = 1;};
  7782  001F5E  84A3               	bsf	163,2,c	;volatile
  7783                           
  7784                           ; BSR set to: 0
  7785                           ;mcc_generated_files/usb/usb_device.c: 675:         USBDeviceState = DEFAULT_STATE;
  7786  001F60  0E04               	movlw	4
  7787  001F62  6E51               	movwf	_USBDeviceState^0,c	;volatile
  7788                           
  7789                           ; BSR set to: 0
  7790                           ;mcc_generated_files/usb/usb_device.c: 685:         (UIR &= 0xFE);
  7791  001F64  9065               	bcf	101,0,c	;volatile
  7792  001F66                     i2l6240:
  7793                           
  7794                           ;mcc_generated_files/usb/usb_device.c: 691:     if(UIRbits.IDLEIF && UIEbits.IDLEIE)
  7795  001F66  B865               	btfsc	101,4,c	;volatile
  7796  001F68  A864               	btfss	100,4,c	;volatile
  7797  001F6A  D002               	goto	i2l6246
  7798                           
  7799                           ;mcc_generated_files/usb/usb_device.c: 692:     {;mcc_generated_files/usb/usb_device.c: 
      +                          698:             USBSuspend();
  7800  001F6C  EC54  F01A         	call	_USBSuspend	;wreg free
  7801  001F70                     i2l6246:
  7802                           
  7803                           ;mcc_generated_files/usb/usb_device.c: 712:     if(UIRbits.SOFIF)
  7804  001F70  AC65               	btfss	101,6,c	;volatile
  7805  001F72  D01A               	goto	i2l6264
  7806                           
  7807                           ;mcc_generated_files/usb/usb_device.c: 713:     {;mcc_generated_files/usb/usb_device.c: 
      +                          715:         if(UIEbits.SOFIE)
  7808  001F74  AC64               	btfss	100,6,c	;volatile
  7809  001F76  D00E               	goto	i2l6252
  7810                           
  7811                           ;mcc_generated_files/usb/usb_device.c: 716:         {;mcc_generated_files/usb/usb_device
      +                          .c: 717:             USER_USB_CALLBACK_EVENT_HANDLER((USB_EVENT)EVENT_SOF,0,1);
  7812  001F78  0E00               	movlw	0
  7813  001F7A  6E0E               	movwf	(USER_USB_CALLBACK_EVENT_HANDLER@event+1)^0,c
  7814  001F7C  0E73               	movlw	115
  7815  001F7E  6E0D               	movwf	USER_USB_CALLBACK_EVENT_HANDLER@event^0,c
  7816  001F80  0E00               	movlw	0
  7817  001F82  6E0F               	movwf	USER_USB_CALLBACK_EVENT_HANDLER@pdata^0,c
  7818  001F84  0E00               	movlw	0
  7819  001F86  6E10               	movwf	(USER_USB_CALLBACK_EVENT_HANDLER@pdata+1)^0,c
  7820  001F88  0E00               	movlw	0
  7821  001F8A  6E12               	movwf	(USER_USB_CALLBACK_EVENT_HANDLER@size+1)^0,c
  7822  001F8C  0E01               	movlw	1
  7823  001F8E  6E11               	movwf	USER_USB_CALLBACK_EVENT_HANDLER@size^0,c
  7824  001F90  EC85  F018         	call	_USER_USB_CALLBACK_EVENT_HANDLER	;wreg free
  7825  001F94                     i2l6252:
  7826                           
  7827                           ;mcc_generated_files/usb/usb_device.c: 719:         (UIR &= 0xBF);
  7828  001F94  9C65               	bcf	101,6,c	;volatile
  7829                           
  7830                           ;mcc_generated_files/usb/usb_device.c: 722:             USBIncrement1msInternalTimers();
  7831  001F96  ECE9  F01A         	call	_USBIncrement1msInternalTimers	;wreg free
  7832                           
  7833                           ; BSR set to: 0
  7834                           ;mcc_generated_files/usb/usb_device.c: 739:             if(USBStatusStageTimeoutCounter 
      +                          != 0u)
  7835  001F9A  504B               	movf	_USBStatusStageTimeoutCounter^0,w,c
  7836  001F9C  A4D8               	btfss	status,2,c
  7837                           
  7838                           ; BSR set to: 0
  7839                           ;mcc_generated_files/usb/usb_device.c: 740:             {;mcc_generated_files/usb/usb_de
      +                          vice.c: 741:                 USBStatusStageTimeoutCounter--;
  7840  001F9E  064B               	decf	_USBStatusStageTimeoutCounter^0,f,c	;volatile
  7841                           
  7842                           ; BSR set to: 0
  7843                           ;mcc_generated_files/usb/usb_device.c: 748:             if(USBStatusStageTimeoutCounter 
      +                          == 0)
  7844  001FA0  504B               	movf	_USBStatusStageTimeoutCounter^0,w,c	;volatile
  7845  001FA2  B4D8               	btfsc	status,2,c
  7846                           
  7847                           ; BSR set to: 0
  7848                           ;mcc_generated_files/usb/usb_device.c: 749:             {;mcc_generated_files/usb/usb_de
      +                          vice.c: 750:                 USBCtrlEPAllowStatusStage();
  7849  001FA4  EC30  F014         	call	_USBCtrlEPAllowStatusStage	;wreg free
  7850  001FA8                     i2l6264:
  7851                           
  7852                           ;mcc_generated_files/usb/usb_device.c: 755:     if(UIRbits.STALLIF && UIEbits.STALLIE)
  7853  001FA8  BA65               	btfsc	101,5,c	;volatile
  7854  001FAA  AA64               	btfss	100,5,c	;volatile
  7855  001FAC  D002               	goto	i2l6270
  7856                           
  7857                           ;mcc_generated_files/usb/usb_device.c: 756:     {;mcc_generated_files/usb/usb_device.c: 
      +                          757:         USBStallHandler();
  7858  001FAE  EC29  F019         	call	_USBStallHandler	;wreg free
  7859  001FB2                     i2l6270:
  7860                           
  7861                           ;mcc_generated_files/usb/usb_device.c: 760:     if(UIRbits.UERRIF && UIEbits.UERRIE)
  7862  001FB2  B265               	btfsc	101,1,c	;volatile
  7863  001FB4  A264               	btfss	100,1,c	;volatile
  7864  001FB6  D00F               	goto	i2l6278
  7865                           
  7866                           ;mcc_generated_files/usb/usb_device.c: 761:     {;mcc_generated_files/usb/usb_device.c: 
      +                          762:         USER_USB_CALLBACK_EVENT_HANDLER((USB_EVENT)EVENT_BUS_ERROR,0,1);
  7867  001FB8  0E7F               	movlw	127
  7868  001FBA  6E0E               	movwf	(USER_USB_CALLBACK_EVENT_HANDLER@event+1)^0,c
  7869  001FBC  680D               	setf	USER_USB_CALLBACK_EVENT_HANDLER@event^0,c
  7870  001FBE  0E00               	movlw	0
  7871  001FC0  6E0F               	movwf	USER_USB_CALLBACK_EVENT_HANDLER@pdata^0,c
  7872  001FC2  0E00               	movlw	0
  7873  001FC4  6E10               	movwf	(USER_USB_CALLBACK_EVENT_HANDLER@pdata+1)^0,c
  7874  001FC6  0E00               	movlw	0
  7875  001FC8  6E12               	movwf	(USER_USB_CALLBACK_EVENT_HANDLER@size+1)^0,c
  7876  001FCA  0E01               	movlw	1
  7877  001FCC  6E11               	movwf	USER_USB_CALLBACK_EVENT_HANDLER@size^0,c
  7878  001FCE  EC85  F018         	call	_USER_USB_CALLBACK_EVENT_HANDLER	;wreg free
  7879                           
  7880                           ;mcc_generated_files/usb/usb_device.c: 763:         {UEIR = 0;};
  7881  001FD2  0E00               	movlw	0
  7882  001FD4  6E67               	movwf	103,c	;volatile
  7883  001FD6                     i2l6278:
  7884                           
  7885                           ;mcc_generated_files/usb/usb_device.c: 778:     if(USBDeviceState < DEFAULT_STATE)
  7886  001FD6  0E04               	movlw	4
  7887  001FD8  6051               	cpfslt	_USBDeviceState^0,c
  7888  001FDA  D002               	goto	i2l157
  7889                           
  7890                           ;mcc_generated_files/usb/usb_device.c: 779:     {;mcc_generated_files/usb/usb_device.c: 
      +                          780:         PIR3bits.USBIF = 0;;
  7891  001FDC  94A4               	bcf	164,2,c	;volatile
  7892                           
  7893                           ;mcc_generated_files/usb/usb_device.c: 781:         return;
  7894  001FDE  0012               	return	
  7895  001FE0                     i2l157:
  7896                           
  7897                           ;mcc_generated_files/usb/usb_device.c: 787:     if(UIEbits.TRNIE)
  7898  001FE0  A664               	btfss	100,3,c	;volatile
  7899  001FE2  D02E               	goto	i2u490_40
  7900                           
  7901                           ;mcc_generated_files/usb/usb_device.c: 788:     {;mcc_generated_files/usb/usb_device.c: 
      +                          789:         for(i = 0; i < 4u; i++)
  7902  001FE4  0E00               	movlw	0
  7903  001FE6  6E1F               	movwf	USBDeviceTasks@i^0,c
  7904  001FE8                     i2l159:
  7905                           
  7906                           ;mcc_generated_files/usb/usb_device.c: 790:         {;mcc_generated_files/usb/usb_device
      +                          .c: 791:             if(UIRbits.TRNIF)
  7907  001FE8  A665               	btfss	101,3,c	;volatile
  7908  001FEA  D02A               	goto	i2u490_40
  7909                           
  7910                           ;mcc_generated_files/usb/usb_device.c: 792:             {;mcc_generated_files/usb/usb_de
      +                          vice.c: 794:                 USTATcopy.Val = USTAT;
  7911  001FEC  CF61 F054          	movff	3937,_USTATcopy	;volatile
  7912                           
  7913                           ;mcc_generated_files/usb/usb_device.c: 795:                 endpoint_number = USTATcopy.
      +                          endpoint_number;
  7914  001FF0  3054               	rrcf	_USTATcopy^0,w,c	;volatile
  7915  001FF2  32E8               	rrcf	wreg,f,c
  7916  001FF4  32E8               	rrcf	wreg,f,c
  7917  001FF6  0B0F               	andlw	15
  7918  001FF8  6E4D               	movwf	_endpoint_number^0,c	;volatile
  7919                           
  7920                           ;mcc_generated_files/usb/usb_device.c: 797:                 (UIR &= 0xF7);
  7921  001FFA  9665               	bcf	101,3,c	;volatile
  7922                           
  7923                           ;mcc_generated_files/usb/usb_device.c: 802:                 if(USTATcopy.direction == 0)
  7924  001FFC  B454               	btfsc	_USTATcopy^0,2,c	;volatile
  7925  001FFE  D003               	goto	i2l6298
  7926                           
  7927                           ;mcc_generated_files/usb/usb_device.c: 803:                 {;mcc_generated_files/usb/us
      +                          b_device.c: 804:                     ep_data_out[endpoint_number].bits.ping_pong_state ^
      +                          = 1;
  7928  002000  504D               	movf	_endpoint_number^0,w,c
  7929  002002  0FD5               	addlw	low _ep_data_out
  7930  002004  D002               	goto	L6
  7931  002006                     i2l6298:
  7932                           
  7933                           ;mcc_generated_files/usb/usb_device.c: 807:                 {;mcc_generated_files/usb/us
      +                          b_device.c: 808:                     ep_data_in[endpoint_number].bits.ping_pong_state ^=
      +                           1;
  7934  002006  504D               	movf	_endpoint_number^0,w,c
  7935  002008  0FD8               	addlw	low _ep_data_in
  7936  00200A                     L6:
  7937  00200A  6ED9               	movwf	fsr2l,c
  7938  00200C  6ADA               	clrf	fsr2h,c
  7939  00200E  0100               	movlb	0	; () banked
  7940  002010  70DF               	btg	indf2,0,c
  7941                           
  7942                           ; BSR set to: 0
  7943                           ;mcc_generated_files/usb/usb_device.c: 814:                 if(endpoint_number == 0)
  7944  002012  504D               	movf	_endpoint_number^0,w,c	;volatile
  7945  002014  A4D8               	btfss	status,2,c
  7946  002016  D003               	goto	i2l6304
  7947                           
  7948                           ; BSR set to: 0
  7949                           ;mcc_generated_files/usb/usb_device.c: 815:                 {;mcc_generated_files/usb/us
      +                          b_device.c: 816:                     USBCtrlEPService();
  7950  002018  EC40  F016         	call	_USBCtrlEPService	;wreg free
  7951                           
  7952                           ;mcc_generated_files/usb/usb_device.c: 817:                 }
  7953  00201C  D00D               	goto	i2l6306
  7954  00201E                     i2l6304:
  7955                           
  7956                           ; BSR set to: 0
  7957                           ;mcc_generated_files/usb/usb_device.c: 819:                 {;mcc_generated_files/usb/us
      +                          b_device.c: 820:                     USER_USB_CALLBACK_EVENT_HANDLER((USB_EVENT)EVENT_TR
      +                          ANSFER,(uint8_t*)&USTATcopy.Val,0);
  7958  00201E  0E00               	movlw	0
  7959  002020  6E0E               	movwf	(USER_USB_CALLBACK_EVENT_HANDLER@event+1)^0,c
  7960  002022  0E72               	movlw	114
  7961  002024  6E0D               	movwf	USER_USB_CALLBACK_EVENT_HANDLER@event^0,c
  7962  002026  0E54               	movlw	low _USTATcopy
  7963  002028  6E0F               	movwf	USER_USB_CALLBACK_EVENT_HANDLER@pdata^0,c
  7964  00202A  6A10               	clrf	(USER_USB_CALLBACK_EVENT_HANDLER@pdata+1)^0,c
  7965  00202C  0E00               	movlw	0
  7966  00202E  6E12               	movwf	(USER_USB_CALLBACK_EVENT_HANDLER@size+1)^0,c
  7967  002030  0E00               	movlw	0
  7968  002032  6E11               	movwf	USER_USB_CALLBACK_EVENT_HANDLER@size^0,c
  7969  002034  EC85  F018         	call	_USER_USB_CALLBACK_EVENT_HANDLER	;wreg free
  7970  002038                     i2l6306:
  7971                           
  7972                           ;mcc_generated_files/usb/usb_device.c: 827:         }
  7973  002038  2A1F               	incf	USBDeviceTasks@i^0,f,c
  7974  00203A  0E03               	movlw	3
  7975  00203C  641F               	cpfsgt	USBDeviceTasks@i^0,c
  7976  00203E  D7D4               	goto	i2l159
  7977  002040                     i2u490_40:
  7978                           
  7979                           ;mcc_generated_files/usb/usb_device.c: 830:     PIR3bits.USBIF = 0;;
  7980                           
  7981                           ;mcc_generated_files/usb/usb_device.c: 828:     }
  7982  002040  94A4               	bcf	164,2,c	;volatile
  7983  002042  0012               	return		;funcret
  7984  002044                     __end_of_USBDeviceTasks:
  7985                           	callstack 0
  7986                           
  7987 ;; *************** function i2_USBDeviceInit *****************
  7988 ;; Defined at:
  7989 ;;		line 281 in file "mcc_generated_files/usb/usb_device.c"
  7990 ;; Parameters:    Size  Location     Type
  7991 ;;		None
  7992 ;; Auto vars:     Size  Location     Type
  7993 ;;  i               1   12[COMRAM] unsigned char 
  7994 ;; Return value:  Size  Location     Type
  7995 ;;                  1    wreg      void 
  7996 ;; Registers used:
  7997 ;;		wreg, fsr2l, fsr2h, status,2, status,0, prodl, prodh, cstack
  7998 ;; Tracked objects:
  7999 ;;		On entry : 0/0
  8000 ;;		On exit  : 3F/0
  8001 ;;		Unchanged: 0/0
  8002 ;; Data sizes:     COMRAM   BANK0   BANK1   BANK2   BANK3   BANK4   BANK5   BANK6   BANK7
  8003 ;;      Params:         0       0       0       0       0       0       0       0       0
  8004 ;;      Locals:         1       0       0       0       0       0       0       0       0
  8005 ;;      Temps:          0       0       0       0       0       0       0       0       0
  8006 ;;      Totals:         1       0       0       0       0       0       0       0       0
  8007 ;;Total ram usage:        1 bytes
  8008 ;; Hardware stack levels used: 1
  8009 ;; Hardware stack levels required when called: 1
  8010 ;; This function calls:
  8011 ;;		i2_memset
  8012 ;; This function is called by:
  8013 ;;		_USBDeviceTasks
  8014 ;; This function uses a non-reentrant model
  8015 ;;
  8016                           
  8017                           	psect	text45
  8018  00199E                     __ptext45:
  8019                           	callstack 0
  8020  00199E                     i2_USBDeviceInit:
  8021                           	callstack 19
  8022                           
  8023                           ;mcc_generated_files/usb/usb_device.c: 283:     uint8_t i;;mcc_generated_files/usb/usb_d
      +                          evice.c: 285:     {PIE3bits.USBIE = 0;};
  8024                           
  8025                           ;incstack = 0
  8026  00199E  94A3               	bcf	163,2,c	;volatile
  8027                           
  8028                           ;mcc_generated_files/usb/usb_device.c: 292:     {UEIR = 0;};
  8029  0019A0  0E00               	movlw	0
  8030  0019A2  6E67               	movwf	103,c	;volatile
  8031                           
  8032                           ;mcc_generated_files/usb/usb_device.c: 295:     {UIR = 0;};
  8033  0019A4  0E00               	movlw	0
  8034  0019A6  6E65               	movwf	101,c	;volatile
  8035                           
  8036                           ;mcc_generated_files/usb/usb_device.c: 298:     UEP0 = 0;
  8037  0019A8  0E00               	movlw	0
  8038  0019AA  6E6A               	movwf	106,c	;volatile
  8039                           
  8040                           ;mcc_generated_files/usb/usb_device.c: 300:     memset((void*)&UEP1,0x00,(2));;
  8041  0019AC  0E6B               	movlw	107
  8042  0019AE  6E01               	movwf	i2memset@dest^0,c
  8043  0019B0  0E0F               	movlw	15
  8044  0019B2  6E02               	movwf	(i2memset@dest+1)^0,c
  8045  0019B4  0E00               	movlw	0
  8046  0019B6  6E04               	movwf	(i2memset@c+1)^0,c
  8047  0019B8  0E00               	movlw	0
  8048  0019BA  6E03               	movwf	i2memset@c^0,c
  8049  0019BC  0E00               	movlw	0
  8050  0019BE  6E06               	movwf	(i2memset@n+1)^0,c
  8051  0019C0  0E02               	movlw	2
  8052  0019C2  6E05               	movwf	i2memset@n^0,c
  8053  0019C4  EC0C  F00B         	call	i2_memset	;wreg free
  8054                           
  8055                           ;mcc_generated_files/usb/usb_device.c: 302:     { UCFG = 0x10 | 0x00 | 0x04 | 0x02; UEIE
      +                           = 0x9F; UIE = 0x39 | 0x40 | 0x02; };
  8056  0019C8  0E16               	movlw	22
  8057  0019CA  6E62               	movwf	98,c	;volatile
  8058  0019CC  0E9F               	movlw	159
  8059  0019CE  6E66               	movwf	102,c	;volatile
  8060  0019D0  0E7B               	movlw	123
  8061  0019D2  6E64               	movwf	100,c	;volatile
  8062                           
  8063                           ;mcc_generated_files/usb/usb_device.c: 311:     for(i = 0; i < (sizeof(BDT)/sizeof(BDT_E
      +                          NTRY)); i++)
  8064  0019D4  0E00               	movlw	0
  8065  0019D6  6E0D               	movwf	i2USBDeviceInit@i^0,c
  8066  0019D8                     i2l6150:
  8067                           
  8068                           ;mcc_generated_files/usb/usb_device.c: 312:     {;mcc_generated_files/usb/usb_device.c: 
      +                          313:         BDT[i].Val = 0x00;
  8069  0019D8  500D               	movf	i2USBDeviceInit@i^0,w,c
  8070  0019DA  0D04               	mullw	4
  8071  0019DC  0E00               	movlw	0
  8072  0019DE  24F3               	addwf	243,w,c
  8073  0019E0  6ED9               	movwf	fsr2l,c
  8074  0019E2  0E04               	movlw	4
  8075  0019E4  20F4               	addwfc	prodh,w,c
  8076  0019E6  6EDA               	movwf	fsr2h,c
  8077  0019E8  6ADE               	clrf	postinc2,c
  8078  0019EA  6ADE               	clrf	postinc2,c
  8079  0019EC  6ADE               	clrf	postinc2,c
  8080  0019EE  6ADD               	clrf	postdec2,c
  8081                           
  8082                           ;mcc_generated_files/usb/usb_device.c: 314:     }
  8083  0019F0  2A0D               	incf	i2USBDeviceInit@i^0,f,c
  8084  0019F2  0E0B               	movlw	11
  8085  0019F4  640D               	cpfsgt	i2USBDeviceInit@i^0,c
  8086  0019F6  D7F0               	goto	i2l6150
  8087                           
  8088                           ;mcc_generated_files/usb/usb_device.c: 317:     UCONbits.PPBRST = 1;
  8089  0019F8  8C60               	bsf	96,6,c	;volatile
  8090                           
  8091                           ;mcc_generated_files/usb/usb_device.c: 320:     UADDR = 0x00;
  8092  0019FA  0E00               	movlw	0
  8093  0019FC  6E63               	movwf	99,c	;volatile
  8094                           
  8095                           ;mcc_generated_files/usb/usb_device.c: 323:     UCONbits.PKTDIS = 0;
  8096  0019FE  9860               	bcf	96,4,c	;volatile
  8097                           
  8098                           ;mcc_generated_files/usb/usb_device.c: 326:     UCONbits.PPBRST = 0;
  8099  001A00  9C60               	bcf	96,6,c	;volatile
  8100  001A02                     i2l6162:
  8101                           
  8102                           ;mcc_generated_files/usb/usb_device.c: 330:     {;mcc_generated_files/usb/usb_device.c: 
      +                          331:         (UIR &= 0xF7);
  8103  001A02  9665               	bcf	101,3,c	;volatile
  8104                           
  8105                           ;mcc_generated_files/usb/usb_device.c: 333:         inPipes[0].info.Val = 0;
  8106  001A04  0E00               	movlw	0
  8107  001A06  0100               	movlb	0	; () banked
  8108  001A08  6FCC               	movwf	(_inPipes+3)& (0+255),b	;volatile
  8109                           
  8110                           ; BSR set to: 0
  8111                           ;mcc_generated_files/usb/usb_device.c: 334:         outPipes[0].info.Val = 0;
  8112  001A0A  0E00               	movlw	0
  8113  001A0C  6FC4               	movwf	(_outPipes+3)& (0+255),b	;volatile
  8114                           
  8115                           ; BSR set to: 0
  8116                           ;mcc_generated_files/usb/usb_device.c: 335:         outPipes[0].wCount.Val = 0;
  8117  001A0E  0E00               	movlw	0
  8118  001A10  6FC6               	movwf	(_outPipes+5)& (0+255),b	;volatile
  8119  001A12  0E00               	movlw	0
  8120  001A14  6FC5               	movwf	(_outPipes+4)& (0+255),b	;volatile
  8121                           
  8122                           ; BSR set to: 0
  8123                           ;mcc_generated_files/usb/usb_device.c: 336:     }while(UIRbits.TRNIF == 1);
  8124  001A16  B665               	btfsc	101,3,c	;volatile
  8125  001A18  D7F4               	goto	i2l6162
  8126                           
  8127                           ; BSR set to: 0
  8128                           ;mcc_generated_files/usb/usb_device.c: 340:     USBStatusStageEnabledFlag1 = 1;
  8129  001A1A  0E01               	movlw	1
  8130  001A1C  6E49               	movwf	_USBStatusStageEnabledFlag1^0,c	;volatile
  8131                           
  8132                           ;mcc_generated_files/usb/usb_device.c: 341:     USBStatusStageEnabledFlag2 = 1;
  8133  001A1E  0E01               	movlw	1
  8134  001A20  6E48               	movwf	_USBStatusStageEnabledFlag2^0,c	;volatile
  8135                           
  8136                           ;mcc_generated_files/usb/usb_device.c: 343:     USBDeferINDataStagePackets = 0;
  8137  001A22  0E00               	movlw	0
  8138  001A24  6E47               	movwf	_USBDeferINDataStagePackets^0,c	;volatile
  8139                           
  8140                           ;mcc_generated_files/usb/usb_device.c: 344:     USBDeferOUTDataStagePackets = 0;
  8141  001A26  0E00               	movlw	0
  8142  001A28  6E46               	movwf	_USBDeferOUTDataStagePackets^0,c	;volatile
  8143                           
  8144                           ;mcc_generated_files/usb/usb_device.c: 345:     USBBusIsSuspended = 0;
  8145  001A2A  0E00               	movlw	0
  8146  001A2C  6FE5               	movwf	_USBBusIsSuspended& (0+255),b	;volatile
  8147                           
  8148                           ;mcc_generated_files/usb/usb_device.c: 349:     for(i = 0; i < (uint8_t)(2 +1u); i++)
  8149  001A2E  0E00               	movlw	0
  8150  001A30  6E0D               	movwf	i2USBDeviceInit@i^0,c
  8151  001A32                     i2l6178:
  8152                           
  8153                           ;mcc_generated_files/usb/usb_device.c: 350:     {;mcc_generated_files/usb/usb_device.c: 
      +                          351:         pBDTEntryIn[i] = 0u;
  8154  001A32  500D               	movf	i2USBDeviceInit@i^0,w,c
  8155  001A34  0D02               	mullw	2
  8156  001A36  50F3               	movf	243,w,c
  8157  001A38  0FCF               	addlw	low _pBDTEntryIn
  8158  001A3A  6ED9               	movwf	fsr2l,c
  8159  001A3C  6ADA               	clrf	fsr2h,c
  8160  001A3E  0E00               	movlw	0
  8161  001A40  6EDE               	movwf	postinc2,c
  8162  001A42  0E00               	movlw	0
  8163  001A44  6EDD               	movwf	postdec2,c
  8164                           
  8165                           ;mcc_generated_files/usb/usb_device.c: 352:         pBDTEntryOut[i] = 0u;
  8166  001A46  500D               	movf	i2USBDeviceInit@i^0,w,c
  8167  001A48  0D02               	mullw	2
  8168  001A4A  50F3               	movf	243,w,c
  8169  001A4C  0F2C               	addlw	low _pBDTEntryOut
  8170  001A4E  6ED9               	movwf	fsr2l,c
  8171  001A50  6ADA               	clrf	fsr2h,c
  8172  001A52  0E00               	movlw	0
  8173  001A54  6EDE               	movwf	postinc2,c
  8174  001A56  0E00               	movlw	0
  8175  001A58  6EDD               	movwf	postdec2,c
  8176                           
  8177                           ;mcc_generated_files/usb/usb_device.c: 353:         ep_data_in[i].Val = 0u;
  8178  001A5A  500D               	movf	i2USBDeviceInit@i^0,w,c
  8179  001A5C  0FD8               	addlw	low _ep_data_in
  8180  001A5E  6ED9               	movwf	fsr2l,c
  8181  001A60  6ADA               	clrf	fsr2h,c
  8182  001A62  0E00               	movlw	0
  8183  001A64  6EDF               	movwf	indf2,c
  8184                           
  8185                           ;mcc_generated_files/usb/usb_device.c: 354:         ep_data_out[i].Val = 0u;
  8186  001A66  500D               	movf	i2USBDeviceInit@i^0,w,c
  8187  001A68  0FD5               	addlw	low _ep_data_out
  8188  001A6A  6ED9               	movwf	fsr2l,c
  8189  001A6C  6ADA               	clrf	fsr2h,c
  8190  001A6E  0E00               	movlw	0
  8191  001A70  6EDF               	movwf	indf2,c
  8192                           
  8193                           ;mcc_generated_files/usb/usb_device.c: 355:     }
  8194  001A72  2A0D               	incf	i2USBDeviceInit@i^0,f,c
  8195  001A74  0E02               	movlw	2
  8196  001A76  640D               	cpfsgt	i2USBDeviceInit@i^0,c
  8197  001A78  D7DC               	goto	i2l6178
  8198                           
  8199                           ;mcc_generated_files/usb/usb_device.c: 358:     pBDTEntryIn[0] = (volatile BDT_ENTRY*)&B
      +                          DT[2];
  8200  001A7A  0E08               	movlw	8
  8201  001A7C  0100               	movlb	0	; () banked
  8202  001A7E  6FCF               	movwf	_pBDTEntryIn& (0+255),b
  8203  001A80  0E04               	movlw	4
  8204  001A82  6FD0               	movwf	(_pBDTEntryIn+1)& (0+255),b
  8205                           
  8206                           ; BSR set to: 0
  8207                           ;mcc_generated_files/usb/usb_device.c: 360:     UEP0 = 0x06|0x10;
  8208  001A84  0E16               	movlw	22
  8209  001A86  6E6A               	movwf	106,c	;volatile
  8210                           
  8211                           ; BSR set to: 0
  8212                           ;mcc_generated_files/usb/usb_device.c: 362:     BDT[0].ADR = ((uint16_t)(&SetupPkt));
  8213  001A88  0E04               	movlw	4
  8214  001A8A  0104               	movlb	4	; () banked
  8215  001A8C  6F03               	movwf	3,b	;volatile
  8216  001A8E  0E30               	movlw	48
  8217  001A90  6F02               	movwf	2,b	;volatile
  8218                           
  8219                           ; BSR set to: 4
  8220                           ;mcc_generated_files/usb/usb_device.c: 363:     BDT[0].CNT = 8;
  8221  001A92  0E08               	movlw	8
  8222  001A94  6F01               	movwf	1,b	;volatile
  8223                           
  8224                           ; BSR set to: 4
  8225                           ;mcc_generated_files/usb/usb_device.c: 364:     BDT[0].STAT.Val = 0x00|0x04;
  8226  001A96  0E04               	movlw	4
  8227  001A98  6F00               	movwf	0,b	;volatile
  8228                           
  8229                           ; BSR set to: 4
  8230                           ;mcc_generated_files/usb/usb_device.c: 365:     BDT[0].STAT.Val |= 0x80;
  8231  001A9A  8F00               	bsf	0,7,b	;volatile
  8232                           
  8233                           ; BSR set to: 4
  8234                           ;mcc_generated_files/usb/usb_device.c: 368:     USBActiveConfiguration = 0;
  8235  001A9C  0E00               	movlw	0
  8236  001A9E  6E55               	movwf	_USBActiveConfiguration^0,c	;volatile
  8237                           
  8238                           ; BSR set to: 4
  8239                           ;mcc_generated_files/usb/usb_device.c: 370:     USB1msTickCount = 0;
  8240  001AA0  0E00               	movlw	0
  8241  001AA2  0101               	movlb	1	; () banked
  8242  001AA4  6F1A               	movwf	_USB1msTickCount& (0+255),b	;volatile
  8243  001AA6  0E00               	movlw	0
  8244  001AA8  6F1B               	movwf	(_USB1msTickCount+1)& (0+255),b	;volatile
  8245  001AAA  0E00               	movlw	0
  8246  001AAC  6F1C               	movwf	(_USB1msTickCount+2)& (0+255),b	;volatile
  8247  001AAE  0E00               	movlw	0
  8248  001AB0  6F1D               	movwf	(_USB1msTickCount+3)& (0+255),b	;volatile
  8249                           
  8250                           ; BSR set to: 1
  8251                           ;mcc_generated_files/usb/usb_device.c: 371:     USBTicksSinceSuspendEnd = 0;
  8252  001AB2  0E00               	movlw	0
  8253  001AB4  0100               	movlb	0	; () banked
  8254  001AB6  6FE4               	movwf	_USBTicksSinceSuspendEnd& (0+255),b	;volatile
  8255                           
  8256                           ; BSR set to: 0
  8257                           ;mcc_generated_files/usb/usb_device.c: 374:     USBDeviceState = DETACHED_STATE;
  8258  001AB8  0E00               	movlw	0
  8259  001ABA  6E51               	movwf	_USBDeviceState^0,c	;volatile
  8260                           
  8261                           ; BSR set to: 0
  8262  001ABC  0012               	return		;funcret
  8263  001ABE                     __end_ofi2_USBDeviceInit:
  8264                           	callstack 0
  8265                           
  8266 ;; *************** function _USBWakeFromSuspend *****************
  8267 ;; Defined at:
  8268 ;;		line 2307 in file "mcc_generated_files/usb/usb_device.c"
  8269 ;; Parameters:    Size  Location     Type
  8270 ;;		None
  8271 ;; Auto vars:     Size  Location     Type
  8272 ;;		None
  8273 ;; Return value:  Size  Location     Type
  8274 ;;                  1    wreg      void 
  8275 ;; Registers used:
  8276 ;;		wreg, fsr2l, fsr2h, status,2, status,0, prodl, prodh, cstack
  8277 ;; Tracked objects:
  8278 ;;		On entry : 0/0
  8279 ;;		On exit  : 3F/0
  8280 ;;		Unchanged: 0/0
  8281 ;; Data sizes:     COMRAM   BANK0   BANK1   BANK2   BANK3   BANK4   BANK5   BANK6   BANK7
  8282 ;;      Params:         0       0       0       0       0       0       0       0       0
  8283 ;;      Locals:         0       0       0       0       0       0       0       0       0
  8284 ;;      Temps:          0       0       0       0       0       0       0       0       0
  8285 ;;      Totals:         0       0       0       0       0       0       0       0       0
  8286 ;;Total ram usage:        0 bytes
  8287 ;; Hardware stack levels used: 1
  8288 ;; Hardware stack levels required when called: 4
  8289 ;; This function calls:
  8290 ;;		_USER_USB_CALLBACK_EVENT_HANDLER
  8291 ;; This function is called by:
  8292 ;;		_USBDeviceTasks
  8293 ;; This function uses a non-reentrant model
  8294 ;;
  8295                           
  8296                           	psect	text46
  8297  003346                     __ptext46:
  8298                           	callstack 0
  8299  003346                     _USBWakeFromSuspend:
  8300                           	callstack 16
  8301                           
  8302                           ;mcc_generated_files/usb/usb_device.c: 2309:     USBBusIsSuspended = 0;
  8303                           
  8304                           ; BSR set to: 0
  8305                           ;incstack = 0
  8306  003346  0E00               	movlw	0
  8307  003348  0100               	movlb	0	; () banked
  8308  00334A  6FE5               	movwf	_USBBusIsSuspended& (0+255),b	;volatile
  8309                           
  8310                           ; BSR set to: 0
  8311                           ;mcc_generated_files/usb/usb_device.c: 2315:     USER_USB_CALLBACK_EVENT_HANDLER((USB_EV
      +                          ENT)EVENT_RESUME,0,0);
  8312  00334C  0E00               	movlw	0
  8313  00334E  6E0E               	movwf	(USER_USB_CALLBACK_EVENT_HANDLER@event+1)^0,c
  8314  003350  0E74               	movlw	116
  8315  003352  6E0D               	movwf	USER_USB_CALLBACK_EVENT_HANDLER@event^0,c
  8316  003354  0E00               	movlw	0
  8317  003356  6E0F               	movwf	USER_USB_CALLBACK_EVENT_HANDLER@pdata^0,c
  8318  003358  0E00               	movlw	0
  8319  00335A  6E10               	movwf	(USER_USB_CALLBACK_EVENT_HANDLER@pdata+1)^0,c
  8320  00335C  0E00               	movlw	0
  8321  00335E  6E12               	movwf	(USER_USB_CALLBACK_EVENT_HANDLER@size+1)^0,c
  8322  003360  0E00               	movlw	0
  8323  003362  6E11               	movwf	USER_USB_CALLBACK_EVENT_HANDLER@size^0,c
  8324  003364  EC85  F018         	call	_USER_USB_CALLBACK_EVENT_HANDLER	;wreg free
  8325                           
  8326                           ;mcc_generated_files/usb/usb_device.c: 2322:         UCONbits.SUSPND = 0;
  8327  003368  9260               	bcf	96,1,c	;volatile
  8328                           
  8329                           ;mcc_generated_files/usb/usb_device.c: 2327:     UIEbits.ACTVIE = 0;
  8330  00336A  9464               	bcf	100,2,c	;volatile
  8331                           
  8332                           ;mcc_generated_files/usb/usb_device.c: 2345:     while(UIRbits.ACTVIF)
  8333  00336C  D001               	goto	i2l5712
  8334  00336E                     i2l5710:
  8335                           
  8336                           ;mcc_generated_files/usb/usb_device.c: 2347:     {;mcc_generated_files/usb/usb_device.c:
      +                           2348:         (UIR &= 0xFB);
  8337  00336E  9465               	bcf	101,2,c	;volatile
  8338  003370                     i2l5712:
  8339                           
  8340                           ;mcc_generated_files/usb/usb_device.c: 2345:     while(UIRbits.ACTVIF)
  8341  003370  B465               	btfsc	101,2,c	;volatile
  8342  003372  D7FD               	goto	i2l5710
  8343                           
  8344                           ;mcc_generated_files/usb/usb_device.c: 2351:     USBTicksSinceSuspendEnd = 0;
  8345  003374  0E00               	movlw	0
  8346  003376  0100               	movlb	0	; () banked
  8347  003378  6FE4               	movwf	_USBTicksSinceSuspendEnd& (0+255),b	;volatile
  8348                           
  8349                           ; BSR set to: 0
  8350  00337A  0012               	return		;funcret
  8351  00337C                     __end_of_USBWakeFromSuspend:
  8352                           	callstack 0
  8353                           
  8354 ;; *************** function _USBSuspend *****************
  8355 ;; Defined at:
  8356 ;;		line 2249 in file "mcc_generated_files/usb/usb_device.c"
  8357 ;; Parameters:    Size  Location     Type
  8358 ;;		None
  8359 ;; Auto vars:     Size  Location     Type
  8360 ;;		None
  8361 ;; Return value:  Size  Location     Type
  8362 ;;                  1    wreg      void 
  8363 ;; Registers used:
  8364 ;;		wreg, fsr2l, fsr2h, status,2, status,0, prodl, prodh, cstack
  8365 ;; Tracked objects:
  8366 ;;		On entry : 0/0
  8367 ;;		On exit  : 0/0
  8368 ;;		Unchanged: 0/0
  8369 ;; Data sizes:     COMRAM   BANK0   BANK1   BANK2   BANK3   BANK4   BANK5   BANK6   BANK7
  8370 ;;      Params:         0       0       0       0       0       0       0       0       0
  8371 ;;      Locals:         0       0       0       0       0       0       0       0       0
  8372 ;;      Temps:          0       0       0       0       0       0       0       0       0
  8373 ;;      Totals:         0       0       0       0       0       0       0       0       0
  8374 ;;Total ram usage:        0 bytes
  8375 ;; Hardware stack levels used: 1
  8376 ;; Hardware stack levels required when called: 4
  8377 ;; This function calls:
  8378 ;;		_USER_USB_CALLBACK_EVENT_HANDLER
  8379 ;; This function is called by:
  8380 ;;		_USBDeviceTasks
  8381 ;; This function uses a non-reentrant model
  8382 ;;
  8383                           
  8384                           	psect	text47
  8385  0034A8                     __ptext47:
  8386                           	callstack 0
  8387  0034A8                     _USBSuspend:
  8388                           	callstack 16
  8389                           
  8390                           ;mcc_generated_files/usb/usb_device.c: 2274:     UIEbits.ACTVIE = 1;
  8391                           
  8392                           ; BSR set to: 0
  8393                           ;incstack = 0
  8394  0034A8  8464               	bsf	100,2,c	;volatile
  8395                           
  8396                           ;mcc_generated_files/usb/usb_device.c: 2275:     (UIR &= 0xEF);
  8397  0034AA  9865               	bcf	101,4,c	;volatile
  8398                           
  8399                           ;mcc_generated_files/usb/usb_device.c: 2278:         UCONbits.SUSPND = 1;
  8400  0034AC  8260               	bsf	96,1,c	;volatile
  8401                           
  8402                           ;mcc_generated_files/usb/usb_device.c: 2281:     USBBusIsSuspended = 1;
  8403  0034AE  0E01               	movlw	1
  8404  0034B0  0100               	movlb	0	; () banked
  8405  0034B2  6FE5               	movwf	_USBBusIsSuspended& (0+255),b	;volatile
  8406                           
  8407                           ; BSR set to: 0
  8408                           ;mcc_generated_files/usb/usb_device.c: 2282:     USBTicksSinceSuspendEnd = 0;
  8409  0034B4  0E00               	movlw	0
  8410  0034B6  6FE4               	movwf	_USBTicksSinceSuspendEnd& (0+255),b	;volatile
  8411                           
  8412                           ; BSR set to: 0
  8413                           ;mcc_generated_files/usb/usb_device.c: 2289:     USER_USB_CALLBACK_EVENT_HANDLER((USB_EV
      +                          ENT)EVENT_SUSPEND,0,0);
  8414  0034B8  0E00               	movlw	0
  8415  0034BA  6E0E               	movwf	(USER_USB_CALLBACK_EVENT_HANDLER@event+1)^0,c
  8416  0034BC  0E75               	movlw	117
  8417  0034BE  6E0D               	movwf	USER_USB_CALLBACK_EVENT_HANDLER@event^0,c
  8418  0034C0  0E00               	movlw	0
  8419  0034C2  6E0F               	movwf	USER_USB_CALLBACK_EVENT_HANDLER@pdata^0,c
  8420  0034C4  0E00               	movlw	0
  8421  0034C6  6E10               	movwf	(USER_USB_CALLBACK_EVENT_HANDLER@pdata+1)^0,c
  8422  0034C8  0E00               	movlw	0
  8423  0034CA  6E12               	movwf	(USER_USB_CALLBACK_EVENT_HANDLER@size+1)^0,c
  8424  0034CC  0E00               	movlw	0
  8425  0034CE  6E11               	movwf	USER_USB_CALLBACK_EVENT_HANDLER@size^0,c
  8426  0034D0  EC85  F018         	call	_USER_USB_CALLBACK_EVENT_HANDLER	;wreg free
  8427  0034D4  0012               	return		;funcret
  8428  0034D6                     __end_of_USBSuspend:
  8429                           	callstack 0
  8430                           
  8431 ;; *************** function _USBStallHandler *****************
  8432 ;; Defined at:
  8433 ;;		line 2206 in file "mcc_generated_files/usb/usb_device.c"
  8434 ;; Parameters:    Size  Location     Type
  8435 ;;		None
  8436 ;; Auto vars:     Size  Location     Type
  8437 ;;		None
  8438 ;; Return value:  Size  Location     Type
  8439 ;;                  1    wreg      void 
  8440 ;; Registers used:
  8441 ;;		wreg, fsr2l, fsr2h, status,2, status,0
  8442 ;; Tracked objects:
  8443 ;;		On entry : 0/0
  8444 ;;		On exit  : 0/0
  8445 ;;		Unchanged: 0/0
  8446 ;; Data sizes:     COMRAM   BANK0   BANK1   BANK2   BANK3   BANK4   BANK5   BANK6   BANK7
  8447 ;;      Params:         0       0       0       0       0       0       0       0       0
  8448 ;;      Locals:         0       0       0       0       0       0       0       0       0
  8449 ;;      Temps:          1       0       0       0       0       0       0       0       0
  8450 ;;      Totals:         1       0       0       0       0       0       0       0       0
  8451 ;;Total ram usage:        1 bytes
  8452 ;; Hardware stack levels used: 1
  8453 ;; This function calls:
  8454 ;;		Nothing
  8455 ;; This function is called by:
  8456 ;;		_USBDeviceTasks
  8457 ;; This function uses a non-reentrant model
  8458 ;;
  8459                           
  8460                           	psect	text48
  8461  003252                     __ptext48:
  8462                           	callstack 0
  8463  003252                     _USBStallHandler:
  8464                           	callstack 20
  8465                           
  8466                           ;mcc_generated_files/usb/usb_device.c: 2218:     if(UEP0bits.EPSTALL == 1)
  8467                           
  8468                           ;incstack = 0
  8469  003252  A06A               	btfss	106,0,c	;volatile
  8470  003254  D01D               	goto	i2l297
  8471                           
  8472                           ;mcc_generated_files/usb/usb_device.c: 2219:     {;mcc_generated_files/usb/usb_device.c:
      +                           2221:         if((pBDTEntryEP0OutCurrent->STAT.Val == 0x80) && (pBDTEntryIn[0]->STAT.Va
      +                          l == (0x80|0x04)))
  8473  003256  C03E  FFD9         	movff	_pBDTEntryEP0OutCurrent,fsr2l
  8474  00325A  C03F  FFDA         	movff	_pBDTEntryEP0OutCurrent+1,fsr2h
  8475  00325E  0E80               	movlw	128
  8476  003260  18DE               	xorwf	postinc2,w,c
  8477  003262  A4D8               	btfss	status,2,c
  8478  003264  D014               	goto	i2l5748
  8479  003266  C0CF  FFD9         	movff	_pBDTEntryIn,fsr2l
  8480  00326A  C0D0  FFDA         	movff	_pBDTEntryIn+1,fsr2h
  8481  00326E  0E84               	movlw	132
  8482  003270  18DE               	xorwf	postinc2,w,c
  8483  003272  A4D8               	btfss	status,2,c
  8484  003274  D00C               	goto	i2l5748
  8485                           
  8486                           ;mcc_generated_files/usb/usb_device.c: 2222:         {;mcc_generated_files/usb/usb_devic
      +                          e.c: 2224:             pBDTEntryEP0OutCurrent->STAT.Val = 0x00|(0x08 & 0x08)|0x04;
  8487  003276  C03E  FFD9         	movff	_pBDTEntryEP0OutCurrent,fsr2l
  8488  00327A  C03F  FFDA         	movff	_pBDTEntryEP0OutCurrent+1,fsr2h
  8489  00327E  0E0C               	movlw	12
  8490  003280  6EDF               	movwf	indf2,c
  8491                           
  8492                           ;mcc_generated_files/usb/usb_device.c: 2225:             pBDTEntryEP0OutCurrent->STAT.Va
      +                          l |= 0x80;
  8493  003282  C03E  FFD9         	movff	_pBDTEntryEP0OutCurrent,fsr2l
  8494  003286  C03F  FFDA         	movff	_pBDTEntryEP0OutCurrent+1,fsr2h
  8495  00328A  0E00               	movlw	0
  8496  00328C  8EDB               	bsf	plusw2,7,c
  8497  00328E                     i2l5748:
  8498                           
  8499                           ;mcc_generated_files/usb/usb_device.c: 2227:         UEP0bits.EPSTALL = 0;
  8500  00328E  906A               	bcf	106,0,c	;volatile
  8501  003290                     i2l297:
  8502                           
  8503                           ;mcc_generated_files/usb/usb_device.c: 2230:     (UIR &= 0xDF);
  8504  003290  9A65               	bcf	101,5,c	;volatile
  8505  003292  0012               	return		;funcret
  8506  003294                     __end_of_USBStallHandler:
  8507                           	callstack 0
  8508                           
  8509 ;; *************** function _USBIncrement1msInternalTimers *****************
  8510 ;; Defined at:
  8511 ;;		line 3029 in file "mcc_generated_files/usb/usb_device.c"
  8512 ;; Parameters:    Size  Location     Type
  8513 ;;		None
  8514 ;; Auto vars:     Size  Location     Type
  8515 ;;		None
  8516 ;; Return value:  Size  Location     Type
  8517 ;;                  1    wreg      void 
  8518 ;; Registers used:
  8519 ;;		wreg, status,2, status,0
  8520 ;; Tracked objects:
  8521 ;;		On entry : 0/0
  8522 ;;		On exit  : 3F/0
  8523 ;;		Unchanged: 0/0
  8524 ;; Data sizes:     COMRAM   BANK0   BANK1   BANK2   BANK3   BANK4   BANK5   BANK6   BANK7
  8525 ;;      Params:         0       0       0       0       0       0       0       0       0
  8526 ;;      Locals:         0       0       0       0       0       0       0       0       0
  8527 ;;      Temps:          0       0       0       0       0       0       0       0       0
  8528 ;;      Totals:         0       0       0       0       0       0       0       0       0
  8529 ;;Total ram usage:        0 bytes
  8530 ;; Hardware stack levels used: 1
  8531 ;; This function calls:
  8532 ;;		Nothing
  8533 ;; This function is called by:
  8534 ;;		_USBDeviceTasks
  8535 ;; This function uses a non-reentrant model
  8536 ;;
  8537                           
  8538                           	psect	text49
  8539  0035D2                     __ptext49:
  8540                           	callstack 0
  8541  0035D2                     _USBIncrement1msInternalTimers:
  8542                           	callstack 20
  8543                           
  8544                           ;mcc_generated_files/usb/usb_device.c: 3037:     USB1msTickCount++;
  8545                           
  8546                           ;incstack = 0
  8547  0035D2  0E01               	movlw	1
  8548  0035D4  0101               	movlb	1	; () banked
  8549  0035D6  271A               	addwf	_USB1msTickCount& (0+255),f,b	;volatile
  8550  0035D8  0E00               	movlw	0
  8551  0035DA  231B               	addwfc	(_USB1msTickCount+1)& (0+255),f,b	;volatile
  8552  0035DC  231C               	addwfc	(_USB1msTickCount+2)& (0+255),f,b	;volatile
  8553  0035DE  231D               	addwfc	(_USB1msTickCount+3)& (0+255),f,b	;volatile
  8554                           
  8555                           ; BSR set to: 1
  8556                           ;mcc_generated_files/usb/usb_device.c: 3038:     if(USBBusIsSuspended == 0)
  8557  0035E0  0100               	movlb	0	; () banked
  8558  0035E2  51E5               	movf	_USBBusIsSuspended& (0+255),w,b	;volatile
  8559  0035E4  A4D8               	btfss	status,2,c
  8560  0035E6  0012               	return	
  8561                           
  8562                           ; BSR set to: 0
  8563                           ;mcc_generated_files/usb/usb_device.c: 3039:     {;mcc_generated_files/usb/usb_device.c:
      +                           3040:         USBTicksSinceSuspendEnd++;
  8564  0035E8  2BE4               	incf	_USBTicksSinceSuspendEnd& (0+255),f,b	;volatile
  8565                           
  8566                           ; BSR set to: 0
  8567                           ;mcc_generated_files/usb/usb_device.c: 3042:         if(USBTicksSinceSuspendEnd == 0)
  8568  0035EA  51E4               	movf	_USBTicksSinceSuspendEnd& (0+255),w,b	;volatile
  8569  0035EC  A4D8               	btfss	status,2,c
  8570  0035EE  0012               	return	
  8571                           
  8572                           ; BSR set to: 0
  8573                           ;mcc_generated_files/usb/usb_device.c: 3043:         {;mcc_generated_files/usb/usb_devic
      +                          e.c: 3044:             USBTicksSinceSuspendEnd = 255;
  8574  0035F0  69E4               	setf	_USBTicksSinceSuspendEnd& (0+255),b	;volatile
  8575                           
  8576                           ; BSR set to: 0
  8577  0035F2  0012               	return		;funcret
  8578  0035F4                     __end_of_USBIncrement1msInternalTimers:
  8579                           	callstack 0
  8580                           
  8581 ;; *************** function _USBCtrlEPService *****************
  8582 ;; Defined at:
  8583 ;;		line 2376 in file "mcc_generated_files/usb/usb_device.c"
  8584 ;; Parameters:    Size  Location     Type
  8585 ;;		None
  8586 ;; Auto vars:     Size  Location     Type
  8587 ;;		None
  8588 ;; Return value:  Size  Location     Type
  8589 ;;                  1    wreg      void 
  8590 ;; Registers used:
  8591 ;;		wreg, fsr1l, fsr1h, fsr2l, fsr2h, status,2, status,0, tblptrl, tblptrh, tblptru, prodl, prodh, cstack
  8592 ;; Tracked objects:
  8593 ;;		On entry : 3F/0
  8594 ;;		On exit  : 0/0
  8595 ;;		Unchanged: 0/0
  8596 ;; Data sizes:     COMRAM   BANK0   BANK1   BANK2   BANK3   BANK4   BANK5   BANK6   BANK7
  8597 ;;      Params:         0       0       0       0       0       0       0       0       0
  8598 ;;      Locals:         0       0       0       0       0       0       0       0       0
  8599 ;;      Temps:          1       0       0       0       0       0       0       0       0
  8600 ;;      Totals:         1       0       0       0       0       0       0       0       0
  8601 ;;Total ram usage:        1 bytes
  8602 ;; Hardware stack levels used: 1
  8603 ;; Hardware stack levels required when called: 7
  8604 ;; This function calls:
  8605 ;;		_USBCtrlTrfInHandler
  8606 ;;		_USBCtrlTrfOutHandler
  8607 ;;		_USBCtrlTrfSetupHandler
  8608 ;;		_memcpy
  8609 ;; This function is called by:
  8610 ;;		_USBDeviceTasks
  8611 ;; This function uses a non-reentrant model
  8612 ;;
  8613                           
  8614                           	psect	text50
  8615  002C80                     __ptext50:
  8616                           	callstack 0
  8617  002C80                     _USBCtrlEPService:
  8618                           	callstack 13
  8619                           
  8620                           ; BSR set to: 0
  8621                           ;mcc_generated_files/usb/usb_device.c: 2382:         USBStatusStageTimeoutCounter = (uin
      +                          t8_t)45;
  8622                           
  8623                           ; BSR set to: 0
  8624                           ;incstack = 0
  8625  002C80  0E2D               	movlw	45
  8626  002C82  6E4B               	movwf	_USBStatusStageTimeoutCounter^0,c	;volatile
  8627                           
  8628                           ; BSR set to: 0
  8629                           ;mcc_generated_files/usb/usb_device.c: 2386:     if((USTATcopy.Val & ~0x02) == 0x00)
  8630  002C84  C054  F01E         	movff	_USTATcopy,??_USBCtrlEPService	;volatile
  8631  002C88  0EFD               	movlw	253
  8632  002C8A  161E               	andwf	??_USBCtrlEPService^0,f,c
  8633  002C8C  A4D8               	btfss	status,2,c
  8634  002C8E  D03B               	goto	i2l5768
  8635                           
  8636                           ; BSR set to: 0
  8637                           ;mcc_generated_files/usb/usb_device.c: 2387:     {;mcc_generated_files/usb/usb_device.c:
      +                           2390:             pBDTEntryEP0OutCurrent = (volatile BDT_ENTRY*)&BDT[(USTATcopy.Val & 0
      +                          x7E)>>1];
  8638  002C90  C054  F01E         	movff	_USTATcopy,??_USBCtrlEPService	;volatile
  8639  002C94  90D8               	bcf	status,0,c
  8640  002C96  321E               	rrcf	??_USBCtrlEPService^0,f,c
  8641  002C98  0E3F               	movlw	63
  8642  002C9A  161E               	andwf	??_USBCtrlEPService^0,f,c
  8643  002C9C  501E               	movf	??_USBCtrlEPService^0,w,c
  8644  002C9E  0D04               	mullw	4
  8645  002CA0  0E00               	movlw	0
  8646  002CA2  24F3               	addwf	243,w,c
  8647  002CA4  6E3E               	movwf	_pBDTEntryEP0OutCurrent^0,c
  8648  002CA6  0E04               	movlw	4
  8649  002CA8  20F4               	addwfc	prodh,w,c
  8650  002CAA  6E3F               	movwf	(_pBDTEntryEP0OutCurrent+1)^0,c
  8651                           
  8652                           ; BSR set to: 0
  8653                           ;mcc_generated_files/usb/usb_device.c: 2398:         pBDTEntryEP0OutNext = pBDTEntryEP0O
      +                          utCurrent;
  8654  002CAC  C03E  F03C         	movff	_pBDTEntryEP0OutCurrent,_pBDTEntryEP0OutNext
  8655  002CB0  C03F  F03D         	movff	_pBDTEntryEP0OutCurrent+1,_pBDTEntryEP0OutNext+1
  8656                           
  8657                           ; BSR set to: 0
  8658                           ;mcc_generated_files/usb/usb_device.c: 2400:         pBDTEntryEP0OutNext = (volatile BDT
      +                          _ENTRY*)(((uint16_t)pBDTEntryEP0OutNext) ^ 0x0004);
  8659  002CB4  0E04               	movlw	4
  8660  002CB6  183C               	xorwf	_pBDTEntryEP0OutNext^0,w,c
  8661  002CB8  6E3C               	movwf	_pBDTEntryEP0OutNext^0,c
  8662  002CBA  503D               	movf	(_pBDTEntryEP0OutNext+1)^0,w,c
  8663  002CBC  6E3D               	movwf	(_pBDTEntryEP0OutNext+1)^0,c
  8664                           
  8665                           ; BSR set to: 0
  8666                           ;mcc_generated_files/usb/usb_device.c: 2403:         if(pBDTEntryEP0OutCurrent->STAT.PID
      +                           == 0xD)
  8667  002CBE  C03E  FFD9         	movff	_pBDTEntryEP0OutCurrent,fsr2l
  8668  002CC2  C03F  FFDA         	movff	_pBDTEntryEP0OutCurrent+1,fsr2h
  8669  002CC6  30DF               	rrcf	223,w,c
  8670  002CC8  32E8               	rrcf	wreg,f,c
  8671  002CCA  0B0F               	andlw	15
  8672  002CCC  0A0D               	xorlw	13
  8673  002CCE  A4D8               	btfss	status,2,c
  8674  002CD0  D017               	goto	i2l5766
  8675                           
  8676                           ; BSR set to: 0
  8677                           ;mcc_generated_files/usb/usb_device.c: 2404:         {;mcc_generated_files/usb/usb_devic
      +                          e.c: 2409:             memcpy((uint8_t*)&SetupPkt, (uint8_t*)((void *)(pBDTEntryEP0OutCu
      +                          rrent->ADR)), 8);
  8678  002CD2  0E30               	movlw	48
  8679  002CD4  6E01               	movwf	memcpy@d1^0,c
  8680  002CD6  0E04               	movlw	4
  8681  002CD8  6E02               	movwf	(memcpy@d1+1)^0,c
  8682  002CDA  EE20 F002          	lfsr	2,2
  8683  002CDE  503E               	movf	_pBDTEntryEP0OutCurrent^0,w,c
  8684  002CE0  26D9               	addwf	fsr2l,f,c
  8685  002CE2  503F               	movf	(_pBDTEntryEP0OutCurrent+1)^0,w,c
  8686  002CE4  22DA               	addwfc	fsr2h,f,c
  8687  002CE6  CFDE F003          	movff	postinc2,memcpy@s1
  8688  002CEA  CFDD F004          	movff	postdec2,memcpy@s1+1
  8689  002CEE  0E00               	movlw	0
  8690  002CF0  6E06               	movwf	(memcpy@n+1)^0,c
  8691  002CF2  0E08               	movlw	8
  8692  002CF4  6E05               	movwf	memcpy@n^0,c
  8693  002CF6  EC07  F019         	call	_memcpy	;wreg free
  8694                           
  8695                           ; BSR set to: 0
  8696                           ;mcc_generated_files/usb/usb_device.c: 2412:             USBCtrlTrfSetupHandler();
  8697  002CFA  ECD3  F016         	call	_USBCtrlTrfSetupHandler	;wreg free
  8698                           
  8699                           ;mcc_generated_files/usb/usb_device.c: 2413:         }
  8700  002CFE  0012               	return	
  8701  002D00                     i2l5766:
  8702                           
  8703                           ; BSR set to: 0
  8704                           ;mcc_generated_files/usb/usb_device.c: 2415:         {;mcc_generated_files/usb/usb_devic
      +                          e.c: 2417:             USBCtrlTrfOutHandler();
  8705  002D00  ECB3  F018         	call	_USBCtrlTrfOutHandler	;wreg free
  8706  002D04  0012               	return	
  8707  002D06                     i2l5768:
  8708                           
  8709                           ; BSR set to: 0
  8710  002D06  5054               	movf	_USTATcopy^0,w,c	;volatile
  8711  002D08  0BFD               	andlw	253
  8712  002D0A  0A04               	xorlw	4
  8713  002D0C  A4D8               	btfss	status,2,c
  8714  002D0E  0012               	return	
  8715                           
  8716                           ; BSR set to: 0
  8717                           ;mcc_generated_files/usb/usb_device.c: 2421:     {;mcc_generated_files/usb/usb_device.c:
      +                           2424:         USBCtrlTrfInHandler();
  8718  002D10  EC92  F014         	call	_USBCtrlTrfInHandler	;wreg free
  8719  002D14  0012               	return		;funcret
  8720  002D16                     __end_of_USBCtrlEPService:
  8721                           	callstack 0
  8722                           
  8723 ;; *************** function _memcpy *****************
  8724 ;; Defined at:
  8725 ;;		line 4 in file "/Applications/microchip/xc8/v2.36/pic/sources/c99/common/memcpy.c"
  8726 ;; Parameters:    Size  Location     Type
  8727 ;;  d1              2    0[COMRAM] PTR void 
  8728 ;;		 -> SetupPkt(8), 
  8729 ;;  s1              2    2[COMRAM] PTR const void 
  8730 ;;		 -> CtrlTrfData(8), RAM(2047), SetupPkt(8), 
  8731 ;;  n               2    4[COMRAM] unsigned int 
  8732 ;; Auto vars:     Size  Location     Type
  8733 ;;  s               2    8[COMRAM] PTR const unsigned char 
  8734 ;;		 -> CtrlTrfData(8), RAM(2047), SetupPkt(8), 
  8735 ;;  d               2    6[COMRAM] PTR unsigned char 
  8736 ;;		 -> SetupPkt(8), 
  8737 ;;  tmp             1   10[COMRAM] unsigned char 
  8738 ;; Return value:  Size  Location     Type
  8739 ;;                  2    0[COMRAM] PTR void 
  8740 ;; Registers used:
  8741 ;;		wreg, fsr2l, fsr2h, status,2, status,0
  8742 ;; Tracked objects:
  8743 ;;		On entry : 3F/0
  8744 ;;		On exit  : 3F/0
  8745 ;;		Unchanged: 3F/0
  8746 ;; Data sizes:     COMRAM   BANK0   BANK1   BANK2   BANK3   BANK4   BANK5   BANK6   BANK7
  8747 ;;      Params:         6       0       0       0       0       0       0       0       0
  8748 ;;      Locals:         5       0       0       0       0       0       0       0       0
  8749 ;;      Temps:          0       0       0       0       0       0       0       0       0
  8750 ;;      Totals:        11       0       0       0       0       0       0       0       0
  8751 ;;Total ram usage:       11 bytes
  8752 ;; Hardware stack levels used: 1
  8753 ;; This function calls:
  8754 ;;		Nothing
  8755 ;; This function is called by:
  8756 ;;		_USBCtrlEPService
  8757 ;; This function uses a non-reentrant model
  8758 ;;
  8759                           
  8760                           	psect	text51
  8761  00320E                     __ptext51:
  8762                           	callstack 0
  8763  00320E                     _memcpy:
  8764                           	callstack 19
  8765                           
  8766                           ; BSR set to: 0
  8767                           
  8768                           ;incstack = 0
  8769  00320E  C003  F009         	movff	memcpy@s1,memcpy@s
  8770  003212  C004  F00A         	movff	memcpy@s1+1,memcpy@s+1
  8771  003216  C001  F007         	movff	memcpy@d1,memcpy@d
  8772  00321A  C002  F008         	movff	memcpy@d1+1,memcpy@d+1
  8773  00321E  D010               	goto	i2l5390
  8774  003220                     i2l5382:
  8775                           
  8776                           ; BSR set to: 0
  8777  003220  C009  FFD9         	movff	memcpy@s,fsr2l
  8778  003224  C00A  FFDA         	movff	memcpy@s+1,fsr2h
  8779  003228  50DF               	movf	indf2,w,c
  8780  00322A  6E0B               	movwf	memcpy@tmp^0,c
  8781                           
  8782                           ; BSR set to: 0
  8783  00322C  4A09               	infsnz	memcpy@s^0,f,c
  8784  00322E  2A0A               	incf	(memcpy@s+1)^0,f,c
  8785                           
  8786                           ; BSR set to: 0
  8787  003230  C007  FFD9         	movff	memcpy@d,fsr2l
  8788  003234  C008  FFDA         	movff	memcpy@d+1,fsr2h
  8789  003238  C00B  FFDF         	movff	memcpy@tmp,indf2
  8790                           
  8791                           ; BSR set to: 0
  8792  00323C  4A07               	infsnz	memcpy@d^0,f,c
  8793  00323E  2A08               	incf	(memcpy@d+1)^0,f,c
  8794  003240                     i2l5390:
  8795                           
  8796                           ; BSR set to: 0
  8797  003240  0605               	decf	memcpy@n^0,f,c
  8798  003242  A0D8               	btfss	status,0,c
  8799  003244  0606               	decf	(memcpy@n+1)^0,f,c
  8800  003246  2805               	incf	memcpy@n^0,w,c
  8801  003248  E1EB               	bnz	i2l5382
  8802  00324A  2806               	incf	(memcpy@n+1)^0,w,c
  8803  00324C  B4D8               	btfsc	status,2,c
  8804  00324E  0012               	return	
  8805  003250  D7E7               	goto	i2l5382
  8806  003252                     __end_of_memcpy:
  8807                           	callstack 0
  8808                           
  8809 ;; *************** function _USBCtrlTrfSetupHandler *****************
  8810 ;; Defined at:
  8811 ;;		line 2469 in file "mcc_generated_files/usb/usb_device.c"
  8812 ;; Parameters:    Size  Location     Type
  8813 ;;		None
  8814 ;; Auto vars:     Size  Location     Type
  8815 ;;		None
  8816 ;; Return value:  Size  Location     Type
  8817 ;;                  1    wreg      void 
  8818 ;; Registers used:
  8819 ;;		wreg, fsr1l, fsr1h, fsr2l, fsr2h, status,2, status,0, tblptrl, tblptrh, tblptru, prodl, prodh, cstack
  8820 ;; Tracked objects:
  8821 ;;		On entry : 3F/0
  8822 ;;		On exit  : 0/0
  8823 ;;		Unchanged: 0/0
  8824 ;; Data sizes:     COMRAM   BANK0   BANK1   BANK2   BANK3   BANK4   BANK5   BANK6   BANK7
  8825 ;;      Params:         0       0       0       0       0       0       0       0       0
  8826 ;;      Locals:         0       0       0       0       0       0       0       0       0
  8827 ;;      Temps:          0       0       0       0       0       0       0       0       0
  8828 ;;      Totals:         0       0       0       0       0       0       0       0       0
  8829 ;;Total ram usage:        0 bytes
  8830 ;; Hardware stack levels used: 1
  8831 ;; Hardware stack levels required when called: 6
  8832 ;; This function calls:
  8833 ;;		_USBCheckStdRequest
  8834 ;;		_USBCtrlEPServiceComplete
  8835 ;;		_USER_USB_CALLBACK_EVENT_HANDLER
  8836 ;; This function is called by:
  8837 ;;		_USBCtrlEPService
  8838 ;; This function uses a non-reentrant model
  8839 ;;
  8840                           
  8841                           	psect	text52
  8842  002DA6                     __ptext52:
  8843                           	callstack 0
  8844  002DA6                     _USBCtrlTrfSetupHandler:
  8845                           	callstack 13
  8846                           
  8847                           ; BSR set to: 0
  8848                           ;mcc_generated_files/usb/usb_device.c: 2474:     shortPacketStatus = 0;
  8849                           
  8850                           ; BSR set to: 0
  8851                           ;incstack = 0
  8852  002DA6  0E00               	movlw	0
  8853  002DA8  6E50               	movwf	_shortPacketStatus^0,c	;volatile
  8854                           
  8855                           ;mcc_generated_files/usb/usb_device.c: 2475:     USBDeferStatusStagePacket = 0;
  8856  002DAA  0E00               	movlw	0
  8857  002DAC  6E4A               	movwf	_USBDeferStatusStagePacket^0,c	;volatile
  8858                           
  8859                           ;mcc_generated_files/usb/usb_device.c: 2476:     USBDeferINDataStagePackets = 0;
  8860  002DAE  0E00               	movlw	0
  8861  002DB0  6E47               	movwf	_USBDeferINDataStagePackets^0,c	;volatile
  8862                           
  8863                           ;mcc_generated_files/usb/usb_device.c: 2477:     USBDeferOUTDataStagePackets = 0;
  8864  002DB2  0E00               	movlw	0
  8865  002DB4  6E46               	movwf	_USBDeferOUTDataStagePackets^0,c	;volatile
  8866                           
  8867                           ;mcc_generated_files/usb/usb_device.c: 2478:     BothEP0OutUOWNsSet = 0;
  8868  002DB6  0E00               	movlw	0
  8869  002DB8  6E4C               	movwf	_BothEP0OutUOWNsSet^0,c	;volatile
  8870                           
  8871                           ;mcc_generated_files/usb/usb_device.c: 2479:     controlTransferState = 0;
  8872  002DBA  0E00               	movlw	0
  8873  002DBC  6E4F               	movwf	_controlTransferState^0,c	;volatile
  8874                           
  8875                           ; BSR set to: 0
  8876                           ;mcc_generated_files/usb/usb_device.c: 2488:     pBDTEntryIn[0]->STAT.Val &= ~(0x80);
  8877  002DBE  C0CF  FFD9         	movff	_pBDTEntryIn,fsr2l
  8878  002DC2  C0D0  FFDA         	movff	_pBDTEntryIn+1,fsr2h
  8879  002DC6  0E7F               	movlw	127
  8880  002DC8  16DF               	andwf	indf2,f,c
  8881                           
  8882                           ; BSR set to: 0
  8883                           ;mcc_generated_files/usb/usb_device.c: 2490:     pBDTEntryIn[0] = (volatile BDT_ENTRY*)(
      +                          ((uint16_t)pBDTEntryIn[0]) ^ 0x0004);
  8884  002DCA  0E04               	movlw	4
  8885  002DCC  19CF               	xorwf	_pBDTEntryIn& (0+255),w,b
  8886  002DCE  6FCF               	movwf	_pBDTEntryIn& (0+255),b
  8887  002DD0  51D0               	movf	(_pBDTEntryIn+1)& (0+255),w,b
  8888  002DD2  6FD0               	movwf	(_pBDTEntryIn+1)& (0+255),b
  8889                           
  8890                           ; BSR set to: 0
  8891                           ;mcc_generated_files/usb/usb_device.c: 2491:     pBDTEntryIn[0]->STAT.Val &= ~(0x80);
  8892  002DD4  C0CF  FFD9         	movff	_pBDTEntryIn,fsr2l
  8893  002DD8  C0D0  FFDA         	movff	_pBDTEntryIn+1,fsr2h
  8894  002DDC  0E7F               	movlw	127
  8895  002DDE  16DF               	andwf	indf2,f,c
  8896                           
  8897                           ; BSR set to: 0
  8898                           ;mcc_generated_files/usb/usb_device.c: 2492:     pBDTEntryIn[0] = (volatile BDT_ENTRY*)(
      +                          ((uint16_t)pBDTEntryIn[0]) ^ 0x0004);
  8899  002DE0  0E04               	movlw	4
  8900  002DE2  19CF               	xorwf	_pBDTEntryIn& (0+255),w,b
  8901  002DE4  6FCF               	movwf	_pBDTEntryIn& (0+255),b
  8902  002DE6  51D0               	movf	(_pBDTEntryIn+1)& (0+255),w,b
  8903  002DE8  6FD0               	movwf	(_pBDTEntryIn+1)& (0+255),b
  8904                           
  8905                           ; BSR set to: 0
  8906                           ;mcc_generated_files/usb/usb_device.c: 2493:     pBDTEntryEP0OutNext->STAT.Val &= ~(0x80
      +                          );
  8907  002DEA  C03C  FFD9         	movff	_pBDTEntryEP0OutNext,fsr2l
  8908  002DEE  C03D  FFDA         	movff	_pBDTEntryEP0OutNext+1,fsr2h
  8909  002DF2  0E7F               	movlw	127
  8910  002DF4  16DF               	andwf	indf2,f,c
  8911                           
  8912                           ; BSR set to: 0
  8913                           ;mcc_generated_files/usb/usb_device.c: 2495:     inPipes[0].info.Val = 0;
  8914  002DF6  0E00               	movlw	0
  8915  002DF8  6FCC               	movwf	(_inPipes+3)& (0+255),b	;volatile
  8916                           
  8917                           ; BSR set to: 0
  8918                           ;mcc_generated_files/usb/usb_device.c: 2496:     inPipes[0].wCount.Val = 0;
  8919  002DFA  0E00               	movlw	0
  8920  002DFC  6FCE               	movwf	(_inPipes+5)& (0+255),b	;volatile
  8921  002DFE  0E00               	movlw	0
  8922  002E00  6FCD               	movwf	(_inPipes+4)& (0+255),b	;volatile
  8923                           
  8924                           ; BSR set to: 0
  8925                           ;mcc_generated_files/usb/usb_device.c: 2497:     outPipes[0].info.Val = 0;
  8926  002E02  0E00               	movlw	0
  8927  002E04  6FC4               	movwf	(_outPipes+3)& (0+255),b	;volatile
  8928                           
  8929                           ; BSR set to: 0
  8930                           ;mcc_generated_files/usb/usb_device.c: 2498:     outPipes[0].wCount.Val = 0;
  8931  002E06  0E00               	movlw	0
  8932  002E08  6FC6               	movwf	(_outPipes+5)& (0+255),b	;volatile
  8933  002E0A  0E00               	movlw	0
  8934  002E0C  6FC5               	movwf	(_outPipes+4)& (0+255),b	;volatile
  8935                           
  8936                           ; BSR set to: 0
  8937                           ;mcc_generated_files/usb/usb_device.c: 2504:     USBCheckStdRequest();
  8938  002E0E  ECF7  F012         	call	_USBCheckStdRequest	;wreg free
  8939                           
  8940                           ;mcc_generated_files/usb/usb_device.c: 2505:     USER_USB_CALLBACK_EVENT_HANDLER((USB_EV
      +                          ENT)EVENT_EP0_REQUEST,0,0);
  8941  002E12  0E00               	movlw	0
  8942  002E14  6E0E               	movwf	(USER_USB_CALLBACK_EVENT_HANDLER@event+1)^0,c
  8943  002E16  0E03               	movlw	3
  8944  002E18  6E0D               	movwf	USER_USB_CALLBACK_EVENT_HANDLER@event^0,c
  8945  002E1A  0E00               	movlw	0
  8946  002E1C  6E0F               	movwf	USER_USB_CALLBACK_EVENT_HANDLER@pdata^0,c
  8947  002E1E  0E00               	movlw	0
  8948  002E20  6E10               	movwf	(USER_USB_CALLBACK_EVENT_HANDLER@pdata+1)^0,c
  8949  002E22  0E00               	movlw	0
  8950  002E24  6E12               	movwf	(USER_USB_CALLBACK_EVENT_HANDLER@size+1)^0,c
  8951  002E26  0E00               	movlw	0
  8952  002E28  6E11               	movwf	USER_USB_CALLBACK_EVENT_HANDLER@size^0,c
  8953  002E2A  EC85  F018         	call	_USER_USB_CALLBACK_EVENT_HANDLER	;wreg free
  8954                           
  8955                           ;mcc_generated_files/usb/usb_device.c: 2518:     USBCtrlEPServiceComplete();
  8956  002E2E  EC87  F012         	call	_USBCtrlEPServiceComplete	;wreg free
  8957  002E32  0012               	return		;funcret
  8958  002E34                     __end_of_USBCtrlTrfSetupHandler:
  8959                           	callstack 0
  8960                           
  8961 ;; *************** function _USBCtrlEPServiceComplete *****************
  8962 ;; Defined at:
  8963 ;;		line 1620 in file "mcc_generated_files/usb/usb_device.c"
  8964 ;; Parameters:    Size  Location     Type
  8965 ;;		None
  8966 ;; Auto vars:     Size  Location     Type
  8967 ;;		None
  8968 ;; Return value:  Size  Location     Type
  8969 ;;                  1    wreg      void 
  8970 ;; Registers used:
  8971 ;;		wreg, fsr1l, fsr1h, fsr2l, fsr2h, status,2, status,0, tblptrl, tblptrh, tblptru, cstack
  8972 ;; Tracked objects:
  8973 ;;		On entry : 0/0
  8974 ;;		On exit  : 0/0
  8975 ;;		Unchanged: 0/0
  8976 ;; Data sizes:     COMRAM   BANK0   BANK1   BANK2   BANK3   BANK4   BANK5   BANK6   BANK7
  8977 ;;      Params:         0       0       0       0       0       0       0       0       0
  8978 ;;      Locals:         0       0       0       0       0       0       0       0       0
  8979 ;;      Temps:          0       0       0       0       0       0       0       0       0
  8980 ;;      Totals:         0       0       0       0       0       0       0       0       0
  8981 ;;Total ram usage:        0 bytes
  8982 ;; Hardware stack levels used: 1
  8983 ;; Hardware stack levels required when called: 2
  8984 ;; This function calls:
  8985 ;;		_USBCtrlEPAllowDataStage
  8986 ;;		_USBCtrlEPAllowStatusStage
  8987 ;; This function is called by:
  8988 ;;		_USBCtrlTrfSetupHandler
  8989 ;; This function uses a non-reentrant model
  8990 ;;
  8991                           
  8992                           	psect	text53
  8993  00250E                     __ptext53:
  8994                           	callstack 0
  8995  00250E                     _USBCtrlEPServiceComplete:
  8996                           	callstack 16
  8997                           
  8998                           ;mcc_generated_files/usb/usb_device.c: 1626:     UCONbits.PKTDIS = 0;
  8999                           
  9000                           ;incstack = 0
  9001  00250E  9860               	bcf	96,4,c	;volatile
  9002                           
  9003                           ;mcc_generated_files/usb/usb_device.c: 1632:     if(inPipes[0].info.bits.busy == 0)
  9004  002510  0100               	movlb	0	; () banked
  9005  002512  BFCC               	btfsc	(_inPipes+3)& (0+255),7,b	;volatile
  9006  002514  D038               	goto	i2l221
  9007                           
  9008                           ; BSR set to: 0
  9009                           ;mcc_generated_files/usb/usb_device.c: 1633:     {;mcc_generated_files/usb/usb_device.c:
      +                           1634:         if(outPipes[0].info.bits.busy == 1)
  9010  002516  AFC4               	btfss	(_outPipes+3)& (0+255),7,b	;volatile
  9011  002518  D00B               	goto	i2l5098
  9012                           
  9013                           ; BSR set to: 0
  9014                           ;mcc_generated_files/usb/usb_device.c: 1635:         {;mcc_generated_files/usb/usb_devic
      +                          e.c: 1636:             controlTransferState = 2;
  9015  00251A  0E02               	movlw	2
  9016  00251C  6E4F               	movwf	_controlTransferState^0,c	;volatile
  9017                           
  9018                           ;mcc_generated_files/usb/usb_device.c: 1647:             if(USBDeferOUTDataStagePackets 
      +                          == 0)
  9019  00251E  5046               	movf	_USBDeferOUTDataStagePackets^0,w,c	;volatile
  9020  002520  B4D8               	btfsc	status,2,c
  9021                           
  9022                           ; BSR set to: 0
  9023                           ;mcc_generated_files/usb/usb_device.c: 1648:             {;mcc_generated_files/usb/usb_d
      +                          evice.c: 1649:                 USBCtrlEPAllowDataStage();
  9024  002522  ECF2  F015         	call	_USBCtrlEPAllowDataStage	;wreg free
  9025                           
  9026                           ;mcc_generated_files/usb/usb_device.c: 1654:             USBStatusStageEnabledFlag2 = 0;
  9027  002526  0E00               	movlw	0
  9028  002528  6E48               	movwf	_USBStatusStageEnabledFlag2^0,c	;volatile
  9029                           
  9030                           ;mcc_generated_files/usb/usb_device.c: 1655:             USBStatusStageEnabledFlag1 = 0;
  9031  00252A  0E00               	movlw	0
  9032  00252C  6E49               	movwf	_USBStatusStageEnabledFlag1^0,c	;volatile
  9033                           
  9034                           ;mcc_generated_files/usb/usb_device.c: 1656:         }
  9035  00252E  0012               	return	
  9036  002530                     i2l5098:
  9037                           
  9038                           ; BSR set to: 0
  9039                           ;mcc_generated_files/usb/usb_device.c: 1658:         {;mcc_generated_files/usb/usb_devic
      +                          e.c: 1663:             pBDTEntryEP0OutNext->CNT = 8;
  9040  002530  EE20 F001          	lfsr	2,1
  9041  002534  503C               	movf	_pBDTEntryEP0OutNext^0,w,c
  9042  002536  26D9               	addwf	fsr2l,f,c
  9043  002538  503D               	movf	(_pBDTEntryEP0OutNext+1)^0,w,c
  9044  00253A  22DA               	addwfc	fsr2h,f,c
  9045  00253C  0E08               	movlw	8
  9046  00253E  6EDF               	movwf	indf2,c
  9047                           
  9048                           ;mcc_generated_files/usb/usb_device.c: 1664:             pBDTEntryEP0OutNext->ADR = ((ui
      +                          nt16_t)(&SetupPkt));
  9049  002540  EE20 F002          	lfsr	2,2
  9050  002544  503C               	movf	_pBDTEntryEP0OutNext^0,w,c
  9051  002546  26D9               	addwf	fsr2l,f,c
  9052  002548  503D               	movf	(_pBDTEntryEP0OutNext+1)^0,w,c
  9053  00254A  22DA               	addwfc	fsr2h,f,c
  9054  00254C  0E30               	movlw	48
  9055  00254E  6EDE               	movwf	postinc2,c
  9056  002550  0E04               	movlw	4
  9057  002552  6EDD               	movwf	postdec2,c
  9058                           
  9059                           ; BSR set to: 0
  9060                           ;mcc_generated_files/usb/usb_device.c: 1665:             pBDTEntryEP0OutNext->STAT.Val =
      +                           0x00|(0x08 & 0x08)|0x04;
  9061  002554  C03C  FFD9         	movff	_pBDTEntryEP0OutNext,fsr2l
  9062  002558  C03D  FFDA         	movff	_pBDTEntryEP0OutNext+1,fsr2h
  9063  00255C  0E0C               	movlw	12
  9064  00255E  6EDF               	movwf	indf2,c
  9065                           
  9066                           ; BSR set to: 0
  9067                           ;mcc_generated_files/usb/usb_device.c: 1666:             pBDTEntryEP0OutNext->STAT.Val |
      +                          = 0x80;
  9068  002560  C03C  FFD9         	movff	_pBDTEntryEP0OutNext,fsr2l
  9069  002564  C03D  FFDA         	movff	_pBDTEntryEP0OutNext+1,fsr2h
  9070  002568  0E00               	movlw	0
  9071  00256A  8EDB               	bsf	plusw2,7,c
  9072                           
  9073                           ;mcc_generated_files/usb/usb_device.c: 1667:             pBDTEntryIn[0]->STAT.Val = 0x04
      +                          ;
  9074  00256C  C0CF  FFD9         	movff	_pBDTEntryIn,fsr2l
  9075  002570  C0D0  FFDA         	movff	_pBDTEntryIn+1,fsr2h
  9076  002574  0E04               	movlw	4
  9077  002576  6EDF               	movwf	indf2,c
  9078                           
  9079                           ; BSR set to: 0
  9080                           ;mcc_generated_files/usb/usb_device.c: 1668:             pBDTEntryIn[0]->STAT.Val |= 0x8
      +                          0;
  9081  002578  C0CF  FFD9         	movff	_pBDTEntryIn,fsr2l
  9082  00257C  C0D0  FFDA         	movff	_pBDTEntryIn+1,fsr2h
  9083  002580  0E00               	movlw	0
  9084  002582  8EDB               	bsf	plusw2,7,c
  9085  002584  0012               	return	
  9086  002586                     i2l221:
  9087                           
  9088                           ; BSR set to: 0
  9089                           ;mcc_generated_files/usb/usb_device.c: 1672:     {;mcc_generated_files/usb/usb_device.c:
      +                           1673:   if(SetupPkt.DataDir == (0x80>>7))
  9090  002586  0104               	movlb	4	; () banked
  9091  002588  AF30               	btfss	48,7,b	;volatile
  9092  00258A  D010               	goto	i2l5118
  9093                           
  9094                           ; BSR set to: 4
  9095                           ;mcc_generated_files/usb/usb_device.c: 1674:   {;mcc_generated_files/usb/usb_device.c: 1
      +                          675:    controlTransferState = 1;
  9096  00258C  0E01               	movlw	1
  9097  00258E  6E4F               	movwf	_controlTransferState^0,c	;volatile
  9098                           
  9099                           ;mcc_generated_files/usb/usb_device.c: 1689:    if(USBDeferINDataStagePackets == 0)
  9100  002590  5047               	movf	_USBDeferINDataStagePackets^0,w,c	;volatile
  9101  002592  B4D8               	btfsc	status,2,c
  9102                           
  9103                           ; BSR set to: 4
  9104                           ;mcc_generated_files/usb/usb_device.c: 1690:             {;mcc_generated_files/usb/usb_d
      +                          evice.c: 1691:                 USBCtrlEPAllowDataStage();
  9105  002594  ECF2  F015         	call	_USBCtrlEPAllowDataStage	;wreg free
  9106  002598                     i2l5110:
  9107                           
  9108                           ;mcc_generated_files/usb/usb_device.c: 1714:             USBStatusStageEnabledFlag2 = 0;
  9109  002598  0E00               	movlw	0
  9110  00259A  6E48               	movwf	_USBStatusStageEnabledFlag2^0,c	;volatile
  9111                           
  9112                           ;mcc_generated_files/usb/usb_device.c: 1715:             USBStatusStageEnabledFlag1 = 0;
  9113  00259C  0E00               	movlw	0
  9114  00259E  6E49               	movwf	_USBStatusStageEnabledFlag1^0,c	;volatile
  9115                           
  9116                           ;mcc_generated_files/usb/usb_device.c: 1716:             if(USBDeferStatusStagePacket ==
      +                           0)
  9117  0025A0  504A               	movf	_USBDeferStatusStagePacket^0,w,c	;volatile
  9118  0025A2  A4D8               	btfss	status,2,c
  9119  0025A4  0012               	return	
  9120                           
  9121                           ;mcc_generated_files/usb/usb_device.c: 1717:             {;mcc_generated_files/usb/usb_d
      +                          evice.c: 1718:                 USBCtrlEPAllowStatusStage();
  9122  0025A6  EC30  F014         	call	_USBCtrlEPAllowStatusStage	;wreg free
  9123  0025AA  0012               	return	
  9124  0025AC                     i2l5118:
  9125                           
  9126                           ; BSR set to: 4
  9127                           ;mcc_generated_files/usb/usb_device.c: 1722:   {;mcc_generated_files/usb/usb_device.c: 1
      +                          733:    controlTransferState = 2;
  9128  0025AC  0E02               	movlw	2
  9129  0025AE  6E4F               	movwf	_controlTransferState^0,c	;volatile
  9130                           
  9131                           ; BSR set to: 4
  9132                           ;mcc_generated_files/usb/usb_device.c: 1736:    pBDTEntryEP0OutNext->CNT = 8;
  9133  0025B0  EE20 F001          	lfsr	2,1
  9134  0025B4  503C               	movf	_pBDTEntryEP0OutNext^0,w,c
  9135  0025B6  26D9               	addwf	fsr2l,f,c
  9136  0025B8  503D               	movf	(_pBDTEntryEP0OutNext+1)^0,w,c
  9137  0025BA  22DA               	addwfc	fsr2h,f,c
  9138  0025BC  0E08               	movlw	8
  9139  0025BE  6EDF               	movwf	indf2,c
  9140                           
  9141                           ; BSR set to: 4
  9142                           ;mcc_generated_files/usb/usb_device.c: 1737:    pBDTEntryEP0OutNext->ADR = ((uint16_t)(&
      +                          SetupPkt));
  9143  0025C0  EE20 F002          	lfsr	2,2
  9144  0025C4  503C               	movf	_pBDTEntryEP0OutNext^0,w,c
  9145  0025C6  26D9               	addwf	fsr2l,f,c
  9146  0025C8  503D               	movf	(_pBDTEntryEP0OutNext+1)^0,w,c
  9147  0025CA  22DA               	addwfc	fsr2h,f,c
  9148  0025CC  0E30               	movlw	48
  9149  0025CE  6EDE               	movwf	postinc2,c
  9150  0025D0  0E04               	movlw	4
  9151  0025D2  6EDD               	movwf	postdec2,c
  9152                           
  9153                           ; BSR set to: 4
  9154                           ;mcc_generated_files/usb/usb_device.c: 1738:    pBDTEntryEP0OutNext->STAT.Val = 0x04;
  9155  0025D4  C03C  FFD9         	movff	_pBDTEntryEP0OutNext,fsr2l
  9156  0025D8  C03D  FFDA         	movff	_pBDTEntryEP0OutNext+1,fsr2h
  9157  0025DC  0E04               	movlw	4
  9158  0025DE  6EDF               	movwf	indf2,c
  9159                           
  9160                           ; BSR set to: 4
  9161                           ;mcc_generated_files/usb/usb_device.c: 1739:             pBDTEntryEP0OutNext->STAT.Val |
      +                          = 0x80;
  9162  0025E0  C03C  FFD9         	movff	_pBDTEntryEP0OutNext,fsr2l
  9163  0025E4  C03D  FFDA         	movff	_pBDTEntryEP0OutNext+1,fsr2h
  9164  0025E8  0E00               	movlw	0
  9165  0025EA  8EDB               	bsf	plusw2,7,c
  9166  0025EC  D7D5               	goto	i2l5110
  9167  0025EE                     __end_of_USBCtrlEPServiceComplete:
  9168                           	callstack 0
  9169                           
  9170 ;; *************** function _USBCtrlEPAllowDataStage *****************
  9171 ;; Defined at:
  9172 ;;		line 1492 in file "mcc_generated_files/usb/usb_device.c"
  9173 ;; Parameters:    Size  Location     Type
  9174 ;;		None
  9175 ;; Auto vars:     Size  Location     Type
  9176 ;;		None
  9177 ;; Return value:  Size  Location     Type
  9178 ;;                  1    wreg      void 
  9179 ;; Registers used:
  9180 ;;		wreg, fsr1l, fsr1h, fsr2l, fsr2h, status,2, status,0, tblptrl, tblptrh, tblptru, cstack
  9181 ;; Tracked objects:
  9182 ;;		On entry : 3B/0
  9183 ;;		On exit  : 3B/0
  9184 ;;		Unchanged: 0/0
  9185 ;; Data sizes:     COMRAM   BANK0   BANK1   BANK2   BANK3   BANK4   BANK5   BANK6   BANK7
  9186 ;;      Params:         0       0       0       0       0       0       0       0       0
  9187 ;;      Locals:         0       0       0       0       0       0       0       0       0
  9188 ;;      Temps:          0       0       0       0       0       0       0       0       0
  9189 ;;      Totals:         0       0       0       0       0       0       0       0       0
  9190 ;;Total ram usage:        0 bytes
  9191 ;; Hardware stack levels used: 1
  9192 ;; Hardware stack levels required when called: 1
  9193 ;; This function calls:
  9194 ;;		_USBCtrlTrfTxService
  9195 ;; This function is called by:
  9196 ;;		_USBCtrlEPServiceComplete
  9197 ;; This function uses a non-reentrant model
  9198 ;;
  9199                           
  9200                           	psect	text54
  9201  002BE4                     __ptext54:
  9202                           	callstack 0
  9203  002BE4                     _USBCtrlEPAllowDataStage:
  9204                           	callstack 16
  9205                           
  9206                           ;mcc_generated_files/usb/usb_device.c: 1494:     USBDeferINDataStagePackets = 0;
  9207                           
  9208                           ;incstack = 0
  9209  002BE4  0E00               	movlw	0
  9210  002BE6  6E47               	movwf	_USBDeferINDataStagePackets^0,c	;volatile
  9211                           
  9212                           ;mcc_generated_files/usb/usb_device.c: 1495:     USBDeferOUTDataStagePackets = 0;
  9213  002BE8  0E00               	movlw	0
  9214  002BEA  6E46               	movwf	_USBDeferOUTDataStagePackets^0,c	;volatile
  9215                           
  9216                           ;mcc_generated_files/usb/usb_device.c: 1497:     if(controlTransferState == 2)
  9217  002BEC  0E02               	movlw	2
  9218  002BEE  184F               	xorwf	_controlTransferState^0,w,c	;volatile
  9219  002BF0  A4D8               	btfss	status,2,c
  9220  002BF2  D01F               	goto	i2l4778
  9221                           
  9222                           ;mcc_generated_files/usb/usb_device.c: 1498:     {;mcc_generated_files/usb/usb_device.c:
      +                           1500:         pBDTEntryEP0OutNext->CNT = 8;
  9223  002BF4  EE20 F001          	lfsr	2,1
  9224  002BF8  503C               	movf	_pBDTEntryEP0OutNext^0,w,c
  9225  002BFA  26D9               	addwf	fsr2l,f,c
  9226  002BFC  503D               	movf	(_pBDTEntryEP0OutNext+1)^0,w,c
  9227  002BFE  22DA               	addwfc	fsr2h,f,c
  9228  002C00  0E08               	movlw	8
  9229  002C02  6EDF               	movwf	indf2,c
  9230                           
  9231                           ;mcc_generated_files/usb/usb_device.c: 1501:         pBDTEntryEP0OutNext->ADR = ((uint16
      +                          _t)(&CtrlTrfData));
  9232  002C04  EE20 F002          	lfsr	2,2
  9233  002C08  503C               	movf	_pBDTEntryEP0OutNext^0,w,c
  9234  002C0A  26D9               	addwf	fsr2l,f,c
  9235  002C0C  503D               	movf	(_pBDTEntryEP0OutNext+1)^0,w,c
  9236  002C0E  22DA               	addwfc	fsr2h,f,c
  9237  002C10  0E38               	movlw	56
  9238  002C12  6EDE               	movwf	postinc2,c
  9239  002C14  0E04               	movlw	4
  9240  002C16  6EDD               	movwf	postdec2,c
  9241                           
  9242                           ;mcc_generated_files/usb/usb_device.c: 1502:         pBDTEntryEP0OutNext->STAT.Val = 0x4
      +                          0|(0x08 & 0x08);
  9243  002C18  C03C  FFD9         	movff	_pBDTEntryEP0OutNext,fsr2l
  9244  002C1C  C03D  FFDA         	movff	_pBDTEntryEP0OutNext+1,fsr2h
  9245  002C20  0E48               	movlw	72
  9246  002C22  6EDF               	movwf	indf2,c
  9247                           
  9248                           ;mcc_generated_files/usb/usb_device.c: 1503:         pBDTEntryEP0OutNext->STAT.Val |= 0x
      +                          80;
  9249  002C24  C03C  FFD9         	movff	_pBDTEntryEP0OutNext,fsr2l
  9250  002C28  C03D  FFDA         	movff	_pBDTEntryEP0OutNext+1,fsr2h
  9251  002C2C  0E00               	movlw	0
  9252  002C2E  8EDB               	bsf	plusw2,7,c
  9253                           
  9254                           ;mcc_generated_files/usb/usb_device.c: 1504:     }
  9255  002C30  0012               	return	
  9256  002C32                     i2l4778:
  9257                           
  9258                           ;mcc_generated_files/usb/usb_device.c: 1506:     {;mcc_generated_files/usb/usb_device.c:
      +                           1509:   if(SetupPkt.wLength < inPipes[0].wCount.Val)
  9259  002C32  0100               	movlb	0	; () banked
  9260  002C34  51CD               	movf	(_inPipes+4)& (0+255),w,b	;volatile
  9261  002C36  0104               	movlb	4	; () banked
  9262  002C38  5D36               	subwf	54,w,b	;volatile
  9263  002C3A  0100               	movlb	0	; () banked
  9264  002C3C  51CE               	movf	(_inPipes+5)& (0+255),w,b	;volatile
  9265  002C3E  0104               	movlb	4	; () banked
  9266  002C40  5937               	subwfb	55,w,b	;volatile
  9267  002C42  B0D8               	btfsc	status,0,c
  9268  002C44  D004               	goto	i2l4782
  9269                           
  9270                           ; BSR set to: 4
  9271                           ;mcc_generated_files/usb/usb_device.c: 1510:   {;mcc_generated_files/usb/usb_device.c: 1
      +                          511:    inPipes[0].wCount.Val = SetupPkt.wLength;
  9272  002C46  C436 F0CD          	movff	1078,_inPipes+4	;volatile
  9273  002C4A  C437 F0CE          	movff	1079,_inPipes+5	;volatile
  9274  002C4E                     i2l4782:
  9275                           
  9276                           ; BSR set to: 4
  9277                           ;mcc_generated_files/usb/usb_device.c: 1513:   USBCtrlTrfTxService();
  9278  002C4E  EC66  F013         	call	_USBCtrlTrfTxService	;wreg free
  9279                           
  9280                           ; BSR set to: 0
  9281                           ;mcc_generated_files/usb/usb_device.c: 1518:   pBDTEntryIn[0]->ADR = ((uint16_t)(&CtrlTr
      +                          fData));
  9282  002C52  EE20 F002          	lfsr	2,2
  9283  002C56  51CF               	movf	_pBDTEntryIn& (0+255),w,b
  9284  002C58  26D9               	addwf	fsr2l,f,c
  9285  002C5A  51D0               	movf	(_pBDTEntryIn+1)& (0+255),w,b
  9286  002C5C  22DA               	addwfc	fsr2h,f,c
  9287  002C5E  0E38               	movlw	56
  9288  002C60  6EDE               	movwf	postinc2,c
  9289  002C62  0E04               	movlw	4
  9290  002C64  6EDD               	movwf	postdec2,c
  9291                           
  9292                           ; BSR set to: 0
  9293                           ;mcc_generated_files/usb/usb_device.c: 1519:   pBDTEntryIn[0]->STAT.Val = 0x40|(0x08 & 0
      +                          x08);
  9294  002C66  C0CF  FFD9         	movff	_pBDTEntryIn,fsr2l
  9295  002C6A  C0D0  FFDA         	movff	_pBDTEntryIn+1,fsr2h
  9296  002C6E  0E48               	movlw	72
  9297  002C70  6EDF               	movwf	indf2,c
  9298                           
  9299                           ; BSR set to: 0
  9300                           ;mcc_generated_files/usb/usb_device.c: 1520:         pBDTEntryIn[0]->STAT.Val |= 0x80;
  9301  002C72  C0CF  FFD9         	movff	_pBDTEntryIn,fsr2l
  9302  002C76  C0D0  FFDA         	movff	_pBDTEntryIn+1,fsr2h
  9303  002C7A  0E00               	movlw	0
  9304  002C7C  8EDB               	bsf	plusw2,7,c
  9305  002C7E  0012               	return		;funcret
  9306  002C80                     __end_of_USBCtrlEPAllowDataStage:
  9307                           	callstack 0
  9308                           
  9309 ;; *************** function _USBCheckStdRequest *****************
  9310 ;; Defined at:
  9311 ;;		line 2690 in file "mcc_generated_files/usb/usb_device.c"
  9312 ;; Parameters:    Size  Location     Type
  9313 ;;		None
  9314 ;; Auto vars:     Size  Location     Type
  9315 ;;		None
  9316 ;; Return value:  Size  Location     Type
  9317 ;;                  1    wreg      void 
  9318 ;; Registers used:
  9319 ;;		wreg, fsr1l, fsr1h, fsr2l, fsr2h, status,2, status,0, tblptrl, tblptrh, tblptru, prodl, prodh, cstack
  9320 ;; Tracked objects:
  9321 ;;		On entry : 3F/0
  9322 ;;		On exit  : 0/0
  9323 ;;		Unchanged: 0/0
  9324 ;; Data sizes:     COMRAM   BANK0   BANK1   BANK2   BANK3   BANK4   BANK5   BANK6   BANK7
  9325 ;;      Params:         0       0       0       0       0       0       0       0       0
  9326 ;;      Locals:         0       0       0       0       0       0       0       0       0
  9327 ;;      Temps:          2       0       0       0       0       0       0       0       0
  9328 ;;      Totals:         2       0       0       0       0       0       0       0       0
  9329 ;;Total ram usage:        2 bytes
  9330 ;; Hardware stack levels used: 1
  9331 ;; Hardware stack levels required when called: 5
  9332 ;; This function calls:
  9333 ;;		_USBStdFeatureReqHandler
  9334 ;;		_USBStdGetDscHandler
  9335 ;;		_USBStdGetStatusHandler
  9336 ;;		_USBStdSetCfgHandler
  9337 ;;		_USER_USB_CALLBACK_EVENT_HANDLER
  9338 ;; This function is called by:
  9339 ;;		_USBCtrlTrfSetupHandler
  9340 ;; This function uses a non-reentrant model
  9341 ;;
  9342                           
  9343                           	psect	text55
  9344  0025EE                     __ptext55:
  9345                           	callstack 0
  9346  0025EE                     _USBCheckStdRequest:
  9347                           	callstack 13
  9348                           
  9349                           ; BSR set to: 0
  9350                           ;mcc_generated_files/usb/usb_device.c: 2692:     if(SetupPkt.RequestType != (0x00>>5)) r
      +                          eturn;
  9351                           
  9352                           ;incstack = 0
  9353  0025EE  0104               	movlb	4	; () banked
  9354  0025F0  3930               	swapf	48,w,b	;volatile
  9355  0025F2  32E8               	rrcf	wreg,f,c
  9356  0025F4  0B03               	andlw	3
  9357  0025F6  0900               	iorlw	0
  9358  0025F8  A4D8               	btfss	status,2,c
  9359  0025FA  0012               	return	
  9360  0025FC  D03F               	goto	i2l5216
  9361  0025FE                     i2l346:
  9362                           
  9363                           ; BSR set to: 4
  9364                           ;mcc_generated_files/usb/usb_device.c: 2697:             inPipes[0].info.bits.busy = 1;
  9365  0025FE  0100               	movlb	0	; () banked
  9366  002600  8FCC               	bsf	(_inPipes+3)& (0+255),7,b	;volatile
  9367                           
  9368                           ; BSR set to: 0
  9369                           ;mcc_generated_files/usb/usb_device.c: 2698:             USBDeviceState = ADR_PENDING_ST
      +                          ATE;
  9370  002602  0E08               	movlw	8
  9371  002604  6E51               	movwf	_USBDeviceState^0,c	;volatile
  9372                           
  9373                           ;mcc_generated_files/usb/usb_device.c: 2700:             break;
  9374  002606  0012               	return	
  9375  002608                     i2l5186:
  9376                           
  9377                           ; BSR set to: 4
  9378                           ;mcc_generated_files/usb/usb_device.c: 2702:             USBStdGetDscHandler();
  9379  002608  EC3F  F009         	call	_USBStdGetDscHandler	;wreg free
  9380                           
  9381                           ;mcc_generated_files/usb/usb_device.c: 2703:             break;
  9382  00260C  0012               	return	
  9383  00260E                     i2l5188:
  9384                           
  9385                           ; BSR set to: 4
  9386                           ;mcc_generated_files/usb/usb_device.c: 2705:             USBStdSetCfgHandler();
  9387  00260E  ECCC  F013         	call	_USBStdSetCfgHandler	;wreg free
  9388                           
  9389                           ;mcc_generated_files/usb/usb_device.c: 2706:             break;
  9390  002612  0012               	return	
  9391  002614                     i2l5190:
  9392                           
  9393                           ; BSR set to: 4
  9394                           ;mcc_generated_files/usb/usb_device.c: 2708:             inPipes[0].pSrc.bRam = (uint8_t
      +                          *)&USBActiveConfiguration;
  9395  002614  0E55               	movlw	low _USBActiveConfiguration
  9396  002616  0100               	movlb	0	; () banked
  9397  002618  6FC9               	movwf	_inPipes& (0+255),b	;volatile
  9398  00261A  6BCA               	clrf	(_inPipes+1)& (0+255),b	;volatile
  9399                           
  9400                           ; BSR set to: 0
  9401                           ;mcc_generated_files/usb/usb_device.c: 2709:             inPipes[0].info.bits.ctrl_trf_m
      +                          em = 0x01;
  9402  00261C  81CC               	bsf	(_inPipes+3)& (0+255),0,b	;volatile
  9403                           
  9404                           ; BSR set to: 0
  9405                           ;mcc_generated_files/usb/usb_device.c: 2710:             inPipes[0].wCount.v[0] = 1;
  9406  00261E  0E01               	movlw	1
  9407  002620  6FCD               	movwf	(_inPipes+4)& (0+255),b	;volatile
  9408                           
  9409                           ; BSR set to: 0
  9410                           ;mcc_generated_files/usb/usb_device.c: 2711:             inPipes[0].info.bits.busy = 1;
  9411  002622  8FCC               	bsf	(_inPipes+3)& (0+255),7,b	;volatile
  9412                           
  9413                           ;mcc_generated_files/usb/usb_device.c: 2712:             break;
  9414  002624  0012               	return	
  9415  002626                     i2l5198:
  9416                           
  9417                           ; BSR set to: 4
  9418                           ;mcc_generated_files/usb/usb_device.c: 2714:             USBStdGetStatusHandler();
  9419  002626  EC50  F015         	call	_USBStdGetStatusHandler	;wreg free
  9420                           
  9421                           ;mcc_generated_files/usb/usb_device.c: 2715:             break;
  9422  00262A  0012               	return	
  9423  00262C                     i2l5200:
  9424                           
  9425                           ; BSR set to: 4
  9426                           ;mcc_generated_files/usb/usb_device.c: 2718:             USBStdFeatureReqHandler();
  9427  00262C  EC93  F005         	call	_USBStdFeatureReqHandler	;wreg free
  9428                           
  9429                           ;mcc_generated_files/usb/usb_device.c: 2719:             break;
  9430  002630  0012               	return	
  9431  002632                     i2l5202:
  9432                           
  9433                           ; BSR set to: 4
  9434                           ;mcc_generated_files/usb/usb_device.c: 2721:             inPipes[0].pSrc.bRam = (uint8_t
      +                          *)&USBAlternateInterface[SetupPkt.bIntfID];
  9435  002632  5134               	movf	52,w,b	;volatile
  9436  002634  0F52               	addlw	low _USBAlternateInterface
  9437  002636  6E1C               	movwf	??_USBCheckStdRequest^0,c
  9438  002638  C01C  F0C9         	movff	??_USBCheckStdRequest,_inPipes	;volatile
  9439  00263C  0100               	movlb	0	; () banked
  9440  00263E  6BCA               	clrf	(_inPipes+1)& (0+255),b	;volatile
  9441                           
  9442                           ; BSR set to: 0
  9443                           ;mcc_generated_files/usb/usb_device.c: 2722:             inPipes[0].info.bits.ctrl_trf_m
      +                          em = 0x01;
  9444  002640  81CC               	bsf	(_inPipes+3)& (0+255),0,b	;volatile
  9445                           
  9446                           ; BSR set to: 0
  9447                           ;mcc_generated_files/usb/usb_device.c: 2723:             inPipes[0].wCount.v[0] = 1;
  9448  002642  0E01               	movlw	1
  9449  002644  6FCD               	movwf	(_inPipes+4)& (0+255),b	;volatile
  9450                           
  9451                           ; BSR set to: 0
  9452                           ;mcc_generated_files/usb/usb_device.c: 2724:             inPipes[0].info.bits.busy = 1;
  9453  002646  8FCC               	bsf	(_inPipes+3)& (0+255),7,b	;volatile
  9454                           
  9455                           ;mcc_generated_files/usb/usb_device.c: 2725:             break;
  9456  002648  0012               	return	
  9457  00264A                     i2l355:
  9458                           
  9459                           ; BSR set to: 4
  9460                           ;mcc_generated_files/usb/usb_device.c: 2727:             inPipes[0].info.bits.busy = 1;
  9461  00264A  0100               	movlb	0	; () banked
  9462  00264C  8FCC               	bsf	(_inPipes+3)& (0+255),7,b	;volatile
  9463                           
  9464                           ; BSR set to: 0
  9465                           ;mcc_generated_files/usb/usb_device.c: 2728:             USBAlternateInterface[SetupPkt.
      +                          bIntfID] = SetupPkt.bAltID;
  9466  00264E  0104               	movlb	4	; () banked
  9467  002650  5134               	movf	52,w,b	;volatile
  9468  002652  0F52               	addlw	low _USBAlternateInterface
  9469  002654  6ED9               	movwf	fsr2l,c
  9470  002656  6ADA               	clrf	fsr2h,c
  9471  002658  C432 FFDF          	movff	1074,indf2	;volatile
  9472                           
  9473                           ;mcc_generated_files/usb/usb_device.c: 2729:             break;
  9474  00265C  0012               	return	
  9475  00265E                     i2l5212:
  9476                           
  9477                           ; BSR set to: 4
  9478                           ;mcc_generated_files/usb/usb_device.c: 2731:             USER_USB_CALLBACK_EVENT_HANDLER
      +                          ((USB_EVENT)EVENT_SET_DESCRIPTOR,0,0);
  9479  00265E  0E00               	movlw	0
  9480  002660  6E0E               	movwf	(USER_USB_CALLBACK_EVENT_HANDLER@event+1)^0,c
  9481  002662  0E02               	movlw	2
  9482  002664  6E0D               	movwf	USER_USB_CALLBACK_EVENT_HANDLER@event^0,c
  9483  002666  0E00               	movlw	0
  9484  002668  6E0F               	movwf	USER_USB_CALLBACK_EVENT_HANDLER@pdata^0,c
  9485  00266A  0E00               	movlw	0
  9486  00266C  6E10               	movwf	(USER_USB_CALLBACK_EVENT_HANDLER@pdata+1)^0,c
  9487  00266E  0E00               	movlw	0
  9488  002670  6E12               	movwf	(USER_USB_CALLBACK_EVENT_HANDLER@size+1)^0,c
  9489  002672  0E00               	movlw	0
  9490  002674  6E11               	movwf	USER_USB_CALLBACK_EVENT_HANDLER@size^0,c
  9491  002676  EC85  F018         	call	_USER_USB_CALLBACK_EVENT_HANDLER	;wreg free
  9492                           
  9493                           ;mcc_generated_files/usb/usb_device.c: 2732:             break;
  9494  00267A  0012               	return	
  9495  00267C                     i2l5216:
  9496                           
  9497                           ; BSR set to: 4
  9498  00267C  5131               	movf	49,w,b	;volatile
  9499  00267E  6E1C               	movwf	??_USBCheckStdRequest^0,c
  9500  002680  6A1D               	clrf	(??_USBCheckStdRequest+1)^0,c
  9501                           
  9502                           ; Switch on 2 bytes has been partitioned into a top level switch of size 1, and 1 sub-sw
      +                          itches
  9503                           ; Switch size 1, requested type "simple"
  9504                           ; Number of cases is 1, Range of values is 0 to 0
  9505                           ; switch strategies available:
  9506                           ; Name         Instructions Cycles
  9507                           ; simple_byte            4     3 (average)
  9508                           ;	Chosen strategy is simple_byte
  9509  002682  501D               	movf	(??_USBCheckStdRequest+1)^0,w,c
  9510  002684  0A00               	xorlw	0	; case 0
  9511  002686  A4D8               	btfss	status,2,c
  9512  002688  0012               	return	
  9513                           
  9514                           ; BSR set to: 4
  9515                           ; Switch size 1, requested type "simple"
  9516                           ; Number of cases is 11, Range of values is 0 to 12
  9517                           ; switch strategies available:
  9518                           ; Name         Instructions Cycles
  9519                           ; simple_byte           34    18 (average)
  9520                           ;	Chosen strategy is simple_byte
  9521  00268A  501C               	movf	??_USBCheckStdRequest^0,w,c
  9522  00268C  0A00               	xorlw	0	; case 0
  9523  00268E  B4D8               	btfsc	status,2,c
  9524  002690  D7CA               	goto	i2l5198
  9525  002692  0A01               	xorlw	1	; case 1
  9526  002694  B4D8               	btfsc	status,2,c
  9527  002696  D7CA               	goto	i2l5200
  9528  002698  0A02               	xorlw	2	; case 3
  9529  00269A  B4D8               	btfsc	status,2,c
  9530  00269C  D7C7               	goto	i2l5200
  9531  00269E  0A06               	xorlw	6	; case 5
  9532  0026A0  B4D8               	btfsc	status,2,c
  9533  0026A2  D7AD               	goto	i2l346
  9534  0026A4  0A03               	xorlw	3	; case 6
  9535  0026A6  B4D8               	btfsc	status,2,c
  9536  0026A8  D7AF               	goto	i2l5186
  9537  0026AA  0A01               	xorlw	1	; case 7
  9538  0026AC  B4D8               	btfsc	status,2,c
  9539  0026AE  D7D7               	goto	i2l5212
  9540  0026B0  0A0F               	xorlw	15	; case 8
  9541  0026B2  B4D8               	btfsc	status,2,c
  9542  0026B4  D7AF               	goto	i2l5190
  9543  0026B6  0A01               	xorlw	1	; case 9
  9544  0026B8  B4D8               	btfsc	status,2,c
  9545  0026BA  D7A9               	goto	i2l5188
  9546  0026BC  0A03               	xorlw	3	; case 10
  9547  0026BE  B4D8               	btfsc	status,2,c
  9548  0026C0  D7B8               	goto	i2l5202
  9549  0026C2  0A01               	xorlw	1	; case 11
  9550  0026C4  B4D8               	btfsc	status,2,c
  9551  0026C6  D7C1               	goto	i2l355
  9552  0026C8  0A07               	xorlw	7	; case 12
  9553  0026CA  0012               	return	
  9554  0026CC                     __end_of_USBCheckStdRequest:
  9555                           	callstack 0
  9556                           
  9557 ;; *************** function _USBStdSetCfgHandler *****************
  9558 ;; Defined at:
  9559 ;;		line 1972 in file "mcc_generated_files/usb/usb_device.c"
  9560 ;; Parameters:    Size  Location     Type
  9561 ;;		None
  9562 ;; Auto vars:     Size  Location     Type
  9563 ;;  i               1   20[COMRAM] unsigned char 
  9564 ;; Return value:  Size  Location     Type
  9565 ;;                  1    wreg      void 
  9566 ;; Registers used:
  9567 ;;		wreg, fsr2l, fsr2h, status,2, status,0, prodl, prodh, cstack
  9568 ;; Tracked objects:
  9569 ;;		On entry : 3B/4
  9570 ;;		On exit  : 0/0
  9571 ;;		Unchanged: 0/0
  9572 ;; Data sizes:     COMRAM   BANK0   BANK1   BANK2   BANK3   BANK4   BANK5   BANK6   BANK7
  9573 ;;      Params:         0       0       0       0       0       0       0       0       0
  9574 ;;      Locals:         1       0       0       0       0       0       0       0       0
  9575 ;;      Temps:          0       0       0       0       0       0       0       0       0
  9576 ;;      Totals:         1       0       0       0       0       0       0       0       0
  9577 ;;Total ram usage:        1 bytes
  9578 ;; Hardware stack levels used: 1
  9579 ;; Hardware stack levels required when called: 4
  9580 ;; This function calls:
  9581 ;;		_USER_USB_CALLBACK_EVENT_HANDLER
  9582 ;;		i2_memset
  9583 ;; This function is called by:
  9584 ;;		_USBCheckStdRequest
  9585 ;; This function uses a non-reentrant model
  9586 ;;
  9587                           
  9588                           	psect	text56
  9589  002798                     __ptext56:
  9590                           	callstack 0
  9591  002798                     _USBStdSetCfgHandler:
  9592                           	callstack 13
  9593                           
  9594                           ;mcc_generated_files/usb/usb_device.c: 1974:     uint8_t i;;mcc_generated_files/usb/usb_
      +                          device.c: 1977:     inPipes[0].info.bits.busy = 1;
  9595                           
  9596                           ;incstack = 0
  9597  002798  0100               	movlb	0	; () banked
  9598  00279A  8FCC               	bsf	(_inPipes+3)& (0+255),7,b	;volatile
  9599                           
  9600                           ; BSR set to: 0
  9601                           ;mcc_generated_files/usb/usb_device.c: 1980:     memset((void*)&UEP1,0x00,(2));;
  9602  00279C  0E6B               	movlw	107
  9603  00279E  6E01               	movwf	i2memset@dest^0,c
  9604  0027A0  0E0F               	movlw	15
  9605  0027A2  6E02               	movwf	(i2memset@dest+1)^0,c
  9606  0027A4  0E00               	movlw	0
  9607  0027A6  6E04               	movwf	(i2memset@c+1)^0,c
  9608  0027A8  0E00               	movlw	0
  9609  0027AA  6E03               	movwf	i2memset@c^0,c
  9610  0027AC  0E00               	movlw	0
  9611  0027AE  6E06               	movwf	(i2memset@n+1)^0,c
  9612  0027B0  0E02               	movlw	2
  9613  0027B2  6E05               	movwf	i2memset@n^0,c
  9614  0027B4  EC0C  F00B         	call	i2_memset	;wreg free
  9615                           
  9616                           ;mcc_generated_files/usb/usb_device.c: 1983:     memset((void*)&BDT[0], 0x00, sizeof(BDT
      +                          ));
  9617  0027B8  0E00               	movlw	0
  9618  0027BA  6E01               	movwf	i2memset@dest^0,c
  9619  0027BC  0E04               	movlw	4
  9620  0027BE  6E02               	movwf	(i2memset@dest+1)^0,c
  9621  0027C0  0E00               	movlw	0
  9622  0027C2  6E04               	movwf	(i2memset@c+1)^0,c
  9623  0027C4  0E00               	movlw	0
  9624  0027C6  6E03               	movwf	i2memset@c^0,c
  9625  0027C8  0E00               	movlw	0
  9626  0027CA  6E06               	movwf	(i2memset@n+1)^0,c
  9627  0027CC  0E30               	movlw	48
  9628  0027CE  6E05               	movwf	i2memset@n^0,c
  9629  0027D0  EC0C  F00B         	call	i2_memset	;wreg free
  9630                           
  9631                           ;mcc_generated_files/usb/usb_device.c: 1986:     UCONbits.PPBRST = 1;
  9632  0027D4  8C60               	bsf	96,6,c	;volatile
  9633                           
  9634                           ;mcc_generated_files/usb/usb_device.c: 1991:  for(i = 0; i < (uint8_t)(2 +1u); i++)
  9635  0027D6  0E00               	movlw	0
  9636  0027D8  6E15               	movwf	USBStdSetCfgHandler@i^0,c
  9637  0027DA                     i2l4802:
  9638                           
  9639                           ;mcc_generated_files/usb/usb_device.c: 1992:  {;mcc_generated_files/usb/usb_device.c: 19
      +                          93:   ep_data_in[i].Val = 0u;
  9640  0027DA  5015               	movf	USBStdSetCfgHandler@i^0,w,c
  9641  0027DC  0FD8               	addlw	low _ep_data_in
  9642  0027DE  6ED9               	movwf	fsr2l,c
  9643  0027E0  6ADA               	clrf	fsr2h,c
  9644  0027E2  0E00               	movlw	0
  9645  0027E4  6EDF               	movwf	indf2,c
  9646                           
  9647                           ;mcc_generated_files/usb/usb_device.c: 1994:         ep_data_out[i].Val = 0u;
  9648  0027E6  5015               	movf	USBStdSetCfgHandler@i^0,w,c
  9649  0027E8  0FD5               	addlw	low _ep_data_out
  9650  0027EA  6ED9               	movwf	fsr2l,c
  9651  0027EC  6ADA               	clrf	fsr2h,c
  9652  0027EE  0E00               	movlw	0
  9653  0027F0  6EDF               	movwf	indf2,c
  9654                           
  9655                           ;mcc_generated_files/usb/usb_device.c: 1995:  }
  9656  0027F2  2A15               	incf	USBStdSetCfgHandler@i^0,f,c
  9657  0027F4  0E02               	movlw	2
  9658  0027F6  6415               	cpfsgt	USBStdSetCfgHandler@i^0,c
  9659  0027F8  D7F0               	goto	i2l4802
  9660                           
  9661                           ;mcc_generated_files/usb/usb_device.c: 1998:     memset((void*)&USBAlternateInterface,0x
      +                          00,2);
  9662  0027FA  0E52               	movlw	low _USBAlternateInterface
  9663  0027FC  6E01               	movwf	i2memset@dest^0,c
  9664  0027FE  6A02               	clrf	(i2memset@dest+1)^0,c
  9665  002800  0E00               	movlw	0
  9666  002802  6E04               	movwf	(i2memset@c+1)^0,c
  9667  002804  0E00               	movlw	0
  9668  002806  6E03               	movwf	i2memset@c^0,c
  9669  002808  0E00               	movlw	0
  9670  00280A  6E06               	movwf	(i2memset@n+1)^0,c
  9671  00280C  0E02               	movlw	2
  9672  00280E  6E05               	movwf	i2memset@n^0,c
  9673  002810  EC0C  F00B         	call	i2_memset	;wreg free
  9674                           
  9675                           ;mcc_generated_files/usb/usb_device.c: 2001:     UCONbits.PPBRST = 0;
  9676  002814  9C60               	bcf	96,6,c	;volatile
  9677                           
  9678                           ;mcc_generated_files/usb/usb_device.c: 2003:     pBDTEntryIn[0] = (volatile BDT_ENTRY*)&
      +                          BDT[2];
  9679  002816  0E08               	movlw	8
  9680  002818  0100               	movlb	0	; () banked
  9681  00281A  6FCF               	movwf	_pBDTEntryIn& (0+255),b
  9682  00281C  0E04               	movlw	4
  9683  00281E  6FD0               	movwf	(_pBDTEntryIn+1)& (0+255),b
  9684                           
  9685                           ; BSR set to: 0
  9686                           ;mcc_generated_files/usb/usb_device.c: 2006:     pBDTEntryEP0OutCurrent = (volatile BDT_
      +                          ENTRY*)&BDT[0];
  9687  002820  0E00               	movlw	0
  9688  002822  6E3E               	movwf	_pBDTEntryEP0OutCurrent^0,c
  9689  002824  0E04               	movlw	4
  9690  002826  6E3F               	movwf	(_pBDTEntryEP0OutCurrent+1)^0,c
  9691                           
  9692                           ; BSR set to: 0
  9693                           ;mcc_generated_files/usb/usb_device.c: 2007:     pBDTEntryEP0OutNext = pBDTEntryEP0OutCu
      +                          rrent;
  9694  002828  C03E  F03C         	movff	_pBDTEntryEP0OutCurrent,_pBDTEntryEP0OutNext
  9695  00282C  C03F  F03D         	movff	_pBDTEntryEP0OutCurrent+1,_pBDTEntryEP0OutNext+1
  9696                           
  9697                           ; BSR set to: 0
  9698                           ;mcc_generated_files/usb/usb_device.c: 2010:     USBActiveConfiguration = SetupPkt.bConf
      +                          igurationValue;
  9699  002830  C432 F055          	movff	1074,_USBActiveConfiguration	;volatile
  9700                           
  9701                           ; BSR set to: 0
  9702                           ;mcc_generated_files/usb/usb_device.c: 2013:     if(USBActiveConfiguration == 0)
  9703  002834  5055               	movf	_USBActiveConfiguration^0,w,c	;volatile
  9704  002836  A4D8               	btfss	status,2,c
  9705  002838  D003               	goto	i2l4824
  9706                           
  9707                           ; BSR set to: 0
  9708                           ;mcc_generated_files/usb/usb_device.c: 2014:     {;mcc_generated_files/usb/usb_device.c:
      +                           2016:         USBDeviceState = ADDRESS_STATE;
  9709  00283A  0E10               	movlw	16
  9710  00283C  6E51               	movwf	_USBDeviceState^0,c	;volatile
  9711                           
  9712                           ;mcc_generated_files/usb/usb_device.c: 2017:     }
  9713  00283E  0012               	return	
  9714  002840                     i2l4824:
  9715                           
  9716                           ; BSR set to: 0
  9717                           ;mcc_generated_files/usb/usb_device.c: 2019:     {;mcc_generated_files/usb/usb_device.c:
      +                           2021:         USER_USB_CALLBACK_EVENT_HANDLER((USB_EVENT)EVENT_CONFIGURED,(void*)&USBAc
      +                          tiveConfiguration,1);
  9718  002840  0E00               	movlw	0
  9719  002842  6E0E               	movwf	(USER_USB_CALLBACK_EVENT_HANDLER@event+1)^0,c
  9720  002844  0E01               	movlw	1
  9721  002846  6E0D               	movwf	USER_USB_CALLBACK_EVENT_HANDLER@event^0,c
  9722  002848  0E55               	movlw	low _USBActiveConfiguration
  9723  00284A  6E0F               	movwf	USER_USB_CALLBACK_EVENT_HANDLER@pdata^0,c
  9724  00284C  6A10               	clrf	(USER_USB_CALLBACK_EVENT_HANDLER@pdata+1)^0,c
  9725  00284E  0E00               	movlw	0
  9726  002850  6E12               	movwf	(USER_USB_CALLBACK_EVENT_HANDLER@size+1)^0,c
  9727  002852  0E01               	movlw	1
  9728  002854  6E11               	movwf	USER_USB_CALLBACK_EVENT_HANDLER@size^0,c
  9729  002856  EC85  F018         	call	_USER_USB_CALLBACK_EVENT_HANDLER	;wreg free
  9730                           
  9731                           ;mcc_generated_files/usb/usb_device.c: 2026:         USBDeviceState = CONFIGURED_STATE;
  9732  00285A  0E20               	movlw	32
  9733  00285C  6E51               	movwf	_USBDeviceState^0,c	;volatile
  9734  00285E  0012               	return		;funcret
  9735  002860                     __end_of_USBStdSetCfgHandler:
  9736                           	callstack 0
  9737                           
  9738 ;; *************** function i2_memset *****************
  9739 ;; Defined at:
  9740 ;;		line 4 in file "/Applications/microchip/xc8/v2.36/pic/sources/c99/common/memset.c"
  9741 ;; Parameters:    Size  Location     Type
  9742 ;;  dest            2    0[COMRAM] PTR void 
  9743 ;;		 -> USBAlternateInterface(2), BDT(48), UEP1(1), 
  9744 ;;  c               2    2[COMRAM] int 
  9745 ;;  n               2    4[COMRAM] unsigned int 
  9746 ;; Auto vars:     Size  Location     Type
  9747 ;;  s               2   10[COMRAM] PTR unsigned char 
  9748 ;;		 -> USBAlternateInterface(2), BDT(48), UEP1(1), 
  9749 ;;  k               2    8[COMRAM] unsigned int 
  9750 ;; Return value:  Size  Location     Type
  9751 ;;                  2    0[COMRAM] PTR void 
  9752 ;; Registers used:
  9753 ;;		wreg, fsr2l, fsr2h, status,2, status,0
  9754 ;; Tracked objects:
  9755 ;;		On entry : 0/0
  9756 ;;		On exit  : 0/0
  9757 ;;		Unchanged: 0/0
  9758 ;; Data sizes:     COMRAM   BANK0   BANK1   BANK2   BANK3   BANK4   BANK5   BANK6   BANK7
  9759 ;;      Params:         6       0       0       0       0       0       0       0       0
  9760 ;;      Locals:         4       0       0       0       0       0       0       0       0
  9761 ;;      Temps:          2       0       0       0       0       0       0       0       0
  9762 ;;      Totals:        12       0       0       0       0       0       0       0       0
  9763 ;;Total ram usage:       12 bytes
  9764 ;; Hardware stack levels used: 1
  9765 ;; This function calls:
  9766 ;;		Nothing
  9767 ;; This function is called by:
  9768 ;;		_USBStdSetCfgHandler
  9769 ;;		i2_USBDeviceInit
  9770 ;; This function uses a non-reentrant model
  9771 ;;
  9772                           
  9773                           	psect	text57
  9774  001618                     __ptext57:
  9775                           	callstack 0
  9776  001618                     i2_memset:
  9777                           	callstack 19
  9778                           
  9779                           ;incstack = 0
  9780  001618  C001  F00B         	movff	i2memset@dest,i2memset@s
  9781  00161C  C002  F00C         	movff	i2memset@dest+1,i2memset@s+1
  9782  001620  5005               	movf	i2memset@n^0,w,c
  9783  001622  1006               	iorwf	(i2memset@n+1)^0,w,c
  9784  001624  B4D8               	btfsc	status,2,c
  9785  001626  0012               	return	
  9786  001628  C00B  FFD9         	movff	i2memset@s,fsr2l
  9787  00162C  C00C  FFDA         	movff	i2memset@s+1,fsr2h
  9788  001630  C003  FFDF         	movff	i2memset@c,indf2
  9789  001634  5005               	movf	i2memset@n^0,w,c
  9790  001636  240B               	addwf	i2memset@s^0,w,c
  9791  001638  6E07               	movwf	??i2_memset^0,c
  9792  00163A  5006               	movf	(i2memset@n+1)^0,w,c
  9793  00163C  200C               	addwfc	(i2memset@s+1)^0,w,c
  9794  00163E  6E08               	movwf	(??i2_memset+1)^0,c
  9795  001640  0EFF               	movlw	255
  9796  001642  2407               	addwf	??i2_memset^0,w,c
  9797  001644  6ED9               	movwf	fsr2l,c
  9798  001646  0EFF               	movlw	255
  9799  001648  2008               	addwfc	(??i2_memset+1)^0,w,c
  9800  00164A  6EDA               	movwf	fsr2h,c
  9801  00164C  C003  FFDF         	movff	i2memset@c,indf2
  9802  001650  5006               	movf	(i2memset@n+1)^0,w,c
  9803  001652  E104               	bnz	i2l4712
  9804  001654  0E03               	movlw	3
  9805  001656  5C05               	subwf	i2memset@n^0,w,c
  9806  001658  A0D8               	btfss	status,0,c
  9807  00165A  0012               	return	
  9808  00165C                     i2l4712:
  9809  00165C  EE20 F001          	lfsr	2,1
  9810  001660  500B               	movf	i2memset@s^0,w,c
  9811  001662  26D9               	addwf	fsr2l,f,c
  9812  001664  500C               	movf	(i2memset@s+1)^0,w,c
  9813  001666  22DA               	addwfc	fsr2h,f,c
  9814  001668  C003  FFDF         	movff	i2memset@c,indf2
  9815  00166C  EE20 F002          	lfsr	2,2
  9816  001670  500B               	movf	i2memset@s^0,w,c
  9817  001672  26D9               	addwf	fsr2l,f,c
  9818  001674  500C               	movf	(i2memset@s+1)^0,w,c
  9819  001676  22DA               	addwfc	fsr2h,f,c
  9820  001678  C003  FFDF         	movff	i2memset@c,indf2
  9821  00167C  5005               	movf	i2memset@n^0,w,c
  9822  00167E  240B               	addwf	i2memset@s^0,w,c
  9823  001680  6E07               	movwf	??i2_memset^0,c
  9824  001682  5006               	movf	(i2memset@n+1)^0,w,c
  9825  001684  200C               	addwfc	(i2memset@s+1)^0,w,c
  9826  001686  6E08               	movwf	(??i2_memset+1)^0,c
  9827  001688  0EFE               	movlw	254
  9828  00168A  2407               	addwf	??i2_memset^0,w,c
  9829  00168C  6ED9               	movwf	fsr2l,c
  9830  00168E  0EFF               	movlw	255
  9831  001690  2008               	addwfc	(??i2_memset+1)^0,w,c
  9832  001692  6EDA               	movwf	fsr2h,c
  9833  001694  C003  FFDF         	movff	i2memset@c,indf2
  9834  001698  5005               	movf	i2memset@n^0,w,c
  9835  00169A  240B               	addwf	i2memset@s^0,w,c
  9836  00169C  6E07               	movwf	??i2_memset^0,c
  9837  00169E  5006               	movf	(i2memset@n+1)^0,w,c
  9838  0016A0  200C               	addwfc	(i2memset@s+1)^0,w,c
  9839  0016A2  6E08               	movwf	(??i2_memset+1)^0,c
  9840  0016A4  0EFD               	movlw	253
  9841  0016A6  2407               	addwf	??i2_memset^0,w,c
  9842  0016A8  6ED9               	movwf	fsr2l,c
  9843  0016AA  0EFF               	movlw	255
  9844  0016AC  2008               	addwfc	(??i2_memset+1)^0,w,c
  9845  0016AE  6EDA               	movwf	fsr2h,c
  9846  0016B0  C003  FFDF         	movff	i2memset@c,indf2
  9847  0016B4  5006               	movf	(i2memset@n+1)^0,w,c
  9848  0016B6  E104               	bnz	i2l4718
  9849  0016B8  0E07               	movlw	7
  9850  0016BA  5C05               	subwf	i2memset@n^0,w,c
  9851  0016BC  A0D8               	btfss	status,0,c
  9852  0016BE  0012               	return	
  9853  0016C0                     i2l4718:
  9854  0016C0  EE20 F003          	lfsr	2,3
  9855  0016C4  500B               	movf	i2memset@s^0,w,c
  9856  0016C6  26D9               	addwf	fsr2l,f,c
  9857  0016C8  500C               	movf	(i2memset@s+1)^0,w,c
  9858  0016CA  22DA               	addwfc	fsr2h,f,c
  9859  0016CC  C003  FFDF         	movff	i2memset@c,indf2
  9860  0016D0  5005               	movf	i2memset@n^0,w,c
  9861  0016D2  240B               	addwf	i2memset@s^0,w,c
  9862  0016D4  6E07               	movwf	??i2_memset^0,c
  9863  0016D6  5006               	movf	(i2memset@n+1)^0,w,c
  9864  0016D8  200C               	addwfc	(i2memset@s+1)^0,w,c
  9865  0016DA  6E08               	movwf	(??i2_memset+1)^0,c
  9866  0016DC  0EFC               	movlw	252
  9867  0016DE  2407               	addwf	??i2_memset^0,w,c
  9868  0016E0  6ED9               	movwf	fsr2l,c
  9869  0016E2  0EFF               	movlw	255
  9870  0016E4  2008               	addwfc	(??i2_memset+1)^0,w,c
  9871  0016E6  6EDA               	movwf	fsr2h,c
  9872  0016E8  C003  FFDF         	movff	i2memset@c,indf2
  9873  0016EC  5006               	movf	(i2memset@n+1)^0,w,c
  9874  0016EE  E104               	bnz	i2l4724
  9875  0016F0  0E09               	movlw	9
  9876  0016F2  5C05               	subwf	i2memset@n^0,w,c
  9877  0016F4  A0D8               	btfss	status,0,c
  9878  0016F6  0012               	return	
  9879  0016F8                     i2l4724:
  9880  0016F8  C00B  F007         	movff	i2memset@s,??i2_memset
  9881  0016FC  C00C  F008         	movff	i2memset@s+1,??i2_memset+1
  9882  001700  1E07               	comf	??i2_memset^0,f,c
  9883  001702  1E08               	comf	(??i2_memset+1)^0,f,c
  9884  001704  4A07               	infsnz	??i2_memset^0,f,c
  9885  001706  2A08               	incf	(??i2_memset+1)^0,f,c
  9886  001708  0E03               	movlw	3
  9887  00170A  1407               	andwf	??i2_memset^0,w,c
  9888  00170C  6E09               	movwf	i2memset@k^0,c
  9889  00170E  6A0A               	clrf	(i2memset@k+1)^0,c
  9890  001710  5009               	movf	i2memset@k^0,w,c
  9891  001712  260B               	addwf	i2memset@s^0,f,c
  9892  001714  500A               	movf	(i2memset@k+1)^0,w,c
  9893  001716  220C               	addwfc	(i2memset@s+1)^0,f,c
  9894  001718  5009               	movf	i2memset@k^0,w,c
  9895  00171A  5E05               	subwf	i2memset@n^0,f,c
  9896  00171C  500A               	movf	(i2memset@k+1)^0,w,c
  9897  00171E  5A06               	subwfb	(i2memset@n+1)^0,f,c
  9898  001720  0EFC               	movlw	252
  9899  001722  1605               	andwf	i2memset@n^0,f,c
  9900  001724  0EFF               	movlw	255
  9901  001726  1606               	andwf	(i2memset@n+1)^0,f,c
  9902  001728  D00B               	goto	i2l4732
  9903  00172A                     i2l4726:
  9904  00172A  C00B  FFD9         	movff	i2memset@s,fsr2l
  9905  00172E  C00C  FFDA         	movff	i2memset@s+1,fsr2h
  9906  001732  C003  FFDF         	movff	i2memset@c,indf2
  9907  001736  0605               	decf	i2memset@n^0,f,c
  9908  001738  A0D8               	btfss	status,0,c
  9909  00173A  0606               	decf	(i2memset@n+1)^0,f,c
  9910  00173C  4A0B               	infsnz	i2memset@s^0,f,c
  9911  00173E  2A0C               	incf	(i2memset@s+1)^0,f,c
  9912  001740                     i2l4732:
  9913  001740  5005               	movf	i2memset@n^0,w,c
  9914  001742  1006               	iorwf	(i2memset@n+1)^0,w,c
  9915  001744  B4D8               	btfsc	status,2,c
  9916  001746  0012               	return	
  9917  001748  D7F0               	goto	i2l4726
  9918  00174A                     __end_ofi2_memset:
  9919                           	callstack 0
  9920                           
  9921 ;; *************** function _USBStdGetStatusHandler *****************
  9922 ;; Defined at:
  9923 ;;		line 2133 in file "mcc_generated_files/usb/usb_device.c"
  9924 ;; Parameters:    Size  Location     Type
  9925 ;;		None
  9926 ;; Auto vars:     Size  Location     Type
  9927 ;;  p               2    2[COMRAM] PTR struct __BDT
  9928 ;;		 -> RAM(2047), NULL(0), BDT(48), 
  9929 ;; Return value:  Size  Location     Type
  9930 ;;                  1    wreg      void 
  9931 ;; Registers used:
  9932 ;;		wreg, fsr2l, fsr2h, status,2, status,0, prodl, prodh
  9933 ;; Tracked objects:
  9934 ;;		On entry : 3B/4
  9935 ;;		On exit  : 3F/0
  9936 ;;		Unchanged: 0/0
  9937 ;; Data sizes:     COMRAM   BANK0   BANK1   BANK2   BANK3   BANK4   BANK5   BANK6   BANK7
  9938 ;;      Params:         0       0       0       0       0       0       0       0       0
  9939 ;;      Locals:         2       0       0       0       0       0       0       0       0
  9940 ;;      Temps:          2       0       0       0       0       0       0       0       0
  9941 ;;      Totals:         4       0       0       0       0       0       0       0       0
  9942 ;;Total ram usage:        4 bytes
  9943 ;; Hardware stack levels used: 1
  9944 ;; This function calls:
  9945 ;;		Nothing
  9946 ;; This function is called by:
  9947 ;;		_USBCheckStdRequest
  9948 ;; This function uses a non-reentrant model
  9949 ;;
  9950                           
  9951                           	psect	text58
  9952  002AA0                     __ptext58:
  9953                           	callstack 0
  9954  002AA0                     _USBStdGetStatusHandler:
  9955                           	callstack 17
  9956                           
  9957                           ;mcc_generated_files/usb/usb_device.c: 2135:     CtrlTrfData[0] = 0;
  9958                           
  9959                           ;incstack = 0
  9960  002AA0  0E00               	movlw	0
  9961  002AA2  0104               	movlb	4	; () banked
  9962  002AA4  6F38               	movwf	56,b	;volatile
  9963                           
  9964                           ;mcc_generated_files/usb/usb_device.c: 2136:     CtrlTrfData[1] = 0;
  9965  002AA6  0E00               	movlw	0
  9966  002AA8  6F39               	movwf	57,b	;volatile
  9967                           
  9968                           ;mcc_generated_files/usb/usb_device.c: 2138:     switch(SetupPkt.Recipient)
  9969  002AAA  D030               	goto	i2l4884
  9970  002AAC                     i2l284:
  9971                           
  9972                           ; BSR set to: 4
  9973                           ;mcc_generated_files/usb/usb_device.c: 2141:             inPipes[0].info.bits.busy = 1;
  9974  002AAC  0100               	movlb	0	; () banked
  9975  002AAE  8FCC               	bsf	(_inPipes+3)& (0+255),7,b	;volatile
  9976                           
  9977                           ; BSR set to: 0
  9978                           ;mcc_generated_files/usb/usb_device.c: 2151:             if(RemoteWakeup == 1)
  9979                           
  9980                           ;mcc_generated_files/usb/usb_device.c: 2146:             if(0 == 1)
  9981  002AB0  044E               	decf	_RemoteWakeup^0,w,c	;volatile
  9982  002AB2  A4D8               	btfss	status,2,c
  9983  002AB4  D03D               	goto	i2l287
  9984                           
  9985                           ; BSR set to: 0
  9986                           ;mcc_generated_files/usb/usb_device.c: 2152:             {;mcc_generated_files/usb/usb_d
      +                          evice.c: 2153:                 CtrlTrfData[0]|=0x02;
  9987  002AB6  0104               	movlb	4	; () banked
  9988  002AB8  8338               	bsf	56,1,b	;volatile
  9989  002ABA  D03A               	goto	i2l287
  9990  002ABC                     i2l288:
  9991                           
  9992                           ; BSR set to: 4
  9993                           ;mcc_generated_files/usb/usb_device.c: 2157:             inPipes[0].info.bits.busy = 1;
  9994  002ABC  0100               	movlb	0	; () banked
  9995  002ABE  8FCC               	bsf	(_inPipes+3)& (0+255),7,b	;volatile
  9996                           
  9997                           ;mcc_generated_files/usb/usb_device.c: 2158:             break;
  9998  002AC0  D037               	goto	i2l287
  9999  002AC2                     i2l289:
 10000                           
 10001                           ; BSR set to: 4
 10002                           ;mcc_generated_files/usb/usb_device.c: 2160:             inPipes[0].info.bits.busy = 1;
 10003  002AC2  0100               	movlb	0	; () banked
 10004  002AC4  8FCC               	bsf	(_inPipes+3)& (0+255),7,b	;volatile
 10005                           
 10006                           ;mcc_generated_files/usb/usb_device.c: 2164:             {;mcc_generated_files/usb/usb_d
      +                          evice.c: 2165:                 BDT_ENTRY *p;;mcc_generated_files/usb/usb_device.c: 2167:
      +                                           if(SetupPkt.EPDir == 0)
 10007  002AC6  0104               	movlb	4	; () banked
 10008  002AC8  BF34               	btfsc	52,7,b	;volatile
 10009  002ACA  D006               	goto	i2l4874
 10010                           
 10011                           ; BSR set to: 4
 10012                           ;mcc_generated_files/usb/usb_device.c: 2168:                 {;mcc_generated_files/usb/u
      +                          sb_device.c: 2169:                     p = (BDT_ENTRY*)pBDTEntryOut[SetupPkt.EPNum];
 10013  002ACC  5134               	movf	52,w,b	;volatile
 10014  002ACE  0B0F               	andlw	15
 10015  002AD0  0D02               	mullw	2
 10016  002AD2  50F3               	movf	243,w,c
 10017  002AD4  0F2C               	addlw	low _pBDTEntryOut
 10018  002AD6  D005               	goto	L7
 10019  002AD8                     i2l4874:
 10020                           
 10021                           ; BSR set to: 4
 10022                           ;mcc_generated_files/usb/usb_device.c: 2172:                 {;mcc_generated_files/usb/u
      +                          sb_device.c: 2173:                     p = (BDT_ENTRY*)pBDTEntryIn[SetupPkt.EPNum];
 10023  002AD8  5134               	movf	52,w,b	;volatile
 10024  002ADA  0B0F               	andlw	15
 10025  002ADC  0D02               	mullw	2
 10026  002ADE  50F3               	movf	243,w,c
 10027  002AE0  0FCF               	addlw	low _pBDTEntryIn
 10028  002AE2                     L7:
 10029  002AE2  6ED9               	movwf	fsr2l,c
 10030  002AE4  6ADA               	clrf	fsr2h,c
 10031  002AE6  CFDE F003          	movff	postinc2,USBStdGetStatusHandler@p
 10032  002AEA  CFDD F004          	movff	postdec2,USBStdGetStatusHandler@p+1
 10033                           
 10034                           ; BSR set to: 4
 10035                           ;mcc_generated_files/usb/usb_device.c: 2176:                 if((p->STAT.UOWN == 1) && (
      +                          p->STAT.BSTALL == 1))
 10036  002AEE  C003  FFD9         	movff	USBStdGetStatusHandler@p,fsr2l
 10037  002AF2  C004  FFDA         	movff	USBStdGetStatusHandler@p+1,fsr2h
 10038  002AF6  AEDF               	btfss	indf2,7,c
 10039  002AF8  D01B               	goto	i2l287
 10040                           
 10041                           ; BSR set to: 4
 10042  002AFA  C003  FFD9         	movff	USBStdGetStatusHandler@p,fsr2l
 10043  002AFE  C004  FFDA         	movff	USBStdGetStatusHandler@p+1,fsr2h
 10044  002B02  A4DF               	btfss	indf2,2,c
 10045  002B04  D015               	goto	i2l287
 10046                           
 10047                           ; BSR set to: 4
 10048                           ;mcc_generated_files/usb/usb_device.c: 2177:                     CtrlTrfData[0]=0x01;
 10049  002B06  0E01               	movlw	1
 10050  002B08  6F38               	movwf	56,b	;volatile
 10051  002B0A  D012               	goto	i2l287
 10052  002B0C                     i2l4884:
 10053                           
 10054                           ; BSR set to: 4
 10055  002B0C  5130               	movf	48,w,b	;volatile
 10056  002B0E  0B1F               	andlw	31
 10057  002B10  6E01               	movwf	??_USBStdGetStatusHandler^0,c
 10058  002B12  6A02               	clrf	(??_USBStdGetStatusHandler+1)^0,c
 10059                           
 10060                           ; Switch on 2 bytes has been partitioned into a top level switch of size 1, and 1 sub-sw
      +                          itches
 10061                           ; Switch size 1, requested type "simple"
 10062                           ; Number of cases is 1, Range of values is 0 to 0
 10063                           ; switch strategies available:
 10064                           ; Name         Instructions Cycles
 10065                           ; simple_byte            4     3 (average)
 10066                           ;	Chosen strategy is simple_byte
 10067  002B14  5002               	movf	(??_USBStdGetStatusHandler+1)^0,w,c
 10068  002B16  0A00               	xorlw	0	; case 0
 10069  002B18  A4D8               	btfss	status,2,c
 10070  002B1A  D00A               	goto	i2l287
 10071                           
 10072                           ; BSR set to: 4
 10073                           ; Switch size 1, requested type "simple"
 10074                           ; Number of cases is 3, Range of values is 0 to 2
 10075                           ; switch strategies available:
 10076                           ; Name         Instructions Cycles
 10077                           ; simple_byte           10     6 (average)
 10078                           ;	Chosen strategy is simple_byte
 10079  002B1C  5001               	movf	??_USBStdGetStatusHandler^0,w,c
 10080  002B1E  0A00               	xorlw	0	; case 0
 10081  002B20  B4D8               	btfsc	status,2,c
 10082  002B22  D7C4               	goto	i2l284
 10083  002B24  0A01               	xorlw	1	; case 1
 10084  002B26  B4D8               	btfsc	status,2,c
 10085  002B28  D7C9               	goto	i2l288
 10086  002B2A  0A03               	xorlw	3	; case 2
 10087  002B2C  B4D8               	btfsc	status,2,c
 10088  002B2E  D7C9               	goto	i2l289
 10089  002B30                     i2l287:
 10090                           
 10091                           ;mcc_generated_files/usb/usb_device.c: 2182:     if(inPipes[0].info.bits.busy == 1)
 10092  002B30  0100               	movlb	0	; () banked
 10093  002B32  AFCC               	btfss	(_inPipes+3)& (0+255),7,b	;volatile
 10094  002B34  0012               	return	
 10095                           
 10096                           ; BSR set to: 0
 10097                           ;mcc_generated_files/usb/usb_device.c: 2183:     {;mcc_generated_files/usb/usb_device.c:
      +                           2184:         inPipes[0].pSrc.bRam = (uint8_t*)&CtrlTrfData;
 10098  002B36  0E38               	movlw	56
 10099  002B38  6FC9               	movwf	_inPipes& (0+255),b	;volatile
 10100  002B3A  0E04               	movlw	4
 10101  002B3C  6FCA               	movwf	(_inPipes+1)& (0+255),b	;volatile
 10102                           
 10103                           ; BSR set to: 0
 10104                           ;mcc_generated_files/usb/usb_device.c: 2185:         inPipes[0].info.bits.ctrl_trf_mem =
      +                           0x01;
 10105  002B3E  81CC               	bsf	(_inPipes+3)& (0+255),0,b	;volatile
 10106                           
 10107                           ; BSR set to: 0
 10108                           ;mcc_generated_files/usb/usb_device.c: 2186:         inPipes[0].wCount.v[0] = 2;
 10109  002B40  0E02               	movlw	2
 10110  002B42  6FCD               	movwf	(_inPipes+4)& (0+255),b	;volatile
 10111                           
 10112                           ; BSR set to: 0
 10113  002B44  0012               	return		;funcret
 10114  002B46                     __end_of_USBStdGetStatusHandler:
 10115                           	callstack 0
 10116                           
 10117 ;; *************** function _USBStdGetDscHandler *****************
 10118 ;; Defined at:
 10119 ;;		line 2047 in file "mcc_generated_files/usb/usb_device.c"
 10120 ;; Parameters:    Size  Location     Type
 10121 ;;		None
 10122 ;; Auto vars:     Size  Location     Type
 10123 ;;		None
 10124 ;; Return value:  Size  Location     Type
 10125 ;;                  1    wreg      void 
 10126 ;; Registers used:
 10127 ;;		wreg, fsr1l, fsr1h, status,2, status,0, tblptrl, tblptrh, tblptru
 10128 ;; Tracked objects:
 10129 ;;		On entry : 3B/4
 10130 ;;		On exit  : 3B/0
 10131 ;;		Unchanged: 0/0
 10132 ;; Data sizes:     COMRAM   BANK0   BANK1   BANK2   BANK3   BANK4   BANK5   BANK6   BANK7
 10133 ;;      Params:         0       0       0       0       0       0       0       0       0
 10134 ;;      Locals:         0       0       0       0       0       0       0       0       0
 10135 ;;      Temps:          2       0       0       0       0       0       0       0       0
 10136 ;;      Totals:         2       0       0       0       0       0       0       0       0
 10137 ;;Total ram usage:        2 bytes
 10138 ;; Hardware stack levels used: 1
 10139 ;; This function calls:
 10140 ;;		Nothing
 10141 ;; This function is called by:
 10142 ;;		_USBCheckStdRequest
 10143 ;; This function uses a non-reentrant model
 10144 ;;
 10145                           
 10146                           	psect	text59
 10147  00127E                     __ptext59:
 10148                           	callstack 0
 10149  00127E                     _USBStdGetDscHandler:
 10150                           	callstack 17
 10151                           
 10152                           ;mcc_generated_files/usb/usb_device.c: 2049:     if(SetupPkt.bmRequestType == 0x80)
 10153                           
 10154                           ; BSR set to: 0
 10155                           ;incstack = 0
 10156  00127E  0E80               	movlw	128
 10157  001280  0104               	movlb	4	; () banked
 10158  001282  1930               	xorwf	48,w,b	;volatile
 10159  001284  A4D8               	btfss	status,2,c
 10160  001286  0012               	return	
 10161                           
 10162                           ; BSR set to: 4
 10163                           ;mcc_generated_files/usb/usb_device.c: 2050:     {;mcc_generated_files/usb/usb_device.c:
      +                           2051:         inPipes[0].info.Val = 0x00 | 0x80 | 0x40;
 10164  001288  0EC0               	movlw	192
 10165  00128A  0100               	movlb	0	; () banked
 10166  00128C  6FCC               	movwf	(_inPipes+3)& (0+255),b	;volatile
 10167                           
 10168                           ;mcc_generated_files/usb/usb_device.c: 2053:         switch(SetupPkt.bDescriptorType)
 10169  00128E  D07F               	goto	i2l4858
 10170  001290                     i2l4832:
 10171                           
 10172                           ; BSR set to: 4
 10173                           ;mcc_generated_files/usb/usb_device.c: 2059:                     inPipes[0].pSrc.bRom = 
      +                          (const uint8_t*)&device_dsc;
 10174  001290  0E92               	movlw	low _device_dsc
 10175  001292  0100               	movlb	0	; () banked
 10176  001294  6FC9               	movwf	_inPipes& (0+255),b	;volatile
 10177  001296  51C9               	movf	_inPipes& (0+255),w,b	;volatile
 10178  001298  A4D8               	btfss	status,2,c
 10179  00129A  0E08               	movlw	high __smallconst
 10180  00129C  6FCA               	movwf	(_inPipes+1)& (0+255),b	;volatile
 10181                           
 10182                           ; BSR set to: 0
 10183                           ;mcc_generated_files/usb/usb_device.c: 2061:                 inPipes[0].wCount.Val = siz
      +                          eof(device_dsc);
 10184  00129E  0E00               	movlw	0
 10185  0012A0  6FCE               	movwf	(_inPipes+5)& (0+255),b	;volatile
 10186  0012A2  0E12               	movlw	18
 10187  0012A4  6FCD               	movwf	(_inPipes+4)& (0+255),b	;volatile
 10188                           
 10189                           ;mcc_generated_files/usb/usb_device.c: 2062:                 break;
 10190  0012A6  0012               	return	
 10191  0012A8                     i2l4836:
 10192                           
 10193                           ; BSR set to: 4
 10194                           ;mcc_generated_files/usb/usb_device.c: 2067:                 if(SetupPkt.bDscIndex < 1)
 10195  0012A8  5132               	movf	50,w,b	;volatile
 10196  0012AA  A4D8               	btfss	status,2,c
 10197  0012AC  D03E               	goto	i2l4844
 10198                           
 10199                           ; BSR set to: 4
 10200                           ;mcc_generated_files/usb/usb_device.c: 2068:                 {;mcc_generated_files/usb/u
      +                          sb_device.c: 2072:                         inPipes[0].pSrc.bRom = *(USB_CD_Ptr+SetupPkt.
      +                          bDscIndex);
 10201  0012AE  5132               	movf	50,w,b	;volatile
 10202  0012B0  0F04               	addlw	low _USB_CD_Ptr
 10203  0012B2  6E01               	movwf	??_USBStdGetDscHandler^0,c
 10204  0012B4  C001  FFF6         	movff	??_USBStdGetDscHandler,tblptrl
 10205  0012B8                     	if	1	;There is more than 1 active tblptr byte
 10206  0012B8  0E08               	movlw	high __smallconst
 10207  0012BA  6EF7               	movwf	tblptrh,c
 10208  0012BC                     	endif
 10209  0012BC                     	if	0	;tblptru may be non-zero
 10210  0012BC                     	endif
 10211  0012BC                     	if	0	;tblptru may be non-zero
 10212  0012BC                     	endif
 10213  0012BC  0009               	tblrd		*+
 10214  0012BE  CFF5 F0C9          	movff	tablat,_inPipes	;volatile
 10215  0012C2  0E08               	movlw	high __smallconst
 10216  0012C4  0100               	movlb	0	; () banked
 10217  0012C6  6FCA               	movwf	(_inPipes+1)& (0+255),b	;volatile
 10218                           
 10219                           ; BSR set to: 0
 10220                           ;mcc_generated_files/usb/usb_device.c: 2078:                     inPipes[0].wCount.byte.
      +                          LB = *(inPipes[0].pSrc.bRom+2);
 10221  0012C8  0E02               	movlw	2
 10222  0012CA  25C9               	addwf	_inPipes& (0+255),w,b	;volatile
 10223  0012CC  6E01               	movwf	??_USBStdGetDscHandler^0,c
 10224  0012CE  0E00               	movlw	0
 10225  0012D0  21CA               	addwfc	(_inPipes+1)& (0+255),w,b	;volatile
 10226  0012D2  6E02               	movwf	(??_USBStdGetDscHandler+1)^0,c
 10227  0012D4  C001  FFF6         	movff	??_USBStdGetDscHandler,tblptrl
 10228  0012D8  C002  FFF7         	movff	??_USBStdGetDscHandler+1,tblptrh
 10229  0012DC  6AF8               	clrf	tblptru,c
 10230  0012DE  0E07               	movlw	(high __ramtop+-1)
 10231  0012E0  64F7               	cpfsgt	tblptrh,c
 10232  0012E2  D003               	bra	i2u291_47
 10233  0012E4  0008               	tblrd		*
 10234  0012E6  50F5               	movf	tablat,w,c
 10235  0012E8  D005               	bra	i2u291_40
 10236  0012EA                     i2u291_47:
 10237  0012EA  CFF6 FFE1          	movff	tblptrl,fsr1l
 10238  0012EE  CFF7 FFE2          	movff	tblptrh,fsr1h
 10239  0012F2  50E7               	movf	indf1,w,c
 10240  0012F4                     i2u291_40:
 10241  0012F4  0100               	movlb	0	; () banked
 10242  0012F6  6FCD               	movwf	(_inPipes+4)& (0+255),b	;volatile
 10243                           
 10244                           ; BSR set to: 0
 10245                           ;mcc_generated_files/usb/usb_device.c: 2079:                     inPipes[0].wCount.byte.
      +                          HB = *(inPipes[0].pSrc.bRom+3);
 10246  0012F8  0E03               	movlw	3
 10247  0012FA  25C9               	addwf	_inPipes& (0+255),w,b	;volatile
 10248  0012FC  6E01               	movwf	??_USBStdGetDscHandler^0,c
 10249  0012FE  0E00               	movlw	0
 10250  001300  21CA               	addwfc	(_inPipes+1)& (0+255),w,b	;volatile
 10251  001302  6E02               	movwf	(??_USBStdGetDscHandler+1)^0,c
 10252  001304  C001  FFF6         	movff	??_USBStdGetDscHandler,tblptrl
 10253  001308  C002  FFF7         	movff	??_USBStdGetDscHandler+1,tblptrh
 10254  00130C  6AF8               	clrf	tblptru,c
 10255  00130E  0E07               	movlw	(high __ramtop+-1)
 10256  001310  64F7               	cpfsgt	tblptrh,c
 10257  001312  D003               	bra	i2u292_47
 10258  001314  0008               	tblrd		*
 10259  001316  50F5               	movf	tablat,w,c
 10260  001318  D005               	bra	i2u292_40
 10261  00131A                     i2u292_47:
 10262  00131A  CFF6 FFE1          	movff	tblptrl,fsr1l
 10263  00131E  CFF7 FFE2          	movff	tblptrh,fsr1h
 10264  001322  50E7               	movf	indf1,w,c
 10265  001324                     i2u292_40:
 10266  001324  0100               	movlb	0	; () banked
 10267  001326  6FCE               	movwf	(_inPipes+5)& (0+255),b	;volatile
 10268                           
 10269                           ;mcc_generated_files/usb/usb_device.c: 2080:                 }
 10270  001328  0012               	return	
 10271  00132A                     i2l4844:
 10272                           
 10273                           ; BSR set to: 4
 10274                           ;mcc_generated_files/usb/usb_device.c: 2082:     {;mcc_generated_files/usb/usb_device.c:
      +                           2083:      inPipes[0].info.Val = 0;
 10275  00132A  0E00               	movlw	0
 10276  00132C  0100               	movlb	0	; () banked
 10277  00132E  6FCC               	movwf	(_inPipes+3)& (0+255),b	;volatile
 10278  001330  0012               	return	
 10279  001332                     i2l4846:
 10280                           
 10281                           ; BSR set to: 4
 10282                           ;mcc_generated_files/usb/usb_device.c: 2090:                 if(SetupPkt.bDscIndex<3)
 10283  001332  0E03               	movlw	3
 10284  001334  6132               	cpfslt	50,b	;volatile
 10285  001336  D023               	goto	i2l4852
 10286                           
 10287                           ; BSR set to: 4
 10288                           ;mcc_generated_files/usb/usb_device.c: 2091:                 {;mcc_generated_files/usb/u
      +                          sb_device.c: 2093:                     inPipes[0].pSrc.bRom = *(USB_SD_Ptr+SetupPkt.bDsc
      +                          Index);
 10289  001338  5132               	movf	50,w,b	;volatile
 10290  00133A  0F01               	addlw	low _USB_SD_Ptr
 10291  00133C  6E01               	movwf	??_USBStdGetDscHandler^0,c
 10292  00133E  C001  FFF6         	movff	??_USBStdGetDscHandler,tblptrl
 10293  001342                     	if	1	;There is more than 1 active tblptr byte
 10294  001342  0E08               	movlw	high __smallconst
 10295  001344  6EF7               	movwf	tblptrh,c
 10296  001346                     	endif
 10297  001346                     	if	0	;tblptru may be non-zero
 10298  001346                     	endif
 10299  001346                     	if	0	;tblptru may be non-zero
 10300  001346                     	endif
 10301  001346  0009               	tblrd		*+
 10302  001348  CFF5 F0C9          	movff	tablat,_inPipes	;volatile
 10303  00134C  0E08               	movlw	high __smallconst
 10304  00134E  0100               	movlb	0	; () banked
 10305  001350  6FCA               	movwf	(_inPipes+1)& (0+255),b	;volatile
 10306                           
 10307                           ; BSR set to: 0
 10308                           ;mcc_generated_files/usb/usb_device.c: 2095:                     inPipes[0].wCount.Val =
      +                           *inPipes[0].pSrc.bRom;
 10309  001352  C0C9  FFF6         	movff	_inPipes,tblptrl	;volatile
 10310  001356  C0CA  FFF7         	movff	_inPipes+1,tblptrh	;volatile
 10311  00135A  6AF8               	clrf	tblptru,c
 10312  00135C  0E07               	movlw	(high __ramtop+-1)
 10313  00135E  64F7               	cpfsgt	tblptrh,c
 10314  001360  D003               	bra	i2u294_47
 10315  001362  0008               	tblrd		*
 10316  001364  50F5               	movf	tablat,w,c
 10317  001366  D005               	bra	i2u294_40
 10318  001368                     i2u294_47:
 10319  001368  CFF6 FFE1          	movff	tblptrl,fsr1l
 10320  00136C  CFF7 FFE2          	movff	tblptrh,fsr1h
 10321  001370  50E7               	movf	indf1,w,c
 10322  001372                     i2u294_40:
 10323  001372  6E01               	movwf	??_USBStdGetDscHandler^0,c
 10324  001374  5001               	movf	??_USBStdGetDscHandler^0,w,c
 10325  001376  0100               	movlb	0	; () banked
 10326  001378  6FCD               	movwf	(_inPipes+4)& (0+255),b	;volatile
 10327  00137A  6BCE               	clrf	(_inPipes+5)& (0+255),b	;volatile
 10328                           
 10329                           ;mcc_generated_files/usb/usb_device.c: 2096:                 }
 10330  00137C  0012               	return	
 10331  00137E                     i2l4852:
 10332                           
 10333                           ; BSR set to: 4
 10334                           ;mcc_generated_files/usb/usb_device.c: 2107:                 {;mcc_generated_files/usb/u
      +                          sb_device.c: 2108:                     inPipes[0].info.Val = 0;
 10335  00137E  0E00               	movlw	0
 10336  001380  0100               	movlb	0	; () banked
 10337  001382  6FCC               	movwf	(_inPipes+3)& (0+255),b	;volatile
 10338  001384  0012               	return	
 10339  001386                     i2l4854:
 10340                           
 10341                           ; BSR set to: 4
 10342                           ;mcc_generated_files/usb/usb_device.c: 2112:                 inPipes[0].info.Val = 0;
 10343  001386  0E00               	movlw	0
 10344  001388  0100               	movlb	0	; () banked
 10345  00138A  6FCC               	movwf	(_inPipes+3)& (0+255),b	;volatile
 10346                           
 10347                           ;mcc_generated_files/usb/usb_device.c: 2113:                 break;
 10348  00138C  0012               	return	
 10349  00138E                     i2l4858:
 10350                           
 10351                           ; BSR set to: 0
 10352  00138E  0104               	movlb	4	; () banked
 10353  001390  5133               	movf	51,w,b	;volatile
 10354  001392  6E01               	movwf	??_USBStdGetDscHandler^0,c
 10355  001394  6A02               	clrf	(??_USBStdGetDscHandler+1)^0,c
 10356                           
 10357                           ; Switch on 2 bytes has been partitioned into a top level switch of size 1, and 1 sub-sw
      +                          itches
 10358                           ; Switch size 1, requested type "simple"
 10359                           ; Number of cases is 1, Range of values is 0 to 0
 10360                           ; switch strategies available:
 10361                           ; Name         Instructions Cycles
 10362                           ; simple_byte            4     3 (average)
 10363                           ;	Chosen strategy is simple_byte
 10364  001396  5002               	movf	(??_USBStdGetDscHandler+1)^0,w,c
 10365  001398  0A00               	xorlw	0	; case 0
 10366  00139A  A4D8               	btfss	status,2,c
 10367  00139C  D7F4               	goto	i2l4854
 10368                           
 10369                           ; BSR set to: 4
 10370                           ; Switch size 1, requested type "simple"
 10371                           ; Number of cases is 3, Range of values is 1 to 3
 10372                           ; switch strategies available:
 10373                           ; Name         Instructions Cycles
 10374                           ; simple_byte           10     6 (average)
 10375                           ;	Chosen strategy is simple_byte
 10376  00139E  5001               	movf	??_USBStdGetDscHandler^0,w,c
 10377  0013A0  0A01               	xorlw	1	; case 1
 10378  0013A2  B4D8               	btfsc	status,2,c
 10379  0013A4  D775               	goto	i2l4832
 10380  0013A6  0A03               	xorlw	3	; case 2
 10381  0013A8  B4D8               	btfsc	status,2,c
 10382  0013AA  D77E               	goto	i2l4836
 10383  0013AC  0A01               	xorlw	1	; case 3
 10384  0013AE  B4D8               	btfsc	status,2,c
 10385  0013B0  D7C0               	goto	i2l4846
 10386  0013B2  D7E9               	goto	i2l4854
 10387  0013B4                     __end_of_USBStdGetDscHandler:
 10388                           	callstack 0
 10389                           
 10390 ;; *************** function _USBStdFeatureReqHandler *****************
 10391 ;; Defined at:
 10392 ;;		line 2758 in file "mcc_generated_files/usb/usb_device.c"
 10393 ;; Parameters:    Size  Location     Type
 10394 ;;		None
 10395 ;; Auto vars:     Size  Location     Type
 10396 ;;  p               2   25[COMRAM] PTR struct __BDT
 10397 ;;		 -> RAM(2047), NULL(0), BDT(48), 
 10398 ;;  pUEP            2   22[COMRAM] PTR unsigned char 
 10399 ;;		 -> UEP0(1), 
 10400 ;;  current_ep_d    1   24[COMRAM] struct .
 10401 ;; Return value:  Size  Location     Type
 10402 ;;                  1    wreg      void 
 10403 ;; Registers used:
 10404 ;;		wreg, fsr2l, fsr2h, status,2, status,0, prodl, prodh, cstack
 10405 ;; Tracked objects:
 10406 ;;		On entry : 3B/4
 10407 ;;		On exit  : 3B/0
 10408 ;;		Unchanged: 0/0
 10409 ;; Data sizes:     COMRAM   BANK0   BANK1   BANK2   BANK3   BANK4   BANK5   BANK6   BANK7
 10410 ;;      Params:         0       0       0       0       0       0       0       0       0
 10411 ;;      Locals:         5       0       0       0       0       0       0       0       0
 10412 ;;      Temps:          2       0       0       0       0       0       0       0       0
 10413 ;;      Totals:         7       0       0       0       0       0       0       0       0
 10414 ;;Total ram usage:        7 bytes
 10415 ;; Hardware stack levels used: 1
 10416 ;; Hardware stack levels required when called: 4
 10417 ;; This function calls:
 10418 ;;		_USER_USB_CALLBACK_EVENT_HANDLER
 10419 ;; This function is called by:
 10420 ;;		_USBCheckStdRequest
 10421 ;; This function uses a non-reentrant model
 10422 ;;
 10423                           
 10424                           	psect	text60
 10425  000B26                     __ptext60:
 10426                           	callstack 0
 10427  000B26                     _USBStdFeatureReqHandler:
 10428                           	callstack 13
 10429                           
 10430                           ;mcc_generated_files/usb/usb_device.c: 2760:     BDT_ENTRY *p;;mcc_generated_files/usb/u
      +                          sb_device.c: 2761:     EP_STATUS current_ep_data;;mcc_generated_files/usb/usb_device.c: 
      +                          2765:         unsigned char* pUEP;;mcc_generated_files/usb/usb_device.c: 2803:     if((S
      +                          etupPkt.bFeature == 1)&&
 10431                           
 10432                           ;incstack = 0
 10433  000B26  0104               	movlb	4	; () banked
 10434  000B28  0532               	decf	50,w,b	;volatile
 10435  000B2A  A4D8               	btfss	status,2,c
 10436  000B2C  D010               	goto	i2l361
 10437                           
 10438                           ; BSR set to: 4
 10439  000B2E  5130               	movf	48,w,b	;volatile
 10440  000B30  0B1F               	andlw	31
 10441  000B32  0900               	iorlw	0
 10442  000B34  A4D8               	btfss	status,2,c
 10443  000B36  D00B               	goto	i2l361
 10444                           
 10445                           ; BSR set to: 4
 10446                           ;mcc_generated_files/usb/usb_device.c: 2805:     {;mcc_generated_files/usb/usb_device.c:
      +                           2806:         inPipes[0].info.bits.busy = 1;
 10447  000B38  0100               	movlb	0	; () banked
 10448  000B3A  8FCC               	bsf	(_inPipes+3)& (0+255),7,b	;volatile
 10449                           
 10450                           ; BSR set to: 0
 10451                           ;mcc_generated_files/usb/usb_device.c: 2807:         if(SetupPkt.bRequest == 3)
 10452  000B3C  0E03               	movlw	3
 10453  000B3E  0104               	movlb	4	; () banked
 10454  000B40  1931               	xorwf	49,w,b	;volatile
 10455  000B42  A4D8               	btfss	status,2,c
 10456  000B44  D002               	goto	i2l4906
 10457                           
 10458                           ; BSR set to: 4
 10459                           ;mcc_generated_files/usb/usb_device.c: 2808:             RemoteWakeup = 1;
 10460  000B46  0E01               	movlw	1
 10461  000B48  D001               	goto	L8
 10462  000B4A                     i2l4906:
 10463                           
 10464                           ; BSR set to: 4
 10465                           ;mcc_generated_files/usb/usb_device.c: 2810:             RemoteWakeup = 0;
 10466  000B4A  0E00               	movlw	0
 10467  000B4C                     L8:
 10468  000B4C  6E4E               	movwf	_RemoteWakeup^0,c	;volatile
 10469  000B4E                     i2l361:
 10470                           
 10471                           ; BSR set to: 4
 10472                           ;mcc_generated_files/usb/usb_device.c: 2814:     if((SetupPkt.bFeature == 0)&&
 10473  000B4E  5132               	movf	50,w,b	;volatile
 10474  000B50  A4D8               	btfss	status,2,c
 10475  000B52  0012               	return	
 10476                           
 10477                           ; BSR set to: 4
 10478  000B54  5130               	movf	48,w,b	;volatile
 10479  000B56  0B1F               	andlw	31
 10480  000B58  0A02               	xorlw	2
 10481  000B5A  A4D8               	btfss	status,2,c
 10482  000B5C  0012               	return	
 10483                           
 10484                           ; BSR set to: 4
 10485  000B5E  5134               	movf	52,w,b	;volatile
 10486  000B60  0B0F               	andlw	15
 10487  000B62  0900               	iorlw	0
 10488  000B64  B4D8               	btfsc	status,2,c
 10489  000B66  0012               	return	
 10490                           
 10491                           ; BSR set to: 4
 10492  000B68  5134               	movf	52,w,b	;volatile
 10493  000B6A  0B0F               	andlw	15
 10494  000B6C  6E15               	movwf	??_USBStdFeatureReqHandler^0,c
 10495  000B6E  0E03               	movlw	3
 10496  000B70  6015               	cpfslt	??_USBStdFeatureReqHandler^0,c
 10497  000B72  0012               	return	
 10498                           
 10499                           ; BSR set to: 4
 10500  000B74  0E20               	movlw	32
 10501  000B76  1851               	xorwf	_USBDeviceState^0,w,c
 10502  000B78  A4D8               	btfss	status,2,c
 10503  000B7A  0012               	return	
 10504                           
 10505                           ; BSR set to: 4
 10506                           ;mcc_generated_files/usb/usb_device.c: 2818:     {;mcc_generated_files/usb/usb_device.c:
      +                           2821:   inPipes[0].info.bits.busy = 1;
 10507  000B7C  0100               	movlb	0	; () banked
 10508  000B7E  8FCC               	bsf	(_inPipes+3)& (0+255),7,b	;volatile
 10509                           
 10510                           ;mcc_generated_files/usb/usb_device.c: 2824:         if(SetupPkt.EPDir == 0)
 10511  000B80  0104               	movlb	4	; () banked
 10512  000B82  BF34               	btfsc	52,7,b	;volatile
 10513  000B84  D011               	goto	i2l4922
 10514                           
 10515                           ; BSR set to: 4
 10516                           ;mcc_generated_files/usb/usb_device.c: 2825:         {;mcc_generated_files/usb/usb_devic
      +                          e.c: 2826:             p = (BDT_ENTRY*)pBDTEntryOut[SetupPkt.EPNum];
 10517  000B86  5134               	movf	52,w,b	;volatile
 10518  000B88  0B0F               	andlw	15
 10519  000B8A  0D02               	mullw	2
 10520  000B8C  50F3               	movf	243,w,c
 10521  000B8E  0F2C               	addlw	low _pBDTEntryOut
 10522  000B90  6ED9               	movwf	fsr2l,c
 10523  000B92  6ADA               	clrf	fsr2h,c
 10524  000B94  CFDE F01A          	movff	postinc2,USBStdFeatureReqHandler@p
 10525  000B98  CFDD F01B          	movff	postdec2,USBStdFeatureReqHandler@p+1
 10526                           
 10527                           ; BSR set to: 4
 10528                           ;mcc_generated_files/usb/usb_device.c: 2827:             current_ep_data.Val = ep_data_o
      +                          ut[SetupPkt.EPNum].Val;
 10529  000B9C  5134               	movf	52,w,b	;volatile
 10530  000B9E  0B0F               	andlw	15
 10531  000BA0  6E15               	movwf	??_USBStdFeatureReqHandler^0,c
 10532  000BA2  5015               	movf	??_USBStdFeatureReqHandler^0,w,c
 10533  000BA4  0FD5               	addlw	low _ep_data_out
 10534  000BA6  D010               	goto	L9
 10535  000BA8                     i2l4922:
 10536                           
 10537                           ; BSR set to: 4
 10538                           ;mcc_generated_files/usb/usb_device.c: 2830:         {;mcc_generated_files/usb/usb_devic
      +                          e.c: 2831:             p = (BDT_ENTRY*)pBDTEntryIn[SetupPkt.EPNum];
 10539  000BA8  5134               	movf	52,w,b	;volatile
 10540  000BAA  0B0F               	andlw	15
 10541  000BAC  0D02               	mullw	2
 10542  000BAE  50F3               	movf	243,w,c
 10543  000BB0  0FCF               	addlw	low _pBDTEntryIn
 10544  000BB2  6ED9               	movwf	fsr2l,c
 10545  000BB4  6ADA               	clrf	fsr2h,c
 10546  000BB6  CFDE F01A          	movff	postinc2,USBStdFeatureReqHandler@p
 10547  000BBA  CFDD F01B          	movff	postdec2,USBStdFeatureReqHandler@p+1
 10548                           
 10549                           ; BSR set to: 4
 10550                           ;mcc_generated_files/usb/usb_device.c: 2832:             current_ep_data.Val = ep_data_i
      +                          n[SetupPkt.EPNum].Val;
 10551  000BBE  5134               	movf	52,w,b	;volatile
 10552  000BC0  0B0F               	andlw	15
 10553  000BC2  6E15               	movwf	??_USBStdFeatureReqHandler^0,c
 10554  000BC4  5015               	movf	??_USBStdFeatureReqHandler^0,w,c
 10555  000BC6  0FD8               	addlw	low _ep_data_in
 10556  000BC8                     L9:
 10557  000BC8  6ED9               	movwf	fsr2l,c
 10558  000BCA  6ADA               	clrf	fsr2h,c
 10559  000BCC  50DF               	movf	indf2,w,c
 10560  000BCE  6E19               	movwf	USBStdFeatureReqHandler@current_ep_data^0,c
 10561                           
 10562                           ; BSR set to: 4
 10563                           ;mcc_generated_files/usb/usb_device.c: 2839:             if(current_ep_data.bits.ping_po
      +                          ng_state == 0)
 10564  000BD0  B019               	btfsc	USBStdFeatureReqHandler@current_ep_data^0,0,c
 10565  000BD2  D006               	goto	i2l4930
 10566                           
 10567                           ; BSR set to: 4
 10568                           ;mcc_generated_files/usb/usb_device.c: 2840:             {;mcc_generated_files/usb/usb_d
      +                          evice.c: 2841:                 p = (BDT_ENTRY*)(((uint16_t)p) & (~0x0004));
 10569  000BD4  0EFB               	movlw	251
 10570  000BD6  141A               	andwf	USBStdFeatureReqHandler@p^0,w,c
 10571  000BD8  6E1A               	movwf	USBStdFeatureReqHandler@p^0,c
 10572  000BDA  0EFF               	movlw	255
 10573  000BDC  141B               	andwf	(USBStdFeatureReqHandler@p+1)^0,w,c
 10574  000BDE  D004               	goto	L10
 10575  000BE0                     i2l4930:
 10576                           
 10577                           ; BSR set to: 4
 10578                           ;mcc_generated_files/usb/usb_device.c: 2844:             {;mcc_generated_files/usb/usb_d
      +                          evice.c: 2845:                 p = (BDT_ENTRY*)(((uint16_t)p) | 0x0004);
 10579  000BE0  0E04               	movlw	4
 10580  000BE2  101A               	iorwf	USBStdFeatureReqHandler@p^0,w,c
 10581  000BE4  6E1A               	movwf	USBStdFeatureReqHandler@p^0,c
 10582  000BE6  501B               	movf	(USBStdFeatureReqHandler@p+1)^0,w,c
 10583  000BE8                     L10:
 10584  000BE8  6E1B               	movwf	(USBStdFeatureReqHandler@p+1)^0,c
 10585                           
 10586                           ; BSR set to: 4
 10587                           ;mcc_generated_files/usb/usb_device.c: 2851:         if(SetupPkt.EPDir == 0)
 10588  000BEA  BF34               	btfsc	52,7,b	;volatile
 10589  000BEC  D006               	goto	i2l4936
 10590                           
 10591                           ; BSR set to: 4
 10592                           ;mcc_generated_files/usb/usb_device.c: 2852:         {;mcc_generated_files/usb/usb_devic
      +                          e.c: 2853:             pBDTEntryOut[SetupPkt.EPNum] = (volatile BDT_ENTRY *)p;
 10593  000BEE  5134               	movf	52,w,b	;volatile
 10594  000BF0  0B0F               	andlw	15
 10595  000BF2  0D02               	mullw	2
 10596  000BF4  50F3               	movf	243,w,c
 10597  000BF6  0F2C               	addlw	low _pBDTEntryOut
 10598  000BF8  D005               	goto	L11
 10599  000BFA                     i2l4936:
 10600                           
 10601                           ; BSR set to: 4
 10602                           ;mcc_generated_files/usb/usb_device.c: 2856:         {;mcc_generated_files/usb/usb_devic
      +                          e.c: 2857:             pBDTEntryIn[SetupPkt.EPNum] = (volatile BDT_ENTRY *)p;
 10603  000BFA  5134               	movf	52,w,b	;volatile
 10604  000BFC  0B0F               	andlw	15
 10605  000BFE  0D02               	mullw	2
 10606  000C00  50F3               	movf	243,w,c
 10607  000C02  0FCF               	addlw	low _pBDTEntryIn
 10608  000C04                     L11:
 10609  000C04  6ED9               	movwf	fsr2l,c
 10610  000C06  6ADA               	clrf	fsr2h,c
 10611  000C08  C01A  FFDE         	movff	USBStdFeatureReqHandler@p,postinc2
 10612  000C0C  C01B  FFDD         	movff	USBStdFeatureReqHandler@p+1,postdec2
 10613                           
 10614                           ; BSR set to: 4
 10615                           ;mcc_generated_files/usb/usb_device.c: 2861:         if(SetupPkt.bRequest == 3)
 10616  000C10  0E03               	movlw	3
 10617  000C12  1931               	xorwf	49,w,b	;volatile
 10618  000C14  A4D8               	btfss	status,2,c
 10619  000C16  D024               	goto	i2l4948
 10620                           
 10621                           ; BSR set to: 4
 10622                           ;mcc_generated_files/usb/usb_device.c: 2862:         {;mcc_generated_files/usb/usb_devic
      +                          e.c: 2863:             if(p->STAT.UOWN == 1)
 10623  000C18  C01A  FFD9         	movff	USBStdFeatureReqHandler@p,fsr2l
 10624  000C1C  C01B  FFDA         	movff	USBStdFeatureReqHandler@p+1,fsr2h
 10625  000C20  AEDF               	btfss	indf2,7,c
 10626  000C22  D011               	goto	i2l372
 10627                           
 10628                           ; BSR set to: 4
 10629                           ;mcc_generated_files/usb/usb_device.c: 2864:             {;mcc_generated_files/usb/usb_d
      +                          evice.c: 2867:                 if(SetupPkt.EPDir == 0)
 10630  000C24  BF34               	btfsc	52,7,b	;volatile
 10631  000C26  D006               	goto	i2l4946
 10632                           
 10633                           ; BSR set to: 4
 10634                           ;mcc_generated_files/usb/usb_device.c: 2868:                 {;mcc_generated_files/usb/u
      +                          sb_device.c: 2869:                     ep_data_out[SetupPkt.EPNum].bits.transfer_termina
      +                          ted = 1;
 10635  000C28  5134               	movf	52,w,b	;volatile
 10636  000C2A  0B0F               	andlw	15
 10637  000C2C  6E15               	movwf	??_USBStdFeatureReqHandler^0,c
 10638  000C2E  5015               	movf	??_USBStdFeatureReqHandler^0,w,c
 10639  000C30  0FD5               	addlw	low _ep_data_out
 10640  000C32  D005               	goto	L12
 10641  000C34                     i2l4946:
 10642                           
 10643                           ; BSR set to: 4
 10644                           ;mcc_generated_files/usb/usb_device.c: 2872:                 {;mcc_generated_files/usb/u
      +                          sb_device.c: 2873:                     ep_data_in[SetupPkt.EPNum].bits.transfer_terminat
      +                          ed = 1;
 10645  000C34  5134               	movf	52,w,b	;volatile
 10646  000C36  0B0F               	andlw	15
 10647  000C38  6E15               	movwf	??_USBStdFeatureReqHandler^0,c
 10648  000C3A  5015               	movf	??_USBStdFeatureReqHandler^0,w,c
 10649  000C3C  0FD8               	addlw	low _ep_data_in
 10650  000C3E                     L12:
 10651  000C3E  6ED9               	movwf	fsr2l,c
 10652  000C40  6ADA               	clrf	fsr2h,c
 10653  000C42  0100               	movlb	0	; () banked
 10654  000C44  82DF               	bsf	indf2,1,c
 10655  000C46                     i2l372:
 10656                           
 10657                           ;mcc_generated_files/usb/usb_device.c: 2878:             p->STAT.Val |= 0x04;
 10658  000C46  C01A  FFD9         	movff	USBStdFeatureReqHandler@p,fsr2l
 10659  000C4A  C01B  FFDA         	movff	USBStdFeatureReqHandler@p+1,fsr2h
 10660  000C4E  0E00               	movlw	0
 10661  000C50  84DB               	bsf	plusw2,2,c
 10662                           
 10663                           ;mcc_generated_files/usb/usb_device.c: 2879:             p->STAT.Val |= 0x80;
 10664  000C52  C01A  FFD9         	movff	USBStdFeatureReqHandler@p,fsr2l
 10665  000C56  C01B  FFDA         	movff	USBStdFeatureReqHandler@p+1,fsr2h
 10666  000C5A  0E00               	movlw	0
 10667  000C5C  8EDB               	bsf	plusw2,7,c
 10668                           
 10669                           ;mcc_generated_files/usb/usb_device.c: 2880:         }
 10670  000C5E  0012               	return	
 10671  000C60                     i2l4948:
 10672                           
 10673                           ; BSR set to: 4
 10674                           ;mcc_generated_files/usb/usb_device.c: 2882:         {;mcc_generated_files/usb/usb_devic
      +                          e.c: 2886:                 p = (BDT_ENTRY*)(((uint16_t)p) ^ 0x0004);
 10675  000C60  0E04               	movlw	4
 10676  000C62  181A               	xorwf	USBStdFeatureReqHandler@p^0,w,c
 10677  000C64  6E1A               	movwf	USBStdFeatureReqHandler@p^0,c
 10678  000C66  501B               	movf	(USBStdFeatureReqHandler@p+1)^0,w,c
 10679  000C68  6E1B               	movwf	(USBStdFeatureReqHandler@p+1)^0,c
 10680                           
 10681                           ; BSR set to: 4
 10682                           ;mcc_generated_files/usb/usb_device.c: 2888:                 if(p->STAT.UOWN == 1)
 10683  000C6A  C01A  FFD9         	movff	USBStdFeatureReqHandler@p,fsr2l
 10684  000C6E  C01B  FFDA         	movff	USBStdFeatureReqHandler@p+1,fsr2h
 10685  000C72  AEDF               	btfss	indf2,7,c
 10686  000C74  D01B               	goto	i2l4958
 10687                           
 10688                           ; BSR set to: 4
 10689                           ;mcc_generated_files/usb/usb_device.c: 2889:                 {;mcc_generated_files/usb/u
      +                          sb_device.c: 2892:                     p->STAT.Val &= (~0x80);
 10690  000C76  C01A  FFD9         	movff	USBStdFeatureReqHandler@p,fsr2l
 10691  000C7A  C01B  FFDA         	movff	USBStdFeatureReqHandler@p+1,fsr2h
 10692  000C7E  0E7F               	movlw	127
 10693  000C80  16DF               	andwf	indf2,f,c
 10694                           
 10695                           ; BSR set to: 4
 10696                           ;mcc_generated_files/usb/usb_device.c: 2893:                     p->STAT.Val |= 0x40;
 10697  000C82  C01A  FFD9         	movff	USBStdFeatureReqHandler@p,fsr2l
 10698  000C86  C01B  FFDA         	movff	USBStdFeatureReqHandler@p+1,fsr2h
 10699  000C8A  0E00               	movlw	0
 10700  000C8C  8CDB               	bsf	plusw2,6,c
 10701                           
 10702                           ; BSR set to: 4
 10703                           ;mcc_generated_files/usb/usb_device.c: 2894:                     USER_USB_CALLBACK_EVENT
      +                          _HANDLER((USB_EVENT)EVENT_TRANSFER_TERMINATED,p,sizeof(p));
 10704  000C8E  0E00               	movlw	0
 10705  000C90  6E0E               	movwf	(USER_USB_CALLBACK_EVENT_HANDLER@event+1)^0,c
 10706  000C92  0E05               	movlw	5
 10707  000C94  6E0D               	movwf	USER_USB_CALLBACK_EVENT_HANDLER@event^0,c
 10708  000C96  C01A  F00F         	movff	USBStdFeatureReqHandler@p,USER_USB_CALLBACK_EVENT_HANDLER@pdata
 10709  000C9A  C01B  F010         	movff	USBStdFeatureReqHandler@p+1,USER_USB_CALLBACK_EVENT_HANDLER@pdata+1
 10710  000C9E  0E00               	movlw	0
 10711  000CA0  6E12               	movwf	(USER_USB_CALLBACK_EVENT_HANDLER@size+1)^0,c
 10712  000CA2  0E02               	movlw	2
 10713  000CA4  6E11               	movwf	USER_USB_CALLBACK_EVENT_HANDLER@size^0,c
 10714  000CA6  EC85  F018         	call	_USER_USB_CALLBACK_EVENT_HANDLER	;wreg free
 10715                           
 10716                           ;mcc_generated_files/usb/usb_device.c: 2895:                 }
 10717  000CAA  D006               	goto	i2l4960
 10718  000CAC                     i2l4958:
 10719                           
 10720                           ; BSR set to: 4
 10721                           ;mcc_generated_files/usb/usb_device.c: 2897:                 {;mcc_generated_files/usb/u
      +                          sb_device.c: 2899:      p->STAT.Val |= 0x40;
 10722  000CAC  C01A  FFD9         	movff	USBStdFeatureReqHandler@p,fsr2l
 10723  000CB0  C01B  FFDA         	movff	USBStdFeatureReqHandler@p+1,fsr2h
 10724  000CB4  0E00               	movlw	0
 10725  000CB6  8CDB               	bsf	plusw2,6,c
 10726  000CB8                     i2l4960:
 10727                           
 10728                           ;mcc_generated_files/usb/usb_device.c: 2904:                 p = (BDT_ENTRY*)(((uint16_t
      +                          )p) ^ 0x0004);
 10729  000CB8  0E04               	movlw	4
 10730  000CBA  181A               	xorwf	USBStdFeatureReqHandler@p^0,w,c
 10731  000CBC  6E1A               	movwf	USBStdFeatureReqHandler@p^0,c
 10732  000CBE  501B               	movf	(USBStdFeatureReqHandler@p+1)^0,w,c
 10733  000CC0  6E1B               	movwf	(USBStdFeatureReqHandler@p+1)^0,c
 10734                           
 10735                           ;mcc_generated_files/usb/usb_device.c: 2910:                 if((current_ep_data.bits.tr
      +                          ansfer_terminated != 0) || (p->STAT.UOWN == 1))
 10736  000CC2  B219               	btfsc	USBStdFeatureReqHandler@current_ep_data^0,1,c
 10737  000CC4  D006               	goto	i2u316_40
 10738  000CC6  C01A  FFD9         	movff	USBStdFeatureReqHandler@p,fsr2l
 10739  000CCA  C01B  FFDA         	movff	USBStdFeatureReqHandler@p+1,fsr2h
 10740  000CCE  AEDF               	btfss	indf2,7,c
 10741  000CD0  D027               	goto	i2l4974
 10742  000CD2                     i2u316_40:
 10743                           
 10744                           ;mcc_generated_files/usb/usb_device.c: 2911:                 {;mcc_generated_files/usb/u
      +                          sb_device.c: 2912:                     if(SetupPkt.EPDir == 0)
 10745  000CD2  0104               	movlb	4	; () banked
 10746  000CD4  BF34               	btfsc	52,7,b	;volatile
 10747  000CD6  D006               	goto	i2l4968
 10748                           
 10749                           ; BSR set to: 4
 10750                           ;mcc_generated_files/usb/usb_device.c: 2913:                     {;mcc_generated_files/u
      +                          sb/usb_device.c: 2914:                         ep_data_out[SetupPkt.EPNum].bits.transfer
      +                          _terminated = 0;
 10751  000CD8  5134               	movf	52,w,b	;volatile
 10752  000CDA  0B0F               	andlw	15
 10753  000CDC  6E15               	movwf	??_USBStdFeatureReqHandler^0,c
 10754  000CDE  5015               	movf	??_USBStdFeatureReqHandler^0,w,c
 10755  000CE0  0FD5               	addlw	low _ep_data_out
 10756  000CE2  D005               	goto	L13
 10757  000CE4                     i2l4968:
 10758                           
 10759                           ; BSR set to: 4
 10760                           ;mcc_generated_files/usb/usb_device.c: 2917:                     {;mcc_generated_files/u
      +                          sb/usb_device.c: 2918:                         ep_data_in[SetupPkt.EPNum].bits.transfer_
      +                          terminated = 0;
 10761  000CE4  5134               	movf	52,w,b	;volatile
 10762  000CE6  0B0F               	andlw	15
 10763  000CE8  6E15               	movwf	??_USBStdFeatureReqHandler^0,c
 10764  000CEA  5015               	movf	??_USBStdFeatureReqHandler^0,w,c
 10765  000CEC  0FD8               	addlw	low _ep_data_in
 10766  000CEE                     L13:
 10767  000CEE  6ED9               	movwf	fsr2l,c
 10768  000CF0  6ADA               	clrf	fsr2h,c
 10769  000CF2  0100               	movlb	0	; () banked
 10770  000CF4  92DF               	bcf	indf2,1,c
 10771                           
 10772                           ; BSR set to: 0
 10773                           ;mcc_generated_files/usb/usb_device.c: 2921:                     p->STAT.Val &= ~(0x80 |
      +                           0x40 | 0x04);
 10774  000CF6  C01A  FFD9         	movff	USBStdFeatureReqHandler@p,fsr2l
 10775  000CFA  C01B  FFDA         	movff	USBStdFeatureReqHandler@p+1,fsr2h
 10776  000CFE  0E3B               	movlw	59
 10777  000D00  16DF               	andwf	indf2,f,c
 10778                           
 10779                           ; BSR set to: 0
 10780                           ;mcc_generated_files/usb/usb_device.c: 2924:                     USER_USB_CALLBACK_EVENT
      +                          _HANDLER((USB_EVENT)EVENT_TRANSFER_TERMINATED,p,sizeof(p));
 10781  000D02  0E00               	movlw	0
 10782  000D04  6E0E               	movwf	(USER_USB_CALLBACK_EVENT_HANDLER@event+1)^0,c
 10783  000D06  0E05               	movlw	5
 10784  000D08  6E0D               	movwf	USER_USB_CALLBACK_EVENT_HANDLER@event^0,c
 10785  000D0A  C01A  F00F         	movff	USBStdFeatureReqHandler@p,USER_USB_CALLBACK_EVENT_HANDLER@pdata
 10786  000D0E  C01B  F010         	movff	USBStdFeatureReqHandler@p+1,USER_USB_CALLBACK_EVENT_HANDLER@pdata+1
 10787  000D12  0E00               	movlw	0
 10788  000D14  6E12               	movwf	(USER_USB_CALLBACK_EVENT_HANDLER@size+1)^0,c
 10789  000D16  0E02               	movlw	2
 10790  000D18  6E11               	movwf	USER_USB_CALLBACK_EVENT_HANDLER@size^0,c
 10791  000D1A  EC85  F018         	call	_USER_USB_CALLBACK_EVENT_HANDLER	;wreg free
 10792                           
 10793                           ;mcc_generated_files/usb/usb_device.c: 2925:                 }
 10794  000D1E  D006               	goto	i2l4976
 10795  000D20                     i2l4974:
 10796                           
 10797                           ;mcc_generated_files/usb/usb_device.c: 2927:                 {;mcc_generated_files/usb/u
      +                          sb_device.c: 2929:                     p->STAT.Val &= ~(0x80 | 0x40 | 0x04);
 10798  000D20  C01A  FFD9         	movff	USBStdFeatureReqHandler@p,fsr2l
 10799  000D24  C01B  FFDA         	movff	USBStdFeatureReqHandler@p+1,fsr2h
 10800  000D28  0E3B               	movlw	59
 10801  000D2A  16DF               	andwf	indf2,f,c
 10802  000D2C                     i2l4976:
 10803                           
 10804                           ;mcc_generated_files/usb/usb_device.c: 2977:                 pUEP = (unsigned char*)(&UE
      +                          P0+SetupPkt.EPNum);
 10805  000D2C  0104               	movlb	4	; () banked
 10806  000D2E  5134               	movf	52,w,b	;volatile
 10807  000D30  0B0F               	andlw	15
 10808  000D32  6E15               	movwf	??_USBStdFeatureReqHandler^0,c
 10809  000D34  6A16               	clrf	(??_USBStdFeatureReqHandler+1)^0,c
 10810  000D36  0E6A               	movlw	106
 10811  000D38  2415               	addwf	??_USBStdFeatureReqHandler^0,w,c
 10812  000D3A  6E17               	movwf	USBStdFeatureReqHandler@pUEP^0,c
 10813  000D3C  0E0F               	movlw	15
 10814  000D3E  2016               	addwfc	(??_USBStdFeatureReqHandler+1)^0,w,c
 10815  000D40  6E18               	movwf	(USBStdFeatureReqHandler@pUEP+1)^0,c
 10816                           
 10817                           ; BSR set to: 4
 10818                           ;mcc_generated_files/usb/usb_device.c: 2981:             *pUEP &= ~0x0001;
 10819  000D42  C017  FFD9         	movff	USBStdFeatureReqHandler@pUEP,fsr2l
 10820  000D46  C018  FFDA         	movff	USBStdFeatureReqHandler@pUEP+1,fsr2h
 10821  000D4A  0EFE               	movlw	254
 10822  000D4C  16DF               	andwf	indf2,f,c
 10823  000D4E  0012               	return		;funcret
 10824  000D50                     __end_of_USBStdFeatureReqHandler:
 10825                           	callstack 0
 10826                           
 10827 ;; *************** function _USER_USB_CALLBACK_EVENT_HANDLER *****************
 10828 ;; Defined at:
 10829 ;;		line 49 in file "mcc_generated_files/usb/usb_device_events.c"
 10830 ;; Parameters:    Size  Location     Type
 10831 ;;  event           2   12[COMRAM] enum E46
 10832 ;;  pdata           2   14[COMRAM] PTR void 
 10833 ;;		 -> RAM(2047), USTATcopy(1), USBActiveConfiguration(1), NULL(0), 
 10834 ;;		 -> BDT(48), 
 10835 ;;  size            2   16[COMRAM] unsigned short 
 10836 ;; Auto vars:     Size  Location     Type
 10837 ;;		None
 10838 ;; Return value:  Size  Location     Type
 10839 ;;                  1    wreg      _Bool 
 10840 ;; Registers used:
 10841 ;;		wreg, fsr2l, fsr2h, status,2, status,0, prodl, prodh, cstack
 10842 ;; Tracked objects:
 10843 ;;		On entry : 0/0
 10844 ;;		On exit  : 0/0
 10845 ;;		Unchanged: 0/0
 10846 ;; Data sizes:     COMRAM   BANK0   BANK1   BANK2   BANK3   BANK4   BANK5   BANK6   BANK7
 10847 ;;      Params:         6       0       0       0       0       0       0       0       0
 10848 ;;      Locals:         0       0       0       0       0       0       0       0       0
 10849 ;;      Temps:          2       0       0       0       0       0       0       0       0
 10850 ;;      Totals:         8       0       0       0       0       0       0       0       0
 10851 ;;Total ram usage:        8 bytes
 10852 ;; Hardware stack levels used: 1
 10853 ;; Hardware stack levels required when called: 3
 10854 ;; This function calls:
 10855 ;;		_CDCInitEP
 10856 ;;		_USBCheckCDCRequest
 10857 ;; This function is called by:
 10858 ;;		_USBDeviceTasks
 10859 ;;		_USBStdSetCfgHandler
 10860 ;;		_USBSuspend
 10861 ;;		_USBWakeFromSuspend
 10862 ;;		_USBCtrlTrfSetupHandler
 10863 ;;		_USBCheckStdRequest
 10864 ;;		_USBStdFeatureReqHandler
 10865 ;; This function uses a non-reentrant model
 10866 ;;
 10867                           
 10868                           	psect	text61
 10869  00310A                     __ptext61:
 10870                           	callstack 0
 10871  00310A                     _USER_USB_CALLBACK_EVENT_HANDLER:
 10872                           	callstack 17
 10873                           
 10874                           ;mcc_generated_files/usb/usb_device_events.c: 49: _Bool USER_USB_CALLBACK_EVENT_HANDLER(
      +                          USB_EVENT event, void *pdata, uint16_t size);mcc_generated_files/usb/usb_device_events.c
      +                          : 50: {;mcc_generated_files/usb/usb_device_events.c: 51:     switch( (int) event )
 10875                           
 10876                           ;incstack = 0
 10877  00310A  D006               	goto	i2l4630
 10878  00310C                     i2l4624:
 10879                           
 10880                           ;mcc_generated_files/usb/usb_device_events.c: 76:             CDCInitEP();
 10881  00310C  EC23  F018         	call	_CDCInitEP	;wreg free
 10882                           
 10883                           ;mcc_generated_files/usb/usb_device_events.c: 77:             break;
 10884  003110  0012               	return	
 10885  003112                     i2l4626:
 10886                           
 10887                           ;mcc_generated_files/usb/usb_device_events.c: 85:             USBCheckCDCRequest();
 10888  003112  ECF2  F014         	call	_USBCheckCDCRequest	;wreg free
 10889                           
 10890                           ;mcc_generated_files/usb/usb_device_events.c: 86:             break;
 10891  003116  0012               	return	
 10892  003118                     i2l4630:
 10893  003118  C00D  F013         	movff	USER_USB_CALLBACK_EVENT_HANDLER@event,??_USER_USB_CALLBACK_EVENT_HANDLER
 10894  00311C  C00E  F014         	movff	USER_USB_CALLBACK_EVENT_HANDLER@event+1,??_USER_USB_CALLBACK_EVENT_HANDLER+1
 10895                           
 10896                           ; Switch on 2 bytes has been partitioned into a top level switch of size 1, and 2 sub-sw
      +                          itches
 10897                           ; Switch size 1, requested type "simple"
 10898                           ; Number of cases is 2, Range of values is 0 to 127
 10899                           ; switch strategies available:
 10900                           ; Name         Instructions Cycles
 10901                           ; simple_byte            7     4 (average)
 10902                           ;	Chosen strategy is simple_byte
 10903  003120  5014               	movf	(??_USER_USB_CALLBACK_EVENT_HANDLER+1)^0,w,c
 10904  003122  0A00               	xorlw	0	; case 0
 10905  003124  B4D8               	btfsc	status,2,c
 10906  003126  D004               	goto	i2l8530
 10907  003128  0A7F               	xorlw	127	; case 127
 10908  00312A  A4D8               	btfss	status,2,c
 10909  00312C  0012               	return	
 10910  00312E  D018               	goto	i2l8532
 10911  003130                     i2l8530:
 10912                           
 10913                           ; Switch size 1, requested type "simple"
 10914                           ; Number of cases is 8, Range of values is 1 to 117
 10915                           ; switch strategies available:
 10916                           ; Name         Instructions Cycles
 10917                           ; simple_byte           25    13 (average)
 10918                           ;	Chosen strategy is simple_byte
 10919  003130  5013               	movf	??_USER_USB_CALLBACK_EVENT_HANDLER^0,w,c
 10920  003132  0A01               	xorlw	1	; case 1
 10921  003134  B4D8               	btfsc	status,2,c
 10922  003136  D7EA               	goto	i2l4624
 10923  003138  0A03               	xorlw	3	; case 2
 10924  00313A  B4D8               	btfsc	status,2,c
 10925  00313C  0012               	return	
 10926  00313E  0A01               	xorlw	1	; case 3
 10927  003140  B4D8               	btfsc	status,2,c
 10928  003142  D7E7               	goto	i2l4626
 10929  003144  0A06               	xorlw	6	; case 5
 10930  003146  B4D8               	btfsc	status,2,c
 10931  003148  0012               	return	
 10932  00314A  0A77               	xorlw	119	; case 114
 10933  00314C  B4D8               	btfsc	status,2,c
 10934  00314E  0012               	return	
 10935  003150  0A01               	xorlw	1	; case 115
 10936  003152  B4D8               	btfsc	status,2,c
 10937  003154  0012               	return	
 10938  003156  0A07               	xorlw	7	; case 116
 10939  003158  B4D8               	btfsc	status,2,c
 10940  00315A  0012               	return	
 10941  00315C  0A01               	xorlw	1	; case 117
 10942  00315E  0012               	return	
 10943  003160                     i2l8532:
 10944                           
 10945                           ; Switch size 1, requested type "simple"
 10946                           ; Number of cases is 1, Range of values is 255 to 255
 10947                           ; switch strategies available:
 10948                           ; Name         Instructions Cycles
 10949                           ; simple_byte            4     3 (average)
 10950                           ;	Chosen strategy is simple_byte
 10951  003160  5013               	movf	??_USER_USB_CALLBACK_EVENT_HANDLER^0,w,c
 10952  003162  0AFF               	xorlw	255	; case 255
 10953  003164  0012               	return	
 10954  003166                     __end_of_USER_USB_CALLBACK_EVENT_HANDLER:
 10955                           	callstack 0
 10956                           
 10957 ;; *************** function _USBCheckCDCRequest *****************
 10958 ;; Defined at:
 10959 ;;		line 147 in file "mcc_generated_files/usb/usb_device_cdc.c"
 10960 ;; Parameters:    Size  Location     Type
 10961 ;;		None
 10962 ;; Auto vars:     Size  Location     Type
 10963 ;;		None
 10964 ;; Return value:  Size  Location     Type
 10965 ;;                  1    wreg      void 
 10966 ;; Registers used:
 10967 ;;		wreg, status,2, status,0
 10968 ;; Tracked objects:
 10969 ;;		On entry : 0/0
 10970 ;;		On exit  : 3B/0
 10971 ;;		Unchanged: 0/0
 10972 ;; Data sizes:     COMRAM   BANK0   BANK1   BANK2   BANK3   BANK4   BANK5   BANK6   BANK7
 10973 ;;      Params:         0       0       0       0       0       0       0       0       0
 10974 ;;      Locals:         0       0       0       0       0       0       0       0       0
 10975 ;;      Temps:          2       0       0       0       0       0       0       0       0
 10976 ;;      Totals:         2       0       0       0       0       0       0       0       0
 10977 ;;Total ram usage:        2 bytes
 10978 ;; Hardware stack levels used: 1
 10979 ;; This function calls:
 10980 ;;		Nothing
 10981 ;; This function is called by:
 10982 ;;		_USER_USB_CALLBACK_EVENT_HANDLER
 10983 ;; This function uses a non-reentrant model
 10984 ;;
 10985                           
 10986                           	psect	text62
 10987  0029E4                     __ptext62:
 10988                           	callstack 0
 10989  0029E4                     _USBCheckCDCRequest:
 10990                           	callstack 19
 10991                           
 10992                           ;mcc_generated_files/usb/usb_device_cdc.c: 152:     if(SetupPkt.Recipient != (0x01)) ret
      +                          urn;
 10993                           
 10994                           ;incstack = 0
 10995  0029E4  0104               	movlb	4	; () banked
 10996  0029E6  5130               	movf	48,w,b	;volatile
 10997  0029E8  0B1F               	andlw	31
 10998  0029EA  06E8               	decf	wreg,f,c
 10999  0029EC  A4D8               	btfss	status,2,c
 11000  0029EE  0012               	return	
 11001                           
 11002                           ; BSR set to: 4
 11003                           ;mcc_generated_files/usb/usb_device_cdc.c: 157:     if(SetupPkt.RequestType != (0x20>>5)
      +                          ) return;
 11004  0029F0  3930               	swapf	48,w,b	;volatile
 11005  0029F2  32E8               	rrcf	wreg,f,c
 11006  0029F4  0B03               	andlw	3
 11007  0029F6  06E8               	decf	wreg,f,c
 11008  0029F8  A4D8               	btfss	status,2,c
 11009  0029FA  0012               	return	
 11010                           
 11011                           ; BSR set to: 4
 11012                           ;mcc_generated_files/usb/usb_device_cdc.c: 163:     if((SetupPkt.bIntfID != 0x0)&&
 11013  0029FC  5134               	movf	52,w,b	;volatile
 11014  0029FE  B4D8               	btfsc	status,2,c
 11015  002A00  D037               	goto	i2l4600
 11016                           
 11017                           ; BSR set to: 4
 11018  002A02  0534               	decf	52,w,b	;volatile
 11019  002A04  A4D8               	btfss	status,2,c
 11020  002A06  0012               	return	
 11021  002A08  D033               	goto	i2l4600
 11022  002A0A                     i2l4576:
 11023                           
 11024                           ; BSR set to: 4
 11025                           ;mcc_generated_files/usb/usb_device_cdc.c: 171:             inPipes[0].pSrc.bRam = (uint
      +                          8_t*)&dummy_encapsulated_cmd_response;
 11026  002A0A  0EA8               	movlw	low _dummy_encapsulated_cmd_response
 11027  002A0C  0100               	movlb	0	; () banked
 11028  002A0E  6FC9               	movwf	_inPipes& (0+255),b	;volatile
 11029  002A10  0E01               	movlw	high _dummy_encapsulated_cmd_response
 11030  002A12  6FCA               	movwf	(_inPipes+1)& (0+255),b	;volatile
 11031                           
 11032                           ; BSR set to: 0
 11033                           ;mcc_generated_files/usb/usb_device_cdc.c: 172:             inPipes[0].wCount.Val = 0x08
      +                          ;
 11034  002A14  0E00               	movlw	0
 11035  002A16  6FCE               	movwf	(_inPipes+5)& (0+255),b	;volatile
 11036  002A18  0E08               	movlw	8
 11037  002A1A  6FCD               	movwf	(_inPipes+4)& (0+255),b	;volatile
 11038                           
 11039                           ; BSR set to: 0
 11040                           ;mcc_generated_files/usb/usb_device_cdc.c: 173:             inPipes[0].info.bits.ctrl_tr
      +                          f_mem = 0x01;
 11041  002A1C  81CC               	bsf	(_inPipes+3)& (0+255),0,b	;volatile
 11042                           
 11043                           ; BSR set to: 0
 11044                           ;mcc_generated_files/usb/usb_device_cdc.c: 174:             inPipes[0].info.bits.busy = 
      +                          1;
 11045  002A1E  8FCC               	bsf	(_inPipes+3)& (0+255),7,b	;volatile
 11046                           
 11047                           ;mcc_generated_files/usb/usb_device_cdc.c: 175:             break;
 11048  002A20  0012               	return	
 11049  002A22                     i2l4584:
 11050                           
 11051                           ; BSR set to: 4
 11052                           ;mcc_generated_files/usb/usb_device_cdc.c: 178:             inPipes[0].pSrc.bRam = (uint
      +                          8_t*)&dummy_encapsulated_cmd_response;
 11053  002A22  0EA8               	movlw	low _dummy_encapsulated_cmd_response
 11054  002A24  0100               	movlb	0	; () banked
 11055  002A26  6FC9               	movwf	_inPipes& (0+255),b	;volatile
 11056  002A28  0E01               	movlw	high _dummy_encapsulated_cmd_response
 11057  002A2A  6FCA               	movwf	(_inPipes+1)& (0+255),b	;volatile
 11058                           
 11059                           ; BSR set to: 0
 11060                           ;mcc_generated_files/usb/usb_device_cdc.c: 179:             inPipes[0].info.bits.busy = 
      +                          1;
 11061  002A2C  8FCC               	bsf	(_inPipes+3)& (0+255),7,b	;volatile
 11062                           
 11063                           ;mcc_generated_files/usb/usb_device_cdc.c: 180:             break;
 11064  002A2E  0012               	return	
 11065  002A30                     i2l480:
 11066                           
 11067                           ; BSR set to: 4
 11068                           ;mcc_generated_files/usb/usb_device_cdc.c: 185:             outPipes[0].wCount.Val = Set
      +                          upPkt.wLength;
 11069  002A30  C436 F0C5          	movff	1078,_outPipes+4	;volatile
 11070  002A34  C437 F0C6          	movff	1079,_outPipes+5	;volatile
 11071                           
 11072                           ; BSR set to: 4
 11073                           ;mcc_generated_files/usb/usb_device_cdc.c: 186:             outPipes[0].pDst.bRam = (uin
      +                          t8_t*)&line_coding._byte[0];
 11074  002A38  0EB0               	movlw	low _line_coding
 11075  002A3A  0100               	movlb	0	; () banked
 11076  002A3C  6FC1               	movwf	_outPipes& (0+255),b	;volatile
 11077  002A3E  0E01               	movlw	high _line_coding
 11078  002A40  6FC2               	movwf	(_outPipes+1)& (0+255),b	;volatile
 11079                           
 11080                           ;mcc_generated_files/usb/usb_device_cdc.c: 187:             outPipes[0].pFunc = ((void*)
      +                          0);
 11081  002A42  0E00               	movlw	0
 11082  002A44  6FC7               	movwf	(_outPipes+6)& (0+255),b	;volatile
 11083  002A46  0E00               	movlw	0
 11084  002A48  6FC8               	movwf	(_outPipes+7)& (0+255),b	;volatile
 11085                           
 11086                           ; BSR set to: 0
 11087                           ;mcc_generated_files/usb/usb_device_cdc.c: 188:             outPipes[0].info.bits.busy =
      +                           1;
 11088  002A4A  8FC4               	bsf	(_outPipes+3)& (0+255),7,b	;volatile
 11089                           
 11090                           ;mcc_generated_files/usb/usb_device_cdc.c: 189:             break;
 11091  002A4C  0012               	return	
 11092  002A4E                     i2l4592:
 11093                           
 11094                           ; BSR set to: 4
 11095                           ;mcc_generated_files/usb/usb_device_cdc.c: 192:             { inPipes[0].pSrc.bRam = (ui
      +                          nt8_t*)&line_coding; inPipes[0].wCount.Val = 0x07; inPipes[0].info.Val = 0x40 | 0x80 | 0
      +                          x01; };
 11096  002A4E  0EB0               	movlw	low _line_coding
 11097  002A50  0100               	movlb	0	; () banked
 11098  002A52  6FC9               	movwf	_inPipes& (0+255),b	;volatile
 11099  002A54  0E01               	movlw	high _line_coding
 11100  002A56  6FCA               	movwf	(_inPipes+1)& (0+255),b	;volatile
 11101                           
 11102                           ; BSR set to: 0
 11103  002A58  0E00               	movlw	0
 11104  002A5A  6FCE               	movwf	(_inPipes+5)& (0+255),b	;volatile
 11105  002A5C  0E07               	movlw	7
 11106  002A5E  6FCD               	movwf	(_inPipes+4)& (0+255),b	;volatile
 11107                           
 11108                           ; BSR set to: 0
 11109  002A60  0EC1               	movlw	193
 11110  002A62  6FCC               	movwf	(_inPipes+3)& (0+255),b	;volatile
 11111                           
 11112                           ;mcc_generated_files/usb/usb_device_cdc.c: 196:             break;
 11113  002A64  0012               	return	
 11114  002A66                     i2l482:
 11115                           
 11116                           ; BSR set to: 4
 11117                           ;mcc_generated_files/usb/usb_device_cdc.c: 199:             control_signal_bitmap._byte 
      +                          = (uint8_t)SetupPkt.wValue;
 11118  002A66  C432 F041          	movff	1074,_control_signal_bitmap	;volatile
 11119                           
 11120                           ;mcc_generated_files/usb/usb_device_cdc.c: 231:             inPipes[0].info.bits.busy = 
      +                          1;
 11121  002A6A  0100               	movlb	0	; () banked
 11122  002A6C  8FCC               	bsf	(_inPipes+3)& (0+255),7,b	;volatile
 11123                           
 11124                           ;mcc_generated_files/usb/usb_device_cdc.c: 232:             break;
 11125  002A6E  0012               	return	
 11126  002A70                     i2l4600:
 11127                           
 11128                           ; BSR set to: 4
 11129  002A70  5131               	movf	49,w,b	;volatile
 11130  002A72  6E01               	movwf	??_USBCheckCDCRequest^0,c
 11131  002A74  6A02               	clrf	(??_USBCheckCDCRequest+1)^0,c
 11132                           
 11133                           ; Switch on 2 bytes has been partitioned into a top level switch of size 1, and 1 sub-sw
      +                          itches
 11134                           ; Switch size 1, requested type "simple"
 11135                           ; Number of cases is 1, Range of values is 0 to 0
 11136                           ; switch strategies available:
 11137                           ; Name         Instructions Cycles
 11138                           ; simple_byte            4     3 (average)
 11139                           ;	Chosen strategy is simple_byte
 11140  002A76  5002               	movf	(??_USBCheckCDCRequest+1)^0,w,c
 11141  002A78  0A00               	xorlw	0	; case 0
 11142  002A7A  A4D8               	btfss	status,2,c
 11143  002A7C  0012               	return	
 11144                           
 11145                           ; BSR set to: 4
 11146                           ; Switch size 1, requested type "simple"
 11147                           ; Number of cases is 5, Range of values is 0 to 34
 11148                           ; switch strategies available:
 11149                           ; Name         Instructions Cycles
 11150                           ; simple_byte           16     9 (average)
 11151                           ;	Chosen strategy is simple_byte
 11152  002A7E  5001               	movf	??_USBCheckCDCRequest^0,w,c
 11153  002A80  0A00               	xorlw	0	; case 0
 11154  002A82  B4D8               	btfsc	status,2,c
 11155  002A84  D7C2               	goto	i2l4576
 11156  002A86  0A01               	xorlw	1	; case 1
 11157  002A88  B4D8               	btfsc	status,2,c
 11158  002A8A  D7CB               	goto	i2l4584
 11159  002A8C  0A21               	xorlw	33	; case 32
 11160  002A8E  B4D8               	btfsc	status,2,c
 11161  002A90  D7CF               	goto	i2l480
 11162  002A92  0A01               	xorlw	1	; case 33
 11163  002A94  B4D8               	btfsc	status,2,c
 11164  002A96  D7DB               	goto	i2l4592
 11165  002A98  0A03               	xorlw	3	; case 34
 11166  002A9A  A4D8               	btfss	status,2,c
 11167  002A9C  0012               	return	
 11168  002A9E  D7E3               	goto	i2l482
 11169  002AA0                     __end_of_USBCheckCDCRequest:
 11170                           	callstack 0
 11171                           
 11172 ;; *************** function _CDCInitEP *****************
 11173 ;; Defined at:
 11174 ;;		line 294 in file "mcc_generated_files/usb/usb_device_cdc.c"
 11175 ;; Parameters:    Size  Location     Type
 11176 ;;		None
 11177 ;; Auto vars:     Size  Location     Type
 11178 ;;		None
 11179 ;; Return value:  Size  Location     Type
 11180 ;;                  1    wreg      void 
 11181 ;; Registers used:
 11182 ;;		wreg, fsr2l, fsr2h, status,2, status,0, prodl, prodh, cstack
 11183 ;; Tracked objects:
 11184 ;;		On entry : 0/0
 11185 ;;		On exit  : 3F/0
 11186 ;;		Unchanged: 0/0
 11187 ;; Data sizes:     COMRAM   BANK0   BANK1   BANK2   BANK3   BANK4   BANK5   BANK6   BANK7
 11188 ;;      Params:         0       0       0       0       0       0       0       0       0
 11189 ;;      Locals:         0       0       0       0       0       0       0       0       0
 11190 ;;      Temps:          0       0       0       0       0       0       0       0       0
 11191 ;;      Totals:         0       0       0       0       0       0       0       0       0
 11192 ;;Total ram usage:        0 bytes
 11193 ;; Hardware stack levels used: 1
 11194 ;; Hardware stack levels required when called: 2
 11195 ;; This function calls:
 11196 ;;		_USBEnableEndpoint
 11197 ;;		i2_USBTransferOnePacket
 11198 ;; This function is called by:
 11199 ;;		_USER_USB_CALLBACK_EVENT_HANDLER
 11200 ;; This function uses a non-reentrant model
 11201 ;;
 11202                           
 11203                           	psect	text63
 11204  003046                     __ptext63:
 11205                           	callstack 0
 11206  003046                     _CDCInitEP:
 11207                           	callstack 17
 11208                           
 11209                           ;mcc_generated_files/usb/usb_device_cdc.c: 297:     line_coding.dwDTERate = 19200;
 11210                           
 11211                           ;incstack = 0
 11212  003046  0E00               	movlw	0
 11213  003048  0101               	movlb	1	; () banked
 11214  00304A  6FB0               	movwf	_line_coding& (0+255),b
 11215  00304C  0E4B               	movlw	75
 11216  00304E  6FB1               	movwf	(_line_coding+1)& (0+255),b
 11217  003050  0E00               	movlw	0
 11218  003052  6FB2               	movwf	(_line_coding+2)& (0+255),b
 11219  003054  0E00               	movlw	0
 11220  003056  6FB3               	movwf	(_line_coding+3)& (0+255),b
 11221                           
 11222                           ;mcc_generated_files/usb/usb_device_cdc.c: 298:     line_coding.bCharFormat = 0x00;
 11223  003058  0E00               	movlw	0
 11224  00305A  6FB4               	movwf	(_line_coding+4)& (0+255),b
 11225                           
 11226                           ;mcc_generated_files/usb/usb_device_cdc.c: 299:     line_coding.bParityType = 0x00;
 11227  00305C  0E00               	movlw	0
 11228  00305E  6FB5               	movwf	(_line_coding+5)& (0+255),b
 11229                           
 11230                           ;mcc_generated_files/usb/usb_device_cdc.c: 300:     line_coding.bDataBits = 0x08;
 11231  003060  0E08               	movlw	8
 11232  003062  6FB6               	movwf	(_line_coding+6)& (0+255),b
 11233                           
 11234                           ;mcc_generated_files/usb/usb_device_cdc.c: 302:     cdc_rx_len = 0;
 11235  003064  0E00               	movlw	0
 11236  003066  6E45               	movwf	_cdc_rx_len^0,c
 11237                           
 11238                           ; BSR set to: 1
 11239                           ;mcc_generated_files/usb/usb_device_cdc.c: 315:     USBEnableEndpoint(1,0x02|0x10|0x08);
 11240  003068  0E1A               	movlw	26
 11241  00306A  6E09               	movwf	USBEnableEndpoint@options^0,c
 11242  00306C  0E01               	movlw	1
 11243  00306E  EC87  F019         	call	_USBEnableEndpoint
 11244                           
 11245                           ;mcc_generated_files/usb/usb_device_cdc.c: 316:     USBEnableEndpoint(2,0x02|0x04|0x10|0
      +                          x08);
 11246  003072  0E1E               	movlw	30
 11247  003074  6E09               	movwf	USBEnableEndpoint@options^0,c
 11248  003076  0E02               	movlw	2
 11249  003078  EC87  F019         	call	_USBEnableEndpoint
 11250                           
 11251                           ;mcc_generated_files/usb/usb_device_cdc.c: 318:     CDCDataOutHandle = USBTransferOnePac
      +                          ket(2,0,(uint8_t*)&cdc_data_rx,sizeof(cdc_data_rx));
 11252  00307C  0E00               	movlw	0
 11253  00307E  6E01               	movwf	i2USBTransferOnePacket@dir^0,c
 11254  003080  0E40               	movlw	64
 11255  003082  6E02               	movwf	i2USBTransferOnePacket@data^0,c
 11256  003084  0E05               	movlw	5
 11257  003086  6E03               	movwf	(i2USBTransferOnePacket@data+1)^0,c
 11258  003088  0E40               	movlw	64
 11259  00308A  6E04               	movwf	i2USBTransferOnePacket@len^0,c
 11260  00308C  0E02               	movlw	2
 11261  00308E  EC14  F012         	call	i2_USBTransferOnePacket
 11262  003092  C001  F13C         	movff	?i2_USBTransferOnePacket,_CDCDataOutHandle
 11263  003096  C002  F13D         	movff	?i2_USBTransferOnePacket+1,_CDCDataOutHandle+1
 11264                           
 11265                           ;mcc_generated_files/usb/usb_device_cdc.c: 319:     CDCDataInHandle = ((void*)0);
 11266  00309A  0E00               	movlw	0
 11267  00309C  0100               	movlb	0	; () banked
 11268  00309E  6FE1               	movwf	_CDCDataInHandle& (0+255),b
 11269  0030A0  0E00               	movlw	0
 11270  0030A2  6FE2               	movwf	(_CDCDataInHandle+1)& (0+255),b
 11271                           
 11272                           ; BSR set to: 0
 11273                           ;mcc_generated_files/usb/usb_device_cdc.c: 346:     cdc_trf_state = 0;
 11274  0030A4  0E00               	movlw	0
 11275  0030A6  6E44               	movwf	_cdc_trf_state^0,c
 11276                           
 11277                           ; BSR set to: 0
 11278  0030A8  0012               	return		;funcret
 11279  0030AA                     __end_of_CDCInitEP:
 11280                           	callstack 0
 11281                           
 11282 ;; *************** function i2_USBTransferOnePacket *****************
 11283 ;; Defined at:
 11284 ;;		line 999 in file "mcc_generated_files/usb/usb_device.c"
 11285 ;; Parameters:    Size  Location     Type
 11286 ;;  ep              1    wreg     unsigned char 
 11287 ;;  dir             1    0[COMRAM] unsigned char 
 11288 ;;  data            2    1[COMRAM] PTR unsigned char 
 11289 ;;		 -> cdc_data_tx(64), cdc_data_rx(64), NULL(0), 
 11290 ;;  len             1    3[COMRAM] unsigned char 
 11291 ;; Auto vars:     Size  Location     Type
 11292 ;;  ep              1    6[COMRAM] unsigned char 
 11293 ;;  handle          2    7[COMRAM] PTR volatile struct __BD
 11294 ;;		 -> RAM(2047), NULL(0), BDT(48), 
 11295 ;; Return value:  Size  Location     Type
 11296 ;;                  2    0[COMRAM] PTR void 
 11297 ;; Registers used:
 11298 ;;		wreg, fsr2l, fsr2h, status,2, status,0, prodl, prodh
 11299 ;; Tracked objects:
 11300 ;;		On entry : 0/1
 11301 ;;		On exit  : 0/0
 11302 ;;		Unchanged: 0/0
 11303 ;; Data sizes:     COMRAM   BANK0   BANK1   BANK2   BANK3   BANK4   BANK5   BANK6   BANK7
 11304 ;;      Params:         4       0       0       0       0       0       0       0       0
 11305 ;;      Locals:         3       0       0       0       0       0       0       0       0
 11306 ;;      Temps:          2       0       0       0       0       0       0       0       0
 11307 ;;      Totals:         9       0       0       0       0       0       0       0       0
 11308 ;;Total ram usage:        9 bytes
 11309 ;; Hardware stack levels used: 1
 11310 ;; This function calls:
 11311 ;;		Nothing
 11312 ;; This function is called by:
 11313 ;;		_CDCInitEP
 11314 ;; This function uses a non-reentrant model
 11315 ;;
 11316                           
 11317                           	psect	text64
 11318  002428                     __ptext64:
 11319                           	callstack 0
 11320  002428                     i2_USBTransferOnePacket:
 11321                           	callstack 18
 11322                           
 11323                           ; BSR set to: 0
 11324                           ;incstack = 0
 11325                           ;i2USBTransferOnePacket@ep stored from wreg
 11326  002428  6E07               	movwf	i2USBTransferOnePacket@ep^0,c
 11327                           
 11328                           ;mcc_generated_files/usb/usb_device.c: 999: void* USBTransferOnePacket(uint8_t ep,uint8_
      +                          t dir,uint8_t* data,uint8_t len);mcc_generated_files/usb/usb_device.c: 1000: {;mcc_gener
      +                          ated_files/usb/usb_device.c: 1001:     volatile BDT_ENTRY* handle;;mcc_generated_files/u
      +                          sb/usb_device.c: 1004:     if(dir != 0)
 11329  00242A  5001               	movf	i2USBTransferOnePacket@dir^0,w,c
 11330  00242C  B4D8               	btfsc	status,2,c
 11331  00242E  D005               	goto	i2l4524
 11332                           
 11333                           ;mcc_generated_files/usb/usb_device.c: 1005:     {;mcc_generated_files/usb/usb_device.c:
      +                           1007:         handle = pBDTEntryIn[ep];
 11334  002430  5007               	movf	i2USBTransferOnePacket@ep^0,w,c
 11335  002432  0D02               	mullw	2
 11336  002434  50F3               	movf	243,w,c
 11337  002436  0FCF               	addlw	low _pBDTEntryIn
 11338  002438  D004               	goto	L14
 11339  00243A                     i2l4524:
 11340                           
 11341                           ;mcc_generated_files/usb/usb_device.c: 1010:     {;mcc_generated_files/usb/usb_device.c:
      +                           1012:         handle = pBDTEntryOut[ep];
 11342  00243A  5007               	movf	i2USBTransferOnePacket@ep^0,w,c
 11343  00243C  0D02               	mullw	2
 11344  00243E  50F3               	movf	243,w,c
 11345  002440  0F2C               	addlw	low _pBDTEntryOut
 11346  002442                     L14:
 11347  002442  6ED9               	movwf	fsr2l,c
 11348  002444  6ADA               	clrf	fsr2h,c
 11349  002446  CFDE F008          	movff	postinc2,i2USBTransferOnePacket@handle
 11350  00244A  CFDD F009          	movff	postdec2,i2USBTransferOnePacket@handle+1
 11351                           
 11352                           ;mcc_generated_files/usb/usb_device.c: 1017:     if(handle == 0)
 11353  00244E  5008               	movf	i2USBTransferOnePacket@handle^0,w,c
 11354  002450  1009               	iorwf	(i2USBTransferOnePacket@handle+1)^0,w,c
 11355  002452  A4D8               	btfss	status,2,c
 11356  002454  D005               	goto	i2l4532
 11357                           
 11358                           ;mcc_generated_files/usb/usb_device.c: 1018:     {;mcc_generated_files/usb/usb_device.c:
      +                           1019:         return 0;
 11359  002456  0E00               	movlw	0
 11360  002458  6E01               	movwf	?i2_USBTransferOnePacket^0,c
 11361  00245A  0E00               	movlw	0
 11362  00245C  6E02               	movwf	(?i2_USBTransferOnePacket+1)^0,c
 11363  00245E  0012               	return	
 11364  002460                     i2l4532:
 11365                           
 11366                           ;mcc_generated_files/usb/usb_device.c: 1033:     handle->ADR = ((uint16_t)(data));
 11367  002460  EE20 F002          	lfsr	2,2
 11368  002464  5008               	movf	i2USBTransferOnePacket@handle^0,w,c
 11369  002466  26D9               	addwf	fsr2l,f,c
 11370  002468  5009               	movf	(i2USBTransferOnePacket@handle+1)^0,w,c
 11371  00246A  22DA               	addwfc	fsr2h,f,c
 11372  00246C  C002  FFDE         	movff	i2USBTransferOnePacket@data,postinc2
 11373  002470  C003  FFDD         	movff	i2USBTransferOnePacket@data+1,postdec2
 11374                           
 11375                           ;mcc_generated_files/usb/usb_device.c: 1034:     handle->CNT = len;
 11376  002474  EE20 F001          	lfsr	2,1
 11377  002478  5008               	movf	i2USBTransferOnePacket@handle^0,w,c
 11378  00247A  26D9               	addwf	fsr2l,f,c
 11379  00247C  5009               	movf	(i2USBTransferOnePacket@handle+1)^0,w,c
 11380  00247E  22DA               	addwfc	fsr2h,f,c
 11381  002480  C004  FFDF         	movff	i2USBTransferOnePacket@len,indf2
 11382                           
 11383                           ;mcc_generated_files/usb/usb_device.c: 1035:     handle->STAT.Val &= 0x40;
 11384  002484  C008  FFD9         	movff	i2USBTransferOnePacket@handle,fsr2l
 11385  002488  C009  FFDA         	movff	i2USBTransferOnePacket@handle+1,fsr2h
 11386  00248C  0E40               	movlw	64
 11387  00248E  16DF               	andwf	indf2,f,c
 11388                           
 11389                           ;mcc_generated_files/usb/usb_device.c: 1036:     handle->STAT.Val |= (0x08 & 0x08);
 11390  002490  C008  FFD9         	movff	i2USBTransferOnePacket@handle,fsr2l
 11391  002494  C009  FFDA         	movff	i2USBTransferOnePacket@handle+1,fsr2h
 11392  002498  0E00               	movlw	0
 11393  00249A  86DB               	bsf	plusw2,3,c
 11394                           
 11395                           ;mcc_generated_files/usb/usb_device.c: 1037:     handle->STAT.Val |= 0x80;
 11396  00249C  C008  FFD9         	movff	i2USBTransferOnePacket@handle,fsr2l
 11397  0024A0  C009  FFDA         	movff	i2USBTransferOnePacket@handle+1,fsr2h
 11398  0024A4  0E00               	movlw	0
 11399  0024A6  8EDB               	bsf	plusw2,7,c
 11400                           
 11401                           ;mcc_generated_files/usb/usb_device.c: 1040:     if(dir != 0)
 11402  0024A8  5001               	movf	i2USBTransferOnePacket@dir^0,w,c
 11403  0024AA  B4D8               	btfsc	status,2,c
 11404  0024AC  D013               	goto	i2l4544
 11405                           
 11406                           ;mcc_generated_files/usb/usb_device.c: 1041:     {;mcc_generated_files/usb/usb_device.c:
      +                           1043:         pBDTEntryIn[ep] = (BDT_ENTRY*)(((uint16_t)pBDTEntryIn[ep]) ^ 0x0004);
 11407  0024AE  5007               	movf	i2USBTransferOnePacket@ep^0,w,c
 11408  0024B0  0D02               	mullw	2
 11409  0024B2  50F3               	movf	243,w,c
 11410  0024B4  0FCF               	addlw	low _pBDTEntryIn
 11411  0024B6  6ED9               	movwf	fsr2l,c
 11412  0024B8  6ADA               	clrf	fsr2h,c
 11413  0024BA  CFDE F005          	movff	postinc2,??i2_USBTransferOnePacket
 11414  0024BE  CFDD F006          	movff	postdec2,??i2_USBTransferOnePacket+1
 11415  0024C2  0E04               	movlw	4
 11416  0024C4  1A05               	xorwf	??i2_USBTransferOnePacket^0,f,c
 11417  0024C6  0E00               	movlw	0
 11418  0024C8  1A06               	xorwf	(??i2_USBTransferOnePacket+1)^0,f,c
 11419  0024CA  5007               	movf	i2USBTransferOnePacket@ep^0,w,c
 11420  0024CC  0D02               	mullw	2
 11421  0024CE  50F3               	movf	243,w,c
 11422  0024D0  0FCF               	addlw	low _pBDTEntryIn
 11423  0024D2  D012               	goto	L15
 11424  0024D4                     i2l4544:
 11425                           
 11426                           ;mcc_generated_files/usb/usb_device.c: 1046:     {;mcc_generated_files/usb/usb_device.c:
      +                           1048:         pBDTEntryOut[ep] = (BDT_ENTRY*)(((uint16_t)pBDTEntryOut[ep]) ^ 0x0004);
 11427  0024D4  5007               	movf	i2USBTransferOnePacket@ep^0,w,c
 11428  0024D6  0D02               	mullw	2
 11429  0024D8  50F3               	movf	243,w,c
 11430  0024DA  0F2C               	addlw	low _pBDTEntryOut
 11431  0024DC  6ED9               	movwf	fsr2l,c
 11432  0024DE  6ADA               	clrf	fsr2h,c
 11433  0024E0  CFDE F005          	movff	postinc2,??i2_USBTransferOnePacket
 11434  0024E4  CFDD F006          	movff	postdec2,??i2_USBTransferOnePacket+1
 11435  0024E8  0E04               	movlw	4
 11436  0024EA  1A05               	xorwf	??i2_USBTransferOnePacket^0,f,c
 11437  0024EC  0E00               	movlw	0
 11438  0024EE  1A06               	xorwf	(??i2_USBTransferOnePacket+1)^0,f,c
 11439  0024F0  5007               	movf	i2USBTransferOnePacket@ep^0,w,c
 11440  0024F2  0D02               	mullw	2
 11441  0024F4  50F3               	movf	243,w,c
 11442  0024F6  0F2C               	addlw	low _pBDTEntryOut
 11443  0024F8                     L15:
 11444  0024F8  6ED9               	movwf	fsr2l,c
 11445  0024FA  6ADA               	clrf	fsr2h,c
 11446  0024FC  C005  FFDE         	movff	??i2_USBTransferOnePacket,postinc2
 11447  002500  C006  FFDD         	movff	??i2_USBTransferOnePacket+1,postdec2
 11448                           
 11449                           ;mcc_generated_files/usb/usb_device.c: 1050:     return (void*)handle;
 11450  002504  C008  F001         	movff	i2USBTransferOnePacket@handle,?i2_USBTransferOnePacket
 11451  002508  C009  F002         	movff	i2USBTransferOnePacket@handle+1,?i2_USBTransferOnePacket+1
 11452  00250C  0012               	return		;funcret
 11453  00250E                     __end_ofi2_USBTransferOnePacket:
 11454                           	callstack 0
 11455                           
 11456 ;; *************** function _USBEnableEndpoint *****************
 11457 ;; Defined at:
 11458 ;;		line 882 in file "mcc_generated_files/usb/usb_device.c"
 11459 ;; Parameters:    Size  Location     Type
 11460 ;;  ep              1    wreg     unsigned char 
 11461 ;;  options         1    8[COMRAM] unsigned char 
 11462 ;; Auto vars:     Size  Location     Type
 11463 ;;  ep              1   11[COMRAM] unsigned char 
 11464 ;;  p               2    9[COMRAM] PTR unsigned char 
 11465 ;;		 -> UEP0(1), 
 11466 ;; Return value:  Size  Location     Type
 11467 ;;                  1    wreg      void 
 11468 ;; Registers used:
 11469 ;;		wreg, fsr2l, fsr2h, status,2, status,0, prodl, prodh, cstack
 11470 ;; Tracked objects:
 11471 ;;		On entry : 0/1
 11472 ;;		On exit  : 0/0
 11473 ;;		Unchanged: 0/0
 11474 ;; Data sizes:     COMRAM   BANK0   BANK1   BANK2   BANK3   BANK4   BANK5   BANK6   BANK7
 11475 ;;      Params:         1       0       0       0       0       0       0       0       0
 11476 ;;      Locals:         3       0       0       0       0       0       0       0       0
 11477 ;;      Temps:          0       0       0       0       0       0       0       0       0
 11478 ;;      Totals:         4       0       0       0       0       0       0       0       0
 11479 ;;Total ram usage:        4 bytes
 11480 ;; Hardware stack levels used: 1
 11481 ;; Hardware stack levels required when called: 1
 11482 ;; This function calls:
 11483 ;;		_USBConfigureEndpoint
 11484 ;; This function is called by:
 11485 ;;		_CDCInitEP
 11486 ;; This function uses a non-reentrant model
 11487 ;;
 11488                           
 11489                           	psect	text65
 11490  00330E                     __ptext65:
 11491                           	callstack 0
 11492  00330E                     _USBEnableEndpoint:
 11493                           	callstack 17
 11494                           
 11495                           ;incstack = 0
 11496                           ;USBEnableEndpoint@ep stored from wreg
 11497  00330E  6E0C               	movwf	USBEnableEndpoint@ep^0,c
 11498                           
 11499                           ;mcc_generated_files/usb/usb_device.c: 882: void USBEnableEndpoint(uint8_t ep, uint8_t o
      +                          ptions);mcc_generated_files/usb/usb_device.c: 883: {;mcc_generated_files/usb/usb_device.
      +                          c: 884:     unsigned char* p;;mcc_generated_files/usb/usb_device.c: 888:     if(options 
      +                          & 0x04)
 11500  003310  A409               	btfss	USBEnableEndpoint@options^0,2,c
 11501  003312  D005               	goto	i2l4512
 11502                           
 11503                           ;mcc_generated_files/usb/usb_device.c: 889:     {;mcc_generated_files/usb/usb_device.c: 
      +                          890:         USBConfigureEndpoint(ep, 0);
 11504  003314  0E00               	movlw	0
 11505  003316  6E01               	movwf	USBConfigureEndpoint@direction^0,c
 11506  003318  500C               	movf	USBEnableEndpoint@ep^0,w,c
 11507  00331A  EC1A  F017         	call	_USBConfigureEndpoint
 11508  00331E                     i2l4512:
 11509                           
 11510                           ;mcc_generated_files/usb/usb_device.c: 892:     if(options & 0x02)
 11511  00331E  A209               	btfss	USBEnableEndpoint@options^0,1,c
 11512  003320  D005               	goto	i2l4516
 11513                           
 11514                           ;mcc_generated_files/usb/usb_device.c: 893:     {;mcc_generated_files/usb/usb_device.c: 
      +                          894:         USBConfigureEndpoint(ep, 1);
 11515  003322  0E01               	movlw	1
 11516  003324  6E01               	movwf	USBConfigureEndpoint@direction^0,c
 11517  003326  500C               	movf	USBEnableEndpoint@ep^0,w,c
 11518  003328  EC1A  F017         	call	_USBConfigureEndpoint
 11519  00332C                     i2l4516:
 11520                           
 11521                           ;mcc_generated_files/usb/usb_device.c: 903:         p = (unsigned char*)(&UEP0+ep);
 11522  00332C  0E6A               	movlw	106
 11523  00332E  240C               	addwf	USBEnableEndpoint@ep^0,w,c
 11524  003330  6E0A               	movwf	USBEnableEndpoint@p^0,c
 11525  003332  6A0B               	clrf	(USBEnableEndpoint@p+1)^0,c
 11526  003334  0E0F               	movlw	15
 11527  003336  220B               	addwfc	(USBEnableEndpoint@p+1)^0,f,c
 11528                           
 11529                           ;mcc_generated_files/usb/usb_device.c: 905:     *p = options;
 11530  003338  C00A  FFD9         	movff	USBEnableEndpoint@p,fsr2l
 11531  00333C  C00B  FFDA         	movff	USBEnableEndpoint@p+1,fsr2h
 11532  003340  C009  FFDF         	movff	USBEnableEndpoint@options,indf2
 11533  003344  0012               	return		;funcret
 11534  003346                     __end_of_USBEnableEndpoint:
 11535                           	callstack 0
 11536                           
 11537 ;; *************** function _USBConfigureEndpoint *****************
 11538 ;; Defined at:
 11539 ;;		line 1547 in file "mcc_generated_files/usb/usb_device.c"
 11540 ;; Parameters:    Size  Location     Type
 11541 ;;  EPNum           1    wreg     unsigned char 
 11542 ;;  direction       1    0[COMRAM] unsigned char 
 11543 ;; Auto vars:     Size  Location     Type
 11544 ;;  EPNum           1    5[COMRAM] unsigned char 
 11545 ;;  handle          2    6[COMRAM] PTR volatile struct __BD
 11546 ;;		 -> BDT(48), 
 11547 ;; Return value:  Size  Location     Type
 11548 ;;                  1    wreg      void 
 11549 ;; Registers used:
 11550 ;;		wreg, fsr2l, fsr2h, status,2, status,0, prodl, prodh
 11551 ;; Tracked objects:
 11552 ;;		On entry : 0/1
 11553 ;;		On exit  : 0/0
 11554 ;;		Unchanged: 0/0
 11555 ;; Data sizes:     COMRAM   BANK0   BANK1   BANK2   BANK3   BANK4   BANK5   BANK6   BANK7
 11556 ;;      Params:         1       0       0       0       0       0       0       0       0
 11557 ;;      Locals:         3       0       0       0       0       0       0       0       0
 11558 ;;      Temps:          4       0       0       0       0       0       0       0       0
 11559 ;;      Totals:         8       0       0       0       0       0       0       0       0
 11560 ;;Total ram usage:        8 bytes
 11561 ;; Hardware stack levels used: 1
 11562 ;; This function calls:
 11563 ;;		Nothing
 11564 ;; This function is called by:
 11565 ;;		_USBEnableEndpoint
 11566 ;; This function uses a non-reentrant model
 11567 ;;
 11568                           
 11569                           	psect	text66
 11570  002E34                     __ptext66:
 11571                           	callstack 0
 11572  002E34                     _USBConfigureEndpoint:
 11573                           	callstack 17
 11574                           
 11575                           ;incstack = 0
 11576                           ;USBConfigureEndpoint@EPNum stored from wreg
 11577  002E34  6E06               	movwf	USBConfigureEndpoint@EPNum^0,c
 11578                           
 11579                           ;mcc_generated_files/usb/usb_device.c: 1547: static void USBConfigureEndpoint(uint8_t EP
      +                          Num, uint8_t direction);mcc_generated_files/usb/usb_device.c: 1548: {;mcc_generated_file
      +                          s/usb/usb_device.c: 1549:     volatile BDT_ENTRY* handle;;mcc_generated_files/usb/usb_de
      +                          vice.c: 1553:     handle = (volatile BDT_ENTRY*)&BDT[0];
 11580  002E36  0E00               	movlw	0
 11581  002E38  6E07               	movwf	USBConfigureEndpoint@handle^0,c
 11582  002E3A  0E04               	movlw	4
 11583  002E3C  6E08               	movwf	(USBConfigureEndpoint@handle+1)^0,c
 11584                           
 11585                           ;mcc_generated_files/usb/usb_device.c: 1554:     handle += (4*EPNum+2*direction+0u);
 11586  002E3E  5001               	movf	USBConfigureEndpoint@direction^0,w,c
 11587  002E40  6E02               	movwf	??_USBConfigureEndpoint^0,c
 11588  002E42  6A03               	clrf	(??_USBConfigureEndpoint+1)^0,c
 11589  002E44  90D8               	bcf	status,0,c
 11590  002E46  3602               	rlcf	??_USBConfigureEndpoint^0,f,c
 11591  002E48  3603               	rlcf	(??_USBConfigureEndpoint+1)^0,f,c
 11592  002E4A  5006               	movf	USBConfigureEndpoint@EPNum^0,w,c
 11593  002E4C  6E04               	movwf	(??_USBConfigureEndpoint+2)^0,c
 11594  002E4E  6A05               	clrf	(??_USBConfigureEndpoint+3)^0,c
 11595  002E50  90D8               	bcf	status,0,c
 11596  002E52  3604               	rlcf	(??_USBConfigureEndpoint+2)^0,f,c
 11597  002E54  3605               	rlcf	(??_USBConfigureEndpoint+3)^0,f,c
 11598  002E56  90D8               	bcf	status,0,c
 11599  002E58  3604               	rlcf	(??_USBConfigureEndpoint+2)^0,f,c
 11600  002E5A  3605               	rlcf	(??_USBConfigureEndpoint+3)^0,f,c
 11601  002E5C  5002               	movf	??_USBConfigureEndpoint^0,w,c
 11602  002E5E  2604               	addwf	(??_USBConfigureEndpoint+2)^0,f,c
 11603  002E60  5003               	movf	(??_USBConfigureEndpoint+1)^0,w,c
 11604  002E62  2205               	addwfc	(??_USBConfigureEndpoint+3)^0,f,c
 11605  002E64  90D8               	bcf	status,0,c
 11606  002E66  3604               	rlcf	(??_USBConfigureEndpoint+2)^0,f,c
 11607  002E68  3605               	rlcf	(??_USBConfigureEndpoint+3)^0,f,c
 11608  002E6A  90D8               	bcf	status,0,c
 11609  002E6C  3604               	rlcf	(??_USBConfigureEndpoint+2)^0,f,c
 11610  002E6E  3605               	rlcf	(??_USBConfigureEndpoint+3)^0,f,c
 11611  002E70  5004               	movf	(??_USBConfigureEndpoint+2)^0,w,c
 11612  002E72  2607               	addwf	USBConfigureEndpoint@handle^0,f,c
 11613  002E74  5005               	movf	(??_USBConfigureEndpoint+3)^0,w,c
 11614  002E76  2208               	addwfc	(USBConfigureEndpoint@handle+1)^0,f,c
 11615                           
 11616                           ;mcc_generated_files/usb/usb_device.c: 1556:     handle->STAT.UOWN = 0;
 11617  002E78  C007  FFD9         	movff	USBConfigureEndpoint@handle,fsr2l
 11618  002E7C  C008  FFDA         	movff	USBConfigureEndpoint@handle+1,fsr2h
 11619  002E80  9EDF               	bcf	indf2,7,c
 11620                           
 11621                           ;mcc_generated_files/usb/usb_device.c: 1561:     if(direction == 0)
 11622  002E82  5001               	movf	USBConfigureEndpoint@direction^0,w,c
 11623  002E84  A4D8               	btfss	status,2,c
 11624  002E86  D005               	goto	i2l4502
 11625                           
 11626                           ;mcc_generated_files/usb/usb_device.c: 1562:     {;mcc_generated_files/usb/usb_device.c:
      +                           1563:         pBDTEntryOut[EPNum] = handle;
 11627  002E88  5006               	movf	USBConfigureEndpoint@EPNum^0,w,c
 11628  002E8A  0D02               	mullw	2
 11629  002E8C  50F3               	movf	243,w,c
 11630  002E8E  0F2C               	addlw	low _pBDTEntryOut
 11631  002E90  D004               	goto	L16
 11632  002E92                     i2l4502:
 11633                           
 11634                           ;mcc_generated_files/usb/usb_device.c: 1566:     {;mcc_generated_files/usb/usb_device.c:
      +                           1567:         pBDTEntryIn[EPNum] = handle;
 11635  002E92  5006               	movf	USBConfigureEndpoint@EPNum^0,w,c
 11636  002E94  0D02               	mullw	2
 11637  002E96  50F3               	movf	243,w,c
 11638  002E98  0FCF               	addlw	low _pBDTEntryIn
 11639  002E9A                     L16:
 11640  002E9A  6ED9               	movwf	fsr2l,c
 11641  002E9C  6ADA               	clrf	fsr2h,c
 11642  002E9E  C007  FFDE         	movff	USBConfigureEndpoint@handle,postinc2
 11643  002EA2  C008  FFDD         	movff	USBConfigureEndpoint@handle+1,postdec2
 11644                           
 11645                           ;mcc_generated_files/usb/usb_device.c: 1571:         handle->STAT.DTS = 0;
 11646  002EA6  C007  FFD9         	movff	USBConfigureEndpoint@handle,fsr2l
 11647  002EAA  C008  FFDA         	movff	USBConfigureEndpoint@handle+1,fsr2h
 11648  002EAE  9CDF               	bcf	indf2,6,c
 11649                           
 11650                           ;mcc_generated_files/usb/usb_device.c: 1572:         (handle+1)->STAT.DTS = 1;
 11651  002EB0  EE20 F004          	lfsr	2,4
 11652  002EB4  5007               	movf	USBConfigureEndpoint@handle^0,w,c
 11653  002EB6  26D9               	addwf	fsr2l,f,c
 11654  002EB8  5008               	movf	(USBConfigureEndpoint@handle+1)^0,w,c
 11655  002EBA  22DA               	addwfc	fsr2h,f,c
 11656  002EBC  8CDF               	bsf	indf2,6,c
 11657  002EBE  0012               	return		;funcret
 11658  002EC0                     __end_of_USBConfigureEndpoint:
 11659                           	callstack 0
 11660                           
 11661 ;; *************** function _USBCtrlTrfOutHandler *****************
 11662 ;; Defined at:
 11663 ;;		line 2542 in file "mcc_generated_files/usb/usb_device.c"
 11664 ;; Parameters:    Size  Location     Type
 11665 ;;		None
 11666 ;; Auto vars:     Size  Location     Type
 11667 ;;		None
 11668 ;; Return value:  Size  Location     Type
 11669 ;;                  1    wreg      void 
 11670 ;; Registers used:
 11671 ;;		wreg, fsr1l, fsr1h, fsr2l, fsr2h, status,2, status,0, cstack
 11672 ;; Tracked objects:
 11673 ;;		On entry : 3F/0
 11674 ;;		On exit  : 0/0
 11675 ;;		Unchanged: 0/0
 11676 ;; Data sizes:     COMRAM   BANK0   BANK1   BANK2   BANK3   BANK4   BANK5   BANK6   BANK7
 11677 ;;      Params:         0       0       0       0       0       0       0       0       0
 11678 ;;      Locals:         0       0       0       0       0       0       0       0       0
 11679 ;;      Temps:          0       0       0       0       0       0       0       0       0
 11680 ;;      Totals:         0       0       0       0       0       0       0       0       0
 11681 ;;Total ram usage:        0 bytes
 11682 ;; Hardware stack levels used: 1
 11683 ;; Hardware stack levels required when called: 2
 11684 ;; This function calls:
 11685 ;;		_USBCtrlTrfRxService
 11686 ;; This function is called by:
 11687 ;;		_USBCtrlEPService
 11688 ;; This function uses a non-reentrant model
 11689 ;;
 11690                           
 11691                           	psect	text67
 11692  003166                     __ptext67:
 11693                           	callstack 0
 11694  003166                     _USBCtrlTrfOutHandler:
 11695                           	callstack 17
 11696                           
 11697                           ; BSR set to: 0
 11698                           ;mcc_generated_files/usb/usb_device.c: 2544:     if(controlTransferState == 2)
 11699                           
 11700                           ;incstack = 0
 11701  003166  0E02               	movlw	2
 11702  003168  184F               	xorwf	_controlTransferState^0,w,c	;volatile
 11703  00316A  A4D8               	btfss	status,2,c
 11704  00316C  D003               	goto	i2l5422
 11705                           
 11706                           ; BSR set to: 0
 11707                           ;mcc_generated_files/usb/usb_device.c: 2545:     {;mcc_generated_files/usb/usb_device.c:
      +                           2546:         USBCtrlTrfRxService();
 11708  00316E  EC22  F010         	call	_USBCtrlTrfRxService	;wreg free
 11709                           
 11710                           ;mcc_generated_files/usb/usb_device.c: 2547:     }
 11711  003172  0012               	return	
 11712  003174                     i2l5422:
 11713                           
 11714                           ; BSR set to: 0
 11715                           ;mcc_generated_files/usb/usb_device.c: 2549:     {;mcc_generated_files/usb/usb_device.c:
      +                           2552:         controlTransferState = 0;
 11716  003174  0E00               	movlw	0
 11717  003176  6E4F               	movwf	_controlTransferState^0,c	;volatile
 11718                           
 11719                           ;mcc_generated_files/usb/usb_device.c: 2559:         if(BothEP0OutUOWNsSet == 0)
 11720  003178  504C               	movf	_BothEP0OutUOWNsSet^0,w,c	;volatile
 11721  00317A  A4D8               	btfss	status,2,c
 11722  00317C  D01F               	goto	i2l5430
 11723                           
 11724                           ; BSR set to: 0
 11725                           ;mcc_generated_files/usb/usb_device.c: 2560:         {;mcc_generated_files/usb/usb_devic
      +                          e.c: 2561:             pBDTEntryEP0OutNext->CNT = 8;
 11726  00317E  EE20 F001          	lfsr	2,1
 11727  003182  503C               	movf	_pBDTEntryEP0OutNext^0,w,c
 11728  003184  26D9               	addwf	fsr2l,f,c
 11729  003186  503D               	movf	(_pBDTEntryEP0OutNext+1)^0,w,c
 11730  003188  22DA               	addwfc	fsr2h,f,c
 11731  00318A  0E08               	movlw	8
 11732  00318C  6EDF               	movwf	indf2,c
 11733                           
 11734                           ;mcc_generated_files/usb/usb_device.c: 2562:             pBDTEntryEP0OutNext->ADR = ((ui
      +                          nt16_t)(&SetupPkt));
 11735  00318E  EE20 F002          	lfsr	2,2
 11736  003192  503C               	movf	_pBDTEntryEP0OutNext^0,w,c
 11737  003194  26D9               	addwf	fsr2l,f,c
 11738  003196  503D               	movf	(_pBDTEntryEP0OutNext+1)^0,w,c
 11739  003198  22DA               	addwfc	fsr2h,f,c
 11740  00319A  0E30               	movlw	48
 11741  00319C  6EDE               	movwf	postinc2,c
 11742  00319E  0E04               	movlw	4
 11743  0031A0  6EDD               	movwf	postdec2,c
 11744                           
 11745                           ; BSR set to: 0
 11746                           ;mcc_generated_files/usb/usb_device.c: 2563:             pBDTEntryEP0OutNext->STAT.Val =
      +                           0x00|(0x08 & 0x08)|0x04;
 11747  0031A2  C03C  FFD9         	movff	_pBDTEntryEP0OutNext,fsr2l
 11748  0031A6  C03D  FFDA         	movff	_pBDTEntryEP0OutNext+1,fsr2h
 11749  0031AA  0E0C               	movlw	12
 11750  0031AC  6EDF               	movwf	indf2,c
 11751                           
 11752                           ; BSR set to: 0
 11753                           ;mcc_generated_files/usb/usb_device.c: 2564:             pBDTEntryEP0OutNext->STAT.Val |
      +                          = 0x80;
 11754  0031AE  C03C  FFD9         	movff	_pBDTEntryEP0OutNext,fsr2l
 11755  0031B2  C03D  FFDA         	movff	_pBDTEntryEP0OutNext+1,fsr2h
 11756  0031B6  0E00               	movlw	0
 11757  0031B8  8EDB               	bsf	plusw2,7,c
 11758                           
 11759                           ;mcc_generated_files/usb/usb_device.c: 2565:         }
 11760  0031BA  0012               	return	
 11761  0031BC                     i2l5430:
 11762                           
 11763                           ; BSR set to: 0
 11764                           ;mcc_generated_files/usb/usb_device.c: 2567:         {;mcc_generated_files/usb/usb_devic
      +                          e.c: 2568:                 BothEP0OutUOWNsSet = 0;
 11765  0031BC  0E00               	movlw	0
 11766  0031BE  6E4C               	movwf	_BothEP0OutUOWNsSet^0,c	;volatile
 11767  0031C0  0012               	return		;funcret
 11768  0031C2                     __end_of_USBCtrlTrfOutHandler:
 11769                           	callstack 0
 11770                           
 11771 ;; *************** function _USBCtrlTrfRxService *****************
 11772 ;; Defined at:
 11773 ;;		line 1856 in file "mcc_generated_files/usb/usb_device.c"
 11774 ;; Parameters:    Size  Location     Type
 11775 ;;		None
 11776 ;; Auto vars:     Size  Location     Type
 11777 ;;  byteToRead      1    1[COMRAM] unsigned char 
 11778 ;;  i               1    0[COMRAM] unsigned char 
 11779 ;; Return value:  Size  Location     Type
 11780 ;;                  1    wreg      void 
 11781 ;; Registers used:
 11782 ;;		wreg, fsr1l, fsr1h, fsr2l, fsr2h, status,2, status,0, cstack
 11783 ;; Tracked objects:
 11784 ;;		On entry : 3F/0
 11785 ;;		On exit  : 0/0
 11786 ;;		Unchanged: 0/0
 11787 ;; Data sizes:     COMRAM   BANK0   BANK1   BANK2   BANK3   BANK4   BANK5   BANK6   BANK7
 11788 ;;      Params:         0       0       0       0       0       0       0       0       0
 11789 ;;      Locals:         2       0       0       0       0       0       0       0       0
 11790 ;;      Temps:          0       0       0       0       0       0       0       0       0
 11791 ;;      Totals:         2       0       0       0       0       0       0       0       0
 11792 ;;Total ram usage:        2 bytes
 11793 ;; Hardware stack levels used: 1
 11794 ;; Hardware stack levels required when called: 1
 11795 ;; This function calls:
 11796 ;;		_USBCtrlEPAllowStatusStage
 11797 ;; This function is called by:
 11798 ;;		_USBCtrlTrfOutHandler
 11799 ;; This function uses a non-reentrant model
 11800 ;;
 11801                           
 11802                           	psect	text68
 11803  002044                     __ptext68:
 11804                           	callstack 0
 11805  002044                     _USBCtrlTrfRxService:
 11806                           	callstack 17
 11807                           
 11808                           ; BSR set to: 0
 11809                           ;mcc_generated_files/usb/usb_device.c: 1858:     uint8_t byteToRead;;mcc_generated_files
      +                          /usb/usb_device.c: 1859:     uint8_t i;;mcc_generated_files/usb/usb_device.c: 1863:     
      +                          byteToRead = pBDTEntryEP0OutCurrent->CNT;
 11810                           
 11811                           ;incstack = 0
 11812  002044  EE20 F001          	lfsr	2,1
 11813  002048  503E               	movf	_pBDTEntryEP0OutCurrent^0,w,c
 11814  00204A  26D9               	addwf	fsr2l,f,c
 11815  00204C  503F               	movf	(_pBDTEntryEP0OutCurrent+1)^0,w,c
 11816  00204E  22DA               	addwfc	fsr2h,f,c
 11817  002050  50DF               	movf	indf2,w,c
 11818  002052  6E02               	movwf	USBCtrlTrfRxService@byteToRead^0,c
 11819                           
 11820                           ; BSR set to: 0
 11821                           ;mcc_generated_files/usb/usb_device.c: 1869:     if(byteToRead > outPipes[0].wCount.Val)
 11822  002054  5002               	movf	USBCtrlTrfRxService@byteToRead^0,w,c
 11823  002056  5DC5               	subwf	(_outPipes+4)& (0+255),w,b	;volatile
 11824  002058  0E00               	movlw	0
 11825  00205A  59C6               	subwfb	(_outPipes+5)& (0+255),w,b	;volatile
 11826  00205C  A0D8               	btfss	status,0,c
 11827                           
 11828                           ; BSR set to: 0
 11829                           ;mcc_generated_files/usb/usb_device.c: 1870:     {;mcc_generated_files/usb/usb_device.c:
      +                           1871:         byteToRead = outPipes[0].wCount.Val;
 11830  00205E  C0C5  F002         	movff	_outPipes+4,USBCtrlTrfRxService@byteToRead	;volatile
 11831                           
 11832                           ; BSR set to: 0
 11833                           ;mcc_generated_files/usb/usb_device.c: 1874:     outPipes[0].wCount.Val -= byteToRead;
 11834  002062  5002               	movf	USBCtrlTrfRxService@byteToRead^0,w,c
 11835  002064  5FC5               	subwf	(_outPipes+4)& (0+255),f,b	;volatile
 11836  002066  0E00               	movlw	0
 11837  002068  5BC6               	subwfb	(_outPipes+5)& (0+255),f,b	;volatile
 11838                           
 11839                           ; BSR set to: 0
 11840                           ;mcc_generated_files/usb/usb_device.c: 1878:     for(i=0;i<byteToRead;i++)
 11841  00206A  0E00               	movlw	0
 11842  00206C  6E01               	movwf	USBCtrlTrfRxService@i^0,c
 11843  00206E  D00F               	goto	i2l5152
 11844  002070                     i2l5146:
 11845                           
 11846                           ; BSR set to: 0
 11847                           ;mcc_generated_files/usb/usb_device.c: 1879:     {;mcc_generated_files/usb/usb_device.c:
      +                           1880:         *outPipes[0].pDst.bRam++ = CtrlTrfData[i];
 11848  002070  0E38               	movlw	56
 11849  002072  2401               	addwf	USBCtrlTrfRxService@i^0,w,c
 11850  002074  6ED9               	movwf	fsr2l,c
 11851  002076  6ADA               	clrf	fsr2h,c
 11852  002078  0E04               	movlw	4
 11853  00207A  22DA               	addwfc	fsr2h,f,c
 11854  00207C  C0C1  FFE1         	movff	_outPipes,fsr1l	;volatile
 11855  002080  C0C2  FFE2         	movff	_outPipes+1,fsr1h	;volatile
 11856  002084  CFDF FFE7          	movff	indf2,indf1
 11857                           
 11858                           ; BSR set to: 0
 11859  002088  4BC1               	infsnz	_outPipes& (0+255),f,b	;volatile
 11860  00208A  2BC2               	incf	(_outPipes+1)& (0+255),f,b	;volatile
 11861                           
 11862                           ; BSR set to: 0
 11863                           ;mcc_generated_files/usb/usb_device.c: 1881:     }
 11864  00208C  2A01               	incf	USBCtrlTrfRxService@i^0,f,c
 11865  00208E                     i2l5152:
 11866                           
 11867                           ; BSR set to: 0
 11868  00208E  5002               	movf	USBCtrlTrfRxService@byteToRead^0,w,c
 11869  002090  5C01               	subwf	USBCtrlTrfRxService@i^0,w,c
 11870  002092  A0D8               	btfss	status,0,c
 11871  002094  D7ED               	goto	i2l5146
 11872                           
 11873                           ; BSR set to: 0
 11874                           ;mcc_generated_files/usb/usb_device.c: 1885:     if(outPipes[0].wCount.Val > 0)
 11875  002096  51C5               	movf	(_outPipes+4)& (0+255),w,b	;volatile
 11876  002098  11C6               	iorwf	(_outPipes+5)& (0+255),w,b	;volatile
 11877  00209A  B4D8               	btfsc	status,2,c
 11878  00209C  D032               	goto	i2l5168
 11879                           
 11880                           ; BSR set to: 0
 11881                           ;mcc_generated_files/usb/usb_device.c: 1886:     {;mcc_generated_files/usb/usb_device.c:
      +                           1887:         pBDTEntryEP0OutNext->CNT = 8;
 11882  00209E  EE20 F001          	lfsr	2,1
 11883  0020A2  503C               	movf	_pBDTEntryEP0OutNext^0,w,c
 11884  0020A4  26D9               	addwf	fsr2l,f,c
 11885  0020A6  503D               	movf	(_pBDTEntryEP0OutNext+1)^0,w,c
 11886  0020A8  22DA               	addwfc	fsr2h,f,c
 11887  0020AA  0E08               	movlw	8
 11888  0020AC  6EDF               	movwf	indf2,c
 11889                           
 11890                           ;mcc_generated_files/usb/usb_device.c: 1888:         pBDTEntryEP0OutNext->ADR = ((uint16
      +                          _t)(&CtrlTrfData));
 11891  0020AE  EE20 F002          	lfsr	2,2
 11892  0020B2  503C               	movf	_pBDTEntryEP0OutNext^0,w,c
 11893  0020B4  26D9               	addwf	fsr2l,f,c
 11894  0020B6  503D               	movf	(_pBDTEntryEP0OutNext+1)^0,w,c
 11895  0020B8  22DA               	addwfc	fsr2h,f,c
 11896  0020BA  0E38               	movlw	56
 11897  0020BC  6EDE               	movwf	postinc2,c
 11898  0020BE  0E04               	movlw	4
 11899  0020C0  6EDD               	movwf	postdec2,c
 11900                           
 11901                           ; BSR set to: 0
 11902                           ;mcc_generated_files/usb/usb_device.c: 1889:         if(pBDTEntryEP0OutCurrent->STAT.DTS
      +                           == 0)
 11903  0020C2  C03E  FFD9         	movff	_pBDTEntryEP0OutCurrent,fsr2l
 11904  0020C6  C03F  FFDA         	movff	_pBDTEntryEP0OutCurrent+1,fsr2h
 11905  0020CA  BCDF               	btfsc	indf2,6,c
 11906  0020CC  D00D               	goto	i2l5164
 11907                           
 11908                           ; BSR set to: 0
 11909                           ;mcc_generated_files/usb/usb_device.c: 1890:         {;mcc_generated_files/usb/usb_devic
      +                          e.c: 1891:             pBDTEntryEP0OutNext->STAT.Val = 0x40|(0x08 & 0x08);
 11910  0020CE  C03C  FFD9         	movff	_pBDTEntryEP0OutNext,fsr2l
 11911  0020D2  C03D  FFDA         	movff	_pBDTEntryEP0OutNext+1,fsr2h
 11912  0020D6  0E48               	movlw	72
 11913  0020D8  6EDF               	movwf	indf2,c
 11914                           
 11915                           ; BSR set to: 0
 11916                           ;mcc_generated_files/usb/usb_device.c: 1892:             pBDTEntryEP0OutNext->STAT.Val |
      +                          = 0x80;
 11917  0020DA  C03C  FFD9         	movff	_pBDTEntryEP0OutNext,fsr2l
 11918  0020DE  C03D  FFDA         	movff	_pBDTEntryEP0OutNext+1,fsr2h
 11919  0020E2  0E00               	movlw	0
 11920  0020E4  8EDB               	bsf	plusw2,7,c
 11921                           
 11922                           ;mcc_generated_files/usb/usb_device.c: 1893:         }
 11923  0020E6  0012               	return	
 11924  0020E8                     i2l5164:
 11925                           
 11926                           ; BSR set to: 0
 11927                           ;mcc_generated_files/usb/usb_device.c: 1895:         {;mcc_generated_files/usb/usb_devic
      +                          e.c: 1896:             pBDTEntryEP0OutNext->STAT.Val = 0x00|(0x08 & 0x08);
 11928  0020E8  C03C  FFD9         	movff	_pBDTEntryEP0OutNext,fsr2l
 11929  0020EC  C03D  FFDA         	movff	_pBDTEntryEP0OutNext+1,fsr2h
 11930  0020F0  0E08               	movlw	8
 11931  0020F2  6EDF               	movwf	indf2,c
 11932                           
 11933                           ; BSR set to: 0
 11934                           ;mcc_generated_files/usb/usb_device.c: 1897:             pBDTEntryEP0OutNext->STAT.Val |
      +                          = 0x80;
 11935  0020F4  C03C  FFD9         	movff	_pBDTEntryEP0OutNext,fsr2l
 11936  0020F8  C03D  FFDA         	movff	_pBDTEntryEP0OutNext+1,fsr2h
 11937  0020FC  0E00               	movlw	0
 11938  0020FE  8EDB               	bsf	plusw2,7,c
 11939  002100  0012               	return	
 11940  002102                     i2l5168:
 11941                           
 11942                           ; BSR set to: 0
 11943                           ;mcc_generated_files/usb/usb_device.c: 1901:     {;mcc_generated_files/usb/usb_device.c:
      +                           1905:         pBDTEntryEP0OutNext->CNT = 8;
 11944  002102  EE20 F001          	lfsr	2,1
 11945  002106  503C               	movf	_pBDTEntryEP0OutNext^0,w,c
 11946  002108  26D9               	addwf	fsr2l,f,c
 11947  00210A  503D               	movf	(_pBDTEntryEP0OutNext+1)^0,w,c
 11948  00210C  22DA               	addwfc	fsr2h,f,c
 11949  00210E  0E08               	movlw	8
 11950  002110  6EDF               	movwf	indf2,c
 11951                           
 11952                           ;mcc_generated_files/usb/usb_device.c: 1906:         pBDTEntryEP0OutNext->ADR = ((uint16
      +                          _t)(&SetupPkt));
 11953  002112  EE20 F002          	lfsr	2,2
 11954  002116  503C               	movf	_pBDTEntryEP0OutNext^0,w,c
 11955  002118  26D9               	addwf	fsr2l,f,c
 11956  00211A  503D               	movf	(_pBDTEntryEP0OutNext+1)^0,w,c
 11957  00211C  22DA               	addwfc	fsr2h,f,c
 11958  00211E  0E30               	movlw	48
 11959  002120  6EDE               	movwf	postinc2,c
 11960  002122  0E04               	movlw	4
 11961  002124  6EDD               	movwf	postdec2,c
 11962                           
 11963                           ; BSR set to: 0
 11964                           ;mcc_generated_files/usb/usb_device.c: 1910:         pBDTEntryEP0OutNext->STAT.Val = 0x0
      +                          4;
 11965  002126  C03C  FFD9         	movff	_pBDTEntryEP0OutNext,fsr2l
 11966  00212A  C03D  FFDA         	movff	_pBDTEntryEP0OutNext+1,fsr2h
 11967  00212E  0E04               	movlw	4
 11968  002130  6EDF               	movwf	indf2,c
 11969                           
 11970                           ; BSR set to: 0
 11971                           ;mcc_generated_files/usb/usb_device.c: 1911:         pBDTEntryEP0OutNext->STAT.Val |= 0x
      +                          80;
 11972  002132  C03C  FFD9         	movff	_pBDTEntryEP0OutNext,fsr2l
 11973  002136  C03D  FFDA         	movff	_pBDTEntryEP0OutNext+1,fsr2h
 11974  00213A  0E00               	movlw	0
 11975  00213C  8EDB               	bsf	plusw2,7,c
 11976                           
 11977                           ; BSR set to: 0
 11978                           
 11979                           ; BSR set to: 0
 11980                           ;mcc_generated_files/usb/usb_device.c: 1919:         {
 11981  00213E  9FC4               	bcf	(_outPipes+3)& (0+255),7,b	;volatile
 11982                           
 11983                           ; BSR set to: 0
 11984                           ;mcc_generated_files/usb/usb_device.c: 1945:         if(USBDeferStatusStagePacket == 0)
 11985  002140  504A               	movf	_USBDeferStatusStagePacket^0,w,c	;volatile
 11986  002142  A4D8               	btfss	status,2,c
 11987  002144  0012               	return	
 11988                           
 11989                           ; BSR set to: 0
 11990                           ;mcc_generated_files/usb/usb_device.c: 1946:         {;mcc_generated_files/usb/usb_devic
      +                          e.c: 1947:             USBCtrlEPAllowStatusStage();
 11991  002146  EC30  F014         	call	_USBCtrlEPAllowStatusStage	;wreg free
 11992  00214A  0012               	return		;funcret
 11993  00214C                     __end_of_USBCtrlTrfRxService:
 11994                           	callstack 0
 11995                           
 11996 ;; *************** function _USBCtrlEPAllowStatusStage *****************
 11997 ;; Defined at:
 11998 ;;		line 1420 in file "mcc_generated_files/usb/usb_device.c"
 11999 ;; Parameters:    Size  Location     Type
 12000 ;;		None
 12001 ;; Auto vars:     Size  Location     Type
 12002 ;;		None
 12003 ;; Return value:  Size  Location     Type
 12004 ;;                  1    wreg      void 
 12005 ;; Registers used:
 12006 ;;		wreg, fsr2l, fsr2h, status,2, status,0
 12007 ;; Tracked objects:
 12008 ;;		On entry : 0/0
 12009 ;;		On exit  : 0/0
 12010 ;;		Unchanged: 0/0
 12011 ;; Data sizes:     COMRAM   BANK0   BANK1   BANK2   BANK3   BANK4   BANK5   BANK6   BANK7
 12012 ;;      Params:         0       0       0       0       0       0       0       0       0
 12013 ;;      Locals:         0       0       0       0       0       0       0       0       0
 12014 ;;      Temps:          0       0       0       0       0       0       0       0       0
 12015 ;;      Totals:         0       0       0       0       0       0       0       0       0
 12016 ;;Total ram usage:        0 bytes
 12017 ;; Hardware stack levels used: 1
 12018 ;; This function calls:
 12019 ;;		Nothing
 12020 ;; This function is called by:
 12021 ;;		_USBDeviceTasks
 12022 ;;		_USBCtrlEPServiceComplete
 12023 ;;		_USBCtrlTrfRxService
 12024 ;; This function uses a non-reentrant model
 12025 ;;
 12026                           
 12027                           	psect	text69
 12028  002860                     __ptext69:
 12029                           	callstack 0
 12030  002860                     _USBCtrlEPAllowStatusStage:
 12031                           	callstack 17
 12032                           
 12033                           ;mcc_generated_files/usb/usb_device.c: 1427:     if(USBStatusStageEnabledFlag1 == 0)
 12034                           
 12035                           ;incstack = 0
 12036  002860  5049               	movf	_USBStatusStageEnabledFlag1^0,w,c	;volatile
 12037  002862  A4D8               	btfss	status,2,c
 12038  002864  0012               	return	
 12039                           
 12040                           ;mcc_generated_files/usb/usb_device.c: 1428:     {;mcc_generated_files/usb/usb_device.c:
      +                           1429:         USBStatusStageEnabledFlag1 = 1;
 12041  002866  0E01               	movlw	1
 12042  002868  6E49               	movwf	_USBStatusStageEnabledFlag1^0,c	;volatile
 12043                           
 12044                           ;mcc_generated_files/usb/usb_device.c: 1430:         if(USBStatusStageEnabledFlag2 == 0)
 12045  00286A  5048               	movf	_USBStatusStageEnabledFlag2^0,w,c	;volatile
 12046  00286C  A4D8               	btfss	status,2,c
 12047  00286E  0012               	return	
 12048                           
 12049                           ;mcc_generated_files/usb/usb_device.c: 1431:         {;mcc_generated_files/usb/usb_devic
      +                          e.c: 1432:             USBStatusStageEnabledFlag2 = 1;
 12050  002870  0E01               	movlw	1
 12051  002872  6E48               	movwf	_USBStatusStageEnabledFlag2^0,c	;volatile
 12052                           
 12053                           ;mcc_generated_files/usb/usb_device.c: 1436:             if(controlTransferState == 2)
 12054  002874  0E02               	movlw	2
 12055  002876  184F               	xorwf	_controlTransferState^0,w,c	;volatile
 12056  002878  A4D8               	btfss	status,2,c
 12057  00287A  D016               	goto	i2l4748
 12058                           
 12059                           ;mcc_generated_files/usb/usb_device.c: 1437:             {;mcc_generated_files/usb/usb_d
      +                          evice.c: 1438:                 pBDTEntryIn[0]->CNT = 0;
 12060  00287C  0100               	movlb	0	; () banked
 12061  00287E  EE20 F001          	lfsr	2,1
 12062  002882  51CF               	movf	_pBDTEntryIn& (0+255),w,b
 12063  002884  26D9               	addwf	fsr2l,f,c
 12064  002886  51D0               	movf	(_pBDTEntryIn+1)& (0+255),w,b
 12065  002888  22DA               	addwfc	fsr2h,f,c
 12066  00288A  0E00               	movlw	0
 12067  00288C  6EDF               	movwf	indf2,c
 12068                           
 12069                           ; BSR set to: 0
 12070                           ;mcc_generated_files/usb/usb_device.c: 1439:                 pBDTEntryIn[0]->STAT.Val = 
      +                          0x40|(0x08 & 0x08);
 12071  00288E  C0CF  FFD9         	movff	_pBDTEntryIn,fsr2l
 12072  002892  C0D0  FFDA         	movff	_pBDTEntryIn+1,fsr2h
 12073  002896  0E48               	movlw	72
 12074  002898  6EDF               	movwf	indf2,c
 12075                           
 12076                           ; BSR set to: 0
 12077                           ;mcc_generated_files/usb/usb_device.c: 1440:                 pBDTEntryIn[0]->STAT.Val |=
      +                           0x80;
 12078  00289A  C0CF  FFD9         	movff	_pBDTEntryIn,fsr2l
 12079  00289E  C0D0  FFDA         	movff	_pBDTEntryIn+1,fsr2h
 12080  0028A2  0E00               	movlw	0
 12081  0028A4  8EDB               	bsf	plusw2,7,c
 12082                           
 12083                           ;mcc_generated_files/usb/usb_device.c: 1441:             }
 12084  0028A6  0012               	return	
 12085  0028A8                     i2l4748:
 12086  0028A8  044F               	decf	_controlTransferState^0,w,c	;volatile
 12087  0028AA  A4D8               	btfss	status,2,c
 12088  0028AC  0012               	return	
 12089                           
 12090                           ;mcc_generated_files/usb/usb_device.c: 1443:             {;mcc_generated_files/usb/usb_d
      +                          evice.c: 1444:                 BothEP0OutUOWNsSet = 0;
 12091  0028AE  0E00               	movlw	0
 12092  0028B0  6E4C               	movwf	_BothEP0OutUOWNsSet^0,c	;volatile
 12093                           
 12094                           ;mcc_generated_files/usb/usb_device.c: 1449:                     pBDTEntryEP0OutCurrent-
      +                          >CNT = 8;
 12095  0028B2  EE20 F001          	lfsr	2,1
 12096  0028B6  503E               	movf	_pBDTEntryEP0OutCurrent^0,w,c
 12097  0028B8  26D9               	addwf	fsr2l,f,c
 12098  0028BA  503F               	movf	(_pBDTEntryEP0OutCurrent+1)^0,w,c
 12099  0028BC  22DA               	addwfc	fsr2h,f,c
 12100  0028BE  0E08               	movlw	8
 12101  0028C0  6EDF               	movwf	indf2,c
 12102                           
 12103                           ;mcc_generated_files/usb/usb_device.c: 1450:                     pBDTEntryEP0OutCurrent-
      +                          >ADR = ((uint16_t)(&SetupPkt));
 12104  0028C2  EE20 F002          	lfsr	2,2
 12105  0028C6  503E               	movf	_pBDTEntryEP0OutCurrent^0,w,c
 12106  0028C8  26D9               	addwf	fsr2l,f,c
 12107  0028CA  503F               	movf	(_pBDTEntryEP0OutCurrent+1)^0,w,c
 12108  0028CC  22DA               	addwfc	fsr2h,f,c
 12109  0028CE  0E30               	movlw	48
 12110  0028D0  6EDE               	movwf	postinc2,c
 12111  0028D2  0E04               	movlw	4
 12112  0028D4  6EDD               	movwf	postdec2,c
 12113                           
 12114                           ;mcc_generated_files/usb/usb_device.c: 1451:                     pBDTEntryEP0OutCurrent-
      +                          >STAT.Val = 0x04;
 12115  0028D6  C03E  FFD9         	movff	_pBDTEntryEP0OutCurrent,fsr2l
 12116  0028DA  C03F  FFDA         	movff	_pBDTEntryEP0OutCurrent+1,fsr2h
 12117  0028DE  0E04               	movlw	4
 12118  0028E0  6EDF               	movwf	indf2,c
 12119                           
 12120                           ;mcc_generated_files/usb/usb_device.c: 1452:                     pBDTEntryEP0OutCurrent-
      +                          >STAT.Val |= 0x80;
 12121  0028E2  C03E  FFD9         	movff	_pBDTEntryEP0OutCurrent,fsr2l
 12122  0028E6  C03F  FFDA         	movff	_pBDTEntryEP0OutCurrent+1,fsr2h
 12123  0028EA  0E00               	movlw	0
 12124  0028EC  8EDB               	bsf	plusw2,7,c
 12125                           
 12126                           ;mcc_generated_files/usb/usb_device.c: 1453:                     BothEP0OutUOWNsSet = 1;
 12127  0028EE  0E01               	movlw	1
 12128  0028F0  6E4C               	movwf	_BothEP0OutUOWNsSet^0,c	;volatile
 12129                           
 12130                           ;mcc_generated_files/usb/usb_device.c: 1457:                 pBDTEntryEP0OutNext->CNT = 
      +                          8;
 12131  0028F2  EE20 F001          	lfsr	2,1
 12132  0028F6  503C               	movf	_pBDTEntryEP0OutNext^0,w,c
 12133  0028F8  26D9               	addwf	fsr2l,f,c
 12134  0028FA  503D               	movf	(_pBDTEntryEP0OutNext+1)^0,w,c
 12135  0028FC  22DA               	addwfc	fsr2h,f,c
 12136  0028FE  0E08               	movlw	8
 12137  002900  6EDF               	movwf	indf2,c
 12138                           
 12139                           ;mcc_generated_files/usb/usb_device.c: 1458:                 pBDTEntryEP0OutNext->ADR = 
      +                          ((uint16_t)(&SetupPkt));
 12140  002902  EE20 F002          	lfsr	2,2
 12141  002906  503C               	movf	_pBDTEntryEP0OutNext^0,w,c
 12142  002908  26D9               	addwf	fsr2l,f,c
 12143  00290A  503D               	movf	(_pBDTEntryEP0OutNext+1)^0,w,c
 12144  00290C  22DA               	addwfc	fsr2h,f,c
 12145  00290E  0E30               	movlw	48
 12146  002910  6EDE               	movwf	postinc2,c
 12147  002912  0E04               	movlw	4
 12148  002914  6EDD               	movwf	postdec2,c
 12149                           
 12150                           ;mcc_generated_files/usb/usb_device.c: 1459:                 pBDTEntryEP0OutNext->STAT.V
      +                          al = 0x80;
 12151  002916  C03C  FFD9         	movff	_pBDTEntryEP0OutNext,fsr2l
 12152  00291A  C03D  FFDA         	movff	_pBDTEntryEP0OutNext+1,fsr2h
 12153  00291E  0E80               	movlw	128
 12154  002920  6EDF               	movwf	indf2,c
 12155  002922  0012               	return	
 12156  002924                     __end_of_USBCtrlEPAllowStatusStage:
 12157                           	callstack 0
 12158                           
 12159 ;; *************** function _USBCtrlTrfInHandler *****************
 12160 ;; Defined at:
 12161 ;;		line 2596 in file "mcc_generated_files/usb/usb_device.c"
 12162 ;; Parameters:    Size  Location     Type
 12163 ;;		None
 12164 ;; Auto vars:     Size  Location     Type
 12165 ;;  lastDTS         1    1[COMRAM] unsigned char 
 12166 ;; Return value:  Size  Location     Type
 12167 ;;                  1    wreg      void 
 12168 ;; Registers used:
 12169 ;;		wreg, fsr1l, fsr1h, fsr2l, fsr2h, status,2, status,0, tblptrl, tblptrh, tblptru, cstack
 12170 ;; Tracked objects:
 12171 ;;		On entry : 3F/0
 12172 ;;		On exit  : 3F/0
 12173 ;;		Unchanged: 0/0
 12174 ;; Data sizes:     COMRAM   BANK0   BANK1   BANK2   BANK3   BANK4   BANK5   BANK6   BANK7
 12175 ;;      Params:         0       0       0       0       0       0       0       0       0
 12176 ;;      Locals:         1       0       0       0       0       0       0       0       0
 12177 ;;      Temps:          0       0       0       0       0       0       0       0       0
 12178 ;;      Totals:         1       0       0       0       0       0       0       0       0
 12179 ;;Total ram usage:        1 bytes
 12180 ;; Hardware stack levels used: 1
 12181 ;; Hardware stack levels required when called: 1
 12182 ;; This function calls:
 12183 ;;		_USBCtrlTrfTxService
 12184 ;; This function is called by:
 12185 ;;		_USBCtrlEPService
 12186 ;; This function uses a non-reentrant model
 12187 ;;
 12188                           
 12189                           	psect	text70
 12190  002924                     __ptext70:
 12191                           	callstack 0
 12192  002924                     _USBCtrlTrfInHandler:
 12193                           	callstack 18
 12194                           
 12195                           ; BSR set to: 0
 12196                           ;mcc_generated_files/usb/usb_device.c: 2598:     uint8_t lastDTS;;mcc_generated_files/us
      +                          b/usb_device.c: 2600:     lastDTS = pBDTEntryIn[0]->STAT.DTS;
 12197                           
 12198                           ;incstack = 0
 12199  002924  C0CF  FFD9         	movff	_pBDTEntryIn,fsr2l
 12200  002928  C0D0  FFDA         	movff	_pBDTEntryIn+1,fsr2h
 12201  00292C  0E00               	movlw	0
 12202  00292E  BCDF               	btfsc	indf2,6,c
 12203  002930  0E01               	movlw	1
 12204  002932  6E02               	movwf	USBCtrlTrfInHandler@lastDTS^0,c
 12205                           
 12206                           ; BSR set to: 0
 12207                           ;mcc_generated_files/usb/usb_device.c: 2603:     pBDTEntryIn[0] = (volatile BDT_ENTRY*)(
      +                          ((uint16_t)pBDTEntryIn[0]) ^ 0x0004);
 12208  002934  0E04               	movlw	4
 12209  002936  19CF               	xorwf	_pBDTEntryIn& (0+255),w,b
 12210  002938  6FCF               	movwf	_pBDTEntryIn& (0+255),b
 12211  00293A  51D0               	movf	(_pBDTEntryIn+1)& (0+255),w,b
 12212  00293C  6FD0               	movwf	(_pBDTEntryIn+1)& (0+255),b
 12213                           
 12214                           ; BSR set to: 0
 12215                           ;mcc_generated_files/usb/usb_device.c: 2608:     if(USBDeviceState == ADR_PENDING_STATE)
 12216  00293E  0E08               	movlw	8
 12217  002940  1851               	xorwf	_USBDeviceState^0,w,c
 12218  002942  A4D8               	btfss	status,2,c
 12219  002944  D00B               	goto	i2l5446
 12220                           
 12221                           ; BSR set to: 0
 12222                           ;mcc_generated_files/usb/usb_device.c: 2609:     {;mcc_generated_files/usb/usb_device.c:
      +                           2610:         UADDR = (SetupPkt.bDevADR & 0x7F);
 12223  002946  0104               	movlb	4	; () banked
 12224  002948  5132               	movf	50,w,b	;volatile
 12225  00294A  0B7F               	andlw	127
 12226  00294C  6E63               	movwf	99,c	;volatile
 12227                           
 12228                           ; BSR set to: 4
 12229                           ;mcc_generated_files/usb/usb_device.c: 2611:         if(UADDR != 0u)
 12230  00294E  5063               	movf	99,w,c
 12231  002950  B4D8               	btfsc	status,2,c
 12232  002952  D002               	goto	i2l5444
 12233                           
 12234                           ; BSR set to: 4
 12235                           ;mcc_generated_files/usb/usb_device.c: 2612:         {;mcc_generated_files/usb/usb_devic
      +                          e.c: 2613:             USBDeviceState=ADDRESS_STATE;
 12236  002954  0E10               	movlw	16
 12237  002956  D001               	goto	L17
 12238  002958                     i2l5444:
 12239                           
 12240                           ; BSR set to: 4
 12241                           ;mcc_generated_files/usb/usb_device.c: 2616:         {;mcc_generated_files/usb/usb_devic
      +                          e.c: 2617:             USBDeviceState=DEFAULT_STATE;
 12242  002958  0E04               	movlw	4
 12243  00295A                     L17:
 12244  00295A  6E51               	movwf	_USBDeviceState^0,c	;volatile
 12245  00295C                     i2l5446:
 12246                           
 12247                           ;mcc_generated_files/usb/usb_device.c: 2622:     if(controlTransferState == 1)
 12248  00295C  044F               	decf	_controlTransferState^0,w,c	;volatile
 12249  00295E  A4D8               	btfss	status,2,c
 12250  002960  D03B               	goto	i2l332
 12251                           
 12252                           ;mcc_generated_files/usb/usb_device.c: 2623:     {;mcc_generated_files/usb/usb_device.c:
      +                           2624:         pBDTEntryIn[0]->ADR = ((uint16_t)(CtrlTrfData));
 12253  002962  0100               	movlb	0	; () banked
 12254  002964  EE20 F002          	lfsr	2,2
 12255  002968  51CF               	movf	_pBDTEntryIn& (0+255),w,b
 12256  00296A  26D9               	addwf	fsr2l,f,c
 12257  00296C  51D0               	movf	(_pBDTEntryIn+1)& (0+255),w,b
 12258  00296E  22DA               	addwfc	fsr2h,f,c
 12259  002970  0E38               	movlw	56
 12260  002972  6EDE               	movwf	postinc2,c
 12261  002974  0E04               	movlw	4
 12262  002976  6EDD               	movwf	postdec2,c
 12263                           
 12264                           ; BSR set to: 0
 12265                           ;mcc_generated_files/usb/usb_device.c: 2625:         USBCtrlTrfTxService();
 12266  002978  EC66  F013         	call	_USBCtrlTrfTxService	;wreg free
 12267                           
 12268                           ; BSR set to: 0
 12269                           ;mcc_generated_files/usb/usb_device.c: 2631:         if(shortPacketStatus == 2)
 12270  00297C  0E02               	movlw	2
 12271  00297E  1850               	xorwf	_shortPacketStatus^0,w,c	;volatile
 12272  002980  A4D8               	btfss	status,2,c
 12273  002982  D00D               	goto	i2l5458
 12274                           
 12275                           ; BSR set to: 0
 12276                           ;mcc_generated_files/usb/usb_device.c: 2632:         {;mcc_generated_files/usb/usb_devic
      +                          e.c: 2635:             pBDTEntryIn[0]->STAT.Val = 0x04;
 12277  002984  C0CF  FFD9         	movff	_pBDTEntryIn,fsr2l
 12278  002988  C0D0  FFDA         	movff	_pBDTEntryIn+1,fsr2h
 12279  00298C  0E04               	movlw	4
 12280  00298E  6EDF               	movwf	indf2,c
 12281                           
 12282                           ; BSR set to: 0
 12283                           ;mcc_generated_files/usb/usb_device.c: 2636:             pBDTEntryIn[0]->STAT.Val |= 0x8
      +                          0;
 12284  002990  C0CF  FFD9         	movff	_pBDTEntryIn,fsr2l
 12285  002994  C0D0  FFDA         	movff	_pBDTEntryIn+1,fsr2h
 12286  002998  0E00               	movlw	0
 12287  00299A  8EDB               	bsf	plusw2,7,c
 12288                           
 12289                           ;mcc_generated_files/usb/usb_device.c: 2637:         }
 12290  00299C  0012               	return	
 12291  00299E                     i2l5458:
 12292                           
 12293                           ; BSR set to: 0
 12294                           ;mcc_generated_files/usb/usb_device.c: 2639:         {;mcc_generated_files/usb/usb_devic
      +                          e.c: 2640:             if(lastDTS == 0)
 12295  00299E  5002               	movf	USBCtrlTrfInHandler@lastDTS^0,w,c
 12296  0029A0  A4D8               	btfss	status,2,c
 12297  0029A2  D00D               	goto	i2l5464
 12298                           
 12299                           ; BSR set to: 0
 12300                           ;mcc_generated_files/usb/usb_device.c: 2641:             {;mcc_generated_files/usb/usb_d
      +                          evice.c: 2642:                 pBDTEntryIn[0]->STAT.Val = 0x40|(0x08 & 0x08);
 12301  0029A4  C0CF  FFD9         	movff	_pBDTEntryIn,fsr2l
 12302  0029A8  C0D0  FFDA         	movff	_pBDTEntryIn+1,fsr2h
 12303  0029AC  0E48               	movlw	72
 12304  0029AE  6EDF               	movwf	indf2,c
 12305                           
 12306                           ; BSR set to: 0
 12307                           ;mcc_generated_files/usb/usb_device.c: 2643:                 pBDTEntryIn[0]->STAT.Val |=
      +                           0x80;
 12308  0029B0  C0CF  FFD9         	movff	_pBDTEntryIn,fsr2l
 12309  0029B4  C0D0  FFDA         	movff	_pBDTEntryIn+1,fsr2h
 12310  0029B8  0E00               	movlw	0
 12311  0029BA  8EDB               	bsf	plusw2,7,c
 12312                           
 12313                           ;mcc_generated_files/usb/usb_device.c: 2644:             }
 12314  0029BC  0012               	return	
 12315  0029BE                     i2l5464:
 12316                           
 12317                           ; BSR set to: 0
 12318                           ;mcc_generated_files/usb/usb_device.c: 2646:             {;mcc_generated_files/usb/usb_d
      +                          evice.c: 2647:                 pBDTEntryIn[0]->STAT.Val = 0x00|(0x08 & 0x08);
 12319  0029BE  C0CF  FFD9         	movff	_pBDTEntryIn,fsr2l
 12320  0029C2  C0D0  FFDA         	movff	_pBDTEntryIn+1,fsr2h
 12321  0029C6  0E08               	movlw	8
 12322  0029C8  6EDF               	movwf	indf2,c
 12323                           
 12324                           ; BSR set to: 0
 12325                           ;mcc_generated_files/usb/usb_device.c: 2648:                 pBDTEntryIn[0]->STAT.Val |=
      +                           0x80;
 12326  0029CA  C0CF  FFD9         	movff	_pBDTEntryIn,fsr2l
 12327  0029CE  C0D0  FFDA         	movff	_pBDTEntryIn+1,fsr2h
 12328  0029D2  0E00               	movlw	0
 12329  0029D4  8EDB               	bsf	plusw2,7,c
 12330  0029D6  0012               	return	
 12331  0029D8                     i2l332:
 12332                           
 12333                           ;mcc_generated_files/usb/usb_device.c: 2653:  {;mcc_generated_files/usb/usb_device.c: 26
      +                          57:         if(outPipes[0].info.bits.busy == 1)
 12334  0029D8  0100               	movlb	0	; () banked
 12335  0029DA  BFC4               	btfsc	(_outPipes+3)& (0+255),7,b	;volatile
 12336                           
 12337                           ; BSR set to: 0
 12338                           ;mcc_generated_files/usb/usb_device.c: 2663:             outPipes[0].info.bits.busy = 0;
 12339                           
 12340                           ; BSR set to: 0
 12341                           ;mcc_generated_files/usb/usb_device.c: 2660:             {;mcc_generated_files/usb/usb_d
      +                          evice.c: 2661:                 outPipes[0].pFunc();
 12342                           ;mcc_generated_files/usb/usb_device.c: 2662:             }
 12343  0029DC  9FC4               	bcf	(_outPipes+3)& (0+255),7,b	;volatile
 12344                           
 12345                           ; BSR set to: 0
 12346                           ;mcc_generated_files/usb/usb_device.c: 2666:         controlTransferState = 0;
 12347  0029DE  0E00               	movlw	0
 12348  0029E0  6E4F               	movwf	_controlTransferState^0,c	;volatile
 12349                           
 12350                           ; BSR set to: 0
 12351  0029E2  0012               	return		;funcret
 12352  0029E4                     __end_of_USBCtrlTrfInHandler:
 12353                           	callstack 0
 12354                           
 12355 ;; *************** function _USBCtrlTrfTxService *****************
 12356 ;; Defined at:
 12357 ;;		line 1775 in file "mcc_generated_files/usb/usb_device.c"
 12358 ;; Parameters:    Size  Location     Type
 12359 ;;		None
 12360 ;; Auto vars:     Size  Location     Type
 12361 ;;  byteToSend      1    0[COMRAM] unsigned char 
 12362 ;; Return value:  Size  Location     Type
 12363 ;;                  1    wreg      void 
 12364 ;; Registers used:
 12365 ;;		wreg, fsr1l, fsr1h, fsr2l, fsr2h, status,2, status,0, tblptrl, tblptrh, tblptru
 12366 ;; Tracked objects:
 12367 ;;		On entry : 3B/4
 12368 ;;		On exit  : 3F/0
 12369 ;;		Unchanged: 0/0
 12370 ;; Data sizes:     COMRAM   BANK0   BANK1   BANK2   BANK3   BANK4   BANK5   BANK6   BANK7
 12371 ;;      Params:         0       0       0       0       0       0       0       0       0
 12372 ;;      Locals:         1       0       0       0       0       0       0       0       0
 12373 ;;      Temps:          0       0       0       0       0       0       0       0       0
 12374 ;;      Totals:         1       0       0       0       0       0       0       0       0
 12375 ;;Total ram usage:        1 bytes
 12376 ;; Hardware stack levels used: 1
 12377 ;; This function calls:
 12378 ;;		Nothing
 12379 ;; This function is called by:
 12380 ;;		_USBCtrlEPAllowDataStage
 12381 ;;		_USBCtrlTrfInHandler
 12382 ;; This function uses a non-reentrant model
 12383 ;;
 12384                           
 12385                           	psect	text71
 12386  0026CC                     __ptext71:
 12387                           	callstack 0
 12388  0026CC                     _USBCtrlTrfTxService:
 12389                           	callstack 16
 12390                           
 12391                           ;mcc_generated_files/usb/usb_device.c: 1777:     uint8_t byteToSend;;mcc_generated_files
      +                          /usb/usb_device.c: 1781:     byteToSend = 8;
 12392                           
 12393                           ; BSR set to: 0
 12394                           ;incstack = 0
 12395  0026CC  0E08               	movlw	8
 12396  0026CE  6E01               	movwf	USBCtrlTrfTxService@byteToSend^0,c
 12397                           
 12398                           ;mcc_generated_files/usb/usb_device.c: 1782:     if(inPipes[0].wCount.Val < (uint8_t)8)
 12399  0026D0  0100               	movlb	0	; () banked
 12400  0026D2  51CE               	movf	(_inPipes+5)& (0+255),w,b	;volatile
 12401  0026D4  E110               	bnz	i2l4654
 12402  0026D6  0E08               	movlw	8
 12403  0026D8  5DCD               	subwf	(_inPipes+4)& (0+255),w,b	;volatile
 12404  0026DA  B0D8               	btfsc	status,0,c
 12405  0026DC  D00C               	goto	i2l4654
 12406                           
 12407                           ; BSR set to: 0
 12408                           ;mcc_generated_files/usb/usb_device.c: 1783:     {;mcc_generated_files/usb/usb_device.c:
      +                           1784:         byteToSend = inPipes[0].wCount.Val;
 12409  0026DE  C0CD  F001         	movff	_inPipes+4,USBCtrlTrfTxService@byteToSend	;volatile
 12410                           
 12411                           ; BSR set to: 0
 12412                           ;mcc_generated_files/usb/usb_device.c: 1791:         if(shortPacketStatus == 0)
 12413  0026E2  5050               	movf	_shortPacketStatus^0,w,c	;volatile
 12414  0026E4  A4D8               	btfss	status,2,c
 12415  0026E6  D002               	goto	i2l4650
 12416                           
 12417                           ; BSR set to: 0
 12418                           ;mcc_generated_files/usb/usb_device.c: 1792:         {;mcc_generated_files/usb/usb_devic
      +                          e.c: 1793:             shortPacketStatus = 1;
 12419  0026E8  0E01               	movlw	1
 12420  0026EA  D004               	goto	L18
 12421  0026EC                     i2l4650:
 12422                           
 12423                           ; BSR set to: 0
 12424  0026EC  0450               	decf	_shortPacketStatus^0,w,c	;volatile
 12425  0026EE  A4D8               	btfss	status,2,c
 12426  0026F0  D002               	goto	i2l4654
 12427                           
 12428                           ; BSR set to: 0
 12429                           ;mcc_generated_files/usb/usb_device.c: 1796:         {;mcc_generated_files/usb/usb_devic
      +                          e.c: 1797:             shortPacketStatus = 2;
 12430  0026F2  0E02               	movlw	2
 12431  0026F4                     L18:
 12432  0026F4  6E50               	movwf	_shortPacketStatus^0,c	;volatile
 12433  0026F6                     i2l4654:
 12434                           
 12435                           ; BSR set to: 0
 12436                           ;mcc_generated_files/usb/usb_device.c: 1803:     inPipes[0].wCount.Val -= byteToSend;
 12437  0026F6  5001               	movf	USBCtrlTrfTxService@byteToSend^0,w,c
 12438  0026F8  5FCD               	subwf	(_inPipes+4)& (0+255),f,b	;volatile
 12439  0026FA  0E00               	movlw	0
 12440  0026FC  5BCE               	subwfb	(_inPipes+5)& (0+255),f,b	;volatile
 12441                           
 12442                           ; BSR set to: 0
 12443                           ;mcc_generated_files/usb/usb_device.c: 1808:     pBDTEntryIn[0]->CNT = byteToSend;
 12444  0026FE  EE20 F001          	lfsr	2,1
 12445  002702  51CF               	movf	_pBDTEntryIn& (0+255),w,b
 12446  002704  26D9               	addwf	fsr2l,f,c
 12447  002706  51D0               	movf	(_pBDTEntryIn+1)& (0+255),w,b
 12448  002708  22DA               	addwfc	fsr2h,f,c
 12449  00270A  C001  FFDF         	movff	USBCtrlTrfTxService@byteToSend,indf2
 12450                           
 12451                           ; BSR set to: 0
 12452                           ;mcc_generated_files/usb/usb_device.c: 1812:     pDst = (volatile uint8_t*)CtrlTrfData;
 12453  00270E  0E38               	movlw	56
 12454  002710  6E3A               	movwf	_pDst^0,c
 12455  002712  0E04               	movlw	4
 12456  002714  6E3B               	movwf	(_pDst+1)^0,c
 12457                           
 12458                           ; BSR set to: 0
 12459                           ;mcc_generated_files/usb/usb_device.c: 1813:     if(inPipes[0].info.bits.ctrl_trf_mem ==
      +                           0x00)
 12460  002716  A1CC               	btfss	(_inPipes+3)& (0+255),0,b	;volatile
 12461  002718  D01C               	goto	i2l4672
 12462  00271A  D03A               	goto	i2l4682
 12463  00271C                     i2l4664:
 12464                           
 12465                           ; BSR set to: 0
 12466                           ;mcc_generated_files/usb/usb_device.c: 1816:         {;mcc_generated_files/usb/usb_devic
      +                          e.c: 1817:             *pDst++ = *inPipes[0].pSrc.bRom++;
 12467  00271C  C0C9  FFF6         	movff	_inPipes,tblptrl	;volatile
 12468  002720  C0CA  FFF7         	movff	_inPipes+1,tblptrh	;volatile
 12469  002724  6AF8               	clrf	tblptru,c
 12470  002726  C03A  FFD9         	movff	_pDst,fsr2l
 12471  00272A  C03B  FFDA         	movff	_pDst+1,fsr2h
 12472  00272E  0E07               	movlw	(high __ramtop+-1)
 12473  002730  64F7               	cpfsgt	tblptrh,c
 12474  002732  D003               	bra	i2u270_47
 12475  002734  0008               	tblrd		*
 12476  002736  50F5               	movf	tablat,w,c
 12477  002738  D005               	bra	i2u270_40
 12478  00273A                     i2u270_47:
 12479  00273A  CFF6 FFE1          	movff	tblptrl,fsr1l
 12480  00273E  CFF7 FFE2          	movff	tblptrh,fsr1h
 12481  002742  50E7               	movf	indf1,w,c
 12482  002744                     i2u270_40:
 12483  002744  6EDF               	movwf	indf2,c
 12484  002746  0100               	movlb	0	; () banked
 12485  002748  4BC9               	infsnz	_inPipes& (0+255),f,b	;volatile
 12486  00274A  2BCA               	incf	(_inPipes+1)& (0+255),f,b	;volatile
 12487                           
 12488                           ; BSR set to: 0
 12489  00274C  4A3A               	infsnz	_pDst^0,f,c
 12490  00274E  2A3B               	incf	(_pDst+1)^0,f,c
 12491                           
 12492                           ; BSR set to: 0
 12493                           ;mcc_generated_files/usb/usb_device.c: 1818:             byteToSend--;
 12494  002750  0601               	decf	USBCtrlTrfTxService@byteToSend^0,f,c
 12495  002752                     i2l4672:
 12496                           
 12497                           ; BSR set to: 0
 12498                           ;mcc_generated_files/usb/usb_device.c: 1815:         while(byteToSend)
 12499  002752  5001               	movf	USBCtrlTrfTxService@byteToSend^0,w,c
 12500  002754  B4D8               	btfsc	status,2,c
 12501  002756  0012               	return	
 12502  002758  D7E1               	goto	i2l4664
 12503  00275A                     i2l4674:
 12504                           
 12505                           ; BSR set to: 0
 12506                           ;mcc_generated_files/usb/usb_device.c: 1824:         {;mcc_generated_files/usb/usb_devic
      +                          e.c: 1825:             *pDst++ = *inPipes[0].pSrc.bRam++;
 12507  00275A  C0C9  FFF6         	movff	_inPipes,tblptrl	;volatile
 12508  00275E  C0CA  FFF7         	movff	_inPipes+1,tblptrh	;volatile
 12509  002762  6AF8               	clrf	tblptru,c
 12510  002764  C03A  FFD9         	movff	_pDst,fsr2l
 12511  002768  C03B  FFDA         	movff	_pDst+1,fsr2h
 12512  00276C  0E07               	movlw	(high __ramtop+-1)
 12513  00276E  64F7               	cpfsgt	tblptrh,c
 12514  002770  D003               	bra	i2u272_47
 12515  002772  0008               	tblrd		*
 12516  002774  50F5               	movf	tablat,w,c
 12517  002776  D005               	bra	i2u272_40
 12518  002778                     i2u272_47:
 12519  002778  CFF6 FFE1          	movff	tblptrl,fsr1l
 12520  00277C  CFF7 FFE2          	movff	tblptrh,fsr1h
 12521  002780  50E7               	movf	indf1,w,c
 12522  002782                     i2u272_40:
 12523  002782  6EDF               	movwf	indf2,c
 12524  002784  0100               	movlb	0	; () banked
 12525  002786  4BC9               	infsnz	_inPipes& (0+255),f,b	;volatile
 12526  002788  2BCA               	incf	(_inPipes+1)& (0+255),f,b	;volatile
 12527                           
 12528                           ; BSR set to: 0
 12529  00278A  4A3A               	infsnz	_pDst^0,f,c
 12530  00278C  2A3B               	incf	(_pDst+1)^0,f,c
 12531                           
 12532                           ; BSR set to: 0
 12533                           ;mcc_generated_files/usb/usb_device.c: 1826:             byteToSend--;
 12534  00278E  0601               	decf	USBCtrlTrfTxService@byteToSend^0,f,c
 12535  002790                     i2l4682:
 12536                           
 12537                           ; BSR set to: 0
 12538                           ;mcc_generated_files/usb/usb_device.c: 1823:         while(byteToSend)
 12539  002790  5001               	movf	USBCtrlTrfTxService@byteToSend^0,w,c
 12540  002792  B4D8               	btfsc	status,2,c
 12541  002794  0012               	return	
 12542  002796  D7E1               	goto	i2l4674
 12543  002798                     __end_of_USBCtrlTrfTxService:
 12544                           	callstack 0
 12545                           
 12546 ;; *************** function _TMR3_ISR *****************
 12547 ;; Defined at:
 12548 ;;		line 158 in file "mcc_generated_files/tmr3.c"
 12549 ;; Parameters:    Size  Location     Type
 12550 ;;		None
 12551 ;; Auto vars:     Size  Location     Type
 12552 ;;		None
 12553 ;; Return value:  Size  Location     Type
 12554 ;;                  1    wreg      void 
 12555 ;; Registers used:
 12556 ;;		wreg, status,2, status,0, pcl, pclath, pclatu, tosl, cstack
 12557 ;; Tracked objects:
 12558 ;;		On entry : 0/0
 12559 ;;		On exit  : 0/0
 12560 ;;		Unchanged: 0/0
 12561 ;; Data sizes:     COMRAM   BANK0   BANK1   BANK2   BANK3   BANK4   BANK5   BANK6   BANK7
 12562 ;;      Params:         0       0       0       0       0       0       0       0       0
 12563 ;;      Locals:         0       0       0       0       0       0       0       0       0
 12564 ;;      Temps:          0       0       0       0       0       0       0       0       0
 12565 ;;      Totals:         0       0       0       0       0       0       0       0       0
 12566 ;;Total ram usage:        0 bytes
 12567 ;; Hardware stack levels used: 1
 12568 ;; Hardware stack levels required when called: 1
 12569 ;; This function calls:
 12570 ;;		Absolute function
 12571 ;;		_TMR3_DefaultInterruptHandler
 12572 ;;		_TMR3_WriteTimer
 12573 ;; This function is called by:
 12574 ;;		_INTERRUPT_InterruptManager
 12575 ;; This function uses a non-reentrant model
 12576 ;;
 12577                           
 12578                           	psect	text72
 12579  00344A                     __ptext72:
 12580                           	callstack 0
 12581  00344A                     _TMR3_ISR:
 12582                           	callstack 20
 12583                           
 12584                           ;mcc_generated_files/tmr3.c: 162:     PIR2bits.TMR3IF = 0;
 12585                           
 12586                           ; BSR set to: 0
 12587                           ;incstack = 0
 12588  00344A  92A1               	bcf	161,1,c	;volatile
 12589                           
 12590                           ;mcc_generated_files/tmr3.c: 163:     TMR3_WriteTimer(timer3ReloadVal);
 12591  00344C  C13A  F001         	movff	_timer3ReloadVal,TMR3_WriteTimer@timerVal	;volatile
 12592  003450  C13B  F002         	movff	_timer3ReloadVal+1,TMR3_WriteTimer@timerVal+1	;volatile
 12593  003454  EC17  F01B         	call	_TMR3_WriteTimer	;wreg free
 12594                           
 12595                           ;mcc_generated_files/tmr3.c: 165:     if(TMR3_InterruptHandler)
 12596  003458  0101               	movlb	1	; () banked
 12597  00345A  5138               	movf	_TMR3_InterruptHandler& (0+255),w,b
 12598  00345C  1139               	iorwf	(_TMR3_InterruptHandler+1)& (0+255),w,b
 12599  00345E  B4D8               	btfsc	status,2,c
 12600  003460  0012               	return	
 12601                           
 12602                           ; BSR set to: 1
 12603                           ;mcc_generated_files/tmr3.c: 166:     {;mcc_generated_files/tmr3.c: 167:         TMR3_In
      +                          terruptHandler();
 12604  003462  D801               	call	i2u509_48
 12605  003464  0012               	return	
 12606  003466                     i2u509_48:
 12607  003466  0005               	push	
 12608  003468  6EFA               	movwf	pclath,c
 12609  00346A  5138               	movf	_TMR3_InterruptHandler& (0+255),w,b
 12610  00346C  6EFD               	movwf	tosl,c
 12611  00346E  5139               	movf	(_TMR3_InterruptHandler+1)& (0+255),w,b
 12612  003470  6EFE               	movwf	tosh,c
 12613  003472  50F8               	movf	tblptru,w,c
 12614  003474  6EFF               	movwf	tosu,c
 12615  003476  50FA               	movf	pclath,w,c
 12616  003478  0012               	return		;indir
 12617  00347A                     __end_of_TMR3_ISR:
 12618                           	callstack 0
 12619                           
 12620 ;; *************** function _TMR3_WriteTimer *****************
 12621 ;; Defined at:
 12622 ;;		line 121 in file "mcc_generated_files/tmr3.c"
 12623 ;; Parameters:    Size  Location     Type
 12624 ;;  timerVal        2    0[COMRAM] unsigned short 
 12625 ;; Auto vars:     Size  Location     Type
 12626 ;;		None
 12627 ;; Return value:  Size  Location     Type
 12628 ;;                  1    wreg      void 
 12629 ;; Registers used:
 12630 ;;		None
 12631 ;; Tracked objects:
 12632 ;;		On entry : 0/0
 12633 ;;		On exit  : 0/0
 12634 ;;		Unchanged: 0/0
 12635 ;; Data sizes:     COMRAM   BANK0   BANK1   BANK2   BANK3   BANK4   BANK5   BANK6   BANK7
 12636 ;;      Params:         2       0       0       0       0       0       0       0       0
 12637 ;;      Locals:         0       0       0       0       0       0       0       0       0
 12638 ;;      Temps:          0       0       0       0       0       0       0       0       0
 12639 ;;      Totals:         2       0       0       0       0       0       0       0       0
 12640 ;;Total ram usage:        2 bytes
 12641 ;; Hardware stack levels used: 1
 12642 ;; This function calls:
 12643 ;;		Nothing
 12644 ;; This function is called by:
 12645 ;;		_TMR3_ISR
 12646 ;; This function uses a non-reentrant model
 12647 ;;
 12648                           
 12649                           	psect	text73
 12650  00362E                     __ptext73:
 12651                           	callstack 0
 12652  00362E                     _TMR3_WriteTimer:
 12653                           	callstack 20
 12654                           
 12655                           ;mcc_generated_files/tmr3.c: 121: void TMR3_WriteTimer(uint16_t timerVal);mcc_generated_
      +                          files/tmr3.c: 122: {;mcc_generated_files/tmr3.c: 123:     if (T3CONbits.T3SYNC == 1)
 12656                           
 12657                           ;incstack = 0
 12658  00362E  A4B1               	btfss	177,2,c	;volatile
 12659  003630  D007               	goto	i2l695
 12660                           
 12661                           ;mcc_generated_files/tmr3.c: 124:     {;mcc_generated_files/tmr3.c: 126:         T3CONbi
      +                          ts.TMR3ON = 0;
 12662  003632  90B1               	bcf	177,0,c	;volatile
 12663                           
 12664                           ;mcc_generated_files/tmr3.c: 129:         TMR3H = (uint8_t)(timerVal >> 8);
 12665  003634  C002  FFB3         	movff	TMR3_WriteTimer@timerVal+1,4019	;volatile
 12666                           
 12667                           ;mcc_generated_files/tmr3.c: 130:         TMR3L = (uint8_t)timerVal;
 12668  003638  C001  FFB2         	movff	TMR3_WriteTimer@timerVal,4018	;volatile
 12669                           
 12670                           ;mcc_generated_files/tmr3.c: 133:         T3CONbits.TMR3ON =1;
 12671  00363C  80B1               	bsf	177,0,c	;volatile
 12672                           
 12673                           ;mcc_generated_files/tmr3.c: 134:     }
 12674  00363E  0012               	return	
 12675  003640                     i2l695:
 12676                           
 12677                           ;mcc_generated_files/tmr3.c: 136:     {;mcc_generated_files/tmr3.c: 138:         TMR3H =
      +                           (uint8_t)(timerVal >> 8);
 12678  003640  C002  FFB3         	movff	TMR3_WriteTimer@timerVal+1,4019	;volatile
 12679                           
 12680                           ;mcc_generated_files/tmr3.c: 139:         TMR3L = (uint8_t)timerVal;
 12681  003644  C001  FFB2         	movff	TMR3_WriteTimer@timerVal,4018	;volatile
 12682  003648  0012               	return		;funcret
 12683  00364A                     __end_of_TMR3_WriteTimer:
 12684                           	callstack 0
 12685                           
 12686 ;; *************** function _TMR3_DefaultInterruptHandler *****************
 12687 ;; Defined at:
 12688 ;;		line 176 in file "mcc_generated_files/tmr3.c"
 12689 ;; Parameters:    Size  Location     Type
 12690 ;;		None
 12691 ;; Auto vars:     Size  Location     Type
 12692 ;;		None
 12693 ;; Return value:  Size  Location     Type
 12694 ;;                  1    wreg      void 
 12695 ;; Registers used:
 12696 ;;		None
 12697 ;; Tracked objects:
 12698 ;;		On entry : 3F/1
 12699 ;;		On exit  : 3F/1
 12700 ;;		Unchanged: 3F/0
 12701 ;; Data sizes:     COMRAM   BANK0   BANK1   BANK2   BANK3   BANK4   BANK5   BANK6   BANK7
 12702 ;;      Params:         0       0       0       0       0       0       0       0       0
 12703 ;;      Locals:         0       0       0       0       0       0       0       0       0
 12704 ;;      Temps:          0       0       0       0       0       0       0       0       0
 12705 ;;      Totals:         0       0       0       0       0       0       0       0       0
 12706 ;;Total ram usage:        0 bytes
 12707 ;; Hardware stack levels used: 1
 12708 ;; This function calls:
 12709 ;;		Nothing
 12710 ;; This function is called by:
 12711 ;;		_TMR3_Initialize
 12712 ;;		_TMR3_ISR
 12713 ;; This function uses a non-reentrant model
 12714 ;;
 12715                           
 12716                           	psect	text74
 12717  0036C6                     __ptext74:
 12718                           	callstack 0
 12719  0036C6                     _TMR3_DefaultInterruptHandler:
 12720                           	callstack 20
 12721                           
 12722                           ; BSR set to: 1
 12723                           
 12724                           ;incstack = 0
 12725  0036C6  0012               	return		;funcret
 12726  0036C8                     __end_of_TMR3_DefaultInterruptHandler:
 12727                           	callstack 0
 12728                           
 12729 ;; *************** function _TMR2_ISR *****************
 12730 ;; Defined at:
 12731 ;;		line 119 in file "mcc_generated_files/tmr2.c"
 12732 ;; Parameters:    Size  Location     Type
 12733 ;;		None
 12734 ;; Auto vars:     Size  Location     Type
 12735 ;;		None
 12736 ;; Return value:  Size  Location     Type
 12737 ;;                  1    wreg      void 
 12738 ;; Registers used:
 12739 ;;		wreg, status,2, status,0, pcl, pclath, pclatu, tosl, cstack
 12740 ;; Tracked objects:
 12741 ;;		On entry : 0/0
 12742 ;;		On exit  : 0/0
 12743 ;;		Unchanged: 0/0
 12744 ;; Data sizes:     COMRAM   BANK0   BANK1   BANK2   BANK3   BANK4   BANK5   BANK6   BANK7
 12745 ;;      Params:         0       0       0       0       0       0       0       0       0
 12746 ;;      Locals:         0       0       0       0       0       0       0       0       0
 12747 ;;      Temps:          0       0       0       0       0       0       0       0       0
 12748 ;;      Totals:         0       0       0       0       0       0       0       0       0
 12749 ;;Total ram usage:        0 bytes
 12750 ;; Hardware stack levels used: 1
 12751 ;; Hardware stack levels required when called: 2
 12752 ;; This function calls:
 12753 ;;		Absolute function
 12754 ;;		_MY_TMR2_ISR
 12755 ;;		_TMR2_DefaultInterruptHandler
 12756 ;; This function is called by:
 12757 ;;		_INTERRUPT_InterruptManager
 12758 ;; This function uses a non-reentrant model
 12759 ;;
 12760                           
 12761                           	psect	text75
 12762  0035AE                     __ptext75:
 12763                           	callstack 0
 12764  0035AE                     _TMR2_ISR:
 12765                           	callstack 19
 12766                           
 12767                           ;mcc_generated_files/tmr2.c: 123:     PIR1bits.TMR2IF = 0;
 12768                           
 12769                           ; BSR set to: 1
 12770                           ;incstack = 0
 12771  0035AE  929E               	bcf	158,1,c	;volatile
 12772                           
 12773                           ;mcc_generated_files/tmr2.c: 125:     if(TMR2_InterruptHandler)
 12774  0035B0  0101               	movlb	1	; () banked
 12775  0035B2  5136               	movf	_TMR2_InterruptHandler& (0+255),w,b
 12776  0035B4  1137               	iorwf	(_TMR2_InterruptHandler+1)& (0+255),w,b
 12777  0035B6  B4D8               	btfsc	status,2,c
 12778  0035B8  0012               	return	
 12779                           
 12780                           ; BSR set to: 1
 12781                           ;mcc_generated_files/tmr2.c: 126:     {;mcc_generated_files/tmr2.c: 127:         TMR2_In
      +                          terruptHandler();
 12782  0035BA  D801               	call	i2u511_48
 12783  0035BC  0012               	return	
 12784  0035BE                     i2u511_48:
 12785  0035BE  0005               	push	
 12786  0035C0  6EFA               	movwf	pclath,c
 12787  0035C2  5136               	movf	_TMR2_InterruptHandler& (0+255),w,b
 12788  0035C4  6EFD               	movwf	tosl,c
 12789  0035C6  5137               	movf	(_TMR2_InterruptHandler+1)& (0+255),w,b
 12790  0035C8  6EFE               	movwf	tosh,c
 12791  0035CA  50F8               	movf	tblptru,w,c
 12792  0035CC  6EFF               	movwf	tosu,c
 12793  0035CE  50FA               	movf	pclath,w,c
 12794  0035D0  0012               	return		;indir
 12795  0035D2                     __end_of_TMR2_ISR:
 12796                           	callstack 0
 12797                           
 12798 ;; *************** function _MY_TMR2_ISR *****************
 12799 ;; Defined at:
 12800 ;;		line 14 in file "guia.c"
 12801 ;; Parameters:    Size  Location     Type
 12802 ;;		None
 12803 ;; Auto vars:     Size  Location     Type
 12804 ;;		None
 12805 ;; Return value:  Size  Location     Type
 12806 ;;                  1    wreg      void 
 12807 ;; Registers used:
 12808 ;;		wreg, status,2, status,0, cstack
 12809 ;; Tracked objects:
 12810 ;;		On entry : 3F/1
 12811 ;;		On exit  : 3F/1
 12812 ;;		Unchanged: 0/0
 12813 ;; Data sizes:     COMRAM   BANK0   BANK1   BANK2   BANK3   BANK4   BANK5   BANK6   BANK7
 12814 ;;      Params:         0       0       0       0       0       0       0       0       0
 12815 ;;      Locals:         0       0       0       0       0       0       0       0       0
 12816 ;;      Temps:          1       0       0       0       0       0       0       0       0
 12817 ;;      Totals:         1       0       0       0       0       0       0       0       0
 12818 ;;Total ram usage:        1 bytes
 12819 ;; Hardware stack levels used: 1
 12820 ;; Hardware stack levels required when called: 1
 12821 ;; This function calls:
 12822 ;;		_TMR2_WriteTimer
 12823 ;;		i2_TMR2_StopTimer
 12824 ;; This function is called by:
 12825 ;;		_main
 12826 ;;		_TMR2_ISR
 12827 ;; This function uses a non-reentrant model
 12828 ;;
 12829                           
 12830                           	psect	text76
 12831  0030AA                     __ptext76:
 12832                           	callstack 0
 12833  0030AA                     _MY_TMR2_ISR:
 12834                           	callstack 19
 12835                           
 12836                           ; BSR set to: 1
 12837                           ;guia.c: 15:    LATBbits.LATB6 = ~LATBbits.LATB6;
 12838                           
 12839                           ;incstack = 0
 12840  0030AA  AC8A               	btfss	138,6,c	;volatile
 12841  0030AC  D002               	goto	i2u442_40
 12842  0030AE  0E01               	movlw	1
 12843  0030B0  D001               	goto	i2u442_46
 12844  0030B2                     i2u442_40:
 12845  0030B2  0E00               	movlw	0
 12846  0030B4                     i2u442_46:
 12847  0030B4  0AFF               	xorlw	255
 12848  0030B6  6E02               	movwf	??_MY_TMR2_ISR^0,c
 12849  0030B8  3A02               	swapf	??_MY_TMR2_ISR^0,f,c
 12850  0030BA  4602               	rlncf	??_MY_TMR2_ISR^0,f,c
 12851  0030BC  4602               	rlncf	??_MY_TMR2_ISR^0,f,c
 12852  0030BE  508A               	movf	138,w,c	;volatile
 12853  0030C0  1802               	xorwf	??_MY_TMR2_ISR^0,w,c
 12854  0030C2  0BBF               	andlw	-65
 12855  0030C4  1802               	xorwf	??_MY_TMR2_ISR^0,w,c
 12856  0030C6  6E8A               	movwf	138,c	;volatile
 12857                           
 12858                           ; BSR set to: 1
 12859                           ;guia.c: 16:     TMR2_WriteTimer(127);
 12860  0030C8  0E7F               	movlw	127
 12861  0030CA  EC56  F01B         	call	_TMR2_WriteTimer
 12862                           
 12863                           ;guia.c: 17:    if(flag == 0) flag = 1;
 12864  0030CE  0101               	movlb	1	; () banked
 12865  0030D0  512E               	movf	_flag& (0+255),w,b
 12866  0030D2  112F               	iorwf	(_flag+1)& (0+255),w,b
 12867  0030D4  A4D8               	btfss	status,2,c
 12868  0030D6  D005               	goto	i2l5968
 12869                           
 12870                           ; BSR set to: 1
 12871  0030D8  0E00               	movlw	0
 12872  0030DA  6F2F               	movwf	(_flag+1)& (0+255),b
 12873  0030DC  0E01               	movlw	1
 12874  0030DE  6F2E               	movwf	_flag& (0+255),b
 12875  0030E0  0012               	return	
 12876  0030E2                     i2l5968:
 12877                           
 12878                           ; BSR set to: 1
 12879                           ;guia.c: 19:       pasos = pasos - 1;
 12880  0030E2  0EFF               	movlw	255
 12881  0030E4  2436               	addwf	_pasos^0,w,c	;volatile
 12882  0030E6  6E36               	movwf	_pasos^0,c	;volatile
 12883  0030E8  0EFF               	movlw	255
 12884  0030EA  2037               	addwfc	(_pasos+1)^0,w,c	;volatile
 12885  0030EC  6E37               	movwf	(_pasos+1)^0,c	;volatile
 12886                           
 12887                           ; BSR set to: 1
 12888                           ;guia.c: 20:       flag=0;
 12889  0030EE  0E00               	movlw	0
 12890  0030F0  6F2F               	movwf	(_flag+1)& (0+255),b
 12891  0030F2  0E00               	movlw	0
 12892  0030F4  6F2E               	movwf	_flag& (0+255),b
 12893                           
 12894                           ; BSR set to: 1
 12895                           ;guia.c: 21:       if(pasos==0){
 12896  0030F6  5036               	movf	_pasos^0,w,c	;volatile
 12897  0030F8  1037               	iorwf	(_pasos+1)^0,w,c	;volatile
 12898  0030FA  A4D8               	btfss	status,2,c
 12899  0030FC  0012               	return	
 12900                           
 12901                           ; BSR set to: 1
 12902                           ;guia.c: 22:          busy=0;
 12903  0030FE  0E00               	movlw	0
 12904  003100  6E40               	movwf	_busy^0,c
 12905                           
 12906                           ; BSR set to: 1
 12907                           ;guia.c: 23:          LATBbits.LATB0=1;
 12908  003102  808A               	bsf	138,0,c	;volatile
 12909                           
 12910                           ; BSR set to: 1
 12911                           ;guia.c: 24:          TMR2_StopTimer();
 12912  003104  EC60  F01B         	call	i2_TMR2_StopTimer	;wreg free
 12913                           
 12914                           ; BSR set to: 1
 12915  003108  0012               	return		;funcret
 12916  00310A                     __end_of_MY_TMR2_ISR:
 12917                           	callstack 0
 12918                           
 12919 ;; *************** function _TMR2_DefaultInterruptHandler *****************
 12920 ;; Defined at:
 12921 ;;		line 136 in file "mcc_generated_files/tmr2.c"
 12922 ;; Parameters:    Size  Location     Type
 12923 ;;		None
 12924 ;; Auto vars:     Size  Location     Type
 12925 ;;		None
 12926 ;; Return value:  Size  Location     Type
 12927 ;;                  1    wreg      void 
 12928 ;; Registers used:
 12929 ;;		None
 12930 ;; Tracked objects:
 12931 ;;		On entry : 3F/1
 12932 ;;		On exit  : 3F/1
 12933 ;;		Unchanged: 3F/0
 12934 ;; Data sizes:     COMRAM   BANK0   BANK1   BANK2   BANK3   BANK4   BANK5   BANK6   BANK7
 12935 ;;      Params:         0       0       0       0       0       0       0       0       0
 12936 ;;      Locals:         0       0       0       0       0       0       0       0       0
 12937 ;;      Temps:          0       0       0       0       0       0       0       0       0
 12938 ;;      Totals:         0       0       0       0       0       0       0       0       0
 12939 ;;Total ram usage:        0 bytes
 12940 ;; Hardware stack levels used: 1
 12941 ;; This function calls:
 12942 ;;		Nothing
 12943 ;; This function is called by:
 12944 ;;		_TMR2_Initialize
 12945 ;;		_TMR2_ISR
 12946 ;; This function uses a non-reentrant model
 12947 ;;
 12948                           
 12949                           	psect	text77
 12950  0036C8                     __ptext77:
 12951                           	callstack 0
 12952  0036C8                     _TMR2_DefaultInterruptHandler:
 12953                           	callstack 20
 12954                           
 12955                           ; BSR set to: 1
 12956                           
 12957                           ; BSR set to: 1
 12958                           ;incstack = 0
 12959  0036C8  0012               	return		;funcret
 12960  0036CA                     __end_of_TMR2_DefaultInterruptHandler:
 12961                           	callstack 0
 12962                           
 12963 ;; *************** function i2_TMR2_StopTimer *****************
 12964 ;; Defined at:
 12965 ;;		line 93 in file "mcc_generated_files/tmr2.c"
 12966 ;; Parameters:    Size  Location     Type
 12967 ;;		None
 12968 ;; Auto vars:     Size  Location     Type
 12969 ;;		None
 12970 ;; Return value:  Size  Location     Type
 12971 ;;                  1    wreg      void 
 12972 ;; Registers used:
 12973 ;;		None
 12974 ;; Tracked objects:
 12975 ;;		On entry : 3F/1
 12976 ;;		On exit  : 3F/1
 12977 ;;		Unchanged: 3F/0
 12978 ;; Data sizes:     COMRAM   BANK0   BANK1   BANK2   BANK3   BANK4   BANK5   BANK6   BANK7
 12979 ;;      Params:         0       0       0       0       0       0       0       0       0
 12980 ;;      Locals:         0       0       0       0       0       0       0       0       0
 12981 ;;      Temps:          0       0       0       0       0       0       0       0       0
 12982 ;;      Totals:         0       0       0       0       0       0       0       0       0
 12983 ;;Total ram usage:        0 bytes
 12984 ;; Hardware stack levels used: 1
 12985 ;; This function calls:
 12986 ;;		Nothing
 12987 ;; This function is called by:
 12988 ;;		_MY_TMR2_ISR
 12989 ;; This function uses a non-reentrant model
 12990 ;;
 12991                           
 12992                           	psect	text78
 12993  0036C0                     __ptext78:
 12994                           	callstack 0
 12995  0036C0                     i2_TMR2_StopTimer:
 12996                           	callstack 19
 12997                           
 12998                           ; BSR set to: 1
 12999                           ;mcc_generated_files/tmr2.c: 96:     T2CONbits.TMR2ON = 0;
 13000                           
 13001                           ; BSR set to: 1
 13002                           ;incstack = 0
 13003  0036C0  94BA               	bcf	186,2,c	;volatile
 13004                           
 13005                           ; BSR set to: 1
 13006  0036C2  0012               	return		;funcret
 13007  0036C4                     __end_ofi2_TMR2_StopTimer:
 13008                           	callstack 0
 13009                           
 13010 ;; *************** function _TMR2_WriteTimer *****************
 13011 ;; Defined at:
 13012 ;;		line 108 in file "mcc_generated_files/tmr2.c"
 13013 ;; Parameters:    Size  Location     Type
 13014 ;;  timerVal        1    wreg     unsigned char 
 13015 ;; Auto vars:     Size  Location     Type
 13016 ;;  timerVal        1    0[COMRAM] unsigned char 
 13017 ;; Return value:  Size  Location     Type
 13018 ;;                  1    wreg      void 
 13019 ;; Registers used:
 13020 ;;		wreg
 13021 ;; Tracked objects:
 13022 ;;		On entry : 3F/1
 13023 ;;		On exit  : 0/0
 13024 ;;		Unchanged: 0/0
 13025 ;; Data sizes:     COMRAM   BANK0   BANK1   BANK2   BANK3   BANK4   BANK5   BANK6   BANK7
 13026 ;;      Params:         0       0       0       0       0       0       0       0       0
 13027 ;;      Locals:         1       0       0       0       0       0       0       0       0
 13028 ;;      Temps:          0       0       0       0       0       0       0       0       0
 13029 ;;      Totals:         1       0       0       0       0       0       0       0       0
 13030 ;;Total ram usage:        1 bytes
 13031 ;; Hardware stack levels used: 1
 13032 ;; This function calls:
 13033 ;;		Nothing
 13034 ;; This function is called by:
 13035 ;;		_MY_TMR2_ISR
 13036 ;;		_mover_2
 13037 ;; This function uses a non-reentrant model
 13038 ;;
 13039                           
 13040                           	psect	text79
 13041  0036AC                     __ptext79:
 13042                           	callstack 0
 13043  0036AC                     _TMR2_WriteTimer:
 13044                           	callstack 19
 13045                           
 13046                           ; BSR set to: 1
 13047                           ;incstack = 0
 13048                           ;TMR2_WriteTimer@timerVal stored from wreg
 13049  0036AC  6E01               	movwf	TMR2_WriteTimer@timerVal^0,c
 13050                           
 13051                           ;mcc_generated_files/tmr2.c: 108: void TMR2_WriteTimer(uint8_t timerVal);mcc_generated_f
      +                          iles/tmr2.c: 109: {;mcc_generated_files/tmr2.c: 111:     TMR2 = timerVal;
 13052  0036AE  C001  FFBC         	movff	TMR2_WriteTimer@timerVal,4028	;volatile
 13053  0036B2  0012               	return		;funcret
 13054  0036B4                     __end_of_TMR2_WriteTimer:
 13055                           	callstack 0
 13056                           
 13057 ;; *************** function _TMR0_ISR *****************
 13058 ;; Defined at:
 13059 ;;		line 136 in file "mcc_generated_files/tmr0.c"
 13060 ;; Parameters:    Size  Location     Type
 13061 ;;		None
 13062 ;; Auto vars:     Size  Location     Type
 13063 ;;		None
 13064 ;; Return value:  Size  Location     Type
 13065 ;;                  1    wreg      void 
 13066 ;; Registers used:
 13067 ;;		wreg, status,2, status,0, pcl, pclath, pclatu, tosl, cstack
 13068 ;; Tracked objects:
 13069 ;;		On entry : 0/0
 13070 ;;		On exit  : 0/0
 13071 ;;		Unchanged: 0/0
 13072 ;; Data sizes:     COMRAM   BANK0   BANK1   BANK2   BANK3   BANK4   BANK5   BANK6   BANK7
 13073 ;;      Params:         0       0       0       0       0       0       0       0       0
 13074 ;;      Locals:         0       0       0       0       0       0       0       0       0
 13075 ;;      Temps:          0       0       0       0       0       0       0       0       0
 13076 ;;      Totals:         0       0       0       0       0       0       0       0       0
 13077 ;;Total ram usage:        0 bytes
 13078 ;; Hardware stack levels used: 1
 13079 ;; Hardware stack levels required when called: 1
 13080 ;; This function calls:
 13081 ;;		Absolute function
 13082 ;;		_TMR0_DefaultInterruptHandler
 13083 ;; This function is called by:
 13084 ;;		_INTERRUPT_InterruptManager
 13085 ;; This function uses a non-reentrant model
 13086 ;;
 13087                           
 13088                           	psect	text80
 13089  00352E                     __ptext80:
 13090                           	callstack 0
 13091  00352E                     _TMR0_ISR:
 13092                           	callstack 20
 13093                           
 13094                           ;mcc_generated_files/tmr0.c: 140:     INTCONbits.TMR0IF = 0;
 13095                           
 13096                           ;incstack = 0
 13097  00352E  94F2               	bcf	242,2,c	;volatile
 13098                           
 13099                           ;mcc_generated_files/tmr0.c: 144:     TMR0H = timer0ReloadVal >> 8;
 13100  003530  C039  FFD7         	movff	_timer0ReloadVal+1,4055	;volatile
 13101                           
 13102                           ;mcc_generated_files/tmr0.c: 145:     TMR0L = (uint8_t) timer0ReloadVal;
 13103  003534  C038  FFD6         	movff	_timer0ReloadVal,4054	;volatile
 13104                           
 13105                           ;mcc_generated_files/tmr0.c: 147:     if(TMR0_InterruptHandler)
 13106  003538  0101               	movlb	1	; () banked
 13107  00353A  5132               	movf	_TMR0_InterruptHandler& (0+255),w,b
 13108  00353C  1133               	iorwf	(_TMR0_InterruptHandler+1)& (0+255),w,b
 13109  00353E  B4D8               	btfsc	status,2,c
 13110  003540  0012               	return	
 13111                           
 13112                           ; BSR set to: 1
 13113                           ;mcc_generated_files/tmr0.c: 148:     {;mcc_generated_files/tmr0.c: 149:         TMR0_In
      +                          terruptHandler();
 13114  003542  D801               	call	i2u507_48
 13115  003544  0012               	return	
 13116  003546                     i2u507_48:
 13117  003546  0005               	push	
 13118  003548  6EFA               	movwf	pclath,c
 13119  00354A  5132               	movf	_TMR0_InterruptHandler& (0+255),w,b
 13120  00354C  6EFD               	movwf	tosl,c
 13121  00354E  5133               	movf	(_TMR0_InterruptHandler+1)& (0+255),w,b
 13122  003550  6EFE               	movwf	tosh,c
 13123  003552  50F8               	movf	tblptru,w,c
 13124  003554  6EFF               	movwf	tosu,c
 13125  003556  50FA               	movf	pclath,w,c
 13126  003558  0012               	return		;indir
 13127  00355A                     __end_of_TMR0_ISR:
 13128                           	callstack 0
 13129                           
 13130 ;; *************** function _TMR0_DefaultInterruptHandler *****************
 13131 ;; Defined at:
 13132 ;;		line 160 in file "mcc_generated_files/tmr0.c"
 13133 ;; Parameters:    Size  Location     Type
 13134 ;;		None
 13135 ;; Auto vars:     Size  Location     Type
 13136 ;;		None
 13137 ;; Return value:  Size  Location     Type
 13138 ;;                  1    wreg      void 
 13139 ;; Registers used:
 13140 ;;		None
 13141 ;; Tracked objects:
 13142 ;;		On entry : 3F/1
 13143 ;;		On exit  : 3F/1
 13144 ;;		Unchanged: 3F/0
 13145 ;; Data sizes:     COMRAM   BANK0   BANK1   BANK2   BANK3   BANK4   BANK5   BANK6   BANK7
 13146 ;;      Params:         0       0       0       0       0       0       0       0       0
 13147 ;;      Locals:         0       0       0       0       0       0       0       0       0
 13148 ;;      Temps:          0       0       0       0       0       0       0       0       0
 13149 ;;      Totals:         0       0       0       0       0       0       0       0       0
 13150 ;;Total ram usage:        0 bytes
 13151 ;; Hardware stack levels used: 1
 13152 ;; This function calls:
 13153 ;;		Nothing
 13154 ;; This function is called by:
 13155 ;;		_TMR0_Initialize
 13156 ;;		_TMR0_ISR
 13157 ;; This function uses a non-reentrant model
 13158 ;;
 13159                           
 13160                           	psect	text81
 13161  0036CA                     __ptext81:
 13162                           	callstack 0
 13163  0036CA                     _TMR0_DefaultInterruptHandler:
 13164                           	callstack 20
 13165                           
 13166                           ; BSR set to: 1
 13167                           
 13168                           ;incstack = 0
 13169  0036CA  0012               	return		;funcret
 13170  0036CC                     __end_of_TMR0_DefaultInterruptHandler:
 13171                           	callstack 0
 13172                           
 13173                           	psect	text82
 13174  000000                     __ptext82:
 13175                           	callstack 0
 13176                           
 13177                           	psect	rparam
 13178  0000                     
 13179                           	psect	temp
 13180  000056                     btemp:
 13181                           	callstack 0
 13182  000056                     	ds	1
 13183  0000                     int$flags	set	btemp
 13184  0000                     wtemp8	set	btemp+1
 13185  0000                     ttemp5	set	btemp+1
 13186  0000                     ttemp6	set	btemp+4
 13187  0000                     ttemp7	set	btemp+8
 13188                           
 13189                           	psect	idloc
 13190                           
 13191                           ;Config register IDLOC0 @ 0x200000
 13192                           ;	unspecified, using default values
 13193  200000                     	org	2097152
 13194  200000  FF                 	db	255
 13195                           
 13196                           ;Config register IDLOC1 @ 0x200001
 13197                           ;	unspecified, using default values
 13198  200001                     	org	2097153
 13199  200001  FF                 	db	255
 13200                           
 13201                           ;Config register IDLOC2 @ 0x200002
 13202                           ;	unspecified, using default values
 13203  200002                     	org	2097154
 13204  200002  FF                 	db	255
 13205                           
 13206                           ;Config register IDLOC3 @ 0x200003
 13207                           ;	unspecified, using default values
 13208  200003                     	org	2097155
 13209  200003  FF                 	db	255
 13210                           
 13211                           ;Config register IDLOC4 @ 0x200004
 13212                           ;	unspecified, using default values
 13213  200004                     	org	2097156
 13214  200004  FF                 	db	255
 13215                           
 13216                           ;Config register IDLOC5 @ 0x200005
 13217                           ;	unspecified, using default values
 13218  200005                     	org	2097157
 13219  200005  FF                 	db	255
 13220                           
 13221                           ;Config register IDLOC6 @ 0x200006
 13222                           ;	unspecified, using default values
 13223  200006                     	org	2097158
 13224  200006  FF                 	db	255
 13225                           
 13226                           ;Config register IDLOC7 @ 0x200007
 13227                           ;	unspecified, using default values
 13228  200007                     	org	2097159
 13229  200007  FF                 	db	255
 13230                           
 13231                           	psect	config
 13232                           
 13233                           ;Config register CONFIG1L @ 0x300000
 13234                           ;	PLL Selection
 13235                           ;	PLLSEL = PLL3X, 3x clock multiplier
 13236                           ;	PLL Enable Configuration bit
 13237                           ;	CFGPLLEN = ON, PLL Enabled
 13238                           ;	CPU System Clock Postscaler
 13239                           ;	CPUDIV = NOCLKDIV, CPU uses system clock (no divide)
 13240                           ;	Low Speed USB mode with 48 MHz system clock
 13241                           ;	LS48MHZ = SYS48X8, System clock at 48 MHz, USB clock divider is set to 8
 13242  300000                     	org	3145728
 13243  300000  23                 	db	35
 13244                           
 13245                           ;Config register CONFIG1H @ 0x300001
 13246                           ;	Oscillator Selection
 13247                           ;	FOSC = INTOSCIO, Internal oscillator
 13248                           ;	Primary Oscillator Shutdown
 13249                           ;	PCLKEN = ON, Primary oscillator enabled
 13250                           ;	Fail-Safe Clock Monitor
 13251                           ;	FCMEN = OFF, Fail-Safe Clock Monitor disabled
 13252                           ;	Internal/External Oscillator Switchover
 13253                           ;	IESO = OFF, Oscillator Switchover mode disabled
 13254  300001                     	org	3145729
 13255  300001  28                 	db	40
 13256                           
 13257                           ;Config register CONFIG2L @ 0x300002
 13258                           ;	Power-up Timer Enable
 13259                           ;	nPWRTEN = OFF, Power up timer disabled
 13260                           ;	Brown-out Reset Enable
 13261                           ;	BOREN = SBORDIS, BOR enabled in hardware (SBOREN is ignored)
 13262                           ;	Brown-out Reset Voltage
 13263                           ;	BORV = 190, BOR set to 1.9V nominal
 13264                           ;	Low-Power Brown-out Reset
 13265                           ;	nLPBOR = OFF, Low-Power Brown-out Reset disabled
 13266  300002                     	org	3145730
 13267  300002  5F                 	db	95
 13268                           
 13269                           ;Config register CONFIG2H @ 0x300003
 13270                           ;	Watchdog Timer Enable bits
 13271                           ;	WDTEN = OFF, WDT disabled in hardware (SWDTEN ignored)
 13272                           ;	Watchdog Timer Postscaler
 13273                           ;	WDTPS = 32768, 1:32768
 13274  300003                     	org	3145731
 13275  300003  3C                 	db	60
 13276                           
 13277                           ; Padding undefined space
 13278  300004                     	org	3145732
 13279  300004  FF                 	db	255
 13280                           
 13281                           ;Config register CONFIG3H @ 0x300005
 13282                           ;	CCP2 MUX bit
 13283                           ;	CCP2MX = RC1, CCP2 input/output is multiplexed with RC1
 13284                           ;	PORTB A/D Enable bit
 13285                           ;	PBADEN = ON, PORTB<5:0> pins are configured as analog input channels on Reset
 13286                           ;	Timer3 Clock Input MUX bit
 13287                           ;	T3CMX = RC0, T3CKI function is on RC0
 13288                           ;	SDO Output MUX bit
 13289                           ;	SDOMX = RB3, SDO function is on RB3
 13290                           ;	Master Clear Reset Pin Enable
 13291                           ;	MCLRE = OFF, RE3 input pin enabled; external MCLR disabled
 13292  300005                     	org	3145733
 13293  300005  53                 	db	83
 13294                           
 13295                           ;Config register CONFIG4L @ 0x300006
 13296                           ;	Stack Full/Underflow Reset
 13297                           ;	STVREN = ON, Stack full/underflow will cause Reset
 13298                           ;	Single-Supply ICSP Enable bit
 13299                           ;	LVP = OFF, Single-Supply ICSP disabled
 13300                           ;	Dedicated In-Circuit Debug/Programming Port Enable
 13301                           ;	ICPRT = OFF, ICPORT disabled
 13302                           ;	Extended Instruction Set Enable bit
 13303                           ;	XINST = OFF, Instruction set extension and Indexed Addressing mode disabled
 13304                           ;	Background Debugger Enable bit
 13305                           ;	DEBUG = OFF, Background debugger disabled, RB6 and RB7 configured as general purpose I
      +                          /O pins
 13306  300006                     	org	3145734
 13307  300006  81                 	db	129
 13308                           
 13309                           ; Padding undefined space
 13310  300007                     	org	3145735
 13311  300007  FF                 	db	255
 13312                           
 13313                           ;Config register CONFIG5L @ 0x300008
 13314                           ;	Block 0 Code Protect
 13315                           ;	CP0 = OFF, Block 0 is not code-protected
 13316                           ;	Block 1 Code Protect
 13317                           ;	CP1 = OFF, Block 1 is not code-protected
 13318                           ;	Block 2 Code Protect
 13319                           ;	CP2 = OFF, Block 2 is not code-protected
 13320                           ;	Block 3 Code Protect
 13321                           ;	CP3 = OFF, Block 3 is not code-protected
 13322  300008                     	org	3145736
 13323  300008  0F                 	db	15
 13324                           
 13325                           ;Config register CONFIG5H @ 0x300009
 13326                           ;	Boot Block Code Protect
 13327                           ;	CPB = OFF, Boot block is not code-protected
 13328                           ;	Data EEPROM Code Protect
 13329                           ;	CPD = OFF, Data EEPROM is not code-protected
 13330  300009                     	org	3145737
 13331  300009  C0                 	db	192
 13332                           
 13333                           ;Config register CONFIG6L @ 0x30000A
 13334                           ;	Block 0 Write Protect
 13335                           ;	WRT0 = OFF, Block 0 (0800-1FFFh) is not write-protected
 13336                           ;	Block 1 Write Protect
 13337                           ;	WRT1 = OFF, Block 1 (2000-3FFFh) is not write-protected
 13338                           ;	Block 2 Write Protect
 13339                           ;	WRT2 = OFF, Block 2 (04000-5FFFh) is not write-protected
 13340                           ;	Block 3 Write Protect
 13341                           ;	WRT3 = OFF, Block 3 (06000-7FFFh) is not write-protected
 13342  30000A                     	org	3145738
 13343  30000A  0F                 	db	15
 13344                           
 13345                           ;Config register CONFIG6H @ 0x30000B
 13346                           ;	Configuration Registers Write Protect
 13347                           ;	WRTC = OFF, Configuration registers (300000-3000FFh) are not write-protected
 13348                           ;	Boot Block Write Protect
 13349                           ;	WRTB = OFF, Boot block (0000-7FFh) is not write-protected
 13350                           ;	Data EEPROM Write Protect
 13351                           ;	WRTD = OFF, Data EEPROM is not write-protected
 13352  30000B                     	org	3145739
 13353  30000B  E0                 	db	224
 13354                           
 13355                           ;Config register CONFIG7L @ 0x30000C
 13356                           ;	Block 0 Table Read Protect
 13357                           ;	EBTR0 = OFF, Block 0 is not protected from table reads executed in other blocks
 13358                           ;	Block 1 Table Read Protect
 13359                           ;	EBTR1 = OFF, Block 1 is not protected from table reads executed in other blocks
 13360                           ;	Block 2 Table Read Protect
 13361                           ;	EBTR2 = OFF, Block 2 is not protected from table reads executed in other blocks
 13362                           ;	Block 3 Table Read Protect
 13363                           ;	EBTR3 = OFF, Block 3 is not protected from table reads executed in other blocks
 13364  30000C                     	org	3145740
 13365  30000C  0F                 	db	15
 13366                           
 13367                           ;Config register CONFIG7H @ 0x30000D
 13368                           ;	Boot Block Table Read Protect
 13369                           ;	EBTRB = OFF, Boot block is not protected from table reads executed in other blocks
 13370  30000D                     	org	3145741
 13371  30000D  40                 	db	64
 13372                           tosu	equ	0xFFF
 13373                           tosh	equ	0xFFE
 13374                           tosl	equ	0xFFD
 13375                           stkptr	equ	0xFFC
 13376                           pclatu	equ	0xFFB
 13377                           pclath	equ	0xFFA
 13378                           pcl	equ	0xFF9
 13379                           tblptru	equ	0xFF8
 13380                           tblptrh	equ	0xFF7
 13381                           tblptrl	equ	0xFF6
 13382                           tablat	equ	0xFF5
 13383                           prodh	equ	0xFF4
 13384                           prodl	equ	0xFF3
 13385                           indf0	equ	0xFEF
 13386                           postinc0	equ	0xFEE
 13387                           postdec0	equ	0xFED
 13388                           preinc0	equ	0xFEC
 13389                           plusw0	equ	0xFEB
 13390                           fsr0h	equ	0xFEA
 13391                           fsr0l	equ	0xFE9
 13392                           wreg	equ	0xFE8
 13393                           indf1	equ	0xFE7
 13394                           postinc1	equ	0xFE6
 13395                           postdec1	equ	0xFE5
 13396                           preinc1	equ	0xFE4
 13397                           plusw1	equ	0xFE3
 13398                           fsr1h	equ	0xFE2
 13399                           fsr1l	equ	0xFE1
 13400                           bsr	equ	0xFE0
 13401                           indf2	equ	0xFDF
 13402                           postinc2	equ	0xFDE
 13403                           postdec2	equ	0xFDD
 13404                           preinc2	equ	0xFDC
 13405                           plusw2	equ	0xFDB
 13406                           fsr2h	equ	0xFDA
 13407                           fsr2l	equ	0xFD9
 13408                           status	equ	0xFD8

Data Sizes:
    Strings     60
    Constant    167
    Data        11
    BSS         726
    Persistent  0
    Stack       0

Auto Spaces:
    Space          Size  Autos    Used
    COMRAM           94     43      85
    BANK0           160     97     134
    BANK1           256     28     222
    BANK2           256      0     164
    BANK3           256      0     100
    BANK4           192      0       0
    BANK5           128      0       0
    BANK6           256      0     200
    BANK7           256      0       0

Pointer List with Targets:

    __heap_hi.......next	PTR struct chunk size(2) Largest target is 0

    __heap_hi.....next	PTR struct chunk size(2) Largest target is 0

    __heap_hi...next	PTR struct chunk size(2) Largest target is 0

    CommandList.cabeza.next	PTR struct NodoComando_T size(2) Largest target is 0
		 -> __heap_hi(UNKNOWN), RAM(DATA[2047]), NULL(NULL[0]), 

    CommandList.cola.next	PTR struct NodoComando_T size(2) Largest target is 0
		 -> __heap_hi(UNKNOWN), RAM(DATA[2047]), NULL(NULL[0]), 

    __heap_hi.next.next	PTR struct NodoComando_T size(2) Largest target is 0
		 -> __heap_hi(UNKNOWN), RAM(DATA[2047]), NULL(NULL[0]), 

    __heap_hi.next	PTR struct NodoComando_T size(2) Largest target is 0
		 -> __heap_hi(UNKNOWN), RAM(DATA[2047]), NULL(NULL[0]), 

    G$0	PTR struct Comando_T size(2) Largest target is 0

    ?___simple_search_fl...next	PTR struct chunk size(2) Largest target is 0

    USER_USB_CALLBACK_EVENT_HANDLER@pdata	PTR void  size(2) Largest target is 2047
		 -> RAM(DATA[2047]), USTATcopy(COMRAM[1]), USBActiveConfiguration(COMRAM[1]), NULL(NULL[0]), 
		 -> BDT(BIGRAMl[48]), 

    ADC_InterruptHandler	PTR FTN()void  size(2) Largest target is 1
		 -> Absolute function(), 

    sp__strchr	PTR unsigned char  size(2) Largest target is 2
		 -> getTokens@s(COMRAM[2]), USBCommandFetch@s(COMRAM[2]), NULL(NULL[0]), 

    strtok@p	PTR unsigned char  size(2) Largest target is 100
		 -> executeCommand@strCommand(COMRAM[30]), readBuffer(BANK3[100]), NULL(NULL[0]), 

    strncmp@_r	PTR const unsigned char  size(1) Largest target is 4
		 -> STR_9(CODE[4]), 

    strncmp@r	PTR const unsigned char  size(1) Largest target is 4
		 -> STR_9(CODE[4]), 

    strncmp@_l	PTR const unsigned char  size(1) Largest target is 9
		 -> STR_6(CODE[3]), STR_5(CODE[9]), STR_4(CODE[5]), STR_3(CODE[4]), 
		 -> STR_2(CODE[4]), STR_1(CODE[4]), 

    strncmp@l	PTR const unsigned char  size(1) Largest target is 9
		 -> STR_6(CODE[3]), STR_5(CODE[9]), STR_4(CODE[5]), STR_3(CODE[4]), 
		 -> STR_2(CODE[4]), STR_1(CODE[4]), 

    strlen@s	PTR const unsigned char  size(2) Largest target is 100
		 -> stoa@nuls(BANK0[7]), dbuf(BANK1[32]), ?_sprintf(BANK0[2]), executeCommand@strCommand(COMRAM[30]), 
		 -> lastToken(BANK1[10]), readBuffer(BANK3[100]), writeBuffer(BANK2[100]), main@buf(BANK1[20]), 
		 -> NULL(NULL[0]), 

    strlen@a	PTR const unsigned char  size(2) Largest target is 100
		 -> stoa@nuls(BANK0[7]), dbuf(BANK1[32]), ?_sprintf(BANK0[2]), executeCommand@strCommand(COMRAM[30]), 
		 -> lastToken(BANK1[10]), readBuffer(BANK3[100]), writeBuffer(BANK2[100]), main@buf(BANK1[20]), 
		 -> NULL(NULL[0]), 

    strcpy@dest	PTR unsigned char  size(2) Largest target is 2047
		 -> __heap_hi..(UNKNOWN), __heap_hi(UNKNOWN), getComands@buff(COMRAM[10]), getTokens@buffer(COMRAM[20]), 
		 -> executeCommand@strCommand(COMRAM[30]), lastToken(BANK1[10]), writeBuffer(BANK2[100]), RAM(DATA[2047]), 
		 -> NULL(NULL[0]), 

    strcpy@d	PTR unsigned char  size(2) Largest target is 2047
		 -> __heap_hi..(UNKNOWN), __heap_hi(UNKNOWN), getComands@buff(COMRAM[10]), getTokens@buffer(COMRAM[20]), 
		 -> executeCommand@strCommand(COMRAM[30]), lastToken(BANK1[10]), writeBuffer(BANK2[100]), RAM(DATA[2047]), 
		 -> NULL(NULL[0]), 

    strcpy@src	PTR const unsigned char  size(2) Largest target is 2047
		 -> __heap_hi.comando(UNKNOWN), __heap_hi(UNKNOWN), executeCommand@strCommand(COMRAM[30]), lastToken(BANK1[10]), 
		 -> readBuffer(BANK3[100]), main@buf(BANK1[20]), RAM(DATA[2047]), NULL(NULL[0]), 

    strcpy@s	PTR const unsigned char  size(2) Largest target is 2047
		 -> __heap_hi.comando(UNKNOWN), __heap_hi(UNKNOWN), executeCommand@strCommand(COMRAM[30]), lastToken(BANK1[10]), 
		 -> readBuffer(BANK3[100]), main@buf(BANK1[20]), RAM(DATA[2047]), NULL(NULL[0]), 

    fputs@s	PTR const unsigned char  size(2) Largest target is 32
		 -> dbuf(BANK1[32]), 

    fputs@fp	PTR struct _IO_FILE size(1) Largest target is 11
		 -> sprintf@f(BANK0[11]), 

    fputc@fp...source	PTR const unsigned char  size(2) Largest target is 0

    fputc@fp...buffer	PTR unsigned char  size(2) Largest target is 0

    fputc@fp	PTR struct _IO_FILE size(1) Largest target is 11
		 -> sprintf@f(BANK0[11]), 

    vfprintf@ap	PTR PTR void  size(1) Largest target is 1
		 -> sprintf@ap(BANK0[1]), 

    vfprintf@fp	PTR struct _IO_FILE size(1) Largest target is 11
		 -> sprintf@f(BANK0[11]), 

    vfprintf@fmt	PTR const unsigned char  size(1) Largest target is 9
		 -> STR_6(CODE[3]), STR_5(CODE[9]), STR_4(CODE[5]), STR_3(CODE[4]), 
		 -> STR_2(CODE[4]), STR_1(CODE[4]), 

    vfprintf@cfmt	PTR unsigned char  size(1) Largest target is 9
		 -> STR_6(CODE[3]), STR_5(CODE[9]), STR_4(CODE[5]), STR_3(CODE[4]), 
		 -> STR_2(CODE[4]), STR_1(CODE[4]), 

    vfpfcnvrt@cp	PTR unsigned char  size(2) Largest target is 2
		 -> ?_sprintf(BANK0[2]), executeCommand@strCommand(COMRAM[30]), lastToken(BANK1[10]), readBuffer(BANK3[100]), 
		 -> writeBuffer(BANK2[100]), NULL(NULL[0]), 

    vfpfcnvrt@fp	PTR struct _IO_FILE size(1) Largest target is 11
		 -> sprintf@f(BANK0[11]), 

    vfpfcnvrt@ap	PTR PTR void  size(1) Largest target is 1
		 -> sprintf@ap(BANK0[1]), 

    vfpfcnvrt@fmt	PTR PTR unsigned char  size(1) Largest target is 1
		 -> vfprintf@cfmt(BANK0[1]), 

    stoa@fp	PTR struct _IO_FILE size(1) Largest target is 11
		 -> sprintf@f(BANK0[11]), 

    stoa@s	PTR unsigned char  size(2) Largest target is 2
		 -> ?_sprintf(BANK0[2]), executeCommand@strCommand(COMRAM[30]), lastToken(BANK1[10]), readBuffer(BANK3[100]), 
		 -> writeBuffer(BANK2[100]), NULL(NULL[0]), 

    stoa@cp	PTR unsigned char  size(2) Largest target is 7
		 -> stoa@nuls(BANK0[7]), ?_sprintf(BANK0[2]), executeCommand@strCommand(COMRAM[30]), lastToken(BANK1[10]), 
		 -> readBuffer(BANK3[100]), writeBuffer(BANK2[100]), NULL(NULL[0]), 

    dtoa@fp	PTR struct _IO_FILE size(1) Largest target is 11
		 -> sprintf@f(BANK0[11]), 

    pad@fp	PTR struct _IO_FILE size(1) Largest target is 11
		 -> sprintf@f(BANK0[11]), 

    pad@buf	PTR unsigned char  size(2) Largest target is 32
		 -> dbuf(BANK1[32]), 

    sprintf@fmt	PTR const unsigned char  size(1) Largest target is 9
		 -> STR_6(CODE[3]), STR_5(CODE[9]), STR_4(CODE[5]), STR_3(CODE[4]), 
		 -> STR_2(CODE[4]), STR_1(CODE[4]), 

    sprintf@s	PTR unsigned char  size(2) Largest target is 100
		 -> getTokens@buffer(COMRAM[20]), lastToken(BANK1[10]), writeBuffer(BANK2[100]), main@buf(BANK1[20]), 

    sprintf@ap	PTR void [1] size(1) Largest target is 2
		 -> ?_sprintf(BANK0[2]), 

    S4707$source	PTR const unsigned char  size(2) Largest target is 0

    f...source	PTR const unsigned char  size(2) Largest target is 0

    S4707$buffer	PTR unsigned char  size(2) Largest target is 0

    f...buffer	PTR unsigned char  size(2) Largest target is 0

    memset@dest	PTR void  size(2) Largest target is 48
		 -> USBAlternateInterface(COMRAM[2]), BDT(BIGRAMl[48]), UEP1(BITBIGSFRlhhllllll[1]), 

    memset@s	PTR unsigned char  size(2) Largest target is 48
		 -> USBAlternateInterface(COMRAM[2]), BDT(BIGRAMl[48]), UEP1(BITBIGSFRlhhllllll[1]), 

    memcpy@d1	PTR void  size(2) Largest target is 8
		 -> SetupPkt(BIGRAMhl[8]), 

    memcpy@d	PTR unsigned char  size(2) Largest target is 8
		 -> SetupPkt(BIGRAMhl[8]), 

    memcpy@s1	PTR const void  size(2) Largest target is 2047
		 -> CtrlTrfData(BIGRAMhl[8]), RAM(DATA[2047]), SetupPkt(BIGRAMhl[8]), 

    memcpy@s	PTR const unsigned char  size(2) Largest target is 2047
		 -> CtrlTrfData(BIGRAMhl[8]), RAM(DATA[2047]), SetupPkt(BIGRAMhl[8]), 

    __expand_heap@new_brkp	PTR unsigned char  size(2) Largest target is 0
		 -> __heap_hi(UNKNOWN), NULL(NULL[0]), 

    brkp	PTR unsigned char  size(2) Largest target is 0
		 -> __heap_hi(UNKNOWN), NULL(NULL[0]), 

    __expand_heap@pn	PTR unsigned int  size(1) Largest target is 2
		 -> malloc@m(BANK0[2]), 

    malloc@sz	PTR unsigned int  size(2) Largest target is 2047
		 -> __heap_hi..(UNKNOWN), __heap_hi(UNKNOWN), RAM(DATA[2047]), NULL(NULL[0]), 

    sp____expand_heap	PTR void  size(2) Largest target is 0
		 -> __heap_hi(UNKNOWN), NULL(NULL[0]), 

    malloc@new	PTR unsigned char  size(2) Largest target is 2047
		 -> __heap_hi(UNKNOWN), RAM(DATA[2047]), NULL(NULL[0]), 

    malloc@end	PTR unsigned char  size(2) Largest target is 2047
		 -> __heap_hi(UNKNOWN), RAM(DATA[2047]), NULL(NULL[0]), 

    malloc@cur	PTR unsigned char  size(2) Largest target is 2047
		 -> __heap_hi(UNKNOWN), RAM(DATA[2047]), NULL(NULL[0]), 

    malloc@p	PTR void  size(2) Largest target is 2047
		 -> __heap_hi..(UNKNOWN), __heap_hi(UNKNOWN), RAM(DATA[2047]), NULL(NULL[0]), 

    free@c.....next	PTR struct chunk size(2) Largest target is 0

    free@c...next	PTR struct chunk size(2) Largest target is 0

    free@c	PTR struct chunk size(2) Largest target is 2047
		 -> __heap_hi(UNKNOWN), RAM(DATA[2047]), NULL(NULL[0]), 

    free@ptr	PTR void  size(2) Largest target is 2047
		 -> __heap_hi(UNKNOWN), RAM(DATA[2047]), NULL(NULL[0]), 

    free@cptr	PTR unsigned char  size(2) Largest target is 2047
		 -> __heap_hi(UNKNOWN), RAM(DATA[2047]), NULL(NULL[0]), 

    __simple_search_fl@best_last.....next	PTR struct chunk size(2) Largest target is 0

    __simple_search_fl@split.....next	PTR struct chunk size(2) Largest target is 0

    __simple_search_fl@split...next	PTR struct chunk size(2) Largest target is 0

    __simple_search_fl@split	PTR struct chunk size(2) Largest target is 2047
		 -> __heap_hi..(UNKNOWN), __heap_hi(UNKNOWN), RAM(DATA[2047]), NULL(NULL[0]), 

    __simple_search_fl@next...next	PTR struct chunk size(2) Largest target is 0

    __simple_search_fl@next	PTR struct chunk size(2) Largest target is 2047
		 -> __heap_hi..(UNKNOWN), __heap_hi(UNKNOWN), RAM(DATA[2047]), NULL(NULL[0]), 

    __simple_search_fl@best_last...next	PTR struct chunk size(2) Largest target is 0

    __simple_search_fl@best...next	PTR struct chunk size(2) Largest target is 0

    sp____simple_search_fl...next	PTR struct chunk size(2) Largest target is 0

    __freelist...next	PTR struct chunk size(2) Largest target is 0

    __simple_search_fl@last.....next	PTR struct chunk size(2) Largest target is 0

    __simple_search_fl@last...next	PTR struct chunk size(2) Largest target is 0

    S4592$next	PTR struct chunk size(2) Largest target is 0

    __simple_search_fl@c...next	PTR struct chunk size(2) Largest target is 0

    __simple_search_fl@c	PTR struct chunk size(2) Largest target is 2047
		 -> __heap_hi..(UNKNOWN), __heap_hi(UNKNOWN), RAM(DATA[2047]), NULL(NULL[0]), 

    sp____simple_search_fl	PTR void  size(2) Largest target is 2047
		 -> __heap_hi..(UNKNOWN), __heap_hi(UNKNOWN), RAM(DATA[2047]), NULL(NULL[0]), 

    __freelist	PTR struct chunk size(2) Largest target is 2047
		 -> __heap_hi..(UNKNOWN), __heap_hi(UNKNOWN), RAM(DATA[2047]), NULL(NULL[0]), 

    __simple_search_fl@last	PTR struct chunk size(2) Largest target is 2047
		 -> __heap_hi..(UNKNOWN), __heap_hi(UNKNOWN), RAM(DATA[2047]), NULL(NULL[0]), 

    __simple_search_fl@best_last	PTR struct chunk size(2) Largest target is 2047
		 -> __heap_hi..(UNKNOWN), __heap_hi(UNKNOWN), RAM(DATA[2047]), NULL(NULL[0]), 

    __simple_search_fl@best	PTR struct chunk size(2) Largest target is 2047
		 -> __heap_hi..(UNKNOWN), __heap_hi(UNKNOWN), RAM(DATA[2047]), NULL(NULL[0]), 

    FilaPop@viejo.next	PTR struct NodoComando_T size(2) Largest target is 2047
		 -> __heap_hi(UNKNOWN), RAM(DATA[2047]), NULL(NULL[0]), 

    FilaPop@viejo	PTR struct NodoComando_T size(2) Largest target is 2047
		 -> __heap_hi(UNKNOWN), RAM(DATA[2047]), NULL(NULL[0]), 

    FilaPop@fila.cabeza.next	PTR struct NodoComando_T size(2) Largest target is 2047
		 -> __heap_hi(UNKNOWN), RAM(DATA[2047]), NULL(NULL[0]), 

    FilaPop@str	PTR unsigned char  size(2) Largest target is 100
		 -> executeCommand@strCommand(COMRAM[30]), writeBuffer(BANK2[100]), 

    FilaPop@fila.cola	PTR struct NodoComando_T size(2) Largest target is 2047
		 -> __heap_hi(UNKNOWN), RAM(DATA[2047]), NULL(NULL[0]), 

    FilaPop@fila.cabeza	PTR struct NodoComando_T size(2) Largest target is 2047
		 -> __heap_hi(UNKNOWN), RAM(DATA[2047]), NULL(NULL[0]), 

    FilaPop@fila	PTR struct Fila_T size(2) Largest target is 8
		 -> main@CommandList(BANK1[6]), 

    Fila_Agregar@fila.cabeza.next	PTR struct NodoComando_T size(2) Largest target is 2047
		 -> __heap_hi(UNKNOWN), RAM(DATA[2047]), NULL(NULL[0]), 

    Fila_Agregar@fila.cola.next.next	PTR struct NodoComando_T size(2) Largest target is 2047
		 -> __heap_hi(UNKNOWN), RAM(DATA[2047]), NULL(NULL[0]), 

    Fila_Agregar@fila.cola.next	PTR struct NodoComando_T size(2) Largest target is 2047
		 -> __heap_hi(UNKNOWN), RAM(DATA[2047]), NULL(NULL[0]), 

    Fila_Agregar@fila.cola	PTR struct NodoComando_T size(2) Largest target is 2047
		 -> __heap_hi(UNKNOWN), RAM(DATA[2047]), NULL(NULL[0]), 

    Fila_Agregar@fila.cabeza	PTR struct NodoComando_T size(2) Largest target is 2047
		 -> __heap_hi(UNKNOWN), RAM(DATA[2047]), NULL(NULL[0]), 

    Fila_Agregar@fila	PTR struct Fila_T size(2) Largest target is 8
		 -> main@CommandList(BANK1[6]), 

    S3731NodoComando_T$next	PTR struct NodoComando_T size(2) Largest target is 2047
		 -> __heap_hi(UNKNOWN), RAM(DATA[2047]), NULL(NULL[0]), 

    Fila_Agregar@nuevo.next	PTR struct NodoComando_T size(2) Largest target is 2047
		 -> __heap_hi(UNKNOWN), RAM(DATA[2047]), NULL(NULL[0]), 

    sp__malloc	PTR void  size(2) Largest target is 2047
		 -> __heap_hi..(UNKNOWN), __heap_hi(UNKNOWN), RAM(DATA[2047]), NULL(NULL[0]), 

    Fila_Agregar@nuevo	PTR struct NodoComando_T size(2) Largest target is 2047
		 -> __heap_hi..(UNKNOWN), __heap_hi(UNKNOWN), RAM(DATA[2047]), NULL(NULL[0]), 

    Fila_Agregar@comando	PTR unsigned char  size(2) Largest target is 100
		 -> executeCommand@strCommand(COMRAM[30]), lastToken(BANK1[10]), readBuffer(BANK3[100]), main@buf(BANK1[20]), 
		 -> NULL(NULL[0]), 

    Fila_Init@fila.cola	PTR struct NodoComando_T size(2) Largest target is 2047
		 -> __heap_hi(UNKNOWN), RAM(DATA[2047]), NULL(NULL[0]), 

    Fila_Init@fila.cabeza	PTR struct NodoComando_T size(2) Largest target is 2047
		 -> __heap_hi(UNKNOWN), RAM(DATA[2047]), NULL(NULL[0]), 

    Fila_Init@fila	PTR struct Fila_T size(2) Largest target is 8
		 -> main@CommandList(BANK1[6]), 

    executeCommand@CommandList.cola	PTR struct NodoComando_T size(2) Largest target is 2047
		 -> __heap_hi(UNKNOWN), RAM(DATA[2047]), NULL(NULL[0]), 

    executeCommand@CommandList.cabeza	PTR struct NodoComando_T size(2) Largest target is 2047
		 -> __heap_hi(UNKNOWN), RAM(DATA[2047]), NULL(NULL[0]), 

    sp__strcpy	PTR unsigned char  size(2) Largest target is 2047
		 -> __heap_hi..(UNKNOWN), __heap_hi(UNKNOWN), getComands@buff(COMRAM[10]), getTokens@buffer(COMRAM[20]), 
		 -> executeCommand@strCommand(COMRAM[30]), lastToken(BANK1[10]), writeBuffer(BANK2[100]), RAM(DATA[2047]), 
		 -> NULL(NULL[0]), 

    sp__strtok	PTR unsigned char  size(2) Largest target is 100
		 -> executeCommand@strCommand(COMRAM[30]), readBuffer(BANK3[100]), NULL(NULL[0]), 

    USBCommandFetch@CommandList.cola	PTR struct NodoComando_T size(2) Largest target is 2047
		 -> __heap_hi(UNKNOWN), RAM(DATA[2047]), NULL(NULL[0]), 

    USBCommandFetch@CommandList.cabeza	PTR struct NodoComando_T size(2) Largest target is 2047
		 -> __heap_hi(UNKNOWN), RAM(DATA[2047]), NULL(NULL[0]), 

    S3734Fila_T$cola	PTR struct NodoComando_T size(2) Largest target is 2047
		 -> __heap_hi(UNKNOWN), RAM(DATA[2047]), NULL(NULL[0]), 

    CommandList.cola	PTR struct NodoComando_T size(2) Largest target is 2047
		 -> __heap_hi(UNKNOWN), RAM(DATA[2047]), NULL(NULL[0]), 

    S3734Fila_T$cabeza	PTR struct NodoComando_T size(2) Largest target is 2047
		 -> __heap_hi(UNKNOWN), RAM(DATA[2047]), NULL(NULL[0]), 

    CommandList.cabeza	PTR struct NodoComando_T size(2) Largest target is 2047
		 -> __heap_hi(UNKNOWN), RAM(DATA[2047]), NULL(NULL[0]), 

    G	PTR FTN(PTR struct Comando_T,int ,)void [100] size(2) Largest target is 1
		 -> G_53(), G_00(), 

    TMR0_SetInterruptHandler@InterruptHandler	PTR FTN()void  size(2) Largest target is 1
		 -> TMR0_DefaultInterruptHandler(), 

    TMR0_InterruptHandler	PTR FTN()void  size(2) Largest target is 1
		 -> TMR0_DefaultInterruptHandler(), Absolute function(), 

    TMR2_SetInterruptHandler@InterruptHandler	PTR FTN()void  size(2) Largest target is 1
		 -> MY_TMR2_ISR(), TMR2_DefaultInterruptHandler(), 

    TMR2_InterruptHandler	PTR FTN()void  size(2) Largest target is 1
		 -> MY_TMR2_ISR(), TMR2_DefaultInterruptHandler(), Absolute function(), 

    TMR3_SetInterruptHandler@InterruptHandler	PTR FTN()void  size(2) Largest target is 1
		 -> TMR3_DefaultInterruptHandler(), 

    TMR3_InterruptHandler	PTR FTN()void  size(2) Largest target is 1
		 -> Absolute function(), TMR3_DefaultInterruptHandler(), 

    CDCDataInHandle	PTR void  size(2) Largest target is 2047
		 -> RAM(DATA[2047]), NULL(NULL[0]), BDT(BIGRAMl[48]), 

    CDCDataOutHandle	PTR void  size(2) Largest target is 2047
		 -> RAM(DATA[2047]), NULL(NULL[0]), BDT(BIGRAMl[48]), 

    pCDCDst.wRom	PTR const unsigned short  size(2) Largest target is 0

    pCDCDst.bRom	PTR const unsigned char  size(2) Largest target is 0

    pCDCDst.wRam	PTR unsigned short  size(2) Largest target is 0

    pCDCDst.bRam	PTR unsigned char  size(2) Largest target is 0

    S1778_POINTER$wRom	PTR const unsigned short  size(2) Largest target is 0

    pCDCSrc.wRom	PTR const unsigned short  size(2) Largest target is 0

    S1778_POINTER$bRom	PTR const unsigned char  size(2) Largest target is 0

    pCDCSrc.bRom	PTR const unsigned char  size(2) Largest target is 0

    S1778_POINTER$wRam	PTR unsigned short  size(2) Largest target is 0

    pCDCSrc.wRam	PTR unsigned short  size(2) Largest target is 0

    S1778_POINTER$bRam	PTR unsigned char  size(2) Largest target is 0

    pCDCSrc.bRam	PTR unsigned char  size(2) Largest target is 0

    USBStdFeatureReqHandler@pUEP	PTR unsigned char  size(2) Largest target is 1
		 -> UEP0(BITBIGSFRlhl[1]), 

    USBStdFeatureReqHandler@p	PTR struct __BDT size(2) Largest target is 2047
		 -> RAM(DATA[2047]), NULL(NULL[0]), BDT(BIGRAMl[48]), 

    sp__memcpy	PTR void  size(2) Largest target is 8
		 -> SetupPkt(BIGRAMhl[8]), 

    USBStdGetStatusHandler@p	PTR struct __BDT size(2) Largest target is 2047
		 -> RAM(DATA[2047]), NULL(NULL[0]), BDT(BIGRAMl[48]), 

    USB_SD_Ptr	const PTR const unsigned char [3] size(1) Largest target is 52
		 -> sd002(CODE[22]), sd001(CODE[52]), sd000(CODE[4]), 

    USB_CD_Ptr	const PTR const unsigned char [1] size(1) Largest target is 67
		 -> configDescriptor1(CODE[67]), 

    pDst	PTR volatile unsigned char  size(2) Largest target is 8
		 -> CtrlTrfData(BIGRAMhl[8]), NULL(NULL[0]), 

    USBConfigureEndpoint@handle	PTR volatile struct __BDT size(2) Largest target is 48
		 -> BDT(BIGRAMl[48]), 

    pBDTEntryEP0OutCurrent	PTR volatile struct __BDT size(2) Largest target is 48
		 -> NULL(NULL[0]), BDT(BIGRAMl[48]), 

    pBDTEntryEP0OutNext	PTR volatile struct __BDT size(2) Largest target is 2047
		 -> RAM(DATA[2047]), NULL(NULL[0]), BDT(BIGRAMl[48]), 

    USBTransferOnePacket@data	PTR unsigned char  size(2) Largest target is 64
		 -> cdc_data_tx(BIGRAMhl[64]), cdc_data_rx(BIGRAMhh[64]), NULL(NULL[0]), 

    sp__USBTransferOnePacket	PTR void  size(2) Largest target is 2047
		 -> RAM(DATA[2047]), NULL(NULL[0]), BDT(BIGRAMl[48]), 

    USBTransferOnePacket@handle	PTR volatile struct __BDT size(2) Largest target is 2047
		 -> RAM(DATA[2047]), NULL(NULL[0]), BDT(BIGRAMl[48]), 

    USBEnableEndpoint@p	PTR unsigned char  size(2) Largest target is 1
		 -> UEP0(BITBIGSFRlhl[1]), 

    pBDTEntryOut	PTR volatile struct __BDT[3] size(2) Largest target is 2047
		 -> RAM(DATA[2047]), NULL(NULL[0]), BDT(BIGRAMl[48]), 

    pBDTEntryIn	PTR volatile struct __BDT[3] size(2) Largest target is 2047
		 -> RAM(DATA[2047]), NULL(NULL[0]), BDT(BIGRAMl[48]), 

    S105$pFunc	PTR FTN()void  size(2) Largest target is 0
		 -> NULL(NULL[0]), 

    outPipes.pFunc	PTR FTN()void  size(2) Largest target is 0
		 -> NULL(NULL[0]), 

    S95$wRam	PTR unsigned short  size(2) Largest target is 0

    outPipes.pDst.wRam	PTR unsigned short  size(2) Largest target is 0

    S95$bRam	PTR unsigned char  size(2) Largest target is 0

    outPipes.pDst.bRam	PTR unsigned char  size(2) Largest target is 0

    S71$wRom	PTR const unsigned short  size(2) Largest target is 0

    inPipes.pSrc.wRom	PTR const unsigned short  size(2) Largest target is 0

    S71$wRam	PTR unsigned short  size(2) Largest target is 0

    inPipes.pSrc.wRam	PTR unsigned short  size(2) Largest target is 0

    S71$bRom	PTR const unsigned char  size(2) Largest target is 0

    inPipes.pSrc.bRom	PTR const unsigned char  size(2) Largest target is 0

    S71$bRam	PTR unsigned char  size(2) Largest target is 0

    inPipes.pSrc.bRam	PTR unsigned char  size(2) Largest target is 0

    sp__memset	PTR void  size(2) Largest target is 48
		 -> USBAlternateInterface(COMRAM[2]), BDT(BIGRAMl[48]), UEP1(BITBIGSFRlhhllllll[1]), 


Critical Paths under _main in COMRAM

    None.

Critical Paths under _INTERRUPT_InterruptManager in COMRAM

    _INTERRUPT_InterruptManager->_USBDeviceTasks
    _USBDeviceTasks->_USBCtrlEPService
    i2_USBDeviceInit->i2_memset
    _USBWakeFromSuspend->_USER_USB_CALLBACK_EVENT_HANDLER
    _USBSuspend->_USER_USB_CALLBACK_EVENT_HANDLER
    _USBCtrlTrfSetupHandler->_USBCheckStdRequest
    _USBCtrlEPAllowDataStage->_USBCtrlTrfTxService
    _USBCheckStdRequest->_USBStdFeatureReqHandler
    _USBStdSetCfgHandler->_USER_USB_CALLBACK_EVENT_HANDLER
    _USBStdFeatureReqHandler->_USER_USB_CALLBACK_EVENT_HANDLER
    _CDCInitEP->_USBEnableEndpoint
    _USBEnableEndpoint->_USBConfigureEndpoint
    _USBCtrlTrfOutHandler->_USBCtrlTrfRxService
    _USBCtrlTrfInHandler->_USBCtrlTrfTxService
    _TMR3_ISR->_TMR3_WriteTimer
    _TMR2_ISR->_MY_TMR2_ISR
    _MY_TMR2_ISR->_TMR2_WriteTimer

Critical Paths under _main in BANK0

    _main->_sprintf
    _sprintf->_vfprintf
    _vfprintf->_vfpfcnvrt
    _vfpfcnvrt->_dtoa
    _stoa->_fputc
    _dtoa->___aodiv
    _pad->_fputs
    _fputs->_fputc
    _abs->___aomod
    _SYSTEM_Initialize->_USBDeviceInit
    _USBDeviceInit->_memset
    _TMR3_Initialize->_TMR3_SetInterruptHandler
    _TMR2_Initialize->_TMR2_SetInterruptHandler
    _TMR0_Initialize->_TMR0_SetInterruptHandler
    _Fila_Agregar->_malloc
    _malloc->___simple_search_fl
    _FilaPop->_free
    _CDCTxService->_USBTransferOnePacket

Critical Paths under _INTERRUPT_InterruptManager in BANK0

    None.

Critical Paths under _main in BANK1

    None.

Critical Paths under _INTERRUPT_InterruptManager in BANK1

    None.

Critical Paths under _main in BANK2

    None.

Critical Paths under _INTERRUPT_InterruptManager in BANK2

    None.

Critical Paths under _main in BANK3

    None.

Critical Paths under _INTERRUPT_InterruptManager in BANK3

    None.

Critical Paths under _main in BANK4

    None.

Critical Paths under _INTERRUPT_InterruptManager in BANK4

    None.

Critical Paths under _main in BANK5

    None.

Critical Paths under _INTERRUPT_InterruptManager in BANK5

    None.

Critical Paths under _main in BANK6

    None.

Critical Paths under _INTERRUPT_InterruptManager in BANK6

    None.

Critical Paths under _main in BANK7

    None.

Critical Paths under _INTERRUPT_InterruptManager in BANK7

    None.

Call Graph Tables:

 ---------------------------------------------------------------------------------
 (Depth) Function   	        Calls       Base Space   Used Autos Params    Refs
 ---------------------------------------------------------------------------------
 (0) _main                                                28    28      0   33026
                                              0 BANK1     28    28      0
                       _CDCTxService
                            _FilaPop
                       _Fila_Agregar
                          _Fila_Init
                  _SYSTEM_Initialize
           _TMR2_SetInterruptHandler
                     _TMR2_StopTimer
                     _TMR3_StopTimer
                            _sprintf
                             _strlen
 ---------------------------------------------------------------------------------
 (1) _sprintf                                             19    14      5   17181
                                             80 BANK0     17    12      5
                           _vfprintf
 ---------------------------------------------------------------------------------
 (2) _vfprintf                                             4     1      3   15733
                                             76 BANK0      4     1      3
                          _vfpfcnvrt
 ---------------------------------------------------------------------------------
 (3) _vfpfcnvrt                                           38    35      3   15203
                                             61 BANK0     15    12      3
                               _dtoa
                              _fputc
                               _stoa
                            _strncmp
 ---------------------------------------------------------------------------------
 (4) _strncmp                                              7     3      4     637
                                              0 BANK0      7     3      4
 ---------------------------------------------------------------------------------
 (4) _stoa                                                21    18      3    3639
                                              8 BANK0     21    18      3
                              _fputc
                             _strlen
 ---------------------------------------------------------------------------------
 (4) _dtoa                                                35    26      9    8117
                                             26 BANK0     35    26      9
                            ___aodiv
                            ___aomod
                                _abs
                                _pad
 ---------------------------------------------------------------------------------
 (5) _pad                                                 10     5      5    5753
                                             14 BANK0     10     5      5
                              _fputc
                              _fputs
                             _strlen
 ---------------------------------------------------------------------------------
 (1) _strlen                                               4     2      2     986
                                              0 BANK0      4     2      2
 ---------------------------------------------------------------------------------
 (6) _fputs                                                6     3      3    2329
                                              8 BANK0      6     3      3
                              _fputc
 ---------------------------------------------------------------------------------
 (5) _fputc                                                8     5      3    1773
                                              0 BANK0      8     5      3
                              _putch
 ---------------------------------------------------------------------------------
 (6) _putch                                                1     1      0       0
 ---------------------------------------------------------------------------------
 (5) _abs                                                  4     2      2     197
                                             18 BANK0      4     2      2
                            ___aomod (ARG)
 ---------------------------------------------------------------------------------
 (5) ___aomod                                             18     2     16     641
                                              0 BANK0     18     2     16
 ---------------------------------------------------------------------------------
 (5) ___aodiv                                             26    10     16     653
                                              0 BANK0     26    10     16
 ---------------------------------------------------------------------------------
 (1) _TMR3_StopTimer                                       0     0      0       0
 ---------------------------------------------------------------------------------
 (1) _TMR2_StopTimer                                       0     0      0       0
 ---------------------------------------------------------------------------------
 (1) _SYSTEM_Initialize                                    0     0      0    2750
                     _ADC_Initialize
                    _CCP2_Initialize
               _INTERRUPT_Initialize
              _OSCILLATOR_Initialize
             _PIN_MANAGER_Initialize
                    _TMR0_Initialize
                    _TMR1_Initialize
                    _TMR2_Initialize
                    _TMR3_Initialize
                    _USBDeviceAttach
                      _USBDeviceInit
 ---------------------------------------------------------------------------------
 (2) _USBDeviceInit                                        1     1      0    2241
                                             12 BANK0      1     1      0
                             _memset
 ---------------------------------------------------------------------------------
 (3) _memset                                              12     6      6    1950
                                              0 BANK0     12     6      6
 ---------------------------------------------------------------------------------
 (2) _USBDeviceAttach                                      0     0      0       0
 ---------------------------------------------------------------------------------
 (2) _TMR3_Initialize                                      0     0      0     135
           _TMR3_SetInterruptHandler
 ---------------------------------------------------------------------------------
 (3) _TMR3_SetInterruptHandler                             2     0      2     135
                                              0 BANK0      2     0      2
 ---------------------------------------------------------------------------------
 (2) _TMR2_Initialize                                      0     0      0     239
           _TMR2_SetInterruptHandler
 ---------------------------------------------------------------------------------
 (1) _TMR2_SetInterruptHandler                             2     0      2     239
                                              0 BANK0      2     0      2
 ---------------------------------------------------------------------------------
 (2) _TMR1_Initialize                                      0     0      0       0
 ---------------------------------------------------------------------------------
 (2) _TMR0_Initialize                                      2     2      0     135
                                              2 BANK0      2     2      0
           _TMR0_SetInterruptHandler
 ---------------------------------------------------------------------------------
 (3) _TMR0_SetInterruptHandler                             2     0      2     135
                                              0 BANK0      2     0      2
 ---------------------------------------------------------------------------------
 (2) _PIN_MANAGER_Initialize                               0     0      0       0
 ---------------------------------------------------------------------------------
 (2) _OSCILLATOR_Initialize                                0     0      0       0
 ---------------------------------------------------------------------------------
 (2) _INTERRUPT_Initialize                                 0     0      0       0
 ---------------------------------------------------------------------------------
 (2) _CCP2_Initialize                                      0     0      0       0
 ---------------------------------------------------------------------------------
 (2) _ADC_Initialize                                       0     0      0       0
 ---------------------------------------------------------------------------------
 (1) _Fila_Init                                            2     0      2     247
                                              0 BANK0      2     0      2
 ---------------------------------------------------------------------------------
 (1) _Fila_Agregar                                        10     4      6    6122
                                             32 BANK0     10     4      6
                             _malloc
                             _strcpy
                             _strlen (ARG)
 ---------------------------------------------------------------------------------
 (2) _malloc                                              14    12      2    2414
                                             20 BANK0     12    10      2
                      ___expand_heap
                 ___simple_search_fl
 ---------------------------------------------------------------------------------
 (3) ___simple_search_fl                                  20    18      2    1287
                                              0 BANK0     20    18      2
 ---------------------------------------------------------------------------------
 (3) ___expand_heap                                        8     6      2     299
                                              0 BANK0      8     6      2
 ---------------------------------------------------------------------------------
 (1) _FilaPop                                             10     6      4    2556
                                             10 BANK0     10     6      4
                               _free
                             _strcpy
 ---------------------------------------------------------------------------------
 (2) _strcpy                                               8     4      4    1065
                                              0 BANK0      8     4      4
 ---------------------------------------------------------------------------------
 (2) _free                                                10     8      2     513
                                              0 BANK0     10     8      2
 ---------------------------------------------------------------------------------
 (1) _CDCTxService                                         2     2      0    2081
                                              9 BANK0      2     2      0
               _USBTransferOnePacket
 ---------------------------------------------------------------------------------
 (2) _USBTransferOnePacket                                 9     5      4    1880
                                              0 BANK0      9     5      4
 ---------------------------------------------------------------------------------
 Estimated maximum stack depth 6
 ---------------------------------------------------------------------------------
 (Depth) Function   	        Calls       Base Space   Used Autos Params    Refs
 ---------------------------------------------------------------------------------
 (9) _INTERRUPT_InterruptManager                          12    12      0   31078
                                             31 COMRAM    12    12      0
                           _TMR0_ISR
                           _TMR2_ISR
                           _TMR3_ISR
                     _USBDeviceTasks
 ---------------------------------------------------------------------------------
 (10) _USBDeviceTasks                                      1     1      0   30801
                                             30 COMRAM     1     1      0
          _USBCtrlEPAllowStatusStage
                   _USBCtrlEPService
      _USBIncrement1msInternalTimers
                    _USBStallHandler
                         _USBSuspend
                 _USBWakeFromSuspend
    _USER_USB_CALLBACK_EVENT_HANDLER
                    i2_USBDeviceInit
 ---------------------------------------------------------------------------------
 (11) i2_USBDeviceInit                                     1     1      0    1233
                                             12 COMRAM     1     1      0
                           i2_memset
 ---------------------------------------------------------------------------------
 (11) _USBWakeFromSuspend                                  0     0      0    3879
    _USER_USB_CALLBACK_EVENT_HANDLER
 ---------------------------------------------------------------------------------
 (11) _USBSuspend                                          0     0      0    3879
    _USER_USB_CALLBACK_EVENT_HANDLER
 ---------------------------------------------------------------------------------
 (11) _USBStallHandler                                     1     1      0       0
                                              0 COMRAM     1     1      0
 ---------------------------------------------------------------------------------
 (11) _USBIncrement1msInternalTimers                       0     0      0       0
 ---------------------------------------------------------------------------------
 (11) _USBCtrlEPService                                    1     1      0   17885
                                             29 COMRAM     1     1      0
                _USBCtrlTrfInHandler
               _USBCtrlTrfOutHandler
             _USBCtrlTrfSetupHandler
                             _memcpy
 ---------------------------------------------------------------------------------
 (12) _memcpy                                             11     5      6     410
                                              0 COMRAM    11     5      6
 ---------------------------------------------------------------------------------
 (12) _USBCtrlTrfSetupHandler                              0     0      0   17246
                 _USBCheckStdRequest
           _USBCtrlEPServiceComplete
    _USER_USB_CALLBACK_EVENT_HANDLER
 ---------------------------------------------------------------------------------
 (13) _USBCtrlEPServiceComplete                            0     0      0      92
            _USBCtrlEPAllowDataStage
          _USBCtrlEPAllowStatusStage
 ---------------------------------------------------------------------------------
 (14) _USBCtrlEPAllowDataStage                             0     0      0      92
                _USBCtrlTrfTxService
 ---------------------------------------------------------------------------------
 (13) _USBCheckStdRequest                                  2     2      0   13275
                                             27 COMRAM     2     2      0
            _USBStdFeatureReqHandler
                _USBStdGetDscHandler
             _USBStdGetStatusHandler
                _USBStdSetCfgHandler
    _USER_USB_CALLBACK_EVENT_HANDLER
 ---------------------------------------------------------------------------------
 (14) _USBStdSetCfgHandler                                 1     1      0    5000
                                             20 COMRAM     1     1      0
    _USER_USB_CALLBACK_EVENT_HANDLER
                           i2_memset
 ---------------------------------------------------------------------------------
 (12) i2_memset                                           12     6      6    1031
                                              0 COMRAM    12     6      6
 ---------------------------------------------------------------------------------
 (14) _USBStdGetStatusHandler                              4     4      0      46
                                              0 COMRAM     4     4      0
 ---------------------------------------------------------------------------------
 (14) _USBStdGetDscHandler                                 2     2      0       0
                                              0 COMRAM     2     2      0
 ---------------------------------------------------------------------------------
 (14) _USBStdFeatureReqHandler                             7     7      0    4350
                                             20 COMRAM     7     7      0
    _USER_USB_CALLBACK_EVENT_HANDLER
 ---------------------------------------------------------------------------------
 (11) _USER_USB_CALLBACK_EVENT_HANDLER                     8     2      6    3879
                                             12 COMRAM     8     2      6
                          _CDCInitEP
                 _USBCheckCDCRequest
 ---------------------------------------------------------------------------------
 (12) _USBCheckCDCRequest                                  2     2      0       0
                                              0 COMRAM     2     2      0
 ---------------------------------------------------------------------------------
 (12) _CDCInitEP                                           0     0      0    1187
                  _USBEnableEndpoint
             i2_USBTransferOnePacket
 ---------------------------------------------------------------------------------
 (13) i2_USBTransferOnePacket                              9     5      4     454
                                              0 COMRAM     9     5      4
 ---------------------------------------------------------------------------------
 (13) _USBEnableEndpoint                                   4     3      1     733
                                              8 COMRAM     4     3      1
               _USBConfigureEndpoint
 ---------------------------------------------------------------------------------
 (14) _USBConfigureEndpoint                                8     7      1     400
                                              0 COMRAM     8     7      1
 ---------------------------------------------------------------------------------
 (12) _USBCtrlTrfOutHandler                                0     0      0     114
                _USBCtrlTrfRxService
 ---------------------------------------------------------------------------------
 (13) _USBCtrlTrfRxService                                 2     2      0     114
                                              0 COMRAM     2     2      0
          _USBCtrlEPAllowStatusStage
 ---------------------------------------------------------------------------------
 (14) _USBCtrlEPAllowStatusStage                           0     0      0       0
 ---------------------------------------------------------------------------------
 (12) _USBCtrlTrfInHandler                                 1     1      0     115
                                              1 COMRAM     1     1      0
                _USBCtrlTrfTxService
 ---------------------------------------------------------------------------------
 (15) _USBCtrlTrfTxService                                 1     1      0      92
                                              0 COMRAM     1     1      0
 ---------------------------------------------------------------------------------
 (10) _TMR3_ISR                                            0     0      0     255
                   Absolute function *
       _TMR3_DefaultInterruptHandler *
                    _TMR3_WriteTimer
 ---------------------------------------------------------------------------------
 (11) _TMR3_WriteTimer                                     2     0      2     255
                                              0 COMRAM     2     0      2
 ---------------------------------------------------------------------------------
 (11) _TMR3_DefaultInterruptHandler                        0     0      0       0
 ---------------------------------------------------------------------------------
 (10) _TMR2_ISR                                            0     0      0      22
                   Absolute function *
                        _MY_TMR2_ISR *
       _TMR2_DefaultInterruptHandler *
 ---------------------------------------------------------------------------------
 (11) _TMR2_DefaultInterruptHandler                        0     0      0       0
 ---------------------------------------------------------------------------------
 (11) _MY_TMR2_ISR                                         1     1      0      22
                                              1 COMRAM     1     1      0
                    _TMR2_WriteTimer
                   i2_TMR2_StopTimer
 ---------------------------------------------------------------------------------
 (12) i2_TMR2_StopTimer                                    0     0      0       0
 ---------------------------------------------------------------------------------
 (12) _TMR2_WriteTimer                                     1     1      0      22
                                              0 COMRAM     1     1      0
 ---------------------------------------------------------------------------------
 (10) _TMR0_ISR                                            0     0      0       0
                   Absolute function *
       _TMR0_DefaultInterruptHandler *
 ---------------------------------------------------------------------------------
 (11) _TMR0_DefaultInterruptHandler                        0     0      0       0
 ---------------------------------------------------------------------------------
 (11) Absolute function(Fake)                              0     0      0       0
 ---------------------------------------------------------------------------------
 Estimated maximum stack depth 15
 ---------------------------------------------------------------------------------

 Call Graph Graphs:

 _main (ROOT)
   _CDCTxService
     _USBTransferOnePacket
   _FilaPop
     _free
     _strcpy
   _Fila_Agregar
     _malloc
       ___expand_heap
       ___simple_search_fl
     _strcpy
     _strlen (ARG)
   _Fila_Init
   _SYSTEM_Initialize
     _ADC_Initialize
     _CCP2_Initialize
     _INTERRUPT_Initialize
     _OSCILLATOR_Initialize
     _PIN_MANAGER_Initialize
     _TMR0_Initialize
       _TMR0_SetInterruptHandler
     _TMR1_Initialize
     _TMR2_Initialize
       _TMR2_SetInterruptHandler
     _TMR3_Initialize
       _TMR3_SetInterruptHandler
     _USBDeviceAttach
     _USBDeviceInit
       _memset
   _TMR2_SetInterruptHandler
   _TMR2_StopTimer
   _TMR3_StopTimer
   _sprintf
     _vfprintf
       _vfpfcnvrt
         _dtoa
           ___aodiv
           ___aomod
           _abs
             ___aomod (ARG)
           _pad
             _fputc
               _putch
             _fputs
               _fputc
             _strlen
         _fputc
         _stoa
           _fputc
           _strlen
         _strncmp
   _strlen

 _INTERRUPT_InterruptManager (ROOT)
   _TMR0_ISR
     Absolute function(Fake) *
     _TMR0_DefaultInterruptHandler *
   _TMR2_ISR
     Absolute function(Fake) *
     _MY_TMR2_ISR *
       _TMR2_WriteTimer
       i2_TMR2_StopTimer
     _TMR2_DefaultInterruptHandler *
   _TMR3_ISR
     Absolute function(Fake) *
     _TMR3_DefaultInterruptHandler *
     _TMR3_WriteTimer *
   _USBDeviceTasks
     _USBCtrlEPAllowStatusStage
     _USBCtrlEPService
       _USBCtrlTrfInHandler
         _USBCtrlTrfTxService
       _USBCtrlTrfOutHandler
         _USBCtrlTrfRxService
           _USBCtrlEPAllowStatusStage
       _USBCtrlTrfSetupHandler
         _USBCheckStdRequest
           _USBStdFeatureReqHandler
             _USER_USB_CALLBACK_EVENT_HANDLER
               _CDCInitEP
                 _USBEnableEndpoint
                   _USBConfigureEndpoint
                 i2_USBTransferOnePacket
               _USBCheckCDCRequest
           _USBStdGetDscHandler
           _USBStdGetStatusHandler
           _USBStdSetCfgHandler
             _USER_USB_CALLBACK_EVENT_HANDLER
             i2_memset
           _USER_USB_CALLBACK_EVENT_HANDLER
         _USBCtrlEPServiceComplete
           _USBCtrlEPAllowDataStage
             _USBCtrlTrfTxService
           _USBCtrlEPAllowStatusStage
         _USER_USB_CALLBACK_EVENT_HANDLER
       _memcpy
     _USBIncrement1msInternalTimers
     _USBStallHandler
     _USBSuspend
       _USER_USB_CALLBACK_EVENT_HANDLER
     _USBWakeFromSuspend
       _USER_USB_CALLBACK_EVENT_HANDLER
     _USER_USB_CALLBACK_EVENT_HANDLER
     i2_USBDeviceInit
       i2_memset

 Address spaces:
Name               Size   Autos  Total    Cost      Usage
BIGRAMl            3FF      0       0      45        0.0%
BIGRAMhh           280      0       0      43        0.0%
EEDATA             100      0       0       0        0.0%
BITBANK7           100      0       0      18        0.0%
BANK7              100      0       0      19        0.0%
BITBANK6           100      0       0      16        0.0%
BANK6              100      0      C8      17       78.1%
BITBANK3           100      0       0      10        0.0%
BANK3              100      0      64      11       39.1%
BITBANK2           100      0       0       8        0.0%
BANK2              100      0      A4       9       64.1%
BITBANK1           100      0       0       6        0.0%
BANK1              100     1C      DE       7       86.7%
BIGRAMhl            C0      0       0      44        0.0%
BITBANK4            C0      0       0      12        0.0%
BANK4               C0      0       0      13        0.0%
BITBANK0            A0      0       0       4        0.0%
BANK0               A0     61      86       5       83.8%
BITBANK5            80      0       0      14        0.0%
BANK5               80      0       0      15        0.0%
BITCOMRAM           5E      0       0       0        0.0%
COMRAM              5E     2B      55       1       90.4%
BITBIGSFRhhlhhh     19      0       0      22        0.0%
BITBIGSFRlhhlll     15      0       0      37        0.0%
BITBIGSFRhllh        7      0       0      28        0.0%
BITBIGSFRhhhh        7      0       0      20        0.0%
BITBIGSFRhlhhlh      7      0       0      25        0.0%
BITBIGSFRllllll      6      0       0      41        0.0%
BITBIGSFRlhhlll      4      0       0      34        0.0%
BITBIGSFRhlhl        4      0       0      27        0.0%
BITBIGSFRlhhlll      3      0       0      36        0.0%
BITBIGSFRlhhlll      3      0       0      32        0.0%
BITBIGSFRlhhlll      3      0       0      35        0.0%
BITBIGSFRhlhhll      3      0       0      26        0.0%
BITBIGSFRlllllh      2      0       0      39        0.0%
BITBIGSFRlhhlll      2      0       0      33        0.0%
BITBIGSFRhhhl        2      0       0      21        0.0%
BITBIGSFRlhl         2      0       0      38        0.0%
BITBIGSFRllllll      1      0       0      40        0.0%
BITBIGSFRlhhllh      1      0       0      31        0.0%
BITBIGSFRhhlhl       1      0       0      23        0.0%
BITBIGSFRlhhlh       1      0       0      30        0.0%
BITBIGSFRlhhh        1      0       0      29        0.0%
BITBIGSFRhhll        1      0       0      24        0.0%
BIGSFR               0      0       0     200        0.0%
BITSFR_1             0      0       0     200        0.0%
SFR_1                0      0       0     200        0.0%
BITSFR               0      0       0     200        0.0%
SFR                  0      0       0     200        0.0%
STACK                0      0       0       2        0.0%
NULL                 0      0       0       0        0.0%
ABS                  0      0     389      42        0.0%
DATA                 0      0     389       3        0.0%
CODE                 0      0       0       0        0.0%


Microchip Technology PIC18 Macro Assembler V2.36 build 20220127204148 
Symbol Table                                                                                   Thu Sep 15 11:09:43 2022

        __end_of_TMR2_SetInterruptHandler 36A2                                         _G 0600  
                              _USB_SD_Ptr 0801                               _MY_TMR2_ISR 30AA  
                           _USBDeviceInit 1ABE                           _timer0ReloadVal 0038  
    USER_USB_CALLBACK_EVENT_HANDLER@event 000D      USER_USB_CALLBACK_EVENT_HANDLER@pdata 000F  
             __end_of_USBStdGetDscHandler 13B4                                       l196 34F8  
                                     l533 1C4A                                       l197 34F6  
                                     l528 1C02                                       _BDT 000400  
                                     _PR2 000FBB                                       _UIE 000F64  
                                     _UIR 000F65                           _timer1ReloadVal 0134  
                                     _abs 3418                                       _pad 2EC0  
                              _USBSuspend 34A8                      USBStdSetCfgHandler@i 0015  
                         _TMR2_Initialize 35F4                                       prod 000FF3  
                                     tosl 000FFD                                       wreg 000FE8  
                          _USBDeviceTasks 1F2C                            _USBDeviceState 0051  
                   ??_USBCtrlTrfRxService 0001                  USBEnableEndpoint@options 0009  
                                    ?_abs 0072                                      l2112 3440  
                                    l2033 2EEA                                      l2044 0958  
                                    l2046 0960                                      l2073 1D5C  
                         _timer3ReloadVal 013A                USBConfigureEndpoint@handle 0007  
                                    l1926 0E2E                                      l1929 0F1E  
                                    l1962 1ECA                                      l1974 2F68  
                                    ?_pad 006E                                      l1959 1EDC  
                                    l7210 18CA                                      l7140 3568  
                                    l7230 197C                                      l7222 1940  
                                    l7214 18E4                                      l7206 18A6  
                                    l7400 158E                                      l7216 18F8  
                                    l7128 2D2A                                      l7152 3398  
                                    l7162 1162                                      l7226 1956  
                                    l7138 3564                                      l7242 2EE2  
                                    l7314 0AE8                                      l7330 1D20  
                                    l7500 2FBE                                      l7148 3386  
                                    l7252 2F30                                      l7244 2EF4  
                                    l7340 1D72                                      l7430 0D84  
                                    l7414 160E                                      l7406 15C6  
                                    l7174 11B0                                      l7190 1236  
                                    l7238 2ED4                                      l7318 0B00  
                                    l8320 222C                                      l7408 15F8  
                                    l7176 11C4                                      l7168 118A  
                                    l7248 2F08                                      l7280 097A  
                                    l7344 1D86                                      l7450 0E1E  
                                    l7442 0DE6                                      l7194 125C  
                                    l7186 1220                                      l7266 093C  
                                    l7362 1DF4                                      l7354 1DC6  
                                    l7370 2B68                                      l7436 0DC4  
                                    l7428 0D7A                                      l7612 1B52  
                                    l7284 098A                                      l7348 1DA4  
                                    l7372 2B72                                      l7532 107E  
                                    l7524 1024                                      l8318 2208  
                                    l8326 223A                                      l7470 0F36  
                                    l7438 0DD8                                      l7454 0E4A  
                                    l7294 0A82                                      l7358 1DE0  
                                    l7542 10C2                                      l7472 0F4A  
                                    l8280 225A                                      l7552 10FC  
                                    l8282 226E                                      l7394 152A  
                                    l7820 184E                                      l7548 10F2  
                                    l8380 14CA                                      l7654 237A  
                                    l7646 2354                                      l7814 17EE  
                                    l7822 1864                                      l8294 22D6  
                                    l7558 110E                                      l7830 31D2  
                                    l8366 140C                                      l7808 17E4  
                                    l7744 33F4                                      l7488 2F7C  
                                    l7584 1AFA                                      l7832 31F2  
                                    l7666 23EE                                      l7906 1C6A  
                                    l7914 1C8C                                      l7762 1E3A  
                                    l7754 1E1E                                      l7932 1CD2  
                                    l7916 1C96                                      l7924 1CB8  
                                    l7596 1B24                                      l7934 1CD6  
                                    l7936 1CF4                                      l7880 1BF6  
                                    l7792 1F22                                      l7778 1EA4  
                                    l7892 1C38                                      l7886 1C0C  
                                    l7898 1C4E                                      STR_1 08D8  
                                    STR_2 08DC                                      STR_3 08E0  
                                    STR_4 08C3                                      STR_5 08BA  
                                    STR_7 08D4                                      STR_9 08D4  
                                    _G_00 000000                                      _LATA 000F89  
                                    _LATB 000F8A                                      _LATC 000F8B  
                                    _G_53 000000                                      u6000 11C8  
                                    u6200 0974                                      u6130 3426  
                                    u6210 0A92                                      u6060 18FC  
                                    u6140 090E                                      u7030 1CC0  
                                    u6230 0AB4                                      u6150 0910  
                                    u6231 0AB2                                      u7200 216A  
                                    u6240 0AC2                                      u6250 0AC6  
                                    u6180 094E                                      u6340 1D9A  
                                    u6420 2BBE                                      u6270 0AD2  
                                    u6610 2FA8                                      u6370 1E08  
                                    u6291 1D02                                      u7190 22A8  
                                    u5910 2D22                     ??_USBCtrlTrfTxService 0001  
                                    u6560 0E92                                      u6480 0D70  
                                    u6640 0FC0                                      u5930 2D64  
                                    u6660 105E                                      u6830 1EC2  
                                    _UCFG 000F62                                      _UEP0 000F6A  
                                    u5981 1190                                      _UEP1 000F6B  
                                    _UEIE 000F66                                      _UEIR 000F67  
                                    _UCON 000F60                                      _TMR1 000FCE  
                                    _TMR2 000FBC                                      _TMR3 000FB2  
                                    _WPUB 000F85                      __end_of_Fila_Agregar 2340  
                         _CDCDataInHandle 00E1    USBStdFeatureReqHandler@current_ep_data 0019  
                                    abs@a 0072                                      _pDst 003A  
                                    _dbuf 017E                   __end_of_CCP2_Initialize 3682  
                                    _flag 012E                                      _brkp 0032  
                                    _free 174A                                      _main 13B4  
                                    _dtoa 08E6                                      _busy 0040  
                ??i2_USBTransferOnePacket 0005                                      _prec 00DB  
                                    _nout 0126                                      pad@i 0074  
                                    pad@p 0071                                      fsr1h 000FE2  
                                    fsr2h 000FDA                                      indf1 000FE7  
                             _BaudRateGen 0116                                      indf2 000FDF  
                                    fsr1l 000FE1                                      pad@w 0076  
                                    fsr2l 000FD9                           _USBDeviceAttach 34D6  
                                    _stoa 1CF8                                      btemp 0056  
                                    prodh 000FF4                                      prodl 000FF3  
                                    start 00A0                           _TMR3_Initialize 3584  
                         __end_of_FilaPop 2248                __end_of_USBCheckStdRequest 26CC  
                  ??_USBCtrlTrfOutHandler 0003                              ___param_bank 000000  
               ??_USBStdFeatureReqHandler 0015                  ??_USBStdGetStatusHandler 0001  
                                   ??_abs 0074                                     ??_pad 0073  
                          ?_USBDeviceInit 0001                   __end_of_TMR0_Initialize 33E4  
          ??_TMR0_DefaultInterruptHandler 0001             __end_of_OSCILLATOR_Initialize 3672  
                             _writeBuffer 0200                           __end_of___aodiv 127E  
                                   ?_free 0060                                     ?_main 0001  
                                   ?_dtoa 007A                           __end_of___aomod 199E  
                                   _EEADR 000FA9                                     STR_12 08B1  
                                   STR_13 08A8                                     STR_14 08CC  
                                   STR_17 08D0                                     STR_18 08C8  
                                   ?_stoa 0068                                     _T0CON 000FD5  
                                   _T1CON 000FCD                    __end_of_USBDeviceTasks 2044  
                                   _T2CON 000FBA                                     _T3CON 000FB1  
               ?_USBCtrlEPServiceComplete 0001                                     i2l221 2586  
                                   i2l147 1F54                                     i2l332 29D8  
                                   i2l157 1FE0                                     i2l159 1FE8  
                                   i2l361 0B4E                                     i2l346 25FE  
                                   i2l355 264A                                     i2l611 0056  
                                   i2l372 0C46                                     i2l284 2AAC  
                                   i2l612 006C                                     i2l613 0062  
                                   i2l287 2B30                                     i2l480 2A30  
                                   i2l288 2ABC                                     i2l608 0046  
                                   i2l289 2AC2                                     i2l297 3290  
                                   i2l482 2A66                                     i2l695 3640  
                                   _UADDR 000F63                              vfpfcnvrt@fmt 009E  
                                   _TMR0H 000FD7                                     _TMR1H 000FCF  
                                   _TMR0L 000FD6                                     _TMR3H 000FB3  
                                   _TMR1L 000FCE                                     _TMR3L 000FB2  
                                   _TRISA 000F92                                     _TRISB 000F93  
                                   _TRISC 000F94                                     _USTAT 000F61  
               ?_TMR0_SetInterruptHandler 0060                 ?_TMR3_SetInterruptHandler 0060  
         __end_of_USBCtrlEPAllowDataStage 2C80                          __end_of_TMR0_ISR 355A  
                                   _sd000 08A4                                     _sd001 0848  
                                   _sd002 087C                          __end_of_TMR2_ISR 35D2  
          ?_USBIncrement1msInternalTimers 0001                          __end_of_TMR3_ISR 347A  
          ??_TMR3_DefaultInterruptHandler 0001                                     _flags 00DD  
                                   _errno 012A                                     _fputc 2D16  
                                   _fputs 337C                                     _pasos 0036  
                                   pad@fp 006E                                     _width 0128  
                                   free@c 0068                                     _putch 36C4  
                                   main@a 01CB                                     dtoa@d 007B  
                                   dtoa@i 009B                                     dtoa@n 0093  
                                   dtoa@p 008D                                     dtoa@s 0091  
                                   dtoa@w 008F                   __end_of_TMR1_Initialize 362E  
                                   pclath 000FFA                                     pclatu 000FFB  
                                   tablat 000FF5                          ___expand_heap@pn 0060  
                                   plusw1 000FE3                                     plusw2 000FDB  
                       __end_of_CDCInitEP 30AA                                     stoa@i 0073  
                                   stoa@l 007B                                     stoa@p 0079  
                                   stoa@s 0069                                     stoa@w 0075  
                                   ttemp5 0057                                     ttemp6 005A  
                                   ttemp7 005E                                     status 000FD8  
                                   wtemp8 0057                           __end_of_sprintf 32D4  
                         __end_of_strncmp 2BE4                          __end_ofi2_memset 174A  
                         main@CommandList 01CD                           __initialization 2FD0  
                            __end_of_free 187A                              __end_of_main 14E6  
                            __end_of_dtoa 0B26                             ___expand_heap 2F4A  
                   _control_signal_bitmap 0041                              __end_of_stoa 1E12  
                 __end_of_TMR2_Initialize 3612               ?_INTERRUPT_InterruptManager 0001  
                                  ??_free 0062                  _TMR2_SetInterruptHandler 3698  
                                  ??_main 00C1                                    ??_dtoa 0083  
                                  ??_stoa 006B                             __activetblptr 000002  
                         ?_USBDeviceTasks 0001                     _TMR3_InterruptHandler 0138  
                         _TMR2_WriteTimer 36AC                               ?_USBSuspend 0001  
                            _cdc_mem_type 0042                        Fila_Agregar@nBytes 0084  
                 __end_of_USBDeviceAttach 3502                                    _ADCON0 000FC2  
                                  _ADCON1 000FC1                                    _ADCON2 000FC0  
                        _CDCDataOutHandle 013C                                    ?_fputc 0060  
                                  _ACTCON 000FB5                                    ?_fputs 0068  
                                  _ADRESH 000FC4                                    _ADRESL 000FC3  
                                  _EEDATA 000FA8                                    _CCPR2H 000F91  
                                  _CCPR2L 000F90                                    _EECON2 000FA7  
                                  _ANSELA 000F5B                                    ?_putch 0001  
                                  _ANSELB 000F5C                                    _ANSELC 000F5D  
                                  _T1GCON 000FCC                                    _T3GCON 000FB4  
                 __end_of_TMR3_Initialize 35AE                                    i2l5110 2598  
                                  i2l5200 262C                                    i2l5202 2632  
                                  i2l5212 265E                                    i2l4502 2E92  
                                  i2l5118 25AC                                    i2l5152 208E  
                                  i2l4512 331E                                    i2l4600 2A70  
                                  i2l5216 267C                                    i2l5146 2070  
                                  i2l5164 20E8                                    i2l4516 332C  
                                  i2l4532 2460                                    i2l4524 243A  
                                  i2l5430 31BC                                    i2l5422 3174  
                                  i2l4630 3118                                    i2l5190 2614  
                                  i2l6150 19D8                                    i2l5168 2102  
                                  i2l4544 24D4                                    i2l4624 310C  
                                  i2l4712 165C                                    i2l6304 201E  
                                  i2l6240 1F66                                    i2l4650 26EC  
                                  i2l4626 3112                                    i2l4802 27DA  
                                  i2l5186 2608                                    i2l5098 2530  
                                  i2l6162 1A02                                    i2l6306 2038  
                                  i2l6226 1F4C                                    i2l6218 1F40  
                                  i2l5444 2958                                    i2l4732 1740  
                                  i2l4724 16F8                                    i2l5188 260E  
                                  i2l6252 1F94                                    i2l4654 26F6  
                                  i2l5446 295C                                    i2l4726 172A  
                                  i2l4718 16C0                                    i2l5198 2626  
                                  i2l5382 3220                                    i2l5390 3240  
                                  i2l5710 336E                                    i2l6270 1FB2  
                                  i2l6246 1F70                                    i2l4664 271C  
                                  i2l4672 2752                                    i2l5464 29BE  
                                  i2l4592 2A4E                                    i2l4584 2A22  
                                  i2l4576 2A0A                                    i2l4832 1290  
                                  i2l4824 2840                                    i2l5712 3370  
                                  i2l6264 1FA8                                    i2l4674 275A  
                                  i2l4682 2790                                    i2l5458 299E  
                                  i2l4930 0BE0                                    i2l4922 0BA8  
                                  i2l4906 0B4A                                    i2l6178 1A32  
                                  i2l4748 28A8                                    i2l4852 137E  
                                  i2l4844 132A                                    i2l4836 12A8  
                                  i2l4854 1386                                    i2l4846 1332  
                                  i2l4782 2C4E                                    i2l6278 1FD6  
                                  i2l4960 0CB8                                    i2l4936 0BFA  
                                  i2l4946 0C34                                    i2l4858 138E  
                                  i2l4874 2AD8                                    i2l4778 2C32  
                                  i2l6298 2006                                    i2l4948 0C60  
                                  i2l4884 2B0C                                    i2l5748 328E  
                                  i2l4974 0D20                                    i2l4958 0CAC  
                                  i2l5766 2D00                                    _TABLAT 000FF5  
                                  i2l4976 0D2C                                    i2l4968 0CE4  
                                  i2l5768 2D06                                    i2l8530 3130  
                                  i2l8532 3160                                    i2l5968 30E2  
                                  _OSCCON 000FD3                                 ??_FilaPop 006E  
                           CDCTxService@i 0069                          ?_CCP2_Initialize 0001  
                i2USBTransferOnePacket@ep 0007                         ??i2_USBDeviceInit 000D  
                         _TMR3_WriteTimer 362E                         _shortPacketStatus 0050  
                         USBDeviceTasks@i 001F                              vfprintf@cfmt 00AF  
             USBStdFeatureReqHandler@pUEP 0017                  USBTransferOnePacket@data 0061  
              USBCtrlTrfInHandler@lastDTS 0002                            ?___expand_heap 0060  
                         ??_USBDeviceInit 006C                   ___simple_search_fl@best 0072  
                 ___simple_search_fl@last 006C                   ___simple_search_fl@next 006E  
                               ??___aodiv 0070                                 ??___aomod 0070  
                       _USBEnableEndpoint 330E                                    _malloc 1E12  
                                  _memcpy 320E                          ?_TMR0_Initialize 0001  
                                  _memset 14E6                                    clear_0 2FF6  
                                  clear_1 3002                                    clear_2 300E  
                                  clear_3 301A                                    clear_4 3026  
                                  clear_5 3032                                    isa$std 000001  
                                  pad@buf 006F                        ?_USBEnableEndpoint 0009  
                                  dtoa@fp 007A                                    _strcpy 33E4  
                                  _strlen 355A                                    fputc@c 0060  
                                  fputs@c 006B                                    fputs@i 006C  
                                  fputs@s 0068                              _CDCTxService 1BDC  
                            __mediumconst 0000                                    tblptrh 000FF7  
                                  tblptrl 000FF6                                    tblptru 000FF8  
                     ??_USBEnableEndpoint 000A                                    stoa@cp 0077  
                                  stoa@fp 0068                                    putch@c 0001  
                        __end_of_vfprintf 320E  TMR0_SetInterruptHandler@InterruptHandler 0060  
TMR2_SetInterruptHandler@InterruptHandler 0060  TMR3_SetInterruptHandler@InterruptHandler 0060  
                               ??_sprintf 00B5                               _CtrlTrfData 000438  
                               ??_strncmp 0064                      _controlTransferState 004F  
                        ?_TMR1_Initialize 0001                         _SYSTEM_Initialize 347A  
                              __accesstop 0060                   __end_of__initialization 3038  
                      ?_SYSTEM_Initialize 0001                         __end_of_Fila_Init 330E  
                           ___rparam_used 000001                                ___freelist 0034  
                          __pcstackCOMRAM 0001                 __end_of_USBEnableEndpoint 3346  
                           __end_of_sd000 08A8                             __end_of_sd001 087C  
                           __end_of_sd002 0892                              __pidataBANK1 3682  
                     ??_SYSTEM_Initialize 006D                                 ?_TMR0_ISR 0001  
                               ?_TMR2_ISR 0001                                 ?_TMR3_ISR 0001  
                 __end_of_TMR2_WriteTimer 36B4                             __end_of_fputc 2DA6  
                           __end_of_fputs 33B0                              ?_MY_TMR2_ISR 0001  
                           __end_of_putch 36C6               __end_of_USBCtrlTrfInHandler 29E4  
                        ?_TMR2_Initialize 0001      _readBuffer@example_mcc_usb_cdc$F2200 013E  
   _writeBuffer@example_mcc_usb_cdc$F2201 0264                              _Fila_Agregar 2248  
                  i2_USBTransferOnePacket 2428                          Fila_Agregar@fila 0080  
                              _cdc_notice 0100                                 ?i2_memset 0001  
                              _cdc_rx_len 0045                                _cdc_tx_len 0043  
                ??_USBCtrlTrfSetupHandler 001E                   _USBTicksSinceSuspendEnd 00E4  
                        ?_USBDeviceAttach 0001                                   ??_fputc 0063  
               __end_of_SYSTEM_Initialize 34A8                                   ??_fputs 006B  
              __end_of___simple_search_fl 0F58                    _USBStdGetStatusHandler 2AA0  
                 __end_of_TMR3_WriteTimer 364A                                   ??_putch 0060  
                              __pbssBANK0 00C1                                __pbssBANK1 0100  
                              __pbssBANK2 0200                                __pbssBANK3 0300  
                              __pbssBANK6 0600                          ?_TMR3_Initialize 0001  
                             _pBDTEntryIn 00CF                           ??___expand_heap 0062  
        __end_of_USBCtrlEPServiceComplete 25EE                      USBCtrlTrfRxService@i 0001  
        __end_of_TMR0_SetInterruptHandler 36AC          __end_of_TMR3_SetInterruptHandler 3698  
                              ??_TMR0_ISR 0001                                ??_TMR2_ISR 0003  
                              ??_TMR3_ISR 0003                       Fila_Agregar@comando 0082  
                                 _CCP2CON 000F97                                   ?_malloc 0074  
                                 ?_memcpy 0001                                   ?_memset 0060  
                              _device_dsc 0892                          _USBCtrlEPService 2C80  
                              _ep_data_in 00D8                                   ?_strcpy 0060  
                                 ?_strlen 0060               __end_of_USBCtrlTrfRxService 214C  
                      _USBCheckStdRequest 25EE                         _configDescriptor1 0805  
                              ??i2_memset 0007               __end_of_USBCtrlTrfTxService 2798  
                     _USBStdSetCfgHandler 2798                                   _OSCCON2 000FD2  
                                 _TBLPTRH 000FF7                                   _TBLPTRL 000FF6  
                                 _TBLPTRU 000FF8                                   _OSCTUNE 000F9B  
                     ?_USBCheckStdRequest 0001                                   _UIEbits 000F64  
                                 _UIRbits 000F65                             _cdc_trf_state 0044  
                                 _FilaPop 214C                                   _pCDCDst 011E  
                                 _pCDCSrc 0121                      _ADC_InterruptHandler 0130  
                                 __Hparam 0000           ??_USBIncrement1msInternalTimers 0001  
                    ?_USBStdSetCfgHandler 0001                                 _CDCInitEP 3046  
                                 __Lparam 0000                ??_TMR2_SetInterruptHandler 0062  
                    ___simple_search_fl@c 0070                      ___simple_search_fl@n 0060  
                              _readBuffer 0300                      ??_USBCheckStdRequest 001C  
                                 ___aodiv 1136                                   ___aomod 187A  
                        i2_TMR2_StopTimer 36C0                          ??_USBDeviceTasks 001F  
                       ??_USBStallHandler 0001                          ?_TMR2_WriteTimer 0001  
                               ?_vfprintf 00AC                              __psmallconst 0800  
                ___simple_search_fl@split 006A                                   __pcinit 2FD0  
               __end_of_configDescriptor1 0848                                   __ramtop 0800  
                                 __ptext0 13B4                                   __ptext1 3294  
                                 __ptext2 31C2                                   __ptext3 0F58  
                                 __ptext4 2B46                                   __ptext5 1CF8  
                                 __ptext6 08E6                                   __ptext7 2EC0  
                                 __ptext8 355A                                   __ptext9 337C  
                            i2memset@dest 0001                                   _inPipes 00C9  
             _USBDeferOUTDataStagePackets 0046                                 _T0CONbits 000FD5  
                   _OSCILLATOR_Initialize 3660                              ??_USBSuspend 0015  
                               _T2CONbits 000FBA                                 _T3CONbits 000FB1  
                ??_PIN_MANAGER_Initialize 0060                           i2_USBDeviceInit 199E  
                        i2USBDeviceInit@i 000D                        __end_of_USB_CD_Ptr 0805  
                                 free@ptr 0060                                   main@buf 01B7  
                                 _sprintf 3294                                   _strncmp 2B46  
                    end_of_initialization 3038                          ?_TMR3_WriteTimer 0001  
                                 malloc@m 0078                                   malloc@n 0074  
                                 malloc@p 007C                        __end_of_USB_SD_Ptr 0804  
                  ___expand_heap@new_brkp 0066                                   memcpy@d 0007  
                                 memcpy@n 0005                             Fila_Init@fila 0060  
                                 memcpy@s 0009                       _pBDTEntryEP0OutNext 003C  
                                 fputc@fp 0062                                   memset@c 0062  
                                 memset@k 0068                                   memset@n 0064  
                                 memset@s 006A                             __Lmediumconst 0000  
                                 fputs@fp 006A                           _USB1msTickCount 011A  
         _dummy_encapsulated_cmd_response 01A8                  ?_USBStdFeatureReqHandler 0001  
                   ??_USBStdSetCfgHandler 0015                                ?_CDCInitEP 0001  
                      __end_of_USBSuspend 34D6                         __end_of_vfpfcnvrt 1136  
                 _USBCtrlEPAllowDataStage 2BE4                                   postdec1 000FE5  
                                 postdec2 000FDD                                   postinc0 000FEE  
                                 postinc1 000FE6                                   postinc2 000FDE  
                              ??_vfprintf 00AF                  _USBCtrlEPServiceComplete 250E  
                                 strcpy@d 0066                                   strlen@a 0062  
                                 strcpy@s 0064                                   strlen@s 0060  
              _USBStatusStageEnabledFlag1 0049                _USBStatusStageEnabledFlag2 0048  
                                 strtok@p 0124                        USBEnableEndpoint@p 000A  
                _TMR0_SetInterruptHandler 36A2                                 _PORTBbits 000F81  
                _TMR3_SetInterruptHandler 368E                        _BothEP0OutUOWNsSet 004C  
               USBConfigureEndpoint@EPNum 0006                ?_USBCtrlEPAllowStatusStage 0001  
     USER_USB_CALLBACK_EVENT_HANDLER@size 0011                                 _USTATcopy 0054  
                 TMR2_WriteTimer@timerVal 0001              __end_of_USBTransferOnePacket 2428  
                               _Fila_Init 32D4                    _USBCtrlTrfSetupHandler 2DA6  
            __end_of_INTERRUPT_Initialize 36C0      __end_of_TMR2_DefaultInterruptHandler 36CA  
            _TMR2_DefaultInterruptHandler 36C8                   ?i2_USBTransferOnePacket 0001  
                   __end_of_USBDeviceInit 1BDC     __end_of_USBIncrement1msInternalTimers 35F4  
           _USBIncrement1msInternalTimers 35D2                               vfpfcnvrt@ap 009F  
                             vfpfcnvrt@cp 00A8                               vfpfcnvrt@fp 009D  
                             vfpfcnvrt@ll 00A0                   __end_ofi2_USBDeviceInit 1ABE  
                          _ADC_Initialize 364A                            __end_of_malloc 1F2C  
                               i2memset@c 0003                                 i2memset@k 0009  
                               i2memset@n 0005                                 i2memset@s 000B  
                          __end_of_memcpy 3252                    ?_OSCILLATOR_Initialize 0001  
                          __end_of_memset 1618                         _USBBusIsSuspended 00E5  
                         ___expand_heap@n 0064                            __end_of_strcpy 3418  
                          __end_of_strlen 3584                       start_initialization 2FD0  
                 ?_USBStdGetStatusHandler 0001             USBCtrlTrfRxService@byteToRead 0002  
                              malloc@lock 010A                               __end_of_abs 344A  
                             __end_of_pad 2F4A                            _TMR2_StopTimer 36B8  
                             _cdc_data_rx 000540                               _cdc_data_tx 000500  
            __end_of_USBConfigureEndpoint 2EC0           __end_of_USBStdFeatureReqHandler 0D50  
       __end_of_USBCtrlEPAllowStatusStage 2924                  __end_of_USBCtrlEPService 2D16  
                          _TMR3_StopTimer 36B4                         Fila_Agregar@nuevo 0088  
               ??_USBCtrlEPAllowDataStage 0002                               ??_CDCInitEP 000D  
                          USBDeviceInit@i 006C                    _pBDTEntryEP0OutCurrent 003E  
                      ___simple_search_fl 0D50                               vfprintf@fmt 00AD  
                 USBTransferOnePacket@dir 0060                   USBTransferOnePacket@len 0063  
          __end_ofi2_USBTransferOnePacket 250E                                ?_Fila_Init 0060  
            ___simple_search_fl@best_last 0068                       _USBStdGetDscHandler 127E  
                             _CCPTMRSbits 000F59                    __end_of_ADC_Initialize 3660  
                             __pdataBANK1 01D3                                  ??_malloc 0076  
                                ??_memcpy 0007                                  ??_memset 0066  
           ?_TMR2_DefaultInterruptHandler 0001                      USBCommandFetch@F5887 01DC  
                     ?___simple_search_fl 0060                                memset@dest 0060  
                                ??_strcpy 0064                                  ??_strlen 0062  
                  _USBActiveConfiguration 0055            __end_of_USBStdGetStatusHandler 2B46  
                               ___heap_hi 0800                                 ___heap_lo 06C8  
                          _pos_absoluta_Z 010E                    __end_of_TMR2_StopTimer 36BC  
                             __pbssCOMRAM 002C                             __pcstackBANK0 0060  
                           __pcstackBANK1 01B7                          ___aodiv@dividend 0060  
                    ?_USBStdGetDscHandler 0001                  __end_ofi2_TMR2_StopTimer 36C4  
                  __end_of_TMR3_StopTimer 36B8                      ??___simple_search_fl 0062  
              __end_of_USBWakeFromSuspend 337C                                  ?_FilaPop 006A  
                         _USBStallHandler 3252                              _pBDTEntryOut 002C  
              __end_of_USBCheckCDCRequest 2AA0                     _TMR0_InterruptHandler 0132  
                  _PIN_MANAGER_Initialize 3502                                 _dtoa$4792 008B  
                   __end_of___expand_heap 2FD0                                 __pintcode 0008  
                                ?___aodiv 0060                                  ?___aomod 0060  
                        ___aodiv@quotient 0072                           ?_ADC_Initialize 0001  
            ??_INTERRUPT_InterruptManager 0020                          ?i2_USBDeviceInit 0001  
                    _USBTransferOnePacket 2340                               __smallconst 0800  
                       ??_CCP2_Initialize 0060                           ?_TMR2_StopTimer 0001  
                               _lastToken 019E              __end_of_USBCtrlTrfOutHandler 31C2  
                   ??_USBStdGetDscHandler 0001                               _ep_data_out 00D5  
                                ?_sprintf 00B0             USBConfigureEndpoint@direction 0001  
                                ?_strncmp 0060                      _INTERRUPT_Initialize 36BC  
                         ?_TMR3_StopTimer 0001                         ??_TMR0_Initialize 0062  
                                _LATBbits 000F8A                ??_USBCtrlEPServiceComplete 0002  
                                _PIE1bits 000F9D                                  _IPR3bits 000FA5  
                                _PIE2bits 000FA0                                  _PIE3bits 000FA3  
                            FilaPop@viejo 0072                                  i2u316_40 0CD2  
              ??_TMR0_SetInterruptHandler 0062                                  i2u270_40 2744  
                                i2u270_47 273A                                  i2u511_48 35BE  
                                i2u272_40 2782                                  i2u272_47 2778  
                                _PIR1bits 000F9E                                  i2u442_40 30B2  
                                i2u442_46 30B4                                  i2u291_40 12F4  
                                _PIR2bits 000FA1                                  i2u291_47 12EA  
                                i2u507_48 3546                                  i2u292_40 1324  
                                i2u292_47 131A                                  _PIR3bits 000FA4  
                                i2u509_48 3466                                  i2u294_40 1372  
                                i2u294_47 1368                ??_TMR3_SetInterruptHandler 0062  
                                i2u490_40 2040                                  _RCONbits 000FD0  
                             ??_Fila_Init 0062                                  _UEP0bits 000F6A  
              _USBDeferINDataStagePackets 0047                                  _TMR0_ISR 352E  
                                _TMR2_ISR 35AE                                  _TMR3_ISR 344A  
                                _UCONbits 000F60                      _USBConfigureEndpoint 2E34  
                               _vfpfcnvrt 0F58                         ??_TMR1_Initialize 0060  
                   ?_USBTransferOnePacket 0060                            _pos_relativa_Z 0112  
                           ?_CDCTxService 0001                              _RemoteWakeup 004E  
          ??_TMR2_DefaultInterruptHandler 0001                                  i2_memset 1618  
               ?_TMR2_SetInterruptHandler 0060                   __end_of_USBStallHandler 3294  
                             _INTCON2bits 000FF1                                 copy_data0 2FE4  
                   ?_INTERRUPT_Initialize 0001               ??_USBCtrlEPAllowStatusStage 0001  
             __end_of_USBStdSetCfgHandler 2860                                 malloc@end 012C  
                               malloc@cur 00DF                                 malloc@new 007E  
                       ??_TMR2_Initialize 0062                        __end_of_device_dsc 08A4  
                              _EECON1bits 000FA6                   ?_USBCtrlTrfSetupHandler 0001  
                 USBStdGetStatusHandler@p 0003                                  __Hrparam 0000  
                               memcpy@tmp 000B                                vfprintf@ap 00AE  
                                __Lrparam 0000                                vfprintf@fp 00AC  
                  USBTransferOnePacket@ep 0066                                  _SetupPkt 000430  
                 ??_OSCILLATOR_Initialize 0060                     ?_USBConfigureEndpoint 0001  
                       ??_USBDeviceAttach 0060                             ??_MY_TMR2_ISR 0002  
                              ?_vfpfcnvrt 009D                             ?_Fila_Agregar 0080  
                         ___aodiv@divisor 0068                         ??_TMR3_Initialize 0062  
                         ___aodiv@counter 0070                               _line_coding 01B0  
                          ??_CDCTxService 0069                              _numBytesRead 00E3  
                              sprintf@fmt 00B2                                  __ptext10 2D16  
                                __ptext11 36C4                                  __ptext20 34D6  
                                __ptext12 3418                                  __ptext21 3584  
                                __ptext13 187A                                  __ptext30 36BC  
                                __ptext22 368E                                  __ptext14 1136  
                                __ptext31 3672                                  __ptext23 35F4  
                                __ptext15 36B4                                  __ptext40 174A  
                                __ptext32 364A                                  __ptext24 3698  
                                __ptext16 36B8                                  __ptext41 1BDC  
                                __ptext33 32D4                                  __ptext25 3612  
                                __ptext17 347A                                  __ptext50 2C80  
                                __ptext42 2340                                  __ptext34 2248  
                                __ptext26 33B0                                  __ptext18 1ABE  
                                __ptext51 320E                                  __ptext35 1E12  
                                __ptext27 36A2                                  __ptext19 14E6  
                                __ptext60 0B26                                  __ptext52 2DA6  
                                __ptext44 1F2C                                  __ptext36 0D50  
                                __ptext28 3502                                  __ptext61 310A  
                                __ptext53 250E                                  __ptext45 199E  
                                __ptext37 2F4A                                  __ptext29 3660  
                                __ptext70 2924                                  __ptext62 29E4  
                                __ptext54 2BE4                                  __ptext46 3346  
                                __ptext38 214C                                  __ptext71 26CC  
                                __ptext63 3046                                  __ptext55 25EE  
                                __ptext47 34A8                                  __ptext39 33E4  
                                __ptext80 352E                                  __ptext72 344A  
                                __ptext64 2428                                  __ptext56 2798  
                                __ptext48 3252                                  __ptext81 36CA  
                                __ptext73 362E                                  __ptext65 330E  
                                __ptext57 1618                                  __ptext49 35D2  
                                __ptext82 0000                                  __ptext74 36C6  
                                __ptext66 2E34                                  __ptext58 2AA0  
                                __ptext75 35AE                                  __ptext67 3166  
                                __ptext59 127E                                  __ptext76 30AA  
                                __ptext68 2044                                  __ptext77 36C8  
                                __ptext69 2860                                  __ptext78 36C0  
                                __ptext79 36AC                                strcpy@dest 0060  
                 TMR3_WriteTimer@timerVal 0001            __end_of_USBCtrlTrfSetupHandler 2E34  
                       ?_USBCtrlEPService 0001      __end_of_TMR0_DefaultInterruptHandler 36CC  
            _TMR0_DefaultInterruptHandler 36CA                        ??_USBCtrlEPService 001E  
                             FilaPop@fila 006C                       _USBCtrlTrfInHandler 2924  
                               stoa@F1150 01D3                                  isa$xinst 000000  
                                _outPipes 00C1                      _USBCtrlTrfOutHandler 3166  
                                int$flags 0056                 _USBCtrlEPAllowStatusStage 2860  
                                _vfprintf 31C2                                  free@cptr 0066  
      __end_of_INTERRUPT_InterruptManager 00A0                _INTERRUPT_InterruptManager 0008  
                          ??_Fila_Agregar 0086                    ??_USBTransferOnePacket 0064  
    __end_of_TMR3_DefaultInterruptHandler 36C8              _TMR3_DefaultInterruptHandler 36C6  
                        ___aomod@dividend 0060                 _USBDeferStatusStagePacket 004A  
                CDCTxService@byte_to_send 006A                                  malloc@sz 007A  
                          _vfpfcnvrt$4821 00AA                                _INTCONbits 000FF2  
                     __end_of_MY_TMR2_ISR 310A                      ?_USBCtrlTrfInHandler 0001  
                                memcpy@d1 0001                                  memcpy@s1 0003  
       ___simple_search_fl@remaining_size 0066             USBCtrlTrfTxService@byteToSend 0001  
                  ??_INTERRUPT_Initialize 0060                          ?_USBStallHandler 0001  
                USBStdFeatureReqHandler@p 001A                         ?i2_TMR2_StopTimer 0001  
                                intlevel2 0000                                 sprintf@ap 00B5  
                       ??_TMR2_WriteTimer 0001   __end_of_USER_USB_CALLBACK_EVENT_HANDLER 3166  
       ??_USER_USB_CALLBACK_EVENT_HANDLER 0013          ?_USER_USB_CALLBACK_EVENT_HANDLER 000D  
         _USER_USB_CALLBACK_EVENT_HANDLER 310A                        ??i2_TMR2_StopTimer 0001  
            i2USBTransferOnePacket@handle 0008                   ?_PIN_MANAGER_Initialize 0001  
                               strcpy@src 0062                                 strncmp@_l 0060  
                               strncmp@_r 0061                          ??_ADC_Initialize 0060  
                              FilaPop@str 006A             ?_TMR0_DefaultInterruptHandler 0001  
              i2USBTransferOnePacket@data 0002                           _CCP2_Initialize 3672  
                  ??_USBConfigureEndpoint 0002                     ?_USBCtrlTrfOutHandler 0001  
                     _USBCtrlTrfRxService 2044                        _USBWakeFromSuspend 3346  
                         ___aomod@divisor 0068                   _USBStdFeatureReqHandler 0B26  
                             ??_vfpfcnvrt 00A0                          ??_TMR2_StopTimer 0060  
                                stoa@nuls 006C                           ___aomod@counter 0070  
                       ??_TMR3_WriteTimer 0003                        _USBCheckCDCRequest 29E4  
                     _USBCtrlTrfTxService 26CC                             getTokens@F334 01DA  
                                sprintf@f 00B6                                  sprintf@s 00B0  
           ?_TMR3_DefaultInterruptHandler 0001                       ?_USBWakeFromSuspend 0001  
                         _TMR0_Initialize 33B0                     ??_USBCtrlTrfInHandler 0002  
                   _USBAlternateInterface 0052                          ??_TMR3_StopTimer 0060  
                                strncmp@l 0065                                  strncmp@n 0062  
                                strncmp@r 0066                       ?_USBCheckCDCRequest 0001  
               i2USBTransferOnePacket@dir 0001                 i2USBTransferOnePacket@len 0004  
                     USBEnableEndpoint@ep 000C                           _endpoint_number 004D  
                    ?_USBCtrlTrfRxService 0001                              ___aodiv@sign 0071  
          __end_of_PIN_MANAGER_Initialize 352E                  ?_USBCtrlEPAllowDataStage 0001  
                    ?_USBCtrlTrfTxService 0001              _USBStatusStageTimeoutCounter 004B  
                   _TMR2_InterruptHandler 0136                      ??_USBWakeFromSuspend 0015  
              USBTransferOnePacket@handle 0067                      __end_of_CDCTxService 1CF8  
                            ___aomod@sign 0071                           _TMR1_Initialize 3612  
                    ??_USBCheckCDCRequest 0001                                _USB_CD_Ptr 0804  
